Archive member included to satisfy reference by file (symbol)

C:/Users/RNG/Desktop/Stuff/Smash-Stuff/SMASH-ULTIMATE-MODS-BABY/50xx-the-mod/acmd-edits/code-mod-framework/lib/libnx_min/nx/lib\libnx_min.a(switch_crt0.o)
                              (_start)
C:/Users/RNG/Desktop/Stuff/Smash-Stuff/SMASH-ULTIMATE-MODS-BABY/50xx-the-mod/acmd-edits/code-mod-framework/lib/libnx_min/nx/lib\libnx_min.a(exception.o)
                              C:/Users/RNG/Desktop/Stuff/Smash-Stuff/SMASH-ULTIMATE-MODS-BABY/50xx-the-mod/acmd-edits/code-mod-framework/lib/libnx_min/nx/lib\libnx_min.a(switch_crt0.o) (__libnx_exception_entry)
C:/Users/RNG/Desktop/Stuff/Smash-Stuff/SMASH-ULTIMATE-MODS-BABY/50xx-the-mod/acmd-edits/code-mod-framework/lib/libnx_min/nx/lib\libnx_min.a(argv.o)
                              C:/Users/RNG/Desktop/Stuff/Smash-Stuff/SMASH-ULTIMATE-MODS-BABY/50xx-the-mod/acmd-edits/code-mod-framework/lib/libnx_min/nx/lib\libnx_min.a(switch_crt0.o) (__system_argv)
C:/Users/RNG/Desktop/Stuff/Smash-Stuff/SMASH-ULTIMATE-MODS-BABY/50xx-the-mod/acmd-edits/code-mod-framework/lib/libnx_min/nx/lib\libnx_min.a(env.o)
                              C:/Users/RNG/Desktop/Stuff/Smash-Stuff/SMASH-ULTIMATE-MODS-BABY/50xx-the-mod/acmd-edits/code-mod-framework/lib/libnx_min/nx/lib\libnx_min.a(argv.o) (envIsNso)
C:/Users/RNG/Desktop/Stuff/Smash-Stuff/SMASH-ULTIMATE-MODS-BABY/50xx-the-mod/acmd-edits/code-mod-framework/lib/libnx_min/nx/lib\libnx_min.a(init.o)
                              C:/Users/RNG/Desktop/Stuff/Smash-Stuff/SMASH-ULTIMATE-MODS-BABY/50xx-the-mod/acmd-edits/code-mod-framework/lib/libnx_min/nx/lib\libnx_min.a(exception.o) (__nx_exceptiondump)
C:/Users/RNG/Desktop/Stuff/Smash-Stuff/SMASH-ULTIMATE-MODS-BABY/50xx-the-mod/acmd-edits/code-mod-framework/lib/libnx_min/nx/lib\libnx_min.a(hosversion.o)
                              C:/Users/RNG/Desktop/Stuff/Smash-Stuff/SMASH-ULTIMATE-MODS-BABY/50xx-the-mod/acmd-edits/code-mod-framework/lib/libnx_min/nx/lib\libnx_min.a(init.o) (hosversionSet)
C:/Users/RNG/Desktop/Stuff/Smash-Stuff/SMASH-ULTIMATE-MODS-BABY/50xx-the-mod/acmd-edits/code-mod-framework/lib/libnx_min/nx/lib\libnx_min.a(dynamic.o)
                              C:/Users/RNG/Desktop/Stuff/Smash-Stuff/SMASH-ULTIMATE-MODS-BABY/50xx-the-mod/acmd-edits/code-mod-framework/lib/libnx_min/nx/lib\libnx_min.a(switch_crt0.o) (__nx_dynamic)
C:/Users/RNG/Desktop/Stuff/Smash-Stuff/SMASH-ULTIMATE-MODS-BABY/50xx-the-mod/acmd-edits/code-mod-framework/lib/libnx_min/nx/lib\libnx_min.a(fs_dev.o)
                              C:/Users/RNG/Desktop/Stuff/Smash-Stuff/SMASH-ULTIMATE-MODS-BABY/50xx-the-mod/acmd-edits/code-mod-framework/lib/libnx_min/nx/lib\libnx_min.a(init.o) (fsdevMountSdmc)
C:/Users/RNG/Desktop/Stuff/Smash-Stuff/SMASH-ULTIMATE-MODS-BABY/50xx-the-mod/acmd-edits/code-mod-framework/lib/libnx_min/nx/lib\libnx_min.a(decode_utf8.o)
                              C:/Users/RNG/Desktop/Stuff/Smash-Stuff/SMASH-ULTIMATE-MODS-BABY/50xx-the-mod/acmd-edits/code-mod-framework/lib/libnx_min/nx/lib\libnx_min.a(fs_dev.o) (decode_utf8)
C:/Users/RNG/Desktop/Stuff/Smash-Stuff/SMASH-ULTIMATE-MODS-BABY/50xx-the-mod/acmd-edits/code-mod-framework/lib/libnx_min/nx/lib\libnx_min.a(svc.o)
                              C:/Users/RNG/Desktop/Stuff/Smash-Stuff/SMASH-ULTIMATE-MODS-BABY/50xx-the-mod/acmd-edits/code-mod-framework/lib/libnx_min/nx/lib\libnx_min.a(init.o) (svcSetHeapSize)
C:/Users/RNG/Desktop/Stuff/Smash-Stuff/SMASH-ULTIMATE-MODS-BABY/50xx-the-mod/acmd-edits/code-mod-framework/lib/libnx_min/nx/lib\libnx_min.a(readtp.o)
                              C:/Users/RNG/Desktop/Stuff/Smash-Stuff/SMASH-ULTIMATE-MODS-BABY/50xx-the-mod/acmd-edits/code-mod-framework/lib/libnx_min/nx/lib\libnx_min.a(fs_dev.o) (__aarch64_read_tp)
C:/Users/RNG/Desktop/Stuff/Smash-Stuff/SMASH-ULTIMATE-MODS-BABY/50xx-the-mod/acmd-edits/code-mod-framework/lib/libnx_min/nx/lib\libnx_min.a(virtmem.o)
                              C:/Users/RNG/Desktop/Stuff/Smash-Stuff/SMASH-ULTIMATE-MODS-BABY/50xx-the-mod/acmd-edits/code-mod-framework/lib/libnx_min/nx/lib\libnx_min.a(init.o) (virtmemSetup)
C:/Users/RNG/Desktop/Stuff/Smash-Stuff/SMASH-ULTIMATE-MODS-BABY/50xx-the-mod/acmd-edits/code-mod-framework/lib/libnx_min/nx/lib\libnx_min.a(mutex.o)
                              C:/Users/RNG/Desktop/Stuff/Smash-Stuff/SMASH-ULTIMATE-MODS-BABY/50xx-the-mod/acmd-edits/code-mod-framework/lib/libnx_min/nx/lib\libnx_min.a(virtmem.o) (mutexLock)
C:/Users/RNG/Desktop/Stuff/Smash-Stuff/SMASH-ULTIMATE-MODS-BABY/50xx-the-mod/acmd-edits/code-mod-framework/lib/libnx_min/nx/lib\libnx_min.a(fs.o)
                              C:/Users/RNG/Desktop/Stuff/Smash-Stuff/SMASH-ULTIMATE-MODS-BABY/50xx-the-mod/acmd-edits/code-mod-framework/lib/libnx_min/nx/lib\libnx_min.a(init.o) (fsInitialize)
C:/Users/RNG/Desktop/Stuff/Smash-Stuff/SMASH-ULTIMATE-MODS-BABY/50xx-the-mod/acmd-edits/code-mod-framework/lib/libnx_min/nx/lib\libnx_min.a(set.o)
                              C:/Users/RNG/Desktop/Stuff/Smash-Stuff/SMASH-ULTIMATE-MODS-BABY/50xx-the-mod/acmd-edits/code-mod-framework/lib/libnx_min/nx/lib\libnx_min.a(init.o) (setsysInitialize)
C:/Users/RNG/Desktop/Stuff/Smash-Stuff/SMASH-ULTIMATE-MODS-BABY/50xx-the-mod/acmd-edits/code-mod-framework/lib/libnx_min/nx/lib\libnx_min.a(fatal.o)
                              C:/Users/RNG/Desktop/Stuff/Smash-Stuff/SMASH-ULTIMATE-MODS-BABY/50xx-the-mod/acmd-edits/code-mod-framework/lib/libnx_min/nx/lib\libnx_min.a(env.o) (fatalSimple)
C:/Users/RNG/Desktop/Stuff/Smash-Stuff/SMASH-ULTIMATE-MODS-BABY/50xx-the-mod/acmd-edits/code-mod-framework/lib/libnx_min/nx/lib\libnx_min.a(sm.o)
                              C:/Users/RNG/Desktop/Stuff/Smash-Stuff/SMASH-ULTIMATE-MODS-BABY/50xx-the-mod/acmd-edits/code-mod-framework/lib/libnx_min/nx/lib\libnx_min.a(env.o) (smAddOverrideHandle)
C:/Users/RNG/Desktop/Stuff/Smash-Stuff/SMASH-ULTIMATE-MODS-BABY/50xx-the-mod/acmd-edits/code-mod-framework/lib/libnx_min/nx/lib\libnx_min.a(hid.o)
                              C:/Users/RNG/Desktop/Stuff/Smash-Stuff/SMASH-ULTIMATE-MODS-BABY/50xx-the-mod/acmd-edits/code-mod-framework/lib/libnx_min/nx/lib\libnx_min.a(init.o) (hidExit)
C:/Users/RNG/Desktop/Stuff/Smash-Stuff/SMASH-ULTIMATE-MODS-BABY/50xx-the-mod/acmd-edits/code-mod-framework/lib/libnx_min/nx/lib\libnx_min.a(time.o)
                              C:/Users/RNG/Desktop/Stuff/Smash-Stuff/SMASH-ULTIMATE-MODS-BABY/50xx-the-mod/acmd-edits/code-mod-framework/lib/libnx_min/nx/lib\libnx_min.a(init.o) (timeExit)
C:/Users/RNG/Desktop/Stuff/Smash-Stuff/SMASH-ULTIMATE-MODS-BABY/50xx-the-mod/acmd-edits/code-mod-framework/lib/libnx_min/nx/lib\libnx_min.a(applet.o)
                              C:/Users/RNG/Desktop/Stuff/Smash-Stuff/SMASH-ULTIMATE-MODS-BABY/50xx-the-mod/acmd-edits/code-mod-framework/lib/libnx_min/nx/lib\libnx_min.a(hid.o) (appletGetAppletResourceUserId)
C:/Users/RNG/Desktop/Stuff/Smash-Stuff/SMASH-ULTIMATE-MODS-BABY/50xx-the-mod/acmd-edits/code-mod-framework/lib/libnx_min/nx/lib\libnx_min.a(newlib.o)
                              C:/Users/RNG/Desktop/Stuff/Smash-Stuff/SMASH-ULTIMATE-MODS-BABY/50xx-the-mod/acmd-edits/code-mod-framework/lib/libnx_min/nx/lib\libnx_min.a(init.o) (__libnx_init_time)
C:/Users/RNG/Desktop/Stuff/Smash-Stuff/SMASH-ULTIMATE-MODS-BABY/50xx-the-mod/acmd-edits/code-mod-framework/lib/libnx_min/nx/lib\libnx_min.a(thread.o)
                              C:/Users/RNG/Desktop/Stuff/Smash-Stuff/SMASH-ULTIMATE-MODS-BABY/50xx-the-mod/acmd-edits/code-mod-framework/lib/libnx_min/nx/lib\libnx_min.a(newlib.o) (threadCreate)
C:/Users/RNG/Desktop/Stuff/Smash-Stuff/SMASH-ULTIMATE-MODS-BABY/50xx-the-mod/acmd-edits/code-mod-framework/lib/libnx_min/nx/lib\libnx_min.a(condvar.o)
                              C:/Users/RNG/Desktop/Stuff/Smash-Stuff/SMASH-ULTIMATE-MODS-BABY/50xx-the-mod/acmd-edits/code-mod-framework/lib/libnx_min/nx/lib\libnx_min.a(newlib.o) (condvarWaitTimeout)
C:/Users/RNG/Desktop/Stuff/Smash-Stuff/SMASH-ULTIMATE-MODS-BABY/50xx-the-mod/acmd-edits/code-mod-framework/lib/libnx_min/nx/lib\libnx_min.a(event.o)
                              C:/Users/RNG/Desktop/Stuff/Smash-Stuff/SMASH-ULTIMATE-MODS-BABY/50xx-the-mod/acmd-edits/code-mod-framework/lib/libnx_min/nx/lib\libnx_min.a(set.o) (eventLoadRemote)
C:/Users/RNG/Desktop/Stuff/Smash-Stuff/SMASH-ULTIMATE-MODS-BABY/50xx-the-mod/acmd-edits/code-mod-framework/lib/libnx_min/nx/lib\libnx_min.a(tmem.o)
                              C:/Users/RNG/Desktop/Stuff/Smash-Stuff/SMASH-ULTIMATE-MODS-BABY/50xx-the-mod/acmd-edits/code-mod-framework/lib/libnx_min/nx/lib\libnx_min.a(applet.o) (tmemCreate)
C:/Users/RNG/Desktop/Stuff/Smash-Stuff/SMASH-ULTIMATE-MODS-BABY/50xx-the-mod/acmd-edits/code-mod-framework/lib/libnx_min/nx/lib\libnx_min.a(rwlock.o)
                              C:/Users/RNG/Desktop/Stuff/Smash-Stuff/SMASH-ULTIMATE-MODS-BABY/50xx-the-mod/acmd-edits/code-mod-framework/lib/libnx_min/nx/lib\libnx_min.a(hid.o) (rwlockReadLock)
C:/Users/RNG/Desktop/Stuff/Smash-Stuff/SMASH-ULTIMATE-MODS-BABY/50xx-the-mod/acmd-edits/code-mod-framework/lib/libnx_min/nx/lib\libnx_min.a(wait.o)
                              C:/Users/RNG/Desktop/Stuff/Smash-Stuff/SMASH-ULTIMATE-MODS-BABY/50xx-the-mod/acmd-edits/code-mod-framework/lib/libnx_min/nx/lib\libnx_min.a(applet.o) (waitObjects)
C:/Users/RNG/Desktop/Stuff/Smash-Stuff/SMASH-ULTIMATE-MODS-BABY/50xx-the-mod/acmd-edits/code-mod-framework/lib/libnx_min/nx/lib\libnx_min.a(shmem.o)
                              C:/Users/RNG/Desktop/Stuff/Smash-Stuff/SMASH-ULTIMATE-MODS-BABY/50xx-the-mod/acmd-edits/code-mod-framework/lib/libnx_min/nx/lib\libnx_min.a(hid.o) (shmemLoadRemote)
C:/Users/RNG/Desktop/Stuff/Smash-Stuff/SMASH-ULTIMATE-MODS-BABY/50xx-the-mod/acmd-edits/code-mod-framework/lib/libnx_min/nx/lib\libnx_min.a(detect.o)
                              C:/Users/RNG/Desktop/Stuff/Smash-Stuff/SMASH-ULTIMATE-MODS-BABY/50xx-the-mod/acmd-edits/code-mod-framework/lib/libnx_min/nx/lib\libnx_min.a(fatal.o) (detectKernelVersion)
C:/Users/RNG/Desktop/Stuff/Smash-Stuff/SMASH-ULTIMATE-MODS-BABY/50xx-the-mod/acmd-edits/code-mod-framework/lib/libnx_min/nx/lib\libnx_min.a(apm.o)
                              C:/Users/RNG/Desktop/Stuff/Smash-Stuff/SMASH-ULTIMATE-MODS-BABY/50xx-the-mod/acmd-edits/code-mod-framework/lib/libnx_min/nx/lib\libnx_min.a(applet.o) (apmExit)
c:/devkitpro/devkita64/bin/../lib/gcc/aarch64-none-elf/8.3.0/../../../../aarch64-none-elf/lib/pic\libg.a(lib_a-bsearch.o)
                              C:/Users/RNG/Desktop/Stuff/Smash-Stuff/SMASH-ULTIMATE-MODS-BABY/50xx-the-mod/acmd-edits/code-mod-framework/lib/libnx_min/nx/lib\libnx_min.a(fs_dev.o) (bsearch)
c:/devkitpro/devkita64/bin/../lib/gcc/aarch64-none-elf/8.3.0/../../../../aarch64-none-elf/lib/pic\libg.a(lib_a-ctype_.o)
                              C:/Users/RNG/Desktop/Stuff/Smash-Stuff/SMASH-ULTIMATE-MODS-BABY/50xx-the-mod/acmd-edits/code-mod-framework/lib/libnx_min/nx/lib\libnx_min.a(argv.o) (_ctype_)
c:/devkitpro/devkita64/bin/../lib/gcc/aarch64-none-elf/8.3.0/../../../../aarch64-none-elf/lib/pic\libg.a(lib_a-errno.o)
                              C:/Users/RNG/Desktop/Stuff/Smash-Stuff/SMASH-ULTIMATE-MODS-BABY/50xx-the-mod/acmd-edits/code-mod-framework/lib/libnx_min/nx/lib\libnx_min.a(fs_dev.o) (__errno)
c:/devkitpro/devkita64/bin/../lib/gcc/aarch64-none-elf/8.3.0/../../../../aarch64-none-elf/lib/pic\libg.a(lib_a-exit.o)
                              C:/Users/RNG/Desktop/Stuff/Smash-Stuff/SMASH-ULTIMATE-MODS-BABY/50xx-the-mod/acmd-edits/code-mod-framework/lib/libnx_min/nx/lib\libnx_min.a(switch_crt0.o) (exit)
c:/devkitpro/devkita64/bin/../lib/gcc/aarch64-none-elf/8.3.0/../../../../aarch64-none-elf/lib/pic\libg.a(lib_a-fini.o)
                              main.o (__libc_fini_array)
c:/devkitpro/devkita64/bin/../lib/gcc/aarch64-none-elf/8.3.0/../../../../aarch64-none-elf/lib/pic\libg.a(lib_a-impure.o)
                              c:/devkitpro/devkita64/bin/../lib/gcc/aarch64-none-elf/8.3.0/../../../../aarch64-none-elf/lib/pic\libg.a(lib_a-exit.o) (_global_impure_ptr)
c:/devkitpro/devkita64/bin/../lib/gcc/aarch64-none-elf/8.3.0/../../../../aarch64-none-elf/lib/pic\libg.a(lib_a-init.o)
                              main.o (__libc_init_array)
c:/devkitpro/devkita64/bin/../lib/gcc/aarch64-none-elf/8.3.0/../../../../aarch64-none-elf/lib/pic\libg.a(lib_a-malign.o)
                              C:/Users/RNG/Desktop/Stuff/Smash-Stuff/SMASH-ULTIMATE-MODS-BABY/50xx-the-mod/acmd-edits/code-mod-framework/lib/libnx_min/nx/lib\libnx_min.a(hid.o) (memalign)
c:/devkitpro/devkita64/bin/../lib/gcc/aarch64-none-elf/8.3.0/../../../../aarch64-none-elf/lib/pic\libg.a(lib_a-malignr.o)
                              c:/devkitpro/devkita64/bin/../lib/gcc/aarch64-none-elf/8.3.0/../../../../aarch64-none-elf/lib/pic\libg.a(lib_a-malign.o) (_memalign_r)
c:/devkitpro/devkita64/bin/../lib/gcc/aarch64-none-elf/8.3.0/../../../../aarch64-none-elf/lib/pic\libg.a(lib_a-malloc.o)
                              C:/Users/RNG/Desktop/Stuff/Smash-Stuff/SMASH-ULTIMATE-MODS-BABY/50xx-the-mod/acmd-edits/code-mod-framework/lib/libnx_min/nx/lib\libnx_min.a(newlib.o) (malloc)
c:/devkitpro/devkita64/bin/../lib/gcc/aarch64-none-elf/8.3.0/../../../../aarch64-none-elf/lib/pic\libg.a(lib_a-mallocr.o)
                              c:/devkitpro/devkita64/bin/../lib/gcc/aarch64-none-elf/8.3.0/../../../../aarch64-none-elf/lib/pic\libg.a(lib_a-malignr.o) (_malloc_r)
c:/devkitpro/devkita64/bin/../lib/gcc/aarch64-none-elf/8.3.0/../../../../aarch64-none-elf/lib/pic\libg.a(lib_a-memcpy.o)
                              C:/Users/RNG/Desktop/Stuff/Smash-Stuff/SMASH-ULTIMATE-MODS-BABY/50xx-the-mod/acmd-edits/code-mod-framework/lib/libnx_min/nx/lib\libnx_min.a(fs_dev.o) (memcpy)
c:/devkitpro/devkita64/bin/../lib/gcc/aarch64-none-elf/8.3.0/../../../../aarch64-none-elf/lib/pic\libg.a(lib_a-memset.o)
                              C:/Users/RNG/Desktop/Stuff/Smash-Stuff/SMASH-ULTIMATE-MODS-BABY/50xx-the-mod/acmd-edits/code-mod-framework/lib/libnx_min/nx/lib\libnx_min.a(argv.o) (memset)
c:/devkitpro/devkita64/bin/../lib/gcc/aarch64-none-elf/8.3.0/../../../../aarch64-none-elf/lib/pic\libg.a(lib_a-mlock.o)
                              c:/devkitpro/devkita64/bin/../lib/gcc/aarch64-none-elf/8.3.0/../../../../aarch64-none-elf/lib/pic\libg.a(lib_a-malignr.o) (__malloc_lock)
c:/devkitpro/devkita64/bin/../lib/gcc/aarch64-none-elf/8.3.0/../../../../aarch64-none-elf/lib/pic\libg.a(lib_a-setenv.o)
                              C:/Users/RNG/Desktop/Stuff/Smash-Stuff/SMASH-ULTIMATE-MODS-BABY/50xx-the-mod/acmd-edits/code-mod-framework/lib/libnx_min/nx/lib\libnx_min.a(newlib.o) (setenv)
c:/devkitpro/devkita64/bin/../lib/gcc/aarch64-none-elf/8.3.0/../../../../aarch64-none-elf/lib/pic\libg.a(lib_a-setenv_r.o)
                              c:/devkitpro/devkita64/bin/../lib/gcc/aarch64-none-elf/8.3.0/../../../../aarch64-none-elf/lib/pic\libg.a(lib_a-setenv.o) (_setenv_r)
c:/devkitpro/devkita64/bin/../lib/gcc/aarch64-none-elf/8.3.0/../../../../aarch64-none-elf/lib/pic\libg.a(lib_a-strchr.o)
                              raygun_printer.o (strchr)
c:/devkitpro/devkita64/bin/../lib/gcc/aarch64-none-elf/8.3.0/../../../../aarch64-none-elf/lib/pic\libg.a(lib_a-strcmp.o)
                              saltysd_helper.o (strcmp)
c:/devkitpro/devkita64/bin/../lib/gcc/aarch64-none-elf/8.3.0/../../../../aarch64-none-elf/lib/pic\libg.a(lib_a-strcpy.o)
                              C:/Users/RNG/Desktop/Stuff/Smash-Stuff/SMASH-ULTIMATE-MODS-BABY/50xx-the-mod/acmd-edits/code-mod-framework/lib/libnx_min/nx/lib\libnx_min.a(env.o) (strcpy)
c:/devkitpro/devkita64/bin/../lib/gcc/aarch64-none-elf/8.3.0/../../../../aarch64-none-elf/lib/pic\libg.a(lib_a-strlen.o)
                              main.o (strlen)
c:/devkitpro/devkita64/bin/../lib/gcc/aarch64-none-elf/8.3.0/../../../../aarch64-none-elf/lib/pic\libg.a(lib_a-strncat.o)
                              C:/Users/RNG/Desktop/Stuff/Smash-Stuff/SMASH-ULTIMATE-MODS-BABY/50xx-the-mod/acmd-edits/code-mod-framework/lib/libnx_min/nx/lib\libnx_min.a(fs_dev.o) (strncat)
c:/devkitpro/devkita64/bin/../lib/gcc/aarch64-none-elf/8.3.0/../../../../aarch64-none-elf/lib/pic\libg.a(lib_a-strncmp.o)
                              saltysd_helper.o (strncmp)
c:/devkitpro/devkita64/bin/../lib/gcc/aarch64-none-elf/8.3.0/../../../../aarch64-none-elf/lib/pic\libg.a(lib_a-strncpy.o)
                              C:/Users/RNG/Desktop/Stuff/Smash-Stuff/SMASH-ULTIMATE-MODS-BABY/50xx-the-mod/acmd-edits/code-mod-framework/lib/libnx_min/nx/lib\libnx_min.a(argv.o) (strncpy)
c:/devkitpro/devkita64/bin/../lib/gcc/aarch64-none-elf/8.3.0/../../../../aarch64-none-elf/lib/pic\libg.a(lib_a-strnlen.o)
                              C:/Users/RNG/Desktop/Stuff/Smash-Stuff/SMASH-ULTIMATE-MODS-BABY/50xx-the-mod/acmd-edits/code-mod-framework/lib/libnx_min/nx/lib\libnx_min.a(fs_dev.o) (strnlen)
c:/devkitpro/devkita64/bin/../lib/gcc/aarch64-none-elf/8.3.0/../../../../aarch64-none-elf/lib/pic\libg.a(lib_a-toupper.o)
                              raygun_printer.o (toupper)
c:/devkitpro/devkita64/bin/../lib/gcc/aarch64-none-elf/8.3.0/../../../../aarch64-none-elf/lib/pic\libg.a(lib_a-vsnprintf.o)
                              raygun_printer.o (vsnprintf)
c:/devkitpro/devkita64/bin/../lib/gcc/aarch64-none-elf/8.3.0/../../../../aarch64-none-elf/lib/pic\libg.a(lib_a-__call_atexit.o)
                              c:/devkitpro/devkita64/bin/../lib/gcc/aarch64-none-elf/8.3.0/../../../../aarch64-none-elf/lib/pic\libg.a(lib_a-exit.o) (__call_exitprocs)
c:/devkitpro/devkita64/bin/../lib/gcc/aarch64-none-elf/8.3.0/../../../../aarch64-none-elf/lib/pic\libg.a(lib_a-environ.o)
                              c:/devkitpro/devkita64/bin/../lib/gcc/aarch64-none-elf/8.3.0/../../../../aarch64-none-elf/lib/pic\libg.a(lib_a-setenv_r.o) (environ)
c:/devkitpro/devkita64/bin/../lib/gcc/aarch64-none-elf/8.3.0/../../../../aarch64-none-elf/lib/pic\libg.a(lib_a-envlock.o)
                              c:/devkitpro/devkita64/bin/../lib/gcc/aarch64-none-elf/8.3.0/../../../../aarch64-none-elf/lib/pic\libg.a(lib_a-setenv_r.o) (__env_lock)
c:/devkitpro/devkita64/bin/../lib/gcc/aarch64-none-elf/8.3.0/../../../../aarch64-none-elf/lib/pic\libg.a(lib_a-freer.o)
                              c:/devkitpro/devkita64/bin/../lib/gcc/aarch64-none-elf/8.3.0/../../../../aarch64-none-elf/lib/pic\libg.a(lib_a-malignr.o) (_free_r)
c:/devkitpro/devkita64/bin/../lib/gcc/aarch64-none-elf/8.3.0/../../../../aarch64-none-elf/lib/pic\libg.a(lib_a-getenv_r.o)
                              c:/devkitpro/devkita64/bin/../lib/gcc/aarch64-none-elf/8.3.0/../../../../aarch64-none-elf/lib/pic\libg.a(lib_a-setenv_r.o) (_findenv_r)
c:/devkitpro/devkita64/bin/../lib/gcc/aarch64-none-elf/8.3.0/../../../../aarch64-none-elf/lib/pic\libg.a(lib_a-reallocr.o)
                              c:/devkitpro/devkita64/bin/../lib/gcc/aarch64-none-elf/8.3.0/../../../../aarch64-none-elf/lib/pic\libg.a(lib_a-setenv_r.o) (_realloc_r)
c:/devkitpro/devkita64/bin/../lib/gcc/aarch64-none-elf/8.3.0/../../../../aarch64-none-elf/lib/pic\libg.a(lib_a-svfprintf.o)
                              c:/devkitpro/devkita64/bin/../lib/gcc/aarch64-none-elf/8.3.0/../../../../aarch64-none-elf/lib/pic\libg.a(lib_a-vsnprintf.o) (_svfprintf_r)
c:/devkitpro/devkita64/bin/../lib/gcc/aarch64-none-elf/8.3.0/../../../../aarch64-none-elf/lib/pic\libg.a(lib_a-wcrtomb.o)
                              c:/devkitpro/devkita64/bin/../lib/gcc/aarch64-none-elf/8.3.0/../../../../aarch64-none-elf/lib/pic\libg.a(lib_a-svfprintf.o) (_wcrtomb_r)
c:/devkitpro/devkita64/bin/../lib/gcc/aarch64-none-elf/8.3.0/../../../../aarch64-none-elf/lib/pic\libg.a(lib_a-wcsrtombs.o)
                              c:/devkitpro/devkita64/bin/../lib/gcc/aarch64-none-elf/8.3.0/../../../../aarch64-none-elf/lib/pic\libg.a(lib_a-svfprintf.o) (_wcsrtombs_r)
c:/devkitpro/devkita64/bin/../lib/gcc/aarch64-none-elf/8.3.0/../../../../aarch64-none-elf/lib/pic\libg.a(lib_a-dtoa.o)
                              c:/devkitpro/devkita64/bin/../lib/gcc/aarch64-none-elf/8.3.0/../../../../aarch64-none-elf/lib/pic\libg.a(lib_a-svfprintf.o) (_dtoa_r)
c:/devkitpro/devkita64/bin/../lib/gcc/aarch64-none-elf/8.3.0/../../../../aarch64-none-elf/lib/pic\libg.a(lib_a-localeconv.o)
                              c:/devkitpro/devkita64/bin/../lib/gcc/aarch64-none-elf/8.3.0/../../../../aarch64-none-elf/lib/pic\libg.a(lib_a-svfprintf.o) (_localeconv_r)
c:/devkitpro/devkita64/bin/../lib/gcc/aarch64-none-elf/8.3.0/../../../../aarch64-none-elf/lib/pic\libg.a(lib_a-locale.o)
                              c:/devkitpro/devkita64/bin/../lib/gcc/aarch64-none-elf/8.3.0/../../../../aarch64-none-elf/lib/pic\libg.a(lib_a-svfprintf.o) (__global_locale)
c:/devkitpro/devkita64/bin/../lib/gcc/aarch64-none-elf/8.3.0/../../../../aarch64-none-elf/lib/pic\libg.a(lib_a-mbtowc_r.o)
                              c:/devkitpro/devkita64/bin/../lib/gcc/aarch64-none-elf/8.3.0/../../../../aarch64-none-elf/lib/pic\libg.a(lib_a-locale.o) (__ascii_mbtowc)
c:/devkitpro/devkita64/bin/../lib/gcc/aarch64-none-elf/8.3.0/../../../../aarch64-none-elf/lib/pic\libg.a(lib_a-memchr.o)
                              c:/devkitpro/devkita64/bin/../lib/gcc/aarch64-none-elf/8.3.0/../../../../aarch64-none-elf/lib/pic\libg.a(lib_a-svfprintf.o) (memchr)
c:/devkitpro/devkita64/bin/../lib/gcc/aarch64-none-elf/8.3.0/../../../../aarch64-none-elf/lib/pic\libg.a(lib_a-memmove.o)
                              c:/devkitpro/devkita64/bin/../lib/gcc/aarch64-none-elf/8.3.0/../../../../aarch64-none-elf/lib/pic\libg.a(lib_a-reallocr.o) (memmove)
c:/devkitpro/devkita64/bin/../lib/gcc/aarch64-none-elf/8.3.0/../../../../aarch64-none-elf/lib/pic\libg.a(lib_a-mprec.o)
                              c:/devkitpro/devkita64/bin/../lib/gcc/aarch64-none-elf/8.3.0/../../../../aarch64-none-elf/lib/pic\libg.a(lib_a-dtoa.o) (_Balloc)
c:/devkitpro/devkita64/bin/../lib/gcc/aarch64-none-elf/8.3.0/../../../../aarch64-none-elf/lib/pic\libg.a(lib_a-s_frexp.o)
                              c:/devkitpro/devkita64/bin/../lib/gcc/aarch64-none-elf/8.3.0/../../../../aarch64-none-elf/lib/pic\libg.a(lib_a-svfprintf.o) (frexp)
c:/devkitpro/devkita64/bin/../lib/gcc/aarch64-none-elf/8.3.0/../../../../aarch64-none-elf/lib/pic\libg.a(lib_a-strcasecmp.o)
                              c:/devkitpro/devkita64/bin/../lib/gcc/aarch64-none-elf/8.3.0/../../../../aarch64-none-elf/lib/pic\libg.a(lib_a-locale.o) (strcasecmp)
c:/devkitpro/devkita64/bin/../lib/gcc/aarch64-none-elf/8.3.0/../../../../aarch64-none-elf/lib/pic\libg.a(lib_a-strcat.o)
                              c:/devkitpro/devkita64/bin/../lib/gcc/aarch64-none-elf/8.3.0/../../../../aarch64-none-elf/lib/pic\libg.a(lib_a-locale.o) (strcat)
c:/devkitpro/devkita64/bin/../lib/gcc/aarch64-none-elf/8.3.0/../../../../aarch64-none-elf/lib/pic\libg.a(lib_a-strlcpy.o)
                              c:/devkitpro/devkita64/bin/../lib/gcc/aarch64-none-elf/8.3.0/../../../../aarch64-none-elf/lib/pic\libg.a(lib_a-locale.o) (strlcpy)
c:/devkitpro/devkita64/bin/../lib/gcc/aarch64-none-elf/8.3.0/../../../../aarch64-none-elf/lib/pic\libg.a(lib_a-strncasecmp.o)
                              c:/devkitpro/devkita64/bin/../lib/gcc/aarch64-none-elf/8.3.0/../../../../aarch64-none-elf/lib/pic\libg.a(lib_a-locale.o) (strncasecmp)
c:/devkitpro/devkita64/bin/../lib/gcc/aarch64-none-elf/8.3.0/../../../../aarch64-none-elf/lib/pic\libg.a(lib_a-strtol.o)
                              c:/devkitpro/devkita64/bin/../lib/gcc/aarch64-none-elf/8.3.0/../../../../aarch64-none-elf/lib/pic\libg.a(lib_a-locale.o) (strtol)
c:/devkitpro/devkita64/bin/../lib/gcc/aarch64-none-elf/8.3.0/../../../../aarch64-none-elf/lib/pic\libg.a(lib_a-svfiprintf.o)
                              c:/devkitpro/devkita64/bin/../lib/gcc/aarch64-none-elf/8.3.0/../../../../aarch64-none-elf/lib/pic\libg.a(lib_a-svfprintf.o) (__chclass)
c:/devkitpro/devkita64/bin/../lib/gcc/aarch64-none-elf/8.3.0/../../../../aarch64-none-elf/lib/pic\libg.a(lib_a-wcsnrtombs.o)
                              c:/devkitpro/devkita64/bin/../lib/gcc/aarch64-none-elf/8.3.0/../../../../aarch64-none-elf/lib/pic\libg.a(lib_a-wcsrtombs.o) (_wcsnrtombs_r)
c:/devkitpro/devkita64/bin/../lib/gcc/aarch64-none-elf/8.3.0/../../../../aarch64-none-elf/lib/pic\libg.a(lib_a-wctomb_r.o)
                              c:/devkitpro/devkita64/bin/../lib/gcc/aarch64-none-elf/8.3.0/../../../../aarch64-none-elf/lib/pic\libg.a(lib_a-locale.o) (__ascii_wctomb)
c:/devkitpro/devkita64/bin/../lib/gcc/aarch64-none-elf/8.3.0/../../../../aarch64-none-elf/lib/pic\libg.a(lib_a-callocr.o)
                              c:/devkitpro/devkita64/bin/../lib/gcc/aarch64-none-elf/8.3.0/../../../../aarch64-none-elf/lib/pic\libg.a(lib_a-mprec.o) (_calloc_r)
c:/devkitpro/devkita64/bin/../lib/gcc/aarch64-none-elf/8.3.0/../../../../aarch64-none-elf/lib/pic\libsysbase.a(iosupport.o)
                              C:/Users/RNG/Desktop/Stuff/Smash-Stuff/SMASH-ULTIMATE-MODS-BABY/50xx-the-mod/acmd-edits/code-mod-framework/lib/libnx_min/nx/lib\libnx_min.a(fs_dev.o) (setDefaultDevice)
c:/devkitpro/devkita64/bin/../lib/gcc/aarch64-none-elf/8.3.0/../../../../aarch64-none-elf/lib/pic\libsysbase.a(sbrk.o)
                              c:/devkitpro/devkita64/bin/../lib/gcc/aarch64-none-elf/8.3.0/../../../../aarch64-none-elf/lib/pic\libg.a(lib_a-mallocr.o) (_sbrk_r)
c:/devkitpro/devkita64/bin/../lib/gcc/aarch64-none-elf/8.3.0/../../../../aarch64-none-elf/lib/pic\libsysbase.a(_exit.o)
                              c:/devkitpro/devkita64/bin/../lib/gcc/aarch64-none-elf/8.3.0/../../../../aarch64-none-elf/lib/pic\libg.a(lib_a-exit.o) (_exit)
c:/devkitpro/devkita64/bin/../lib/gcc/aarch64-none-elf/8.3.0/../../../../aarch64-none-elf/lib/pic\libsysbase.a(malloc_vars.o)
                              main.o (fake_heap_start)
c:/devkitpro/devkita64/bin/../lib/gcc/aarch64-none-elf/8.3.0/../../../../aarch64-none-elf/lib/pic\libsysbase.a(chdir.o)
                              C:/Users/RNG/Desktop/Stuff/Smash-Stuff/SMASH-ULTIMATE-MODS-BABY/50xx-the-mod/acmd-edits/code-mod-framework/lib/libnx_min/nx/lib\libnx_min.a(fs_dev.o) (chdir)
c:/devkitpro/devkita64/bin/../lib/gcc/aarch64-none-elf/8.3.0/../../../../aarch64-none-elf/lib/pic\libsysbase.a(locks.o)
                              C:/Users/RNG/Desktop/Stuff/Smash-Stuff/SMASH-ULTIMATE-MODS-BABY/50xx-the-mod/acmd-edits/code-mod-framework/lib/libnx_min/nx/lib\libnx_min.a(newlib.o) (timespec2nsec)
c:/devkitpro/devkita64/bin/../lib/gcc/aarch64-none-elf/8.3.0/../../../../aarch64-none-elf/lib/pic\libsysbase.a(getreent.o)
                              C:/Users/RNG/Desktop/Stuff/Smash-Stuff/SMASH-ULTIMATE-MODS-BABY/50xx-the-mod/acmd-edits/code-mod-framework/lib/libnx_min/nx/lib\libnx_min.a(fs_dev.o) (__getreent)
c:/devkitpro/devkita64/bin/../lib/gcc/aarch64-none-elf/8.3.0/../../../../aarch64-none-elf/lib/pic\libsysbase.a(clocks.o)
                              c:/devkitpro/devkita64/bin/../lib/gcc/aarch64-none-elf/8.3.0/../../../../aarch64-none-elf/lib/pic\libsysbase.a(locks.o) (clock_gettime)
c:/devkitpro/devkita64/bin/../lib/gcc/aarch64-none-elf/8.3.0/pic\libgcc.a(trunctfdf2.o)
                              c:/devkitpro/devkita64/bin/../lib/gcc/aarch64-none-elf/8.3.0/../../../../aarch64-none-elf/lib/pic\libg.a(lib_a-svfprintf.o) (__trunctfdf2)
c:/devkitpro/devkita64/bin/../lib/gcc/aarch64-none-elf/8.3.0/pic\libgcc.a(sfp-exceptions.o)
                              c:/devkitpro/devkita64/bin/../lib/gcc/aarch64-none-elf/8.3.0/pic\libgcc.a(trunctfdf2.o) (__sfp_handle_exceptions)
c:/devkitpro/devkita64/bin/../lib/gcc/aarch64-none-elf/8.3.0/../../../../aarch64-none-elf/lib/pic\libg.a(lib_a-strrchr.o)
                              c:/devkitpro/devkita64/bin/../lib/gcc/aarch64-none-elf/8.3.0/../../../../aarch64-none-elf/lib/pic\libsysbase.a(chdir.o) (strrchr)

Allocating common symbols
Common symbol       size              file

__nx_exceptiondump  0x340             C:/Users/RNG/Desktop/Stuff/Smash-Stuff/SMASH-ULTIMATE-MODS-BABY/50xx-the-mod/acmd-edits/code-mod-framework/lib/libnx_min/nx/lib\libnx_min.a(init.o)
__system_argv       0x8               C:/Users/RNG/Desktop/Stuff/Smash-Stuff/SMASH-ULTIMATE-MODS-BABY/50xx-the-mod/acmd-edits/code-mod-framework/lib/libnx_min/nx/lib\libnx_min.a(argv.o)
__system_argc       0x4               C:/Users/RNG/Desktop/Stuff/Smash-Stuff/SMASH-ULTIMATE-MODS-BABY/50xx-the-mod/acmd-edits/code-mod-framework/lib/libnx_min/nx/lib\libnx_min.a(argv.o)
__stack_top         0x8               C:/Users/RNG/Desktop/Stuff/Smash-Stuff/SMASH-ULTIMATE-MODS-BABY/50xx-the-mod/acmd-edits/code-mod-framework/lib/libnx_min/nx/lib\libnx_min.a(init.o)

Discarded input sections

 .text          0x0000000000000000        0x0 c:/devkitpro/devkita64/bin/../lib/gcc/aarch64-none-elf/8.3.0/pic/crti.o
 .data          0x0000000000000000        0x0 c:/devkitpro/devkita64/bin/../lib/gcc/aarch64-none-elf/8.3.0/pic/crti.o
 .bss           0x0000000000000000        0x0 c:/devkitpro/devkita64/bin/../lib/gcc/aarch64-none-elf/8.3.0/pic/crti.o
 .text          0x0000000000000000        0x0 c:/devkitpro/devkita64/bin/../lib/gcc/aarch64-none-elf/8.3.0/pic/crtbegin.o
 .data          0x0000000000000000        0x0 c:/devkitpro/devkita64/bin/../lib/gcc/aarch64-none-elf/8.3.0/pic/crtbegin.o
 .bss           0x0000000000000000        0x0 c:/devkitpro/devkita64/bin/../lib/gcc/aarch64-none-elf/8.3.0/pic/crtbegin.o
 .data.__dso_handle
                0x0000000000000000        0x8 c:/devkitpro/devkita64/bin/../lib/gcc/aarch64-none-elf/8.3.0/pic/crtbegin.o
 .comment       0x0000000000000000       0x23 c:/devkitpro/devkita64/bin/../lib/gcc/aarch64-none-elf/8.3.0/pic/crtbegin.o
 .group         0x0000000000000000        0xc main.o
 .comment       0x0000000000000000       0x23 main.o
 .data          0x0000000000000000        0x0 acmd_wrapper.o
 .bss           0x0000000000000000        0x0 acmd_wrapper.o
 .comment       0x0000000000000000       0x23 acmd_wrapper.o
 .data          0x0000000000000000        0x0 saltysd_helper.o
 .comment       0x0000000000000000       0x23 saltysd_helper.o
 .data          0x0000000000000000        0x0 l2c_imports.o
 .bss           0x0000000000000000        0x0 l2c_imports.o
 .comment       0x0000000000000000       0x23 l2c_imports.o
 .data          0x0000000000000000        0x0 lua_bind_hash.o
 .bss           0x0000000000000000        0x0 lua_bind_hash.o
 .comment       0x0000000000000000       0x23 lua_bind_hash.o
 .data          0x0000000000000000        0x0 raygun_printer.o
 .bss           0x0000000000000000        0x0 raygun_printer.o
 .comment       0x0000000000000000       0x23 raygun_printer.o
 .text          0x0000000000000000        0x0 C:/Users/RNG/Desktop/Stuff/Smash-Stuff/SMASH-ULTIMATE-MODS-BABY/50xx-the-mod/acmd-edits/code-mod-framework/lib/libnx_min/nx/lib\libnx_min.a(switch_crt0.o)
 .data          0x0000000000000000        0x0 C:/Users/RNG/Desktop/Stuff/Smash-Stuff/SMASH-ULTIMATE-MODS-BABY/50xx-the-mod/acmd-edits/code-mod-framework/lib/libnx_min/nx/lib\libnx_min.a(switch_crt0.o)
 .bss           0x0000000000000000        0x0 C:/Users/RNG/Desktop/Stuff/Smash-Stuff/SMASH-ULTIMATE-MODS-BABY/50xx-the-mod/acmd-edits/code-mod-framework/lib/libnx_min/nx/lib\libnx_min.a(switch_crt0.o)
 .debug_line    0x0000000000000000       0xc3 C:/Users/RNG/Desktop/Stuff/Smash-Stuff/SMASH-ULTIMATE-MODS-BABY/50xx-the-mod/acmd-edits/code-mod-framework/lib/libnx_min/nx/lib\libnx_min.a(switch_crt0.o)
 .debug_info    0x0000000000000000       0x2e C:/Users/RNG/Desktop/Stuff/Smash-Stuff/SMASH-ULTIMATE-MODS-BABY/50xx-the-mod/acmd-edits/code-mod-framework/lib/libnx_min/nx/lib\libnx_min.a(switch_crt0.o)
 .debug_abbrev  0x0000000000000000       0x14 C:/Users/RNG/Desktop/Stuff/Smash-Stuff/SMASH-ULTIMATE-MODS-BABY/50xx-the-mod/acmd-edits/code-mod-framework/lib/libnx_min/nx/lib\libnx_min.a(switch_crt0.o)
 .debug_aranges
                0x0000000000000000       0x30 C:/Users/RNG/Desktop/Stuff/Smash-Stuff/SMASH-ULTIMATE-MODS-BABY/50xx-the-mod/acmd-edits/code-mod-framework/lib/libnx_min/nx/lib\libnx_min.a(switch_crt0.o)
 .debug_str     0x0000000000000000       0xc1 C:/Users/RNG/Desktop/Stuff/Smash-Stuff/SMASH-ULTIMATE-MODS-BABY/50xx-the-mod/acmd-edits/code-mod-framework/lib/libnx_min/nx/lib\libnx_min.a(switch_crt0.o)
 .text          0x0000000000000000        0x0 C:/Users/RNG/Desktop/Stuff/Smash-Stuff/SMASH-ULTIMATE-MODS-BABY/50xx-the-mod/acmd-edits/code-mod-framework/lib/libnx_min/nx/lib\libnx_min.a(exception.o)
 .data          0x0000000000000000        0x0 C:/Users/RNG/Desktop/Stuff/Smash-Stuff/SMASH-ULTIMATE-MODS-BABY/50xx-the-mod/acmd-edits/code-mod-framework/lib/libnx_min/nx/lib\libnx_min.a(exception.o)
 .bss           0x0000000000000000        0x0 C:/Users/RNG/Desktop/Stuff/Smash-Stuff/SMASH-ULTIMATE-MODS-BABY/50xx-the-mod/acmd-edits/code-mod-framework/lib/libnx_min/nx/lib\libnx_min.a(exception.o)
 .debug_line    0x0000000000000000      0x11e C:/Users/RNG/Desktop/Stuff/Smash-Stuff/SMASH-ULTIMATE-MODS-BABY/50xx-the-mod/acmd-edits/code-mod-framework/lib/libnx_min/nx/lib\libnx_min.a(exception.o)
 .debug_info    0x0000000000000000       0x22 C:/Users/RNG/Desktop/Stuff/Smash-Stuff/SMASH-ULTIMATE-MODS-BABY/50xx-the-mod/acmd-edits/code-mod-framework/lib/libnx_min/nx/lib\libnx_min.a(exception.o)
 .debug_abbrev  0x0000000000000000       0x12 C:/Users/RNG/Desktop/Stuff/Smash-Stuff/SMASH-ULTIMATE-MODS-BABY/50xx-the-mod/acmd-edits/code-mod-framework/lib/libnx_min/nx/lib\libnx_min.a(exception.o)
 .debug_aranges
                0x0000000000000000       0x40 C:/Users/RNG/Desktop/Stuff/Smash-Stuff/SMASH-ULTIMATE-MODS-BABY/50xx-the-mod/acmd-edits/code-mod-framework/lib/libnx_min/nx/lib\libnx_min.a(exception.o)
 .debug_str     0x0000000000000000       0xbf C:/Users/RNG/Desktop/Stuff/Smash-Stuff/SMASH-ULTIMATE-MODS-BABY/50xx-the-mod/acmd-edits/code-mod-framework/lib/libnx_min/nx/lib\libnx_min.a(exception.o)
 .debug_ranges  0x0000000000000000       0x40 C:/Users/RNG/Desktop/Stuff/Smash-Stuff/SMASH-ULTIMATE-MODS-BABY/50xx-the-mod/acmd-edits/code-mod-framework/lib/libnx_min/nx/lib\libnx_min.a(exception.o)
 .text          0x0000000000000000        0x0 C:/Users/RNG/Desktop/Stuff/Smash-Stuff/SMASH-ULTIMATE-MODS-BABY/50xx-the-mod/acmd-edits/code-mod-framework/lib/libnx_min/nx/lib\libnx_min.a(argv.o)
 .data          0x0000000000000000        0x0 C:/Users/RNG/Desktop/Stuff/Smash-Stuff/SMASH-ULTIMATE-MODS-BABY/50xx-the-mod/acmd-edits/code-mod-framework/lib/libnx_min/nx/lib\libnx_min.a(argv.o)
 .bss           0x0000000000000000        0x0 C:/Users/RNG/Desktop/Stuff/Smash-Stuff/SMASH-ULTIMATE-MODS-BABY/50xx-the-mod/acmd-edits/code-mod-framework/lib/libnx_min/nx/lib\libnx_min.a(argv.o)
 .debug_info    0x0000000000000000      0xe43 C:/Users/RNG/Desktop/Stuff/Smash-Stuff/SMASH-ULTIMATE-MODS-BABY/50xx-the-mod/acmd-edits/code-mod-framework/lib/libnx_min/nx/lib\libnx_min.a(argv.o)
 .debug_abbrev  0x0000000000000000      0x2de C:/Users/RNG/Desktop/Stuff/Smash-Stuff/SMASH-ULTIMATE-MODS-BABY/50xx-the-mod/acmd-edits/code-mod-framework/lib/libnx_min/nx/lib\libnx_min.a(argv.o)
 .debug_loc     0x0000000000000000      0x6a8 C:/Users/RNG/Desktop/Stuff/Smash-Stuff/SMASH-ULTIMATE-MODS-BABY/50xx-the-mod/acmd-edits/code-mod-framework/lib/libnx_min/nx/lib\libnx_min.a(argv.o)
 .debug_aranges
                0x0000000000000000       0x30 C:/Users/RNG/Desktop/Stuff/Smash-Stuff/SMASH-ULTIMATE-MODS-BABY/50xx-the-mod/acmd-edits/code-mod-framework/lib/libnx_min/nx/lib\libnx_min.a(argv.o)
 .debug_ranges  0x0000000000000000       0x20 C:/Users/RNG/Desktop/Stuff/Smash-Stuff/SMASH-ULTIMATE-MODS-BABY/50xx-the-mod/acmd-edits/code-mod-framework/lib/libnx_min/nx/lib\libnx_min.a(argv.o)
 .debug_line    0x0000000000000000      0x64d C:/Users/RNG/Desktop/Stuff/Smash-Stuff/SMASH-ULTIMATE-MODS-BABY/50xx-the-mod/acmd-edits/code-mod-framework/lib/libnx_min/nx/lib\libnx_min.a(argv.o)
 .debug_str     0x0000000000000000      0x874 C:/Users/RNG/Desktop/Stuff/Smash-Stuff/SMASH-ULTIMATE-MODS-BABY/50xx-the-mod/acmd-edits/code-mod-framework/lib/libnx_min/nx/lib\libnx_min.a(argv.o)
 .comment       0x0000000000000000       0x23 C:/Users/RNG/Desktop/Stuff/Smash-Stuff/SMASH-ULTIMATE-MODS-BABY/50xx-the-mod/acmd-edits/code-mod-framework/lib/libnx_min/nx/lib\libnx_min.a(argv.o)
 .text          0x0000000000000000        0x0 C:/Users/RNG/Desktop/Stuff/Smash-Stuff/SMASH-ULTIMATE-MODS-BABY/50xx-the-mod/acmd-edits/code-mod-framework/lib/libnx_min/nx/lib\libnx_min.a(env.o)
 .data          0x0000000000000000        0x0 C:/Users/RNG/Desktop/Stuff/Smash-Stuff/SMASH-ULTIMATE-MODS-BABY/50xx-the-mod/acmd-edits/code-mod-framework/lib/libnx_min/nx/lib\libnx_min.a(env.o)
 .bss           0x0000000000000000        0x0 C:/Users/RNG/Desktop/Stuff/Smash-Stuff/SMASH-ULTIMATE-MODS-BABY/50xx-the-mod/acmd-edits/code-mod-framework/lib/libnx_min/nx/lib\libnx_min.a(env.o)
 .debug_info    0x0000000000000000     0x111a C:/Users/RNG/Desktop/Stuff/Smash-Stuff/SMASH-ULTIMATE-MODS-BABY/50xx-the-mod/acmd-edits/code-mod-framework/lib/libnx_min/nx/lib\libnx_min.a(env.o)
 .debug_abbrev  0x0000000000000000      0x322 C:/Users/RNG/Desktop/Stuff/Smash-Stuff/SMASH-ULTIMATE-MODS-BABY/50xx-the-mod/acmd-edits/code-mod-framework/lib/libnx_min/nx/lib\libnx_min.a(env.o)
 .debug_loc     0x0000000000000000      0x362 C:/Users/RNG/Desktop/Stuff/Smash-Stuff/SMASH-ULTIMATE-MODS-BABY/50xx-the-mod/acmd-edits/code-mod-framework/lib/libnx_min/nx/lib\libnx_min.a(env.o)
 .debug_aranges
                0x0000000000000000      0x130 C:/Users/RNG/Desktop/Stuff/Smash-Stuff/SMASH-ULTIMATE-MODS-BABY/50xx-the-mod/acmd-edits/code-mod-framework/lib/libnx_min/nx/lib\libnx_min.a(env.o)
 .debug_ranges  0x0000000000000000      0x120 C:/Users/RNG/Desktop/Stuff/Smash-Stuff/SMASH-ULTIMATE-MODS-BABY/50xx-the-mod/acmd-edits/code-mod-framework/lib/libnx_min/nx/lib\libnx_min.a(env.o)
 .debug_line    0x0000000000000000      0x6fe C:/Users/RNG/Desktop/Stuff/Smash-Stuff/SMASH-ULTIMATE-MODS-BABY/50xx-the-mod/acmd-edits/code-mod-framework/lib/libnx_min/nx/lib\libnx_min.a(env.o)
 .debug_str     0x0000000000000000     0x107e C:/Users/RNG/Desktop/Stuff/Smash-Stuff/SMASH-ULTIMATE-MODS-BABY/50xx-the-mod/acmd-edits/code-mod-framework/lib/libnx_min/nx/lib\libnx_min.a(env.o)
 .comment       0x0000000000000000       0x23 C:/Users/RNG/Desktop/Stuff/Smash-Stuff/SMASH-ULTIMATE-MODS-BABY/50xx-the-mod/acmd-edits/code-mod-framework/lib/libnx_min/nx/lib\libnx_min.a(env.o)
 .text          0x0000000000000000        0x0 C:/Users/RNG/Desktop/Stuff/Smash-Stuff/SMASH-ULTIMATE-MODS-BABY/50xx-the-mod/acmd-edits/code-mod-framework/lib/libnx_min/nx/lib\libnx_min.a(init.o)
 .data          0x0000000000000000        0x0 C:/Users/RNG/Desktop/Stuff/Smash-Stuff/SMASH-ULTIMATE-MODS-BABY/50xx-the-mod/acmd-edits/code-mod-framework/lib/libnx_min/nx/lib\libnx_min.a(init.o)
 .bss           0x0000000000000000        0x0 C:/Users/RNG/Desktop/Stuff/Smash-Stuff/SMASH-ULTIMATE-MODS-BABY/50xx-the-mod/acmd-edits/code-mod-framework/lib/libnx_min/nx/lib\libnx_min.a(init.o)
 .text.__libnx_init
                0x0000000000000000       0x28 C:/Users/RNG/Desktop/Stuff/Smash-Stuff/SMASH-ULTIMATE-MODS-BABY/50xx-the-mod/acmd-edits/code-mod-framework/lib/libnx_min/nx/lib\libnx_min.a(init.o)
 .text.__libnx_exit
                0x0000000000000000       0x20 C:/Users/RNG/Desktop/Stuff/Smash-Stuff/SMASH-ULTIMATE-MODS-BABY/50xx-the-mod/acmd-edits/code-mod-framework/lib/libnx_min/nx/lib\libnx_min.a(init.o)
 .debug_info    0x0000000000000000      0xce2 C:/Users/RNG/Desktop/Stuff/Smash-Stuff/SMASH-ULTIMATE-MODS-BABY/50xx-the-mod/acmd-edits/code-mod-framework/lib/libnx_min/nx/lib\libnx_min.a(init.o)
 .debug_abbrev  0x0000000000000000      0x2a1 C:/Users/RNG/Desktop/Stuff/Smash-Stuff/SMASH-ULTIMATE-MODS-BABY/50xx-the-mod/acmd-edits/code-mod-framework/lib/libnx_min/nx/lib\libnx_min.a(init.o)
 .debug_loc     0x0000000000000000      0x34a C:/Users/RNG/Desktop/Stuff/Smash-Stuff/SMASH-ULTIMATE-MODS-BABY/50xx-the-mod/acmd-edits/code-mod-framework/lib/libnx_min/nx/lib\libnx_min.a(init.o)
 .debug_aranges
                0x0000000000000000       0x70 C:/Users/RNG/Desktop/Stuff/Smash-Stuff/SMASH-ULTIMATE-MODS-BABY/50xx-the-mod/acmd-edits/code-mod-framework/lib/libnx_min/nx/lib\libnx_min.a(init.o)
 .debug_ranges  0x0000000000000000       0xa0 C:/Users/RNG/Desktop/Stuff/Smash-Stuff/SMASH-ULTIMATE-MODS-BABY/50xx-the-mod/acmd-edits/code-mod-framework/lib/libnx_min/nx/lib\libnx_min.a(init.o)
 .debug_line    0x0000000000000000      0x685 C:/Users/RNG/Desktop/Stuff/Smash-Stuff/SMASH-ULTIMATE-MODS-BABY/50xx-the-mod/acmd-edits/code-mod-framework/lib/libnx_min/nx/lib\libnx_min.a(init.o)
 .debug_str     0x0000000000000000      0xf19 C:/Users/RNG/Desktop/Stuff/Smash-Stuff/SMASH-ULTIMATE-MODS-BABY/50xx-the-mod/acmd-edits/code-mod-framework/lib/libnx_min/nx/lib\libnx_min.a(init.o)
 .comment       0x0000000000000000       0x23 C:/Users/RNG/Desktop/Stuff/Smash-Stuff/SMASH-ULTIMATE-MODS-BABY/50xx-the-mod/acmd-edits/code-mod-framework/lib/libnx_min/nx/lib\libnx_min.a(init.o)
 .text          0x0000000000000000        0x0 C:/Users/RNG/Desktop/Stuff/Smash-Stuff/SMASH-ULTIMATE-MODS-BABY/50xx-the-mod/acmd-edits/code-mod-framework/lib/libnx_min/nx/lib\libnx_min.a(hosversion.o)
 .data          0x0000000000000000        0x0 C:/Users/RNG/Desktop/Stuff/Smash-Stuff/SMASH-ULTIMATE-MODS-BABY/50xx-the-mod/acmd-edits/code-mod-framework/lib/libnx_min/nx/lib\libnx_min.a(hosversion.o)
 .bss           0x0000000000000000        0x0 C:/Users/RNG/Desktop/Stuff/Smash-Stuff/SMASH-ULTIMATE-MODS-BABY/50xx-the-mod/acmd-edits/code-mod-framework/lib/libnx_min/nx/lib\libnx_min.a(hosversion.o)
 .debug_info    0x0000000000000000      0x103 C:/Users/RNG/Desktop/Stuff/Smash-Stuff/SMASH-ULTIMATE-MODS-BABY/50xx-the-mod/acmd-edits/code-mod-framework/lib/libnx_min/nx/lib\libnx_min.a(hosversion.o)
 .debug_abbrev  0x0000000000000000       0xa2 C:/Users/RNG/Desktop/Stuff/Smash-Stuff/SMASH-ULTIMATE-MODS-BABY/50xx-the-mod/acmd-edits/code-mod-framework/lib/libnx_min/nx/lib\libnx_min.a(hosversion.o)
 .debug_aranges
                0x0000000000000000       0x40 C:/Users/RNG/Desktop/Stuff/Smash-Stuff/SMASH-ULTIMATE-MODS-BABY/50xx-the-mod/acmd-edits/code-mod-framework/lib/libnx_min/nx/lib\libnx_min.a(hosversion.o)
 .debug_ranges  0x0000000000000000       0x30 C:/Users/RNG/Desktop/Stuff/Smash-Stuff/SMASH-ULTIMATE-MODS-BABY/50xx-the-mod/acmd-edits/code-mod-framework/lib/libnx_min/nx/lib\libnx_min.a(hosversion.o)
 .debug_line    0x0000000000000000      0x1b0 C:/Users/RNG/Desktop/Stuff/Smash-Stuff/SMASH-ULTIMATE-MODS-BABY/50xx-the-mod/acmd-edits/code-mod-framework/lib/libnx_min/nx/lib\libnx_min.a(hosversion.o)
 .debug_str     0x0000000000000000      0x234 C:/Users/RNG/Desktop/Stuff/Smash-Stuff/SMASH-ULTIMATE-MODS-BABY/50xx-the-mod/acmd-edits/code-mod-framework/lib/libnx_min/nx/lib\libnx_min.a(hosversion.o)
 .comment       0x0000000000000000       0x23 C:/Users/RNG/Desktop/Stuff/Smash-Stuff/SMASH-ULTIMATE-MODS-BABY/50xx-the-mod/acmd-edits/code-mod-framework/lib/libnx_min/nx/lib\libnx_min.a(hosversion.o)
 .text          0x0000000000000000        0x0 C:/Users/RNG/Desktop/Stuff/Smash-Stuff/SMASH-ULTIMATE-MODS-BABY/50xx-the-mod/acmd-edits/code-mod-framework/lib/libnx_min/nx/lib\libnx_min.a(dynamic.o)
 .data          0x0000000000000000        0x0 C:/Users/RNG/Desktop/Stuff/Smash-Stuff/SMASH-ULTIMATE-MODS-BABY/50xx-the-mod/acmd-edits/code-mod-framework/lib/libnx_min/nx/lib\libnx_min.a(dynamic.o)
 .bss           0x0000000000000000        0x0 C:/Users/RNG/Desktop/Stuff/Smash-Stuff/SMASH-ULTIMATE-MODS-BABY/50xx-the-mod/acmd-edits/code-mod-framework/lib/libnx_min/nx/lib\libnx_min.a(dynamic.o)
 .debug_info    0x0000000000000000      0x3c9 C:/Users/RNG/Desktop/Stuff/Smash-Stuff/SMASH-ULTIMATE-MODS-BABY/50xx-the-mod/acmd-edits/code-mod-framework/lib/libnx_min/nx/lib\libnx_min.a(dynamic.o)
 .debug_abbrev  0x0000000000000000      0x16b C:/Users/RNG/Desktop/Stuff/Smash-Stuff/SMASH-ULTIMATE-MODS-BABY/50xx-the-mod/acmd-edits/code-mod-framework/lib/libnx_min/nx/lib\libnx_min.a(dynamic.o)
 .debug_loc     0x0000000000000000      0x1b8 C:/Users/RNG/Desktop/Stuff/Smash-Stuff/SMASH-ULTIMATE-MODS-BABY/50xx-the-mod/acmd-edits/code-mod-framework/lib/libnx_min/nx/lib\libnx_min.a(dynamic.o)
 .debug_aranges
                0x0000000000000000       0x30 C:/Users/RNG/Desktop/Stuff/Smash-Stuff/SMASH-ULTIMATE-MODS-BABY/50xx-the-mod/acmd-edits/code-mod-framework/lib/libnx_min/nx/lib\libnx_min.a(dynamic.o)
 .debug_ranges  0x0000000000000000       0x20 C:/Users/RNG/Desktop/Stuff/Smash-Stuff/SMASH-ULTIMATE-MODS-BABY/50xx-the-mod/acmd-edits/code-mod-framework/lib/libnx_min/nx/lib\libnx_min.a(dynamic.o)
 .debug_line    0x0000000000000000      0x2df C:/Users/RNG/Desktop/Stuff/Smash-Stuff/SMASH-ULTIMATE-MODS-BABY/50xx-the-mod/acmd-edits/code-mod-framework/lib/libnx_min/nx/lib\libnx_min.a(dynamic.o)
 .debug_str     0x0000000000000000      0x837 C:/Users/RNG/Desktop/Stuff/Smash-Stuff/SMASH-ULTIMATE-MODS-BABY/50xx-the-mod/acmd-edits/code-mod-framework/lib/libnx_min/nx/lib\libnx_min.a(dynamic.o)
 .comment       0x0000000000000000       0x23 C:/Users/RNG/Desktop/Stuff/Smash-Stuff/SMASH-ULTIMATE-MODS-BABY/50xx-the-mod/acmd-edits/code-mod-framework/lib/libnx_min/nx/lib\libnx_min.a(dynamic.o)
 .text          0x0000000000000000        0x0 C:/Users/RNG/Desktop/Stuff/Smash-Stuff/SMASH-ULTIMATE-MODS-BABY/50xx-the-mod/acmd-edits/code-mod-framework/lib/libnx_min/nx/lib\libnx_min.a(fs_dev.o)
 .data          0x0000000000000000        0x0 C:/Users/RNG/Desktop/Stuff/Smash-Stuff/SMASH-ULTIMATE-MODS-BABY/50xx-the-mod/acmd-edits/code-mod-framework/lib/libnx_min/nx/lib\libnx_min.a(fs_dev.o)
 .bss           0x0000000000000000        0x0 C:/Users/RNG/Desktop/Stuff/Smash-Stuff/SMASH-ULTIMATE-MODS-BABY/50xx-the-mod/acmd-edits/code-mod-framework/lib/libnx_min/nx/lib\libnx_min.a(fs_dev.o)
 .debug_info    0x0000000000000000     0x411e C:/Users/RNG/Desktop/Stuff/Smash-Stuff/SMASH-ULTIMATE-MODS-BABY/50xx-the-mod/acmd-edits/code-mod-framework/lib/libnx_min/nx/lib\libnx_min.a(fs_dev.o)
 .debug_abbrev  0x0000000000000000      0x5b7 C:/Users/RNG/Desktop/Stuff/Smash-Stuff/SMASH-ULTIMATE-MODS-BABY/50xx-the-mod/acmd-edits/code-mod-framework/lib/libnx_min/nx/lib\libnx_min.a(fs_dev.o)
 .debug_loc     0x0000000000000000     0x4332 C:/Users/RNG/Desktop/Stuff/Smash-Stuff/SMASH-ULTIMATE-MODS-BABY/50xx-the-mod/acmd-edits/code-mod-framework/lib/libnx_min/nx/lib\libnx_min.a(fs_dev.o)
 .debug_aranges
                0x0000000000000000      0x2a0 C:/Users/RNG/Desktop/Stuff/Smash-Stuff/SMASH-ULTIMATE-MODS-BABY/50xx-the-mod/acmd-edits/code-mod-framework/lib/libnx_min/nx/lib\libnx_min.a(fs_dev.o)
 .debug_ranges  0x0000000000000000      0x670 C:/Users/RNG/Desktop/Stuff/Smash-Stuff/SMASH-ULTIMATE-MODS-BABY/50xx-the-mod/acmd-edits/code-mod-framework/lib/libnx_min/nx/lib\libnx_min.a(fs_dev.o)
 .debug_line    0x0000000000000000     0x1a73 C:/Users/RNG/Desktop/Stuff/Smash-Stuff/SMASH-ULTIMATE-MODS-BABY/50xx-the-mod/acmd-edits/code-mod-framework/lib/libnx_min/nx/lib\libnx_min.a(fs_dev.o)
 .debug_str     0x0000000000000000     0x1939 C:/Users/RNG/Desktop/Stuff/Smash-Stuff/SMASH-ULTIMATE-MODS-BABY/50xx-the-mod/acmd-edits/code-mod-framework/lib/libnx_min/nx/lib\libnx_min.a(fs_dev.o)
 .comment       0x0000000000000000       0x23 C:/Users/RNG/Desktop/Stuff/Smash-Stuff/SMASH-ULTIMATE-MODS-BABY/50xx-the-mod/acmd-edits/code-mod-framework/lib/libnx_min/nx/lib\libnx_min.a(fs_dev.o)
 .text          0x0000000000000000        0x0 C:/Users/RNG/Desktop/Stuff/Smash-Stuff/SMASH-ULTIMATE-MODS-BABY/50xx-the-mod/acmd-edits/code-mod-framework/lib/libnx_min/nx/lib\libnx_min.a(decode_utf8.o)
 .data          0x0000000000000000        0x0 C:/Users/RNG/Desktop/Stuff/Smash-Stuff/SMASH-ULTIMATE-MODS-BABY/50xx-the-mod/acmd-edits/code-mod-framework/lib/libnx_min/nx/lib\libnx_min.a(decode_utf8.o)
 .bss           0x0000000000000000        0x0 C:/Users/RNG/Desktop/Stuff/Smash-Stuff/SMASH-ULTIMATE-MODS-BABY/50xx-the-mod/acmd-edits/code-mod-framework/lib/libnx_min/nx/lib\libnx_min.a(decode_utf8.o)
 .debug_info    0x0000000000000000      0x170 C:/Users/RNG/Desktop/Stuff/Smash-Stuff/SMASH-ULTIMATE-MODS-BABY/50xx-the-mod/acmd-edits/code-mod-framework/lib/libnx_min/nx/lib\libnx_min.a(decode_utf8.o)
 .debug_abbrev  0x0000000000000000       0x9e C:/Users/RNG/Desktop/Stuff/Smash-Stuff/SMASH-ULTIMATE-MODS-BABY/50xx-the-mod/acmd-edits/code-mod-framework/lib/libnx_min/nx/lib\libnx_min.a(decode_utf8.o)
 .debug_loc     0x0000000000000000      0x334 C:/Users/RNG/Desktop/Stuff/Smash-Stuff/SMASH-ULTIMATE-MODS-BABY/50xx-the-mod/acmd-edits/code-mod-framework/lib/libnx_min/nx/lib\libnx_min.a(decode_utf8.o)
 .debug_aranges
                0x0000000000000000       0x30 C:/Users/RNG/Desktop/Stuff/Smash-Stuff/SMASH-ULTIMATE-MODS-BABY/50xx-the-mod/acmd-edits/code-mod-framework/lib/libnx_min/nx/lib\libnx_min.a(decode_utf8.o)
 .debug_ranges  0x0000000000000000       0x20 C:/Users/RNG/Desktop/Stuff/Smash-Stuff/SMASH-ULTIMATE-MODS-BABY/50xx-the-mod/acmd-edits/code-mod-framework/lib/libnx_min/nx/lib\libnx_min.a(decode_utf8.o)
 .debug_line    0x0000000000000000      0x28a C:/Users/RNG/Desktop/Stuff/Smash-Stuff/SMASH-ULTIMATE-MODS-BABY/50xx-the-mod/acmd-edits/code-mod-framework/lib/libnx_min/nx/lib\libnx_min.a(decode_utf8.o)
 .debug_str     0x0000000000000000      0x259 C:/Users/RNG/Desktop/Stuff/Smash-Stuff/SMASH-ULTIMATE-MODS-BABY/50xx-the-mod/acmd-edits/code-mod-framework/lib/libnx_min/nx/lib\libnx_min.a(decode_utf8.o)
 .comment       0x0000000000000000       0x23 C:/Users/RNG/Desktop/Stuff/Smash-Stuff/SMASH-ULTIMATE-MODS-BABY/50xx-the-mod/acmd-edits/code-mod-framework/lib/libnx_min/nx/lib\libnx_min.a(decode_utf8.o)
 .text          0x0000000000000000        0x0 C:/Users/RNG/Desktop/Stuff/Smash-Stuff/SMASH-ULTIMATE-MODS-BABY/50xx-the-mod/acmd-edits/code-mod-framework/lib/libnx_min/nx/lib\libnx_min.a(svc.o)
 .data          0x0000000000000000        0x0 C:/Users/RNG/Desktop/Stuff/Smash-Stuff/SMASH-ULTIMATE-MODS-BABY/50xx-the-mod/acmd-edits/code-mod-framework/lib/libnx_min/nx/lib\libnx_min.a(svc.o)
 .bss           0x0000000000000000        0x0 C:/Users/RNG/Desktop/Stuff/Smash-Stuff/SMASH-ULTIMATE-MODS-BABY/50xx-the-mod/acmd-edits/code-mod-framework/lib/libnx_min/nx/lib\libnx_min.a(svc.o)
 .debug_line    0x0000000000000000      0x92d C:/Users/RNG/Desktop/Stuff/Smash-Stuff/SMASH-ULTIMATE-MODS-BABY/50xx-the-mod/acmd-edits/code-mod-framework/lib/libnx_min/nx/lib\libnx_min.a(svc.o)
 .debug_info    0x0000000000000000       0x22 C:/Users/RNG/Desktop/Stuff/Smash-Stuff/SMASH-ULTIMATE-MODS-BABY/50xx-the-mod/acmd-edits/code-mod-framework/lib/libnx_min/nx/lib\libnx_min.a(svc.o)
 .debug_abbrev  0x0000000000000000       0x12 C:/Users/RNG/Desktop/Stuff/Smash-Stuff/SMASH-ULTIMATE-MODS-BABY/50xx-the-mod/acmd-edits/code-mod-framework/lib/libnx_min/nx/lib\libnx_min.a(svc.o)
 .debug_aranges
                0x0000000000000000      0x660 C:/Users/RNG/Desktop/Stuff/Smash-Stuff/SMASH-ULTIMATE-MODS-BABY/50xx-the-mod/acmd-edits/code-mod-framework/lib/libnx_min/nx/lib\libnx_min.a(svc.o)
 .debug_str     0x0000000000000000       0xb8 C:/Users/RNG/Desktop/Stuff/Smash-Stuff/SMASH-ULTIMATE-MODS-BABY/50xx-the-mod/acmd-edits/code-mod-framework/lib/libnx_min/nx/lib\libnx_min.a(svc.o)
 .debug_ranges  0x0000000000000000      0x660 C:/Users/RNG/Desktop/Stuff/Smash-Stuff/SMASH-ULTIMATE-MODS-BABY/50xx-the-mod/acmd-edits/code-mod-framework/lib/libnx_min/nx/lib\libnx_min.a(svc.o)
 .text          0x0000000000000000        0x0 C:/Users/RNG/Desktop/Stuff/Smash-Stuff/SMASH-ULTIMATE-MODS-BABY/50xx-the-mod/acmd-edits/code-mod-framework/lib/libnx_min/nx/lib\libnx_min.a(readtp.o)
 .data          0x0000000000000000        0x0 C:/Users/RNG/Desktop/Stuff/Smash-Stuff/SMASH-ULTIMATE-MODS-BABY/50xx-the-mod/acmd-edits/code-mod-framework/lib/libnx_min/nx/lib\libnx_min.a(readtp.o)
 .bss           0x0000000000000000        0x0 C:/Users/RNG/Desktop/Stuff/Smash-Stuff/SMASH-ULTIMATE-MODS-BABY/50xx-the-mod/acmd-edits/code-mod-framework/lib/libnx_min/nx/lib\libnx_min.a(readtp.o)
 .debug_line    0x0000000000000000       0x93 C:/Users/RNG/Desktop/Stuff/Smash-Stuff/SMASH-ULTIMATE-MODS-BABY/50xx-the-mod/acmd-edits/code-mod-framework/lib/libnx_min/nx/lib\libnx_min.a(readtp.o)
 .debug_info    0x0000000000000000       0x2e C:/Users/RNG/Desktop/Stuff/Smash-Stuff/SMASH-ULTIMATE-MODS-BABY/50xx-the-mod/acmd-edits/code-mod-framework/lib/libnx_min/nx/lib\libnx_min.a(readtp.o)
 .debug_abbrev  0x0000000000000000       0x14 C:/Users/RNG/Desktop/Stuff/Smash-Stuff/SMASH-ULTIMATE-MODS-BABY/50xx-the-mod/acmd-edits/code-mod-framework/lib/libnx_min/nx/lib\libnx_min.a(readtp.o)
 .debug_aranges
                0x0000000000000000       0x30 C:/Users/RNG/Desktop/Stuff/Smash-Stuff/SMASH-ULTIMATE-MODS-BABY/50xx-the-mod/acmd-edits/code-mod-framework/lib/libnx_min/nx/lib\libnx_min.a(readtp.o)
 .debug_str     0x0000000000000000       0xbc C:/Users/RNG/Desktop/Stuff/Smash-Stuff/SMASH-ULTIMATE-MODS-BABY/50xx-the-mod/acmd-edits/code-mod-framework/lib/libnx_min/nx/lib\libnx_min.a(readtp.o)
 .text          0x0000000000000000        0x0 C:/Users/RNG/Desktop/Stuff/Smash-Stuff/SMASH-ULTIMATE-MODS-BABY/50xx-the-mod/acmd-edits/code-mod-framework/lib/libnx_min/nx/lib\libnx_min.a(virtmem.o)
 .data          0x0000000000000000        0x0 C:/Users/RNG/Desktop/Stuff/Smash-Stuff/SMASH-ULTIMATE-MODS-BABY/50xx-the-mod/acmd-edits/code-mod-framework/lib/libnx_min/nx/lib\libnx_min.a(virtmem.o)
 .bss           0x0000000000000000        0x0 C:/Users/RNG/Desktop/Stuff/Smash-Stuff/SMASH-ULTIMATE-MODS-BABY/50xx-the-mod/acmd-edits/code-mod-framework/lib/libnx_min/nx/lib\libnx_min.a(virtmem.o)
 .debug_info    0x0000000000000000      0xb52 C:/Users/RNG/Desktop/Stuff/Smash-Stuff/SMASH-ULTIMATE-MODS-BABY/50xx-the-mod/acmd-edits/code-mod-framework/lib/libnx_min/nx/lib\libnx_min.a(virtmem.o)
 .debug_abbrev  0x0000000000000000      0x2cf C:/Users/RNG/Desktop/Stuff/Smash-Stuff/SMASH-ULTIMATE-MODS-BABY/50xx-the-mod/acmd-edits/code-mod-framework/lib/libnx_min/nx/lib\libnx_min.a(virtmem.o)
 .debug_loc     0x0000000000000000      0x668 C:/Users/RNG/Desktop/Stuff/Smash-Stuff/SMASH-ULTIMATE-MODS-BABY/50xx-the-mod/acmd-edits/code-mod-framework/lib/libnx_min/nx/lib\libnx_min.a(virtmem.o)
 .debug_aranges
                0x0000000000000000       0x70 C:/Users/RNG/Desktop/Stuff/Smash-Stuff/SMASH-ULTIMATE-MODS-BABY/50xx-the-mod/acmd-edits/code-mod-framework/lib/libnx_min/nx/lib\libnx_min.a(virtmem.o)
 .debug_ranges  0x0000000000000000      0x170 C:/Users/RNG/Desktop/Stuff/Smash-Stuff/SMASH-ULTIMATE-MODS-BABY/50xx-the-mod/acmd-edits/code-mod-framework/lib/libnx_min/nx/lib\libnx_min.a(virtmem.o)
 .debug_line    0x0000000000000000      0x60f C:/Users/RNG/Desktop/Stuff/Smash-Stuff/SMASH-ULTIMATE-MODS-BABY/50xx-the-mod/acmd-edits/code-mod-framework/lib/libnx_min/nx/lib\libnx_min.a(virtmem.o)
 .debug_str     0x0000000000000000      0xbfa C:/Users/RNG/Desktop/Stuff/Smash-Stuff/SMASH-ULTIMATE-MODS-BABY/50xx-the-mod/acmd-edits/code-mod-framework/lib/libnx_min/nx/lib\libnx_min.a(virtmem.o)
 .comment       0x0000000000000000       0x23 C:/Users/RNG/Desktop/Stuff/Smash-Stuff/SMASH-ULTIMATE-MODS-BABY/50xx-the-mod/acmd-edits/code-mod-framework/lib/libnx_min/nx/lib\libnx_min.a(virtmem.o)
 .text          0x0000000000000000        0x0 C:/Users/RNG/Desktop/Stuff/Smash-Stuff/SMASH-ULTIMATE-MODS-BABY/50xx-the-mod/acmd-edits/code-mod-framework/lib/libnx_min/nx/lib\libnx_min.a(mutex.o)
 .data          0x0000000000000000        0x0 C:/Users/RNG/Desktop/Stuff/Smash-Stuff/SMASH-ULTIMATE-MODS-BABY/50xx-the-mod/acmd-edits/code-mod-framework/lib/libnx_min/nx/lib\libnx_min.a(mutex.o)
 .bss           0x0000000000000000        0x0 C:/Users/RNG/Desktop/Stuff/Smash-Stuff/SMASH-ULTIMATE-MODS-BABY/50xx-the-mod/acmd-edits/code-mod-framework/lib/libnx_min/nx/lib\libnx_min.a(mutex.o)
 .debug_info    0x0000000000000000      0x782 C:/Users/RNG/Desktop/Stuff/Smash-Stuff/SMASH-ULTIMATE-MODS-BABY/50xx-the-mod/acmd-edits/code-mod-framework/lib/libnx_min/nx/lib\libnx_min.a(mutex.o)
 .debug_abbrev  0x0000000000000000      0x1fe C:/Users/RNG/Desktop/Stuff/Smash-Stuff/SMASH-ULTIMATE-MODS-BABY/50xx-the-mod/acmd-edits/code-mod-framework/lib/libnx_min/nx/lib\libnx_min.a(mutex.o)
 .debug_loc     0x0000000000000000      0x3d1 C:/Users/RNG/Desktop/Stuff/Smash-Stuff/SMASH-ULTIMATE-MODS-BABY/50xx-the-mod/acmd-edits/code-mod-framework/lib/libnx_min/nx/lib\libnx_min.a(mutex.o)
 .debug_aranges
                0x0000000000000000       0x80 C:/Users/RNG/Desktop/Stuff/Smash-Stuff/SMASH-ULTIMATE-MODS-BABY/50xx-the-mod/acmd-edits/code-mod-framework/lib/libnx_min/nx/lib\libnx_min.a(mutex.o)
 .debug_ranges  0x0000000000000000      0x470 C:/Users/RNG/Desktop/Stuff/Smash-Stuff/SMASH-ULTIMATE-MODS-BABY/50xx-the-mod/acmd-edits/code-mod-framework/lib/libnx_min/nx/lib\libnx_min.a(mutex.o)
 .debug_line    0x0000000000000000      0x5e6 C:/Users/RNG/Desktop/Stuff/Smash-Stuff/SMASH-ULTIMATE-MODS-BABY/50xx-the-mod/acmd-edits/code-mod-framework/lib/libnx_min/nx/lib\libnx_min.a(mutex.o)
 .debug_str     0x0000000000000000      0x3a4 C:/Users/RNG/Desktop/Stuff/Smash-Stuff/SMASH-ULTIMATE-MODS-BABY/50xx-the-mod/acmd-edits/code-mod-framework/lib/libnx_min/nx/lib\libnx_min.a(mutex.o)
 .comment       0x0000000000000000       0x23 C:/Users/RNG/Desktop/Stuff/Smash-Stuff/SMASH-ULTIMATE-MODS-BABY/50xx-the-mod/acmd-edits/code-mod-framework/lib/libnx_min/nx/lib\libnx_min.a(mutex.o)
 .text          0x0000000000000000        0x0 C:/Users/RNG/Desktop/Stuff/Smash-Stuff/SMASH-ULTIMATE-MODS-BABY/50xx-the-mod/acmd-edits/code-mod-framework/lib/libnx_min/nx/lib\libnx_min.a(fs.o)
 .data          0x0000000000000000        0x0 C:/Users/RNG/Desktop/Stuff/Smash-Stuff/SMASH-ULTIMATE-MODS-BABY/50xx-the-mod/acmd-edits/code-mod-framework/lib/libnx_min/nx/lib\libnx_min.a(fs.o)
 .bss           0x0000000000000000        0x0 C:/Users/RNG/Desktop/Stuff/Smash-Stuff/SMASH-ULTIMATE-MODS-BABY/50xx-the-mod/acmd-edits/code-mod-framework/lib/libnx_min/nx/lib\libnx_min.a(fs.o)
 .debug_info    0x0000000000000000    0x148db C:/Users/RNG/Desktop/Stuff/Smash-Stuff/SMASH-ULTIMATE-MODS-BABY/50xx-the-mod/acmd-edits/code-mod-framework/lib/libnx_min/nx/lib\libnx_min.a(fs.o)
 .debug_abbrev  0x0000000000000000      0x6cd C:/Users/RNG/Desktop/Stuff/Smash-Stuff/SMASH-ULTIMATE-MODS-BABY/50xx-the-mod/acmd-edits/code-mod-framework/lib/libnx_min/nx/lib\libnx_min.a(fs.o)
 .debug_loc     0x0000000000000000    0x23e9b C:/Users/RNG/Desktop/Stuff/Smash-Stuff/SMASH-ULTIMATE-MODS-BABY/50xx-the-mod/acmd-edits/code-mod-framework/lib/libnx_min/nx/lib\libnx_min.a(fs.o)
 .debug_aranges
                0x0000000000000000      0x4a0 C:/Users/RNG/Desktop/Stuff/Smash-Stuff/SMASH-ULTIMATE-MODS-BABY/50xx-the-mod/acmd-edits/code-mod-framework/lib/libnx_min/nx/lib\libnx_min.a(fs.o)
 .debug_ranges  0x0000000000000000     0xb5b0 C:/Users/RNG/Desktop/Stuff/Smash-Stuff/SMASH-ULTIMATE-MODS-BABY/50xx-the-mod/acmd-edits/code-mod-framework/lib/libnx_min/nx/lib\libnx_min.a(fs.o)
 .debug_line    0x0000000000000000     0xb1b2 C:/Users/RNG/Desktop/Stuff/Smash-Stuff/SMASH-ULTIMATE-MODS-BABY/50xx-the-mod/acmd-edits/code-mod-framework/lib/libnx_min/nx/lib\libnx_min.a(fs.o)
 .debug_str     0x0000000000000000     0x23e6 C:/Users/RNG/Desktop/Stuff/Smash-Stuff/SMASH-ULTIMATE-MODS-BABY/50xx-the-mod/acmd-edits/code-mod-framework/lib/libnx_min/nx/lib\libnx_min.a(fs.o)
 .comment       0x0000000000000000       0x23 C:/Users/RNG/Desktop/Stuff/Smash-Stuff/SMASH-ULTIMATE-MODS-BABY/50xx-the-mod/acmd-edits/code-mod-framework/lib/libnx_min/nx/lib\libnx_min.a(fs.o)
 .text          0x0000000000000000        0x0 C:/Users/RNG/Desktop/Stuff/Smash-Stuff/SMASH-ULTIMATE-MODS-BABY/50xx-the-mod/acmd-edits/code-mod-framework/lib/libnx_min/nx/lib\libnx_min.a(set.o)
 .data          0x0000000000000000        0x0 C:/Users/RNG/Desktop/Stuff/Smash-Stuff/SMASH-ULTIMATE-MODS-BABY/50xx-the-mod/acmd-edits/code-mod-framework/lib/libnx_min/nx/lib\libnx_min.a(set.o)
 .bss           0x0000000000000000        0x0 C:/Users/RNG/Desktop/Stuff/Smash-Stuff/SMASH-ULTIMATE-MODS-BABY/50xx-the-mod/acmd-edits/code-mod-framework/lib/libnx_min/nx/lib\libnx_min.a(set.o)
 .debug_info    0x0000000000000000     0x692b C:/Users/RNG/Desktop/Stuff/Smash-Stuff/SMASH-ULTIMATE-MODS-BABY/50xx-the-mod/acmd-edits/code-mod-framework/lib/libnx_min/nx/lib\libnx_min.a(set.o)
 .debug_abbrev  0x0000000000000000      0x5eb C:/Users/RNG/Desktop/Stuff/Smash-Stuff/SMASH-ULTIMATE-MODS-BABY/50xx-the-mod/acmd-edits/code-mod-framework/lib/libnx_min/nx/lib\libnx_min.a(set.o)
 .debug_loc     0x0000000000000000     0xc88f C:/Users/RNG/Desktop/Stuff/Smash-Stuff/SMASH-ULTIMATE-MODS-BABY/50xx-the-mod/acmd-edits/code-mod-framework/lib/libnx_min/nx/lib\libnx_min.a(set.o)
 .debug_aranges
                0x0000000000000000      0x1d0 C:/Users/RNG/Desktop/Stuff/Smash-Stuff/SMASH-ULTIMATE-MODS-BABY/50xx-the-mod/acmd-edits/code-mod-framework/lib/libnx_min/nx/lib\libnx_min.a(set.o)
 .debug_ranges  0x0000000000000000     0x25f0 C:/Users/RNG/Desktop/Stuff/Smash-Stuff/SMASH-ULTIMATE-MODS-BABY/50xx-the-mod/acmd-edits/code-mod-framework/lib/libnx_min/nx/lib\libnx_min.a(set.o)
 .debug_line    0x0000000000000000     0x3101 C:/Users/RNG/Desktop/Stuff/Smash-Stuff/SMASH-ULTIMATE-MODS-BABY/50xx-the-mod/acmd-edits/code-mod-framework/lib/libnx_min/nx/lib\libnx_min.a(set.o)
 .debug_str     0x0000000000000000     0x1b23 C:/Users/RNG/Desktop/Stuff/Smash-Stuff/SMASH-ULTIMATE-MODS-BABY/50xx-the-mod/acmd-edits/code-mod-framework/lib/libnx_min/nx/lib\libnx_min.a(set.o)
 .comment       0x0000000000000000       0x23 C:/Users/RNG/Desktop/Stuff/Smash-Stuff/SMASH-ULTIMATE-MODS-BABY/50xx-the-mod/acmd-edits/code-mod-framework/lib/libnx_min/nx/lib\libnx_min.a(set.o)
 .text          0x0000000000000000        0x0 C:/Users/RNG/Desktop/Stuff/Smash-Stuff/SMASH-ULTIMATE-MODS-BABY/50xx-the-mod/acmd-edits/code-mod-framework/lib/libnx_min/nx/lib\libnx_min.a(fatal.o)
 .data          0x0000000000000000        0x0 C:/Users/RNG/Desktop/Stuff/Smash-Stuff/SMASH-ULTIMATE-MODS-BABY/50xx-the-mod/acmd-edits/code-mod-framework/lib/libnx_min/nx/lib\libnx_min.a(fatal.o)
 .bss           0x0000000000000000        0x0 C:/Users/RNG/Desktop/Stuff/Smash-Stuff/SMASH-ULTIMATE-MODS-BABY/50xx-the-mod/acmd-edits/code-mod-framework/lib/libnx_min/nx/lib\libnx_min.a(fatal.o)
 .debug_info    0x0000000000000000      0xd6e C:/Users/RNG/Desktop/Stuff/Smash-Stuff/SMASH-ULTIMATE-MODS-BABY/50xx-the-mod/acmd-edits/code-mod-framework/lib/libnx_min/nx/lib\libnx_min.a(fatal.o)
 .debug_abbrev  0x0000000000000000      0x393 C:/Users/RNG/Desktop/Stuff/Smash-Stuff/SMASH-ULTIMATE-MODS-BABY/50xx-the-mod/acmd-edits/code-mod-framework/lib/libnx_min/nx/lib\libnx_min.a(fatal.o)
 .debug_loc     0x0000000000000000      0x895 C:/Users/RNG/Desktop/Stuff/Smash-Stuff/SMASH-ULTIMATE-MODS-BABY/50xx-the-mod/acmd-edits/code-mod-framework/lib/libnx_min/nx/lib\libnx_min.a(fatal.o)
 .debug_aranges
                0x0000000000000000       0x60 C:/Users/RNG/Desktop/Stuff/Smash-Stuff/SMASH-ULTIMATE-MODS-BABY/50xx-the-mod/acmd-edits/code-mod-framework/lib/libnx_min/nx/lib\libnx_min.a(fatal.o)
 .debug_ranges  0x0000000000000000      0x240 C:/Users/RNG/Desktop/Stuff/Smash-Stuff/SMASH-ULTIMATE-MODS-BABY/50xx-the-mod/acmd-edits/code-mod-framework/lib/libnx_min/nx/lib\libnx_min.a(fatal.o)
 .debug_line    0x0000000000000000      0x5c9 C:/Users/RNG/Desktop/Stuff/Smash-Stuff/SMASH-ULTIMATE-MODS-BABY/50xx-the-mod/acmd-edits/code-mod-framework/lib/libnx_min/nx/lib\libnx_min.a(fatal.o)
 .debug_str     0x0000000000000000      0x763 C:/Users/RNG/Desktop/Stuff/Smash-Stuff/SMASH-ULTIMATE-MODS-BABY/50xx-the-mod/acmd-edits/code-mod-framework/lib/libnx_min/nx/lib\libnx_min.a(fatal.o)
 .comment       0x0000000000000000       0x23 C:/Users/RNG/Desktop/Stuff/Smash-Stuff/SMASH-ULTIMATE-MODS-BABY/50xx-the-mod/acmd-edits/code-mod-framework/lib/libnx_min/nx/lib\libnx_min.a(fatal.o)
 .text          0x0000000000000000        0x0 C:/Users/RNG/Desktop/Stuff/Smash-Stuff/SMASH-ULTIMATE-MODS-BABY/50xx-the-mod/acmd-edits/code-mod-framework/lib/libnx_min/nx/lib\libnx_min.a(sm.o)
 .data          0x0000000000000000        0x0 C:/Users/RNG/Desktop/Stuff/Smash-Stuff/SMASH-ULTIMATE-MODS-BABY/50xx-the-mod/acmd-edits/code-mod-framework/lib/libnx_min/nx/lib\libnx_min.a(sm.o)
 .bss           0x0000000000000000        0x0 C:/Users/RNG/Desktop/Stuff/Smash-Stuff/SMASH-ULTIMATE-MODS-BABY/50xx-the-mod/acmd-edits/code-mod-framework/lib/libnx_min/nx/lib\libnx_min.a(sm.o)
 .debug_info    0x0000000000000000     0x34eb C:/Users/RNG/Desktop/Stuff/Smash-Stuff/SMASH-ULTIMATE-MODS-BABY/50xx-the-mod/acmd-edits/code-mod-framework/lib/libnx_min/nx/lib\libnx_min.a(sm.o)
 .debug_abbrev  0x0000000000000000      0x4c4 C:/Users/RNG/Desktop/Stuff/Smash-Stuff/SMASH-ULTIMATE-MODS-BABY/50xx-the-mod/acmd-edits/code-mod-framework/lib/libnx_min/nx/lib\libnx_min.a(sm.o)
 .debug_loc     0x0000000000000000     0x5a55 C:/Users/RNG/Desktop/Stuff/Smash-Stuff/SMASH-ULTIMATE-MODS-BABY/50xx-the-mod/acmd-edits/code-mod-framework/lib/libnx_min/nx/lib\libnx_min.a(sm.o)
 .debug_aranges
                0x0000000000000000       0xe0 C:/Users/RNG/Desktop/Stuff/Smash-Stuff/SMASH-ULTIMATE-MODS-BABY/50xx-the-mod/acmd-edits/code-mod-framework/lib/libnx_min/nx/lib\libnx_min.a(sm.o)
 .debug_ranges  0x0000000000000000     0x1160 C:/Users/RNG/Desktop/Stuff/Smash-Stuff/SMASH-ULTIMATE-MODS-BABY/50xx-the-mod/acmd-edits/code-mod-framework/lib/libnx_min/nx/lib\libnx_min.a(sm.o)
 .debug_line    0x0000000000000000     0x175a C:/Users/RNG/Desktop/Stuff/Smash-Stuff/SMASH-ULTIMATE-MODS-BABY/50xx-the-mod/acmd-edits/code-mod-framework/lib/libnx_min/nx/lib\libnx_min.a(sm.o)
 .debug_str     0x0000000000000000     0x150b C:/Users/RNG/Desktop/Stuff/Smash-Stuff/SMASH-ULTIMATE-MODS-BABY/50xx-the-mod/acmd-edits/code-mod-framework/lib/libnx_min/nx/lib\libnx_min.a(sm.o)
 .comment       0x0000000000000000       0x23 C:/Users/RNG/Desktop/Stuff/Smash-Stuff/SMASH-ULTIMATE-MODS-BABY/50xx-the-mod/acmd-edits/code-mod-framework/lib/libnx_min/nx/lib\libnx_min.a(sm.o)
 .text          0x0000000000000000        0x0 C:/Users/RNG/Desktop/Stuff/Smash-Stuff/SMASH-ULTIMATE-MODS-BABY/50xx-the-mod/acmd-edits/code-mod-framework/lib/libnx_min/nx/lib\libnx_min.a(hid.o)
 .data          0x0000000000000000        0x0 C:/Users/RNG/Desktop/Stuff/Smash-Stuff/SMASH-ULTIMATE-MODS-BABY/50xx-the-mod/acmd-edits/code-mod-framework/lib/libnx_min/nx/lib\libnx_min.a(hid.o)
 .bss           0x0000000000000000        0x0 C:/Users/RNG/Desktop/Stuff/Smash-Stuff/SMASH-ULTIMATE-MODS-BABY/50xx-the-mod/acmd-edits/code-mod-framework/lib/libnx_min/nx/lib\libnx_min.a(hid.o)
 .debug_info    0x0000000000000000     0xb19f C:/Users/RNG/Desktop/Stuff/Smash-Stuff/SMASH-ULTIMATE-MODS-BABY/50xx-the-mod/acmd-edits/code-mod-framework/lib/libnx_min/nx/lib\libnx_min.a(hid.o)
 .debug_abbrev  0x0000000000000000      0x743 C:/Users/RNG/Desktop/Stuff/Smash-Stuff/SMASH-ULTIMATE-MODS-BABY/50xx-the-mod/acmd-edits/code-mod-framework/lib/libnx_min/nx/lib\libnx_min.a(hid.o)
 .debug_loc     0x0000000000000000    0x1192e C:/Users/RNG/Desktop/Stuff/Smash-Stuff/SMASH-ULTIMATE-MODS-BABY/50xx-the-mod/acmd-edits/code-mod-framework/lib/libnx_min/nx/lib\libnx_min.a(hid.o)
 .debug_aranges
                0x0000000000000000      0x450 C:/Users/RNG/Desktop/Stuff/Smash-Stuff/SMASH-ULTIMATE-MODS-BABY/50xx-the-mod/acmd-edits/code-mod-framework/lib/libnx_min/nx/lib\libnx_min.a(hid.o)
 .debug_ranges  0x0000000000000000     0x3140 C:/Users/RNG/Desktop/Stuff/Smash-Stuff/SMASH-ULTIMATE-MODS-BABY/50xx-the-mod/acmd-edits/code-mod-framework/lib/libnx_min/nx/lib\libnx_min.a(hid.o)
 .debug_line    0x0000000000000000     0x5037 C:/Users/RNG/Desktop/Stuff/Smash-Stuff/SMASH-ULTIMATE-MODS-BABY/50xx-the-mod/acmd-edits/code-mod-framework/lib/libnx_min/nx/lib\libnx_min.a(hid.o)
 .debug_str     0x0000000000000000     0x338c C:/Users/RNG/Desktop/Stuff/Smash-Stuff/SMASH-ULTIMATE-MODS-BABY/50xx-the-mod/acmd-edits/code-mod-framework/lib/libnx_min/nx/lib\libnx_min.a(hid.o)
 .comment       0x0000000000000000       0x23 C:/Users/RNG/Desktop/Stuff/Smash-Stuff/SMASH-ULTIMATE-MODS-BABY/50xx-the-mod/acmd-edits/code-mod-framework/lib/libnx_min/nx/lib\libnx_min.a(hid.o)
 .text          0x0000000000000000        0x0 C:/Users/RNG/Desktop/Stuff/Smash-Stuff/SMASH-ULTIMATE-MODS-BABY/50xx-the-mod/acmd-edits/code-mod-framework/lib/libnx_min/nx/lib\libnx_min.a(time.o)
 .data          0x0000000000000000        0x0 C:/Users/RNG/Desktop/Stuff/Smash-Stuff/SMASH-ULTIMATE-MODS-BABY/50xx-the-mod/acmd-edits/code-mod-framework/lib/libnx_min/nx/lib\libnx_min.a(time.o)
 .bss           0x0000000000000000        0x0 C:/Users/RNG/Desktop/Stuff/Smash-Stuff/SMASH-ULTIMATE-MODS-BABY/50xx-the-mod/acmd-edits/code-mod-framework/lib/libnx_min/nx/lib\libnx_min.a(time.o)
 .debug_info    0x0000000000000000     0x2f93 C:/Users/RNG/Desktop/Stuff/Smash-Stuff/SMASH-ULTIMATE-MODS-BABY/50xx-the-mod/acmd-edits/code-mod-framework/lib/libnx_min/nx/lib\libnx_min.a(time.o)
 .debug_abbrev  0x0000000000000000      0x544 C:/Users/RNG/Desktop/Stuff/Smash-Stuff/SMASH-ULTIMATE-MODS-BABY/50xx-the-mod/acmd-edits/code-mod-framework/lib/libnx_min/nx/lib\libnx_min.a(time.o)
 .debug_loc     0x0000000000000000     0x36b5 C:/Users/RNG/Desktop/Stuff/Smash-Stuff/SMASH-ULTIMATE-MODS-BABY/50xx-the-mod/acmd-edits/code-mod-framework/lib/libnx_min/nx/lib\libnx_min.a(time.o)
 .debug_aranges
                0x0000000000000000       0xa0 C:/Users/RNG/Desktop/Stuff/Smash-Stuff/SMASH-ULTIMATE-MODS-BABY/50xx-the-mod/acmd-edits/code-mod-framework/lib/libnx_min/nx/lib\libnx_min.a(time.o)
 .debug_ranges  0x0000000000000000      0xa70 C:/Users/RNG/Desktop/Stuff/Smash-Stuff/SMASH-ULTIMATE-MODS-BABY/50xx-the-mod/acmd-edits/code-mod-framework/lib/libnx_min/nx/lib\libnx_min.a(time.o)
 .debug_line    0x0000000000000000     0x10ba C:/Users/RNG/Desktop/Stuff/Smash-Stuff/SMASH-ULTIMATE-MODS-BABY/50xx-the-mod/acmd-edits/code-mod-framework/lib/libnx_min/nx/lib\libnx_min.a(time.o)
 .debug_str     0x0000000000000000     0x151b C:/Users/RNG/Desktop/Stuff/Smash-Stuff/SMASH-ULTIMATE-MODS-BABY/50xx-the-mod/acmd-edits/code-mod-framework/lib/libnx_min/nx/lib\libnx_min.a(time.o)
 .comment       0x0000000000000000       0x23 C:/Users/RNG/Desktop/Stuff/Smash-Stuff/SMASH-ULTIMATE-MODS-BABY/50xx-the-mod/acmd-edits/code-mod-framework/lib/libnx_min/nx/lib\libnx_min.a(time.o)
 .text          0x0000000000000000        0x0 C:/Users/RNG/Desktop/Stuff/Smash-Stuff/SMASH-ULTIMATE-MODS-BABY/50xx-the-mod/acmd-edits/code-mod-framework/lib/libnx_min/nx/lib\libnx_min.a(applet.o)
 .data          0x0000000000000000        0x0 C:/Users/RNG/Desktop/Stuff/Smash-Stuff/SMASH-ULTIMATE-MODS-BABY/50xx-the-mod/acmd-edits/code-mod-framework/lib/libnx_min/nx/lib\libnx_min.a(applet.o)
 .bss           0x0000000000000000        0x0 C:/Users/RNG/Desktop/Stuff/Smash-Stuff/SMASH-ULTIMATE-MODS-BABY/50xx-the-mod/acmd-edits/code-mod-framework/lib/libnx_min/nx/lib\libnx_min.a(applet.o)
 .data.__nx_applet_type
                0x0000000000000000        0x4 C:/Users/RNG/Desktop/Stuff/Smash-Stuff/SMASH-ULTIMATE-MODS-BABY/50xx-the-mod/acmd-edits/code-mod-framework/lib/libnx_min/nx/lib\libnx_min.a(applet.o)
 .debug_info    0x0000000000000000    0x1572b C:/Users/RNG/Desktop/Stuff/Smash-Stuff/SMASH-ULTIMATE-MODS-BABY/50xx-the-mod/acmd-edits/code-mod-framework/lib/libnx_min/nx/lib\libnx_min.a(applet.o)
 .debug_abbrev  0x0000000000000000      0x76e C:/Users/RNG/Desktop/Stuff/Smash-Stuff/SMASH-ULTIMATE-MODS-BABY/50xx-the-mod/acmd-edits/code-mod-framework/lib/libnx_min/nx/lib\libnx_min.a(applet.o)
 .debug_loc     0x0000000000000000    0x20f04 C:/Users/RNG/Desktop/Stuff/Smash-Stuff/SMASH-ULTIMATE-MODS-BABY/50xx-the-mod/acmd-edits/code-mod-framework/lib/libnx_min/nx/lib\libnx_min.a(applet.o)
 .debug_aranges
                0x0000000000000000      0x730 C:/Users/RNG/Desktop/Stuff/Smash-Stuff/SMASH-ULTIMATE-MODS-BABY/50xx-the-mod/acmd-edits/code-mod-framework/lib/libnx_min/nx/lib\libnx_min.a(applet.o)
 .debug_ranges  0x0000000000000000     0x8b40 C:/Users/RNG/Desktop/Stuff/Smash-Stuff/SMASH-ULTIMATE-MODS-BABY/50xx-the-mod/acmd-edits/code-mod-framework/lib/libnx_min/nx/lib\libnx_min.a(applet.o)
 .debug_line    0x0000000000000000     0xadb0 C:/Users/RNG/Desktop/Stuff/Smash-Stuff/SMASH-ULTIMATE-MODS-BABY/50xx-the-mod/acmd-edits/code-mod-framework/lib/libnx_min/nx/lib\libnx_min.a(applet.o)
 .debug_str     0x0000000000000000     0x30c0 C:/Users/RNG/Desktop/Stuff/Smash-Stuff/SMASH-ULTIMATE-MODS-BABY/50xx-the-mod/acmd-edits/code-mod-framework/lib/libnx_min/nx/lib\libnx_min.a(applet.o)
 .comment       0x0000000000000000       0x23 C:/Users/RNG/Desktop/Stuff/Smash-Stuff/SMASH-ULTIMATE-MODS-BABY/50xx-the-mod/acmd-edits/code-mod-framework/lib/libnx_min/nx/lib\libnx_min.a(applet.o)
 .text          0x0000000000000000        0x0 C:/Users/RNG/Desktop/Stuff/Smash-Stuff/SMASH-ULTIMATE-MODS-BABY/50xx-the-mod/acmd-edits/code-mod-framework/lib/libnx_min/nx/lib\libnx_min.a(newlib.o)
 .data          0x0000000000000000        0x0 C:/Users/RNG/Desktop/Stuff/Smash-Stuff/SMASH-ULTIMATE-MODS-BABY/50xx-the-mod/acmd-edits/code-mod-framework/lib/libnx_min/nx/lib\libnx_min.a(newlib.o)
 .bss           0x0000000000000000        0x0 C:/Users/RNG/Desktop/Stuff/Smash-Stuff/SMASH-ULTIMATE-MODS-BABY/50xx-the-mod/acmd-edits/code-mod-framework/lib/libnx_min/nx/lib\libnx_min.a(newlib.o)
 .debug_info    0x0000000000000000     0x2bc2 C:/Users/RNG/Desktop/Stuff/Smash-Stuff/SMASH-ULTIMATE-MODS-BABY/50xx-the-mod/acmd-edits/code-mod-framework/lib/libnx_min/nx/lib\libnx_min.a(newlib.o)
 .debug_abbrev  0x0000000000000000      0x571 C:/Users/RNG/Desktop/Stuff/Smash-Stuff/SMASH-ULTIMATE-MODS-BABY/50xx-the-mod/acmd-edits/code-mod-framework/lib/libnx_min/nx/lib\libnx_min.a(newlib.o)
 .debug_loc     0x0000000000000000     0x192e C:/Users/RNG/Desktop/Stuff/Smash-Stuff/SMASH-ULTIMATE-MODS-BABY/50xx-the-mod/acmd-edits/code-mod-framework/lib/libnx_min/nx/lib\libnx_min.a(newlib.o)
 .debug_aranges
                0x0000000000000000      0x1f0 C:/Users/RNG/Desktop/Stuff/Smash-Stuff/SMASH-ULTIMATE-MODS-BABY/50xx-the-mod/acmd-edits/code-mod-framework/lib/libnx_min/nx/lib\libnx_min.a(newlib.o)
 .debug_ranges  0x0000000000000000      0x4e0 C:/Users/RNG/Desktop/Stuff/Smash-Stuff/SMASH-ULTIMATE-MODS-BABY/50xx-the-mod/acmd-edits/code-mod-framework/lib/libnx_min/nx/lib\libnx_min.a(newlib.o)
 .debug_line    0x0000000000000000     0x10e9 C:/Users/RNG/Desktop/Stuff/Smash-Stuff/SMASH-ULTIMATE-MODS-BABY/50xx-the-mod/acmd-edits/code-mod-framework/lib/libnx_min/nx/lib\libnx_min.a(newlib.o)
 .debug_str     0x0000000000000000     0x18ae C:/Users/RNG/Desktop/Stuff/Smash-Stuff/SMASH-ULTIMATE-MODS-BABY/50xx-the-mod/acmd-edits/code-mod-framework/lib/libnx_min/nx/lib\libnx_min.a(newlib.o)
 .comment       0x0000000000000000       0x23 C:/Users/RNG/Desktop/Stuff/Smash-Stuff/SMASH-ULTIMATE-MODS-BABY/50xx-the-mod/acmd-edits/code-mod-framework/lib/libnx_min/nx/lib\libnx_min.a(newlib.o)
 .text          0x0000000000000000        0x0 C:/Users/RNG/Desktop/Stuff/Smash-Stuff/SMASH-ULTIMATE-MODS-BABY/50xx-the-mod/acmd-edits/code-mod-framework/lib/libnx_min/nx/lib\libnx_min.a(thread.o)
 .data          0x0000000000000000        0x0 C:/Users/RNG/Desktop/Stuff/Smash-Stuff/SMASH-ULTIMATE-MODS-BABY/50xx-the-mod/acmd-edits/code-mod-framework/lib/libnx_min/nx/lib\libnx_min.a(thread.o)
 .bss           0x0000000000000000        0x0 C:/Users/RNG/Desktop/Stuff/Smash-Stuff/SMASH-ULTIMATE-MODS-BABY/50xx-the-mod/acmd-edits/code-mod-framework/lib/libnx_min/nx/lib\libnx_min.a(thread.o)
 .debug_info    0x0000000000000000     0x1a68 C:/Users/RNG/Desktop/Stuff/Smash-Stuff/SMASH-ULTIMATE-MODS-BABY/50xx-the-mod/acmd-edits/code-mod-framework/lib/libnx_min/nx/lib\libnx_min.a(thread.o)
 .debug_abbrev  0x0000000000000000      0x492 C:/Users/RNG/Desktop/Stuff/Smash-Stuff/SMASH-ULTIMATE-MODS-BABY/50xx-the-mod/acmd-edits/code-mod-framework/lib/libnx_min/nx/lib\libnx_min.a(thread.o)
 .debug_loc     0x0000000000000000      0xbd2 C:/Users/RNG/Desktop/Stuff/Smash-Stuff/SMASH-ULTIMATE-MODS-BABY/50xx-the-mod/acmd-edits/code-mod-framework/lib/libnx_min/nx/lib\libnx_min.a(thread.o)
 .debug_aranges
                0x0000000000000000      0x100 C:/Users/RNG/Desktop/Stuff/Smash-Stuff/SMASH-ULTIMATE-MODS-BABY/50xx-the-mod/acmd-edits/code-mod-framework/lib/libnx_min/nx/lib\libnx_min.a(thread.o)
 .debug_ranges  0x0000000000000000      0x320 C:/Users/RNG/Desktop/Stuff/Smash-Stuff/SMASH-ULTIMATE-MODS-BABY/50xx-the-mod/acmd-edits/code-mod-framework/lib/libnx_min/nx/lib\libnx_min.a(thread.o)
 .debug_line    0x0000000000000000      0xa2c C:/Users/RNG/Desktop/Stuff/Smash-Stuff/SMASH-ULTIMATE-MODS-BABY/50xx-the-mod/acmd-edits/code-mod-framework/lib/libnx_min/nx/lib\libnx_min.a(thread.o)
 .debug_str     0x0000000000000000      0xfee C:/Users/RNG/Desktop/Stuff/Smash-Stuff/SMASH-ULTIMATE-MODS-BABY/50xx-the-mod/acmd-edits/code-mod-framework/lib/libnx_min/nx/lib\libnx_min.a(thread.o)
 .comment       0x0000000000000000       0x23 C:/Users/RNG/Desktop/Stuff/Smash-Stuff/SMASH-ULTIMATE-MODS-BABY/50xx-the-mod/acmd-edits/code-mod-framework/lib/libnx_min/nx/lib\libnx_min.a(thread.o)
 .text          0x0000000000000000        0x0 C:/Users/RNG/Desktop/Stuff/Smash-Stuff/SMASH-ULTIMATE-MODS-BABY/50xx-the-mod/acmd-edits/code-mod-framework/lib/libnx_min/nx/lib\libnx_min.a(condvar.o)
 .data          0x0000000000000000        0x0 C:/Users/RNG/Desktop/Stuff/Smash-Stuff/SMASH-ULTIMATE-MODS-BABY/50xx-the-mod/acmd-edits/code-mod-framework/lib/libnx_min/nx/lib\libnx_min.a(condvar.o)
 .bss           0x0000000000000000        0x0 C:/Users/RNG/Desktop/Stuff/Smash-Stuff/SMASH-ULTIMATE-MODS-BABY/50xx-the-mod/acmd-edits/code-mod-framework/lib/libnx_min/nx/lib\libnx_min.a(condvar.o)
 .debug_info    0x0000000000000000      0x396 C:/Users/RNG/Desktop/Stuff/Smash-Stuff/SMASH-ULTIMATE-MODS-BABY/50xx-the-mod/acmd-edits/code-mod-framework/lib/libnx_min/nx/lib\libnx_min.a(condvar.o)
 .debug_abbrev  0x0000000000000000      0x1aa C:/Users/RNG/Desktop/Stuff/Smash-Stuff/SMASH-ULTIMATE-MODS-BABY/50xx-the-mod/acmd-edits/code-mod-framework/lib/libnx_min/nx/lib\libnx_min.a(condvar.o)
 .debug_loc     0x0000000000000000      0x1c1 C:/Users/RNG/Desktop/Stuff/Smash-Stuff/SMASH-ULTIMATE-MODS-BABY/50xx-the-mod/acmd-edits/code-mod-framework/lib/libnx_min/nx/lib\libnx_min.a(condvar.o)
 .debug_aranges
                0x0000000000000000       0x30 C:/Users/RNG/Desktop/Stuff/Smash-Stuff/SMASH-ULTIMATE-MODS-BABY/50xx-the-mod/acmd-edits/code-mod-framework/lib/libnx_min/nx/lib\libnx_min.a(condvar.o)
 .debug_ranges  0x0000000000000000       0x60 C:/Users/RNG/Desktop/Stuff/Smash-Stuff/SMASH-ULTIMATE-MODS-BABY/50xx-the-mod/acmd-edits/code-mod-framework/lib/libnx_min/nx/lib\libnx_min.a(condvar.o)
 .debug_line    0x0000000000000000      0x398 C:/Users/RNG/Desktop/Stuff/Smash-Stuff/SMASH-ULTIMATE-MODS-BABY/50xx-the-mod/acmd-edits/code-mod-framework/lib/libnx_min/nx/lib\libnx_min.a(condvar.o)
 .debug_str     0x0000000000000000      0x350 C:/Users/RNG/Desktop/Stuff/Smash-Stuff/SMASH-ULTIMATE-MODS-BABY/50xx-the-mod/acmd-edits/code-mod-framework/lib/libnx_min/nx/lib\libnx_min.a(condvar.o)
 .comment       0x0000000000000000       0x23 C:/Users/RNG/Desktop/Stuff/Smash-Stuff/SMASH-ULTIMATE-MODS-BABY/50xx-the-mod/acmd-edits/code-mod-framework/lib/libnx_min/nx/lib\libnx_min.a(condvar.o)
 .text          0x0000000000000000        0x0 C:/Users/RNG/Desktop/Stuff/Smash-Stuff/SMASH-ULTIMATE-MODS-BABY/50xx-the-mod/acmd-edits/code-mod-framework/lib/libnx_min/nx/lib\libnx_min.a(event.o)
 .data          0x0000000000000000        0x0 C:/Users/RNG/Desktop/Stuff/Smash-Stuff/SMASH-ULTIMATE-MODS-BABY/50xx-the-mod/acmd-edits/code-mod-framework/lib/libnx_min/nx/lib\libnx_min.a(event.o)
 .bss           0x0000000000000000        0x0 C:/Users/RNG/Desktop/Stuff/Smash-Stuff/SMASH-ULTIMATE-MODS-BABY/50xx-the-mod/acmd-edits/code-mod-framework/lib/libnx_min/nx/lib\libnx_min.a(event.o)
 .debug_info    0x0000000000000000      0x702 C:/Users/RNG/Desktop/Stuff/Smash-Stuff/SMASH-ULTIMATE-MODS-BABY/50xx-the-mod/acmd-edits/code-mod-framework/lib/libnx_min/nx/lib\libnx_min.a(event.o)
 .debug_abbrev  0x0000000000000000      0x28b C:/Users/RNG/Desktop/Stuff/Smash-Stuff/SMASH-ULTIMATE-MODS-BABY/50xx-the-mod/acmd-edits/code-mod-framework/lib/libnx_min/nx/lib\libnx_min.a(event.o)
 .debug_loc     0x0000000000000000      0x2e3 C:/Users/RNG/Desktop/Stuff/Smash-Stuff/SMASH-ULTIMATE-MODS-BABY/50xx-the-mod/acmd-edits/code-mod-framework/lib/libnx_min/nx/lib\libnx_min.a(event.o)
 .debug_aranges
                0x0000000000000000       0x80 C:/Users/RNG/Desktop/Stuff/Smash-Stuff/SMASH-ULTIMATE-MODS-BABY/50xx-the-mod/acmd-edits/code-mod-framework/lib/libnx_min/nx/lib\libnx_min.a(event.o)
 .debug_ranges  0x0000000000000000       0xe0 C:/Users/RNG/Desktop/Stuff/Smash-Stuff/SMASH-ULTIMATE-MODS-BABY/50xx-the-mod/acmd-edits/code-mod-framework/lib/libnx_min/nx/lib\libnx_min.a(event.o)
 .debug_line    0x0000000000000000      0x3a9 C:/Users/RNG/Desktop/Stuff/Smash-Stuff/SMASH-ULTIMATE-MODS-BABY/50xx-the-mod/acmd-edits/code-mod-framework/lib/libnx_min/nx/lib\libnx_min.a(event.o)
 .debug_str     0x0000000000000000      0x950 C:/Users/RNG/Desktop/Stuff/Smash-Stuff/SMASH-ULTIMATE-MODS-BABY/50xx-the-mod/acmd-edits/code-mod-framework/lib/libnx_min/nx/lib\libnx_min.a(event.o)
 .comment       0x0000000000000000       0x23 C:/Users/RNG/Desktop/Stuff/Smash-Stuff/SMASH-ULTIMATE-MODS-BABY/50xx-the-mod/acmd-edits/code-mod-framework/lib/libnx_min/nx/lib\libnx_min.a(event.o)
 .text          0x0000000000000000        0x0 C:/Users/RNG/Desktop/Stuff/Smash-Stuff/SMASH-ULTIMATE-MODS-BABY/50xx-the-mod/acmd-edits/code-mod-framework/lib/libnx_min/nx/lib\libnx_min.a(tmem.o)
 .data          0x0000000000000000        0x0 C:/Users/RNG/Desktop/Stuff/Smash-Stuff/SMASH-ULTIMATE-MODS-BABY/50xx-the-mod/acmd-edits/code-mod-framework/lib/libnx_min/nx/lib\libnx_min.a(tmem.o)
 .bss           0x0000000000000000        0x0 C:/Users/RNG/Desktop/Stuff/Smash-Stuff/SMASH-ULTIMATE-MODS-BABY/50xx-the-mod/acmd-edits/code-mod-framework/lib/libnx_min/nx/lib\libnx_min.a(tmem.o)
 .debug_info    0x0000000000000000     0x100a C:/Users/RNG/Desktop/Stuff/Smash-Stuff/SMASH-ULTIMATE-MODS-BABY/50xx-the-mod/acmd-edits/code-mod-framework/lib/libnx_min/nx/lib\libnx_min.a(tmem.o)
 .debug_abbrev  0x0000000000000000      0x3a2 C:/Users/RNG/Desktop/Stuff/Smash-Stuff/SMASH-ULTIMATE-MODS-BABY/50xx-the-mod/acmd-edits/code-mod-framework/lib/libnx_min/nx/lib\libnx_min.a(tmem.o)
 .debug_loc     0x0000000000000000      0x6e2 C:/Users/RNG/Desktop/Stuff/Smash-Stuff/SMASH-ULTIMATE-MODS-BABY/50xx-the-mod/acmd-edits/code-mod-framework/lib/libnx_min/nx/lib\libnx_min.a(tmem.o)
 .debug_aranges
                0x0000000000000000       0x80 C:/Users/RNG/Desktop/Stuff/Smash-Stuff/SMASH-ULTIMATE-MODS-BABY/50xx-the-mod/acmd-edits/code-mod-framework/lib/libnx_min/nx/lib\libnx_min.a(tmem.o)
 .debug_ranges  0x0000000000000000       0xf0 C:/Users/RNG/Desktop/Stuff/Smash-Stuff/SMASH-ULTIMATE-MODS-BABY/50xx-the-mod/acmd-edits/code-mod-framework/lib/libnx_min/nx/lib\libnx_min.a(tmem.o)
 .debug_line    0x0000000000000000      0x507 C:/Users/RNG/Desktop/Stuff/Smash-Stuff/SMASH-ULTIMATE-MODS-BABY/50xx-the-mod/acmd-edits/code-mod-framework/lib/libnx_min/nx/lib\libnx_min.a(tmem.o)
 .debug_str     0x0000000000000000      0xd4f C:/Users/RNG/Desktop/Stuff/Smash-Stuff/SMASH-ULTIMATE-MODS-BABY/50xx-the-mod/acmd-edits/code-mod-framework/lib/libnx_min/nx/lib\libnx_min.a(tmem.o)
 .comment       0x0000000000000000       0x23 C:/Users/RNG/Desktop/Stuff/Smash-Stuff/SMASH-ULTIMATE-MODS-BABY/50xx-the-mod/acmd-edits/code-mod-framework/lib/libnx_min/nx/lib\libnx_min.a(tmem.o)
 .text          0x0000000000000000        0x0 C:/Users/RNG/Desktop/Stuff/Smash-Stuff/SMASH-ULTIMATE-MODS-BABY/50xx-the-mod/acmd-edits/code-mod-framework/lib/libnx_min/nx/lib\libnx_min.a(rwlock.o)
 .data          0x0000000000000000        0x0 C:/Users/RNG/Desktop/Stuff/Smash-Stuff/SMASH-ULTIMATE-MODS-BABY/50xx-the-mod/acmd-edits/code-mod-framework/lib/libnx_min/nx/lib\libnx_min.a(rwlock.o)
 .bss           0x0000000000000000        0x0 C:/Users/RNG/Desktop/Stuff/Smash-Stuff/SMASH-ULTIMATE-MODS-BABY/50xx-the-mod/acmd-edits/code-mod-framework/lib/libnx_min/nx/lib\libnx_min.a(rwlock.o)
 .debug_info    0x0000000000000000      0x659 C:/Users/RNG/Desktop/Stuff/Smash-Stuff/SMASH-ULTIMATE-MODS-BABY/50xx-the-mod/acmd-edits/code-mod-framework/lib/libnx_min/nx/lib\libnx_min.a(rwlock.o)
 .debug_abbrev  0x0000000000000000      0x1cc C:/Users/RNG/Desktop/Stuff/Smash-Stuff/SMASH-ULTIMATE-MODS-BABY/50xx-the-mod/acmd-edits/code-mod-framework/lib/libnx_min/nx/lib\libnx_min.a(rwlock.o)
 .debug_loc     0x0000000000000000      0x4ab C:/Users/RNG/Desktop/Stuff/Smash-Stuff/SMASH-ULTIMATE-MODS-BABY/50xx-the-mod/acmd-edits/code-mod-framework/lib/libnx_min/nx/lib\libnx_min.a(rwlock.o)
 .debug_aranges
                0x0000000000000000       0x70 C:/Users/RNG/Desktop/Stuff/Smash-Stuff/SMASH-ULTIMATE-MODS-BABY/50xx-the-mod/acmd-edits/code-mod-framework/lib/libnx_min/nx/lib\libnx_min.a(rwlock.o)
 .debug_ranges  0x0000000000000000      0x130 C:/Users/RNG/Desktop/Stuff/Smash-Stuff/SMASH-ULTIMATE-MODS-BABY/50xx-the-mod/acmd-edits/code-mod-framework/lib/libnx_min/nx/lib\libnx_min.a(rwlock.o)
 .debug_line    0x0000000000000000      0x3eb C:/Users/RNG/Desktop/Stuff/Smash-Stuff/SMASH-ULTIMATE-MODS-BABY/50xx-the-mod/acmd-edits/code-mod-framework/lib/libnx_min/nx/lib\libnx_min.a(rwlock.o)
 .debug_str     0x0000000000000000      0x346 C:/Users/RNG/Desktop/Stuff/Smash-Stuff/SMASH-ULTIMATE-MODS-BABY/50xx-the-mod/acmd-edits/code-mod-framework/lib/libnx_min/nx/lib\libnx_min.a(rwlock.o)
 .comment       0x0000000000000000       0x23 C:/Users/RNG/Desktop/Stuff/Smash-Stuff/SMASH-ULTIMATE-MODS-BABY/50xx-the-mod/acmd-edits/code-mod-framework/lib/libnx_min/nx/lib\libnx_min.a(rwlock.o)
 .text          0x0000000000000000        0x0 C:/Users/RNG/Desktop/Stuff/Smash-Stuff/SMASH-ULTIMATE-MODS-BABY/50xx-the-mod/acmd-edits/code-mod-framework/lib/libnx_min/nx/lib\libnx_min.a(wait.o)
 .data          0x0000000000000000        0x0 C:/Users/RNG/Desktop/Stuff/Smash-Stuff/SMASH-ULTIMATE-MODS-BABY/50xx-the-mod/acmd-edits/code-mod-framework/lib/libnx_min/nx/lib\libnx_min.a(wait.o)
 .bss           0x0000000000000000        0x0 C:/Users/RNG/Desktop/Stuff/Smash-Stuff/SMASH-ULTIMATE-MODS-BABY/50xx-the-mod/acmd-edits/code-mod-framework/lib/libnx_min/nx/lib\libnx_min.a(wait.o)
 .debug_info    0x0000000000000000      0xe46 C:/Users/RNG/Desktop/Stuff/Smash-Stuff/SMASH-ULTIMATE-MODS-BABY/50xx-the-mod/acmd-edits/code-mod-framework/lib/libnx_min/nx/lib\libnx_min.a(wait.o)
 .debug_abbrev  0x0000000000000000      0x35d C:/Users/RNG/Desktop/Stuff/Smash-Stuff/SMASH-ULTIMATE-MODS-BABY/50xx-the-mod/acmd-edits/code-mod-framework/lib/libnx_min/nx/lib\libnx_min.a(wait.o)
 .debug_loc     0x0000000000000000      0xeb6 C:/Users/RNG/Desktop/Stuff/Smash-Stuff/SMASH-ULTIMATE-MODS-BABY/50xx-the-mod/acmd-edits/code-mod-framework/lib/libnx_min/nx/lib\libnx_min.a(wait.o)
 .debug_aranges
                0x0000000000000000       0x60 C:/Users/RNG/Desktop/Stuff/Smash-Stuff/SMASH-ULTIMATE-MODS-BABY/50xx-the-mod/acmd-edits/code-mod-framework/lib/libnx_min/nx/lib\libnx_min.a(wait.o)
 .debug_ranges  0x0000000000000000      0x290 C:/Users/RNG/Desktop/Stuff/Smash-Stuff/SMASH-ULTIMATE-MODS-BABY/50xx-the-mod/acmd-edits/code-mod-framework/lib/libnx_min/nx/lib\libnx_min.a(wait.o)
 .debug_line    0x0000000000000000      0x7bb C:/Users/RNG/Desktop/Stuff/Smash-Stuff/SMASH-ULTIMATE-MODS-BABY/50xx-the-mod/acmd-edits/code-mod-framework/lib/libnx_min/nx/lib\libnx_min.a(wait.o)
 .debug_str     0x0000000000000000      0xa07 C:/Users/RNG/Desktop/Stuff/Smash-Stuff/SMASH-ULTIMATE-MODS-BABY/50xx-the-mod/acmd-edits/code-mod-framework/lib/libnx_min/nx/lib\libnx_min.a(wait.o)
 .comment       0x0000000000000000       0x23 C:/Users/RNG/Desktop/Stuff/Smash-Stuff/SMASH-ULTIMATE-MODS-BABY/50xx-the-mod/acmd-edits/code-mod-framework/lib/libnx_min/nx/lib\libnx_min.a(wait.o)
 .text          0x0000000000000000        0x0 C:/Users/RNG/Desktop/Stuff/Smash-Stuff/SMASH-ULTIMATE-MODS-BABY/50xx-the-mod/acmd-edits/code-mod-framework/lib/libnx_min/nx/lib\libnx_min.a(shmem.o)
 .data          0x0000000000000000        0x0 C:/Users/RNG/Desktop/Stuff/Smash-Stuff/SMASH-ULTIMATE-MODS-BABY/50xx-the-mod/acmd-edits/code-mod-framework/lib/libnx_min/nx/lib\libnx_min.a(shmem.o)
 .bss           0x0000000000000000        0x0 C:/Users/RNG/Desktop/Stuff/Smash-Stuff/SMASH-ULTIMATE-MODS-BABY/50xx-the-mod/acmd-edits/code-mod-framework/lib/libnx_min/nx/lib\libnx_min.a(shmem.o)
 .debug_info    0x0000000000000000      0xe91 C:/Users/RNG/Desktop/Stuff/Smash-Stuff/SMASH-ULTIMATE-MODS-BABY/50xx-the-mod/acmd-edits/code-mod-framework/lib/libnx_min/nx/lib\libnx_min.a(shmem.o)
 .debug_abbrev  0x0000000000000000      0x377 C:/Users/RNG/Desktop/Stuff/Smash-Stuff/SMASH-ULTIMATE-MODS-BABY/50xx-the-mod/acmd-edits/code-mod-framework/lib/libnx_min/nx/lib\libnx_min.a(shmem.o)
 .debug_loc     0x0000000000000000      0x442 C:/Users/RNG/Desktop/Stuff/Smash-Stuff/SMASH-ULTIMATE-MODS-BABY/50xx-the-mod/acmd-edits/code-mod-framework/lib/libnx_min/nx/lib\libnx_min.a(shmem.o)
 .debug_aranges
                0x0000000000000000       0x70 C:/Users/RNG/Desktop/Stuff/Smash-Stuff/SMASH-ULTIMATE-MODS-BABY/50xx-the-mod/acmd-edits/code-mod-framework/lib/libnx_min/nx/lib\libnx_min.a(shmem.o)
 .debug_ranges  0x0000000000000000       0xe0 C:/Users/RNG/Desktop/Stuff/Smash-Stuff/SMASH-ULTIMATE-MODS-BABY/50xx-the-mod/acmd-edits/code-mod-framework/lib/libnx_min/nx/lib\libnx_min.a(shmem.o)
 .debug_line    0x0000000000000000      0x401 C:/Users/RNG/Desktop/Stuff/Smash-Stuff/SMASH-ULTIMATE-MODS-BABY/50xx-the-mod/acmd-edits/code-mod-framework/lib/libnx_min/nx/lib\libnx_min.a(shmem.o)
 .debug_str     0x0000000000000000      0xc9a C:/Users/RNG/Desktop/Stuff/Smash-Stuff/SMASH-ULTIMATE-MODS-BABY/50xx-the-mod/acmd-edits/code-mod-framework/lib/libnx_min/nx/lib\libnx_min.a(shmem.o)
 .comment       0x0000000000000000       0x23 C:/Users/RNG/Desktop/Stuff/Smash-Stuff/SMASH-ULTIMATE-MODS-BABY/50xx-the-mod/acmd-edits/code-mod-framework/lib/libnx_min/nx/lib\libnx_min.a(shmem.o)
 .text          0x0000000000000000        0x0 C:/Users/RNG/Desktop/Stuff/Smash-Stuff/SMASH-ULTIMATE-MODS-BABY/50xx-the-mod/acmd-edits/code-mod-framework/lib/libnx_min/nx/lib\libnx_min.a(detect.o)
 .data          0x0000000000000000        0x0 C:/Users/RNG/Desktop/Stuff/Smash-Stuff/SMASH-ULTIMATE-MODS-BABY/50xx-the-mod/acmd-edits/code-mod-framework/lib/libnx_min/nx/lib\libnx_min.a(detect.o)
 .bss           0x0000000000000000        0x0 C:/Users/RNG/Desktop/Stuff/Smash-Stuff/SMASH-ULTIMATE-MODS-BABY/50xx-the-mod/acmd-edits/code-mod-framework/lib/libnx_min/nx/lib\libnx_min.a(detect.o)
 .debug_info    0x0000000000000000     0x103a C:/Users/RNG/Desktop/Stuff/Smash-Stuff/SMASH-ULTIMATE-MODS-BABY/50xx-the-mod/acmd-edits/code-mod-framework/lib/libnx_min/nx/lib\libnx_min.a(detect.o)
 .debug_abbrev  0x0000000000000000      0x31e C:/Users/RNG/Desktop/Stuff/Smash-Stuff/SMASH-ULTIMATE-MODS-BABY/50xx-the-mod/acmd-edits/code-mod-framework/lib/libnx_min/nx/lib\libnx_min.a(detect.o)
 .debug_loc     0x0000000000000000       0xb3 C:/Users/RNG/Desktop/Stuff/Smash-Stuff/SMASH-ULTIMATE-MODS-BABY/50xx-the-mod/acmd-edits/code-mod-framework/lib/libnx_min/nx/lib\libnx_min.a(detect.o)
 .debug_aranges
                0x0000000000000000       0x60 C:/Users/RNG/Desktop/Stuff/Smash-Stuff/SMASH-ULTIMATE-MODS-BABY/50xx-the-mod/acmd-edits/code-mod-framework/lib/libnx_min/nx/lib\libnx_min.a(detect.o)
 .debug_ranges  0x0000000000000000      0x130 C:/Users/RNG/Desktop/Stuff/Smash-Stuff/SMASH-ULTIMATE-MODS-BABY/50xx-the-mod/acmd-edits/code-mod-framework/lib/libnx_min/nx/lib\libnx_min.a(detect.o)
 .debug_line    0x0000000000000000      0x48e C:/Users/RNG/Desktop/Stuff/Smash-Stuff/SMASH-ULTIMATE-MODS-BABY/50xx-the-mod/acmd-edits/code-mod-framework/lib/libnx_min/nx/lib\libnx_min.a(detect.o)
 .debug_str     0x0000000000000000      0xea7 C:/Users/RNG/Desktop/Stuff/Smash-Stuff/SMASH-ULTIMATE-MODS-BABY/50xx-the-mod/acmd-edits/code-mod-framework/lib/libnx_min/nx/lib\libnx_min.a(detect.o)
 .comment       0x0000000000000000       0x23 C:/Users/RNG/Desktop/Stuff/Smash-Stuff/SMASH-ULTIMATE-MODS-BABY/50xx-the-mod/acmd-edits/code-mod-framework/lib/libnx_min/nx/lib\libnx_min.a(detect.o)
 .text          0x0000000000000000        0x0 C:/Users/RNG/Desktop/Stuff/Smash-Stuff/SMASH-ULTIMATE-MODS-BABY/50xx-the-mod/acmd-edits/code-mod-framework/lib/libnx_min/nx/lib\libnx_min.a(apm.o)
 .data          0x0000000000000000        0x0 C:/Users/RNG/Desktop/Stuff/Smash-Stuff/SMASH-ULTIMATE-MODS-BABY/50xx-the-mod/acmd-edits/code-mod-framework/lib/libnx_min/nx/lib\libnx_min.a(apm.o)
 .bss           0x0000000000000000        0x0 C:/Users/RNG/Desktop/Stuff/Smash-Stuff/SMASH-ULTIMATE-MODS-BABY/50xx-the-mod/acmd-edits/code-mod-framework/lib/libnx_min/nx/lib\libnx_min.a(apm.o)
 .debug_info    0x0000000000000000     0x1b13 C:/Users/RNG/Desktop/Stuff/Smash-Stuff/SMASH-ULTIMATE-MODS-BABY/50xx-the-mod/acmd-edits/code-mod-framework/lib/libnx_min/nx/lib\libnx_min.a(apm.o)
 .debug_abbrev  0x0000000000000000      0x442 C:/Users/RNG/Desktop/Stuff/Smash-Stuff/SMASH-ULTIMATE-MODS-BABY/50xx-the-mod/acmd-edits/code-mod-framework/lib/libnx_min/nx/lib\libnx_min.a(apm.o)
 .debug_loc     0x0000000000000000     0x239a C:/Users/RNG/Desktop/Stuff/Smash-Stuff/SMASH-ULTIMATE-MODS-BABY/50xx-the-mod/acmd-edits/code-mod-framework/lib/libnx_min/nx/lib\libnx_min.a(apm.o)
 .debug_aranges
                0x0000000000000000       0x80 C:/Users/RNG/Desktop/Stuff/Smash-Stuff/SMASH-ULTIMATE-MODS-BABY/50xx-the-mod/acmd-edits/code-mod-framework/lib/libnx_min/nx/lib\libnx_min.a(apm.o)
 .debug_ranges  0x0000000000000000      0x630 C:/Users/RNG/Desktop/Stuff/Smash-Stuff/SMASH-ULTIMATE-MODS-BABY/50xx-the-mod/acmd-edits/code-mod-framework/lib/libnx_min/nx/lib\libnx_min.a(apm.o)
 .debug_line    0x0000000000000000      0xbdc C:/Users/RNG/Desktop/Stuff/Smash-Stuff/SMASH-ULTIMATE-MODS-BABY/50xx-the-mod/acmd-edits/code-mod-framework/lib/libnx_min/nx/lib\libnx_min.a(apm.o)
 .debug_str     0x0000000000000000      0xa22 C:/Users/RNG/Desktop/Stuff/Smash-Stuff/SMASH-ULTIMATE-MODS-BABY/50xx-the-mod/acmd-edits/code-mod-framework/lib/libnx_min/nx/lib\libnx_min.a(apm.o)
 .comment       0x0000000000000000       0x23 C:/Users/RNG/Desktop/Stuff/Smash-Stuff/SMASH-ULTIMATE-MODS-BABY/50xx-the-mod/acmd-edits/code-mod-framework/lib/libnx_min/nx/lib\libnx_min.a(apm.o)
 .text          0x0000000000000000        0x0 c:/devkitpro/devkita64/bin/../lib/gcc/aarch64-none-elf/8.3.0/../../../../aarch64-none-elf/lib/pic\libg.a(lib_a-bsearch.o)
 .data          0x0000000000000000        0x0 c:/devkitpro/devkita64/bin/../lib/gcc/aarch64-none-elf/8.3.0/../../../../aarch64-none-elf/lib/pic\libg.a(lib_a-bsearch.o)
 .bss           0x0000000000000000        0x0 c:/devkitpro/devkita64/bin/../lib/gcc/aarch64-none-elf/8.3.0/../../../../aarch64-none-elf/lib/pic\libg.a(lib_a-bsearch.o)
 .comment       0x0000000000000000       0x23 c:/devkitpro/devkita64/bin/../lib/gcc/aarch64-none-elf/8.3.0/../../../../aarch64-none-elf/lib/pic\libg.a(lib_a-bsearch.o)
 .text          0x0000000000000000        0x0 c:/devkitpro/devkita64/bin/../lib/gcc/aarch64-none-elf/8.3.0/../../../../aarch64-none-elf/lib/pic\libg.a(lib_a-ctype_.o)
 .data          0x0000000000000000        0x0 c:/devkitpro/devkita64/bin/../lib/gcc/aarch64-none-elf/8.3.0/../../../../aarch64-none-elf/lib/pic\libg.a(lib_a-ctype_.o)
 .bss           0x0000000000000000        0x0 c:/devkitpro/devkita64/bin/../lib/gcc/aarch64-none-elf/8.3.0/../../../../aarch64-none-elf/lib/pic\libg.a(lib_a-ctype_.o)
 .comment       0x0000000000000000       0x23 c:/devkitpro/devkita64/bin/../lib/gcc/aarch64-none-elf/8.3.0/../../../../aarch64-none-elf/lib/pic\libg.a(lib_a-ctype_.o)
 .text          0x0000000000000000        0x0 c:/devkitpro/devkita64/bin/../lib/gcc/aarch64-none-elf/8.3.0/../../../../aarch64-none-elf/lib/pic\libg.a(lib_a-errno.o)
 .data          0x0000000000000000        0x0 c:/devkitpro/devkita64/bin/../lib/gcc/aarch64-none-elf/8.3.0/../../../../aarch64-none-elf/lib/pic\libg.a(lib_a-errno.o)
 .bss           0x0000000000000000        0x0 c:/devkitpro/devkita64/bin/../lib/gcc/aarch64-none-elf/8.3.0/../../../../aarch64-none-elf/lib/pic\libg.a(lib_a-errno.o)
 .comment       0x0000000000000000       0x23 c:/devkitpro/devkita64/bin/../lib/gcc/aarch64-none-elf/8.3.0/../../../../aarch64-none-elf/lib/pic\libg.a(lib_a-errno.o)
 .text          0x0000000000000000        0x0 c:/devkitpro/devkita64/bin/../lib/gcc/aarch64-none-elf/8.3.0/../../../../aarch64-none-elf/lib/pic\libg.a(lib_a-exit.o)
 .data          0x0000000000000000        0x0 c:/devkitpro/devkita64/bin/../lib/gcc/aarch64-none-elf/8.3.0/../../../../aarch64-none-elf/lib/pic\libg.a(lib_a-exit.o)
 .bss           0x0000000000000000        0x0 c:/devkitpro/devkita64/bin/../lib/gcc/aarch64-none-elf/8.3.0/../../../../aarch64-none-elf/lib/pic\libg.a(lib_a-exit.o)
 .comment       0x0000000000000000       0x23 c:/devkitpro/devkita64/bin/../lib/gcc/aarch64-none-elf/8.3.0/../../../../aarch64-none-elf/lib/pic\libg.a(lib_a-exit.o)
 .text          0x0000000000000000        0x0 c:/devkitpro/devkita64/bin/../lib/gcc/aarch64-none-elf/8.3.0/../../../../aarch64-none-elf/lib/pic\libg.a(lib_a-fini.o)
 .data          0x0000000000000000        0x0 c:/devkitpro/devkita64/bin/../lib/gcc/aarch64-none-elf/8.3.0/../../../../aarch64-none-elf/lib/pic\libg.a(lib_a-fini.o)
 .bss           0x0000000000000000        0x0 c:/devkitpro/devkita64/bin/../lib/gcc/aarch64-none-elf/8.3.0/../../../../aarch64-none-elf/lib/pic\libg.a(lib_a-fini.o)
 .comment       0x0000000000000000       0x23 c:/devkitpro/devkita64/bin/../lib/gcc/aarch64-none-elf/8.3.0/../../../../aarch64-none-elf/lib/pic\libg.a(lib_a-fini.o)
 .text          0x0000000000000000        0x0 c:/devkitpro/devkita64/bin/../lib/gcc/aarch64-none-elf/8.3.0/../../../../aarch64-none-elf/lib/pic\libg.a(lib_a-impure.o)
 .data          0x0000000000000000        0x0 c:/devkitpro/devkita64/bin/../lib/gcc/aarch64-none-elf/8.3.0/../../../../aarch64-none-elf/lib/pic\libg.a(lib_a-impure.o)
 .bss           0x0000000000000000        0x0 c:/devkitpro/devkita64/bin/../lib/gcc/aarch64-none-elf/8.3.0/../../../../aarch64-none-elf/lib/pic\libg.a(lib_a-impure.o)
 .comment       0x0000000000000000       0x23 c:/devkitpro/devkita64/bin/../lib/gcc/aarch64-none-elf/8.3.0/../../../../aarch64-none-elf/lib/pic\libg.a(lib_a-impure.o)
 .text          0x0000000000000000        0x0 c:/devkitpro/devkita64/bin/../lib/gcc/aarch64-none-elf/8.3.0/../../../../aarch64-none-elf/lib/pic\libg.a(lib_a-init.o)
 .data          0x0000000000000000        0x0 c:/devkitpro/devkita64/bin/../lib/gcc/aarch64-none-elf/8.3.0/../../../../aarch64-none-elf/lib/pic\libg.a(lib_a-init.o)
 .bss           0x0000000000000000        0x0 c:/devkitpro/devkita64/bin/../lib/gcc/aarch64-none-elf/8.3.0/../../../../aarch64-none-elf/lib/pic\libg.a(lib_a-init.o)
 .comment       0x0000000000000000       0x23 c:/devkitpro/devkita64/bin/../lib/gcc/aarch64-none-elf/8.3.0/../../../../aarch64-none-elf/lib/pic\libg.a(lib_a-init.o)
 .text          0x0000000000000000        0x0 c:/devkitpro/devkita64/bin/../lib/gcc/aarch64-none-elf/8.3.0/../../../../aarch64-none-elf/lib/pic\libg.a(lib_a-malign.o)
 .data          0x0000000000000000        0x0 c:/devkitpro/devkita64/bin/../lib/gcc/aarch64-none-elf/8.3.0/../../../../aarch64-none-elf/lib/pic\libg.a(lib_a-malign.o)
 .bss           0x0000000000000000        0x0 c:/devkitpro/devkita64/bin/../lib/gcc/aarch64-none-elf/8.3.0/../../../../aarch64-none-elf/lib/pic\libg.a(lib_a-malign.o)
 .comment       0x0000000000000000       0x23 c:/devkitpro/devkita64/bin/../lib/gcc/aarch64-none-elf/8.3.0/../../../../aarch64-none-elf/lib/pic\libg.a(lib_a-malign.o)
 .text          0x0000000000000000        0x0 c:/devkitpro/devkita64/bin/../lib/gcc/aarch64-none-elf/8.3.0/../../../../aarch64-none-elf/lib/pic\libg.a(lib_a-malignr.o)
 .data          0x0000000000000000        0x0 c:/devkitpro/devkita64/bin/../lib/gcc/aarch64-none-elf/8.3.0/../../../../aarch64-none-elf/lib/pic\libg.a(lib_a-malignr.o)
 .bss           0x0000000000000000        0x0 c:/devkitpro/devkita64/bin/../lib/gcc/aarch64-none-elf/8.3.0/../../../../aarch64-none-elf/lib/pic\libg.a(lib_a-malignr.o)
 .comment       0x0000000000000000       0x23 c:/devkitpro/devkita64/bin/../lib/gcc/aarch64-none-elf/8.3.0/../../../../aarch64-none-elf/lib/pic\libg.a(lib_a-malignr.o)
 .text          0x0000000000000000        0x0 c:/devkitpro/devkita64/bin/../lib/gcc/aarch64-none-elf/8.3.0/../../../../aarch64-none-elf/lib/pic\libg.a(lib_a-malloc.o)
 .data          0x0000000000000000        0x0 c:/devkitpro/devkita64/bin/../lib/gcc/aarch64-none-elf/8.3.0/../../../../aarch64-none-elf/lib/pic\libg.a(lib_a-malloc.o)
 .bss           0x0000000000000000        0x0 c:/devkitpro/devkita64/bin/../lib/gcc/aarch64-none-elf/8.3.0/../../../../aarch64-none-elf/lib/pic\libg.a(lib_a-malloc.o)
 .comment       0x0000000000000000       0x23 c:/devkitpro/devkita64/bin/../lib/gcc/aarch64-none-elf/8.3.0/../../../../aarch64-none-elf/lib/pic\libg.a(lib_a-malloc.o)
 .text          0x0000000000000000        0x0 c:/devkitpro/devkita64/bin/../lib/gcc/aarch64-none-elf/8.3.0/../../../../aarch64-none-elf/lib/pic\libg.a(lib_a-mallocr.o)
 .data          0x0000000000000000        0x0 c:/devkitpro/devkita64/bin/../lib/gcc/aarch64-none-elf/8.3.0/../../../../aarch64-none-elf/lib/pic\libg.a(lib_a-mallocr.o)
 .bss           0x0000000000000000        0x0 c:/devkitpro/devkita64/bin/../lib/gcc/aarch64-none-elf/8.3.0/../../../../aarch64-none-elf/lib/pic\libg.a(lib_a-mallocr.o)
 .comment       0x0000000000000000       0x23 c:/devkitpro/devkita64/bin/../lib/gcc/aarch64-none-elf/8.3.0/../../../../aarch64-none-elf/lib/pic\libg.a(lib_a-mallocr.o)
 .data          0x0000000000000000        0x0 c:/devkitpro/devkita64/bin/../lib/gcc/aarch64-none-elf/8.3.0/../../../../aarch64-none-elf/lib/pic\libg.a(lib_a-memcpy.o)
 .bss           0x0000000000000000        0x0 c:/devkitpro/devkita64/bin/../lib/gcc/aarch64-none-elf/8.3.0/../../../../aarch64-none-elf/lib/pic\libg.a(lib_a-memcpy.o)
 .data          0x0000000000000000        0x0 c:/devkitpro/devkita64/bin/../lib/gcc/aarch64-none-elf/8.3.0/../../../../aarch64-none-elf/lib/pic\libg.a(lib_a-memset.o)
 .bss           0x0000000000000000        0x0 c:/devkitpro/devkita64/bin/../lib/gcc/aarch64-none-elf/8.3.0/../../../../aarch64-none-elf/lib/pic\libg.a(lib_a-memset.o)
 .text          0x0000000000000000        0x0 c:/devkitpro/devkita64/bin/../lib/gcc/aarch64-none-elf/8.3.0/../../../../aarch64-none-elf/lib/pic\libg.a(lib_a-mlock.o)
 .data          0x0000000000000000        0x0 c:/devkitpro/devkita64/bin/../lib/gcc/aarch64-none-elf/8.3.0/../../../../aarch64-none-elf/lib/pic\libg.a(lib_a-mlock.o)
 .bss           0x0000000000000000        0x0 c:/devkitpro/devkita64/bin/../lib/gcc/aarch64-none-elf/8.3.0/../../../../aarch64-none-elf/lib/pic\libg.a(lib_a-mlock.o)
 .comment       0x0000000000000000       0x23 c:/devkitpro/devkita64/bin/../lib/gcc/aarch64-none-elf/8.3.0/../../../../aarch64-none-elf/lib/pic\libg.a(lib_a-mlock.o)
 .text          0x0000000000000000        0x0 c:/devkitpro/devkita64/bin/../lib/gcc/aarch64-none-elf/8.3.0/../../../../aarch64-none-elf/lib/pic\libg.a(lib_a-setenv.o)
 .data          0x0000000000000000        0x0 c:/devkitpro/devkita64/bin/../lib/gcc/aarch64-none-elf/8.3.0/../../../../aarch64-none-elf/lib/pic\libg.a(lib_a-setenv.o)
 .bss           0x0000000000000000        0x0 c:/devkitpro/devkita64/bin/../lib/gcc/aarch64-none-elf/8.3.0/../../../../aarch64-none-elf/lib/pic\libg.a(lib_a-setenv.o)
 .comment       0x0000000000000000       0x23 c:/devkitpro/devkita64/bin/../lib/gcc/aarch64-none-elf/8.3.0/../../../../aarch64-none-elf/lib/pic\libg.a(lib_a-setenv.o)
 .text          0x0000000000000000        0x0 c:/devkitpro/devkita64/bin/../lib/gcc/aarch64-none-elf/8.3.0/../../../../aarch64-none-elf/lib/pic\libg.a(lib_a-setenv_r.o)
 .data          0x0000000000000000        0x0 c:/devkitpro/devkita64/bin/../lib/gcc/aarch64-none-elf/8.3.0/../../../../aarch64-none-elf/lib/pic\libg.a(lib_a-setenv_r.o)
 .bss           0x0000000000000000        0x0 c:/devkitpro/devkita64/bin/../lib/gcc/aarch64-none-elf/8.3.0/../../../../aarch64-none-elf/lib/pic\libg.a(lib_a-setenv_r.o)
 .comment       0x0000000000000000       0x23 c:/devkitpro/devkita64/bin/../lib/gcc/aarch64-none-elf/8.3.0/../../../../aarch64-none-elf/lib/pic\libg.a(lib_a-setenv_r.o)
 .data          0x0000000000000000        0x0 c:/devkitpro/devkita64/bin/../lib/gcc/aarch64-none-elf/8.3.0/../../../../aarch64-none-elf/lib/pic\libg.a(lib_a-strchr.o)
 .bss           0x0000000000000000        0x0 c:/devkitpro/devkita64/bin/../lib/gcc/aarch64-none-elf/8.3.0/../../../../aarch64-none-elf/lib/pic\libg.a(lib_a-strchr.o)
 .data          0x0000000000000000        0x0 c:/devkitpro/devkita64/bin/../lib/gcc/aarch64-none-elf/8.3.0/../../../../aarch64-none-elf/lib/pic\libg.a(lib_a-strcmp.o)
 .bss           0x0000000000000000        0x0 c:/devkitpro/devkita64/bin/../lib/gcc/aarch64-none-elf/8.3.0/../../../../aarch64-none-elf/lib/pic\libg.a(lib_a-strcmp.o)
 .data          0x0000000000000000        0x0 c:/devkitpro/devkita64/bin/../lib/gcc/aarch64-none-elf/8.3.0/../../../../aarch64-none-elf/lib/pic\libg.a(lib_a-strcpy.o)
 .bss           0x0000000000000000        0x0 c:/devkitpro/devkita64/bin/../lib/gcc/aarch64-none-elf/8.3.0/../../../../aarch64-none-elf/lib/pic\libg.a(lib_a-strcpy.o)
 .data          0x0000000000000000        0x0 c:/devkitpro/devkita64/bin/../lib/gcc/aarch64-none-elf/8.3.0/../../../../aarch64-none-elf/lib/pic\libg.a(lib_a-strlen.o)
 .bss           0x0000000000000000        0x0 c:/devkitpro/devkita64/bin/../lib/gcc/aarch64-none-elf/8.3.0/../../../../aarch64-none-elf/lib/pic\libg.a(lib_a-strlen.o)
 .text          0x0000000000000000        0x0 c:/devkitpro/devkita64/bin/../lib/gcc/aarch64-none-elf/8.3.0/../../../../aarch64-none-elf/lib/pic\libg.a(lib_a-strncat.o)
 .data          0x0000000000000000        0x0 c:/devkitpro/devkita64/bin/../lib/gcc/aarch64-none-elf/8.3.0/../../../../aarch64-none-elf/lib/pic\libg.a(lib_a-strncat.o)
 .bss           0x0000000000000000        0x0 c:/devkitpro/devkita64/bin/../lib/gcc/aarch64-none-elf/8.3.0/../../../../aarch64-none-elf/lib/pic\libg.a(lib_a-strncat.o)
 .comment       0x0000000000000000       0x23 c:/devkitpro/devkita64/bin/../lib/gcc/aarch64-none-elf/8.3.0/../../../../aarch64-none-elf/lib/pic\libg.a(lib_a-strncat.o)
 .data          0x0000000000000000        0x0 c:/devkitpro/devkita64/bin/../lib/gcc/aarch64-none-elf/8.3.0/../../../../aarch64-none-elf/lib/pic\libg.a(lib_a-strncmp.o)
 .bss           0x0000000000000000        0x0 c:/devkitpro/devkita64/bin/../lib/gcc/aarch64-none-elf/8.3.0/../../../../aarch64-none-elf/lib/pic\libg.a(lib_a-strncmp.o)
 .text          0x0000000000000000        0x0 c:/devkitpro/devkita64/bin/../lib/gcc/aarch64-none-elf/8.3.0/../../../../aarch64-none-elf/lib/pic\libg.a(lib_a-strncpy.o)
 .data          0x0000000000000000        0x0 c:/devkitpro/devkita64/bin/../lib/gcc/aarch64-none-elf/8.3.0/../../../../aarch64-none-elf/lib/pic\libg.a(lib_a-strncpy.o)
 .bss           0x0000000000000000        0x0 c:/devkitpro/devkita64/bin/../lib/gcc/aarch64-none-elf/8.3.0/../../../../aarch64-none-elf/lib/pic\libg.a(lib_a-strncpy.o)
 .comment       0x0000000000000000       0x23 c:/devkitpro/devkita64/bin/../lib/gcc/aarch64-none-elf/8.3.0/../../../../aarch64-none-elf/lib/pic\libg.a(lib_a-strncpy.o)
 .data          0x0000000000000000        0x0 c:/devkitpro/devkita64/bin/../lib/gcc/aarch64-none-elf/8.3.0/../../../../aarch64-none-elf/lib/pic\libg.a(lib_a-strnlen.o)
 .bss           0x0000000000000000        0x0 c:/devkitpro/devkita64/bin/../lib/gcc/aarch64-none-elf/8.3.0/../../../../aarch64-none-elf/lib/pic\libg.a(lib_a-strnlen.o)
 .text          0x0000000000000000        0x0 c:/devkitpro/devkita64/bin/../lib/gcc/aarch64-none-elf/8.3.0/../../../../aarch64-none-elf/lib/pic\libg.a(lib_a-toupper.o)
 .data          0x0000000000000000        0x0 c:/devkitpro/devkita64/bin/../lib/gcc/aarch64-none-elf/8.3.0/../../../../aarch64-none-elf/lib/pic\libg.a(lib_a-toupper.o)
 .bss           0x0000000000000000        0x0 c:/devkitpro/devkita64/bin/../lib/gcc/aarch64-none-elf/8.3.0/../../../../aarch64-none-elf/lib/pic\libg.a(lib_a-toupper.o)
 .comment       0x0000000000000000       0x23 c:/devkitpro/devkita64/bin/../lib/gcc/aarch64-none-elf/8.3.0/../../../../aarch64-none-elf/lib/pic\libg.a(lib_a-toupper.o)
 .text          0x0000000000000000        0x0 c:/devkitpro/devkita64/bin/../lib/gcc/aarch64-none-elf/8.3.0/../../../../aarch64-none-elf/lib/pic\libg.a(lib_a-vsnprintf.o)
 .data          0x0000000000000000        0x0 c:/devkitpro/devkita64/bin/../lib/gcc/aarch64-none-elf/8.3.0/../../../../aarch64-none-elf/lib/pic\libg.a(lib_a-vsnprintf.o)
 .bss           0x0000000000000000        0x0 c:/devkitpro/devkita64/bin/../lib/gcc/aarch64-none-elf/8.3.0/../../../../aarch64-none-elf/lib/pic\libg.a(lib_a-vsnprintf.o)
 .comment       0x0000000000000000       0x23 c:/devkitpro/devkita64/bin/../lib/gcc/aarch64-none-elf/8.3.0/../../../../aarch64-none-elf/lib/pic\libg.a(lib_a-vsnprintf.o)
 .text          0x0000000000000000        0x0 c:/devkitpro/devkita64/bin/../lib/gcc/aarch64-none-elf/8.3.0/../../../../aarch64-none-elf/lib/pic\libg.a(lib_a-__call_atexit.o)
 .data          0x0000000000000000        0x0 c:/devkitpro/devkita64/bin/../lib/gcc/aarch64-none-elf/8.3.0/../../../../aarch64-none-elf/lib/pic\libg.a(lib_a-__call_atexit.o)
 .bss           0x0000000000000000        0x0 c:/devkitpro/devkita64/bin/../lib/gcc/aarch64-none-elf/8.3.0/../../../../aarch64-none-elf/lib/pic\libg.a(lib_a-__call_atexit.o)
 .comment       0x0000000000000000       0x23 c:/devkitpro/devkita64/bin/../lib/gcc/aarch64-none-elf/8.3.0/../../../../aarch64-none-elf/lib/pic\libg.a(lib_a-__call_atexit.o)
 .text          0x0000000000000000        0x0 c:/devkitpro/devkita64/bin/../lib/gcc/aarch64-none-elf/8.3.0/../../../../aarch64-none-elf/lib/pic\libg.a(lib_a-environ.o)
 .data          0x0000000000000000        0x0 c:/devkitpro/devkita64/bin/../lib/gcc/aarch64-none-elf/8.3.0/../../../../aarch64-none-elf/lib/pic\libg.a(lib_a-environ.o)
 .bss           0x0000000000000000        0x0 c:/devkitpro/devkita64/bin/../lib/gcc/aarch64-none-elf/8.3.0/../../../../aarch64-none-elf/lib/pic\libg.a(lib_a-environ.o)
 .comment       0x0000000000000000       0x23 c:/devkitpro/devkita64/bin/../lib/gcc/aarch64-none-elf/8.3.0/../../../../aarch64-none-elf/lib/pic\libg.a(lib_a-environ.o)
 .text          0x0000000000000000        0x0 c:/devkitpro/devkita64/bin/../lib/gcc/aarch64-none-elf/8.3.0/../../../../aarch64-none-elf/lib/pic\libg.a(lib_a-envlock.o)
 .data          0x0000000000000000        0x0 c:/devkitpro/devkita64/bin/../lib/gcc/aarch64-none-elf/8.3.0/../../../../aarch64-none-elf/lib/pic\libg.a(lib_a-envlock.o)
 .bss           0x0000000000000000        0x0 c:/devkitpro/devkita64/bin/../lib/gcc/aarch64-none-elf/8.3.0/../../../../aarch64-none-elf/lib/pic\libg.a(lib_a-envlock.o)
 .comment       0x0000000000000000       0x23 c:/devkitpro/devkita64/bin/../lib/gcc/aarch64-none-elf/8.3.0/../../../../aarch64-none-elf/lib/pic\libg.a(lib_a-envlock.o)
 .text          0x0000000000000000        0x0 c:/devkitpro/devkita64/bin/../lib/gcc/aarch64-none-elf/8.3.0/../../../../aarch64-none-elf/lib/pic\libg.a(lib_a-freer.o)
 .data          0x0000000000000000        0x0 c:/devkitpro/devkita64/bin/../lib/gcc/aarch64-none-elf/8.3.0/../../../../aarch64-none-elf/lib/pic\libg.a(lib_a-freer.o)
 .bss           0x0000000000000000        0x0 c:/devkitpro/devkita64/bin/../lib/gcc/aarch64-none-elf/8.3.0/../../../../aarch64-none-elf/lib/pic\libg.a(lib_a-freer.o)
 .comment       0x0000000000000000       0x23 c:/devkitpro/devkita64/bin/../lib/gcc/aarch64-none-elf/8.3.0/../../../../aarch64-none-elf/lib/pic\libg.a(lib_a-freer.o)
 .text          0x0000000000000000        0x0 c:/devkitpro/devkita64/bin/../lib/gcc/aarch64-none-elf/8.3.0/../../../../aarch64-none-elf/lib/pic\libg.a(lib_a-getenv_r.o)
 .data          0x0000000000000000        0x0 c:/devkitpro/devkita64/bin/../lib/gcc/aarch64-none-elf/8.3.0/../../../../aarch64-none-elf/lib/pic\libg.a(lib_a-getenv_r.o)
 .bss           0x0000000000000000        0x0 c:/devkitpro/devkita64/bin/../lib/gcc/aarch64-none-elf/8.3.0/../../../../aarch64-none-elf/lib/pic\libg.a(lib_a-getenv_r.o)
 .comment       0x0000000000000000       0x23 c:/devkitpro/devkita64/bin/../lib/gcc/aarch64-none-elf/8.3.0/../../../../aarch64-none-elf/lib/pic\libg.a(lib_a-getenv_r.o)
 .text          0x0000000000000000        0x0 c:/devkitpro/devkita64/bin/../lib/gcc/aarch64-none-elf/8.3.0/../../../../aarch64-none-elf/lib/pic\libg.a(lib_a-reallocr.o)
 .data          0x0000000000000000        0x0 c:/devkitpro/devkita64/bin/../lib/gcc/aarch64-none-elf/8.3.0/../../../../aarch64-none-elf/lib/pic\libg.a(lib_a-reallocr.o)
 .bss           0x0000000000000000        0x0 c:/devkitpro/devkita64/bin/../lib/gcc/aarch64-none-elf/8.3.0/../../../../aarch64-none-elf/lib/pic\libg.a(lib_a-reallocr.o)
 .comment       0x0000000000000000       0x23 c:/devkitpro/devkita64/bin/../lib/gcc/aarch64-none-elf/8.3.0/../../../../aarch64-none-elf/lib/pic\libg.a(lib_a-reallocr.o)
 .text          0x0000000000000000        0x0 c:/devkitpro/devkita64/bin/../lib/gcc/aarch64-none-elf/8.3.0/../../../../aarch64-none-elf/lib/pic\libg.a(lib_a-svfprintf.o)
 .data          0x0000000000000000        0x0 c:/devkitpro/devkita64/bin/../lib/gcc/aarch64-none-elf/8.3.0/../../../../aarch64-none-elf/lib/pic\libg.a(lib_a-svfprintf.o)
 .bss           0x0000000000000000        0x0 c:/devkitpro/devkita64/bin/../lib/gcc/aarch64-none-elf/8.3.0/../../../../aarch64-none-elf/lib/pic\libg.a(lib_a-svfprintf.o)
 .comment       0x0000000000000000       0x23 c:/devkitpro/devkita64/bin/../lib/gcc/aarch64-none-elf/8.3.0/../../../../aarch64-none-elf/lib/pic\libg.a(lib_a-svfprintf.o)
 .text          0x0000000000000000        0x0 c:/devkitpro/devkita64/bin/../lib/gcc/aarch64-none-elf/8.3.0/../../../../aarch64-none-elf/lib/pic\libg.a(lib_a-wcrtomb.o)
 .data          0x0000000000000000        0x0 c:/devkitpro/devkita64/bin/../lib/gcc/aarch64-none-elf/8.3.0/../../../../aarch64-none-elf/lib/pic\libg.a(lib_a-wcrtomb.o)
 .bss           0x0000000000000000        0x0 c:/devkitpro/devkita64/bin/../lib/gcc/aarch64-none-elf/8.3.0/../../../../aarch64-none-elf/lib/pic\libg.a(lib_a-wcrtomb.o)
 .comment       0x0000000000000000       0x23 c:/devkitpro/devkita64/bin/../lib/gcc/aarch64-none-elf/8.3.0/../../../../aarch64-none-elf/lib/pic\libg.a(lib_a-wcrtomb.o)
 .text          0x0000000000000000        0x0 c:/devkitpro/devkita64/bin/../lib/gcc/aarch64-none-elf/8.3.0/../../../../aarch64-none-elf/lib/pic\libg.a(lib_a-wcsrtombs.o)
 .data          0x0000000000000000        0x0 c:/devkitpro/devkita64/bin/../lib/gcc/aarch64-none-elf/8.3.0/../../../../aarch64-none-elf/lib/pic\libg.a(lib_a-wcsrtombs.o)
 .bss           0x0000000000000000        0x0 c:/devkitpro/devkita64/bin/../lib/gcc/aarch64-none-elf/8.3.0/../../../../aarch64-none-elf/lib/pic\libg.a(lib_a-wcsrtombs.o)
 .comment       0x0000000000000000       0x23 c:/devkitpro/devkita64/bin/../lib/gcc/aarch64-none-elf/8.3.0/../../../../aarch64-none-elf/lib/pic\libg.a(lib_a-wcsrtombs.o)
 .text          0x0000000000000000        0x0 c:/devkitpro/devkita64/bin/../lib/gcc/aarch64-none-elf/8.3.0/../../../../aarch64-none-elf/lib/pic\libg.a(lib_a-dtoa.o)
 .data          0x0000000000000000        0x0 c:/devkitpro/devkita64/bin/../lib/gcc/aarch64-none-elf/8.3.0/../../../../aarch64-none-elf/lib/pic\libg.a(lib_a-dtoa.o)
 .bss           0x0000000000000000        0x0 c:/devkitpro/devkita64/bin/../lib/gcc/aarch64-none-elf/8.3.0/../../../../aarch64-none-elf/lib/pic\libg.a(lib_a-dtoa.o)
 .comment       0x0000000000000000       0x23 c:/devkitpro/devkita64/bin/../lib/gcc/aarch64-none-elf/8.3.0/../../../../aarch64-none-elf/lib/pic\libg.a(lib_a-dtoa.o)
 .text          0x0000000000000000        0x0 c:/devkitpro/devkita64/bin/../lib/gcc/aarch64-none-elf/8.3.0/../../../../aarch64-none-elf/lib/pic\libg.a(lib_a-localeconv.o)
 .data          0x0000000000000000        0x0 c:/devkitpro/devkita64/bin/../lib/gcc/aarch64-none-elf/8.3.0/../../../../aarch64-none-elf/lib/pic\libg.a(lib_a-localeconv.o)
 .bss           0x0000000000000000        0x0 c:/devkitpro/devkita64/bin/../lib/gcc/aarch64-none-elf/8.3.0/../../../../aarch64-none-elf/lib/pic\libg.a(lib_a-localeconv.o)
 .comment       0x0000000000000000       0x23 c:/devkitpro/devkita64/bin/../lib/gcc/aarch64-none-elf/8.3.0/../../../../aarch64-none-elf/lib/pic\libg.a(lib_a-localeconv.o)
 .text          0x0000000000000000        0x0 c:/devkitpro/devkita64/bin/../lib/gcc/aarch64-none-elf/8.3.0/../../../../aarch64-none-elf/lib/pic\libg.a(lib_a-locale.o)
 .data          0x0000000000000000        0x0 c:/devkitpro/devkita64/bin/../lib/gcc/aarch64-none-elf/8.3.0/../../../../aarch64-none-elf/lib/pic\libg.a(lib_a-locale.o)
 .bss           0x0000000000000000        0x0 c:/devkitpro/devkita64/bin/../lib/gcc/aarch64-none-elf/8.3.0/../../../../aarch64-none-elf/lib/pic\libg.a(lib_a-locale.o)
 .comment       0x0000000000000000       0x23 c:/devkitpro/devkita64/bin/../lib/gcc/aarch64-none-elf/8.3.0/../../../../aarch64-none-elf/lib/pic\libg.a(lib_a-locale.o)
 .text          0x0000000000000000        0x0 c:/devkitpro/devkita64/bin/../lib/gcc/aarch64-none-elf/8.3.0/../../../../aarch64-none-elf/lib/pic\libg.a(lib_a-mbtowc_r.o)
 .data          0x0000000000000000        0x0 c:/devkitpro/devkita64/bin/../lib/gcc/aarch64-none-elf/8.3.0/../../../../aarch64-none-elf/lib/pic\libg.a(lib_a-mbtowc_r.o)
 .bss           0x0000000000000000        0x0 c:/devkitpro/devkita64/bin/../lib/gcc/aarch64-none-elf/8.3.0/../../../../aarch64-none-elf/lib/pic\libg.a(lib_a-mbtowc_r.o)
 .comment       0x0000000000000000       0x23 c:/devkitpro/devkita64/bin/../lib/gcc/aarch64-none-elf/8.3.0/../../../../aarch64-none-elf/lib/pic\libg.a(lib_a-mbtowc_r.o)
 .data          0x0000000000000000        0x0 c:/devkitpro/devkita64/bin/../lib/gcc/aarch64-none-elf/8.3.0/../../../../aarch64-none-elf/lib/pic\libg.a(lib_a-memchr.o)
 .bss           0x0000000000000000        0x0 c:/devkitpro/devkita64/bin/../lib/gcc/aarch64-none-elf/8.3.0/../../../../aarch64-none-elf/lib/pic\libg.a(lib_a-memchr.o)
 .data          0x0000000000000000        0x0 c:/devkitpro/devkita64/bin/../lib/gcc/aarch64-none-elf/8.3.0/../../../../aarch64-none-elf/lib/pic\libg.a(lib_a-memmove.o)
 .bss           0x0000000000000000        0x0 c:/devkitpro/devkita64/bin/../lib/gcc/aarch64-none-elf/8.3.0/../../../../aarch64-none-elf/lib/pic\libg.a(lib_a-memmove.o)
 .text          0x0000000000000000        0x0 c:/devkitpro/devkita64/bin/../lib/gcc/aarch64-none-elf/8.3.0/../../../../aarch64-none-elf/lib/pic\libg.a(lib_a-mprec.o)
 .data          0x0000000000000000        0x0 c:/devkitpro/devkita64/bin/../lib/gcc/aarch64-none-elf/8.3.0/../../../../aarch64-none-elf/lib/pic\libg.a(lib_a-mprec.o)
 .bss           0x0000000000000000        0x0 c:/devkitpro/devkita64/bin/../lib/gcc/aarch64-none-elf/8.3.0/../../../../aarch64-none-elf/lib/pic\libg.a(lib_a-mprec.o)
 .comment       0x0000000000000000       0x23 c:/devkitpro/devkita64/bin/../lib/gcc/aarch64-none-elf/8.3.0/../../../../aarch64-none-elf/lib/pic\libg.a(lib_a-mprec.o)
 .text          0x0000000000000000        0x0 c:/devkitpro/devkita64/bin/../lib/gcc/aarch64-none-elf/8.3.0/../../../../aarch64-none-elf/lib/pic\libg.a(lib_a-s_frexp.o)
 .data          0x0000000000000000        0x0 c:/devkitpro/devkita64/bin/../lib/gcc/aarch64-none-elf/8.3.0/../../../../aarch64-none-elf/lib/pic\libg.a(lib_a-s_frexp.o)
 .bss           0x0000000000000000        0x0 c:/devkitpro/devkita64/bin/../lib/gcc/aarch64-none-elf/8.3.0/../../../../aarch64-none-elf/lib/pic\libg.a(lib_a-s_frexp.o)
 .comment       0x0000000000000000       0x23 c:/devkitpro/devkita64/bin/../lib/gcc/aarch64-none-elf/8.3.0/../../../../aarch64-none-elf/lib/pic\libg.a(lib_a-s_frexp.o)
 .text          0x0000000000000000        0x0 c:/devkitpro/devkita64/bin/../lib/gcc/aarch64-none-elf/8.3.0/../../../../aarch64-none-elf/lib/pic\libg.a(lib_a-strcasecmp.o)
 .data          0x0000000000000000        0x0 c:/devkitpro/devkita64/bin/../lib/gcc/aarch64-none-elf/8.3.0/../../../../aarch64-none-elf/lib/pic\libg.a(lib_a-strcasecmp.o)
 .bss           0x0000000000000000        0x0 c:/devkitpro/devkita64/bin/../lib/gcc/aarch64-none-elf/8.3.0/../../../../aarch64-none-elf/lib/pic\libg.a(lib_a-strcasecmp.o)
 .comment       0x0000000000000000       0x23 c:/devkitpro/devkita64/bin/../lib/gcc/aarch64-none-elf/8.3.0/../../../../aarch64-none-elf/lib/pic\libg.a(lib_a-strcasecmp.o)
 .text          0x0000000000000000        0x0 c:/devkitpro/devkita64/bin/../lib/gcc/aarch64-none-elf/8.3.0/../../../../aarch64-none-elf/lib/pic\libg.a(lib_a-strcat.o)
 .data          0x0000000000000000        0x0 c:/devkitpro/devkita64/bin/../lib/gcc/aarch64-none-elf/8.3.0/../../../../aarch64-none-elf/lib/pic\libg.a(lib_a-strcat.o)
 .bss           0x0000000000000000        0x0 c:/devkitpro/devkita64/bin/../lib/gcc/aarch64-none-elf/8.3.0/../../../../aarch64-none-elf/lib/pic\libg.a(lib_a-strcat.o)
 .comment       0x0000000000000000       0x23 c:/devkitpro/devkita64/bin/../lib/gcc/aarch64-none-elf/8.3.0/../../../../aarch64-none-elf/lib/pic\libg.a(lib_a-strcat.o)
 .text          0x0000000000000000        0x0 c:/devkitpro/devkita64/bin/../lib/gcc/aarch64-none-elf/8.3.0/../../../../aarch64-none-elf/lib/pic\libg.a(lib_a-strlcpy.o)
 .data          0x0000000000000000        0x0 c:/devkitpro/devkita64/bin/../lib/gcc/aarch64-none-elf/8.3.0/../../../../aarch64-none-elf/lib/pic\libg.a(lib_a-strlcpy.o)
 .bss           0x0000000000000000        0x0 c:/devkitpro/devkita64/bin/../lib/gcc/aarch64-none-elf/8.3.0/../../../../aarch64-none-elf/lib/pic\libg.a(lib_a-strlcpy.o)
 .comment       0x0000000000000000       0x23 c:/devkitpro/devkita64/bin/../lib/gcc/aarch64-none-elf/8.3.0/../../../../aarch64-none-elf/lib/pic\libg.a(lib_a-strlcpy.o)
 .text          0x0000000000000000        0x0 c:/devkitpro/devkita64/bin/../lib/gcc/aarch64-none-elf/8.3.0/../../../../aarch64-none-elf/lib/pic\libg.a(lib_a-strncasecmp.o)
 .data          0x0000000000000000        0x0 c:/devkitpro/devkita64/bin/../lib/gcc/aarch64-none-elf/8.3.0/../../../../aarch64-none-elf/lib/pic\libg.a(lib_a-strncasecmp.o)
 .bss           0x0000000000000000        0x0 c:/devkitpro/devkita64/bin/../lib/gcc/aarch64-none-elf/8.3.0/../../../../aarch64-none-elf/lib/pic\libg.a(lib_a-strncasecmp.o)
 .comment       0x0000000000000000       0x23 c:/devkitpro/devkita64/bin/../lib/gcc/aarch64-none-elf/8.3.0/../../../../aarch64-none-elf/lib/pic\libg.a(lib_a-strncasecmp.o)
 .text          0x0000000000000000        0x0 c:/devkitpro/devkita64/bin/../lib/gcc/aarch64-none-elf/8.3.0/../../../../aarch64-none-elf/lib/pic\libg.a(lib_a-strtol.o)
 .data          0x0000000000000000        0x0 c:/devkitpro/devkita64/bin/../lib/gcc/aarch64-none-elf/8.3.0/../../../../aarch64-none-elf/lib/pic\libg.a(lib_a-strtol.o)
 .bss           0x0000000000000000        0x0 c:/devkitpro/devkita64/bin/../lib/gcc/aarch64-none-elf/8.3.0/../../../../aarch64-none-elf/lib/pic\libg.a(lib_a-strtol.o)
 .comment       0x0000000000000000       0x23 c:/devkitpro/devkita64/bin/../lib/gcc/aarch64-none-elf/8.3.0/../../../../aarch64-none-elf/lib/pic\libg.a(lib_a-strtol.o)
 .text          0x0000000000000000        0x0 c:/devkitpro/devkita64/bin/../lib/gcc/aarch64-none-elf/8.3.0/../../../../aarch64-none-elf/lib/pic\libg.a(lib_a-svfiprintf.o)
 .data          0x0000000000000000        0x0 c:/devkitpro/devkita64/bin/../lib/gcc/aarch64-none-elf/8.3.0/../../../../aarch64-none-elf/lib/pic\libg.a(lib_a-svfiprintf.o)
 .bss           0x0000000000000000        0x0 c:/devkitpro/devkita64/bin/../lib/gcc/aarch64-none-elf/8.3.0/../../../../aarch64-none-elf/lib/pic\libg.a(lib_a-svfiprintf.o)
 .comment       0x0000000000000000       0x23 c:/devkitpro/devkita64/bin/../lib/gcc/aarch64-none-elf/8.3.0/../../../../aarch64-none-elf/lib/pic\libg.a(lib_a-svfiprintf.o)
 .text          0x0000000000000000        0x0 c:/devkitpro/devkita64/bin/../lib/gcc/aarch64-none-elf/8.3.0/../../../../aarch64-none-elf/lib/pic\libg.a(lib_a-wcsnrtombs.o)
 .data          0x0000000000000000        0x0 c:/devkitpro/devkita64/bin/../lib/gcc/aarch64-none-elf/8.3.0/../../../../aarch64-none-elf/lib/pic\libg.a(lib_a-wcsnrtombs.o)
 .bss           0x0000000000000000        0x0 c:/devkitpro/devkita64/bin/../lib/gcc/aarch64-none-elf/8.3.0/../../../../aarch64-none-elf/lib/pic\libg.a(lib_a-wcsnrtombs.o)
 .comment       0x0000000000000000       0x23 c:/devkitpro/devkita64/bin/../lib/gcc/aarch64-none-elf/8.3.0/../../../../aarch64-none-elf/lib/pic\libg.a(lib_a-wcsnrtombs.o)
 .text          0x0000000000000000        0x0 c:/devkitpro/devkita64/bin/../lib/gcc/aarch64-none-elf/8.3.0/../../../../aarch64-none-elf/lib/pic\libg.a(lib_a-wctomb_r.o)
 .data          0x0000000000000000        0x0 c:/devkitpro/devkita64/bin/../lib/gcc/aarch64-none-elf/8.3.0/../../../../aarch64-none-elf/lib/pic\libg.a(lib_a-wctomb_r.o)
 .bss           0x0000000000000000        0x0 c:/devkitpro/devkita64/bin/../lib/gcc/aarch64-none-elf/8.3.0/../../../../aarch64-none-elf/lib/pic\libg.a(lib_a-wctomb_r.o)
 .comment       0x0000000000000000       0x23 c:/devkitpro/devkita64/bin/../lib/gcc/aarch64-none-elf/8.3.0/../../../../aarch64-none-elf/lib/pic\libg.a(lib_a-wctomb_r.o)
 .text          0x0000000000000000        0x0 c:/devkitpro/devkita64/bin/../lib/gcc/aarch64-none-elf/8.3.0/../../../../aarch64-none-elf/lib/pic\libg.a(lib_a-callocr.o)
 .data          0x0000000000000000        0x0 c:/devkitpro/devkita64/bin/../lib/gcc/aarch64-none-elf/8.3.0/../../../../aarch64-none-elf/lib/pic\libg.a(lib_a-callocr.o)
 .bss           0x0000000000000000        0x0 c:/devkitpro/devkita64/bin/../lib/gcc/aarch64-none-elf/8.3.0/../../../../aarch64-none-elf/lib/pic\libg.a(lib_a-callocr.o)
 .comment       0x0000000000000000       0x23 c:/devkitpro/devkita64/bin/../lib/gcc/aarch64-none-elf/8.3.0/../../../../aarch64-none-elf/lib/pic\libg.a(lib_a-callocr.o)
 .text          0x0000000000000000        0x0 c:/devkitpro/devkita64/bin/../lib/gcc/aarch64-none-elf/8.3.0/../../../../aarch64-none-elf/lib/pic\libsysbase.a(iosupport.o)
 .data          0x0000000000000000        0x0 c:/devkitpro/devkita64/bin/../lib/gcc/aarch64-none-elf/8.3.0/../../../../aarch64-none-elf/lib/pic\libsysbase.a(iosupport.o)
 .bss           0x0000000000000000        0x0 c:/devkitpro/devkita64/bin/../lib/gcc/aarch64-none-elf/8.3.0/../../../../aarch64-none-elf/lib/pic\libsysbase.a(iosupport.o)
 .comment       0x0000000000000000       0x23 c:/devkitpro/devkita64/bin/../lib/gcc/aarch64-none-elf/8.3.0/../../../../aarch64-none-elf/lib/pic\libsysbase.a(iosupport.o)
 .text          0x0000000000000000        0x0 c:/devkitpro/devkita64/bin/../lib/gcc/aarch64-none-elf/8.3.0/../../../../aarch64-none-elf/lib/pic\libsysbase.a(sbrk.o)
 .data          0x0000000000000000        0x0 c:/devkitpro/devkita64/bin/../lib/gcc/aarch64-none-elf/8.3.0/../../../../aarch64-none-elf/lib/pic\libsysbase.a(sbrk.o)
 .bss           0x0000000000000000        0x0 c:/devkitpro/devkita64/bin/../lib/gcc/aarch64-none-elf/8.3.0/../../../../aarch64-none-elf/lib/pic\libsysbase.a(sbrk.o)
 .comment       0x0000000000000000       0x23 c:/devkitpro/devkita64/bin/../lib/gcc/aarch64-none-elf/8.3.0/../../../../aarch64-none-elf/lib/pic\libsysbase.a(sbrk.o)
 .text          0x0000000000000000        0x0 c:/devkitpro/devkita64/bin/../lib/gcc/aarch64-none-elf/8.3.0/../../../../aarch64-none-elf/lib/pic\libsysbase.a(_exit.o)
 .data          0x0000000000000000        0x0 c:/devkitpro/devkita64/bin/../lib/gcc/aarch64-none-elf/8.3.0/../../../../aarch64-none-elf/lib/pic\libsysbase.a(_exit.o)
 .bss           0x0000000000000000        0x0 c:/devkitpro/devkita64/bin/../lib/gcc/aarch64-none-elf/8.3.0/../../../../aarch64-none-elf/lib/pic\libsysbase.a(_exit.o)
 .comment       0x0000000000000000       0x23 c:/devkitpro/devkita64/bin/../lib/gcc/aarch64-none-elf/8.3.0/../../../../aarch64-none-elf/lib/pic\libsysbase.a(_exit.o)
 .text          0x0000000000000000        0x0 c:/devkitpro/devkita64/bin/../lib/gcc/aarch64-none-elf/8.3.0/../../../../aarch64-none-elf/lib/pic\libsysbase.a(malloc_vars.o)
 .data          0x0000000000000000        0x0 c:/devkitpro/devkita64/bin/../lib/gcc/aarch64-none-elf/8.3.0/../../../../aarch64-none-elf/lib/pic\libsysbase.a(malloc_vars.o)
 .bss           0x0000000000000000        0x0 c:/devkitpro/devkita64/bin/../lib/gcc/aarch64-none-elf/8.3.0/../../../../aarch64-none-elf/lib/pic\libsysbase.a(malloc_vars.o)
 .comment       0x0000000000000000       0x23 c:/devkitpro/devkita64/bin/../lib/gcc/aarch64-none-elf/8.3.0/../../../../aarch64-none-elf/lib/pic\libsysbase.a(malloc_vars.o)
 .text          0x0000000000000000        0x0 c:/devkitpro/devkita64/bin/../lib/gcc/aarch64-none-elf/8.3.0/../../../../aarch64-none-elf/lib/pic\libsysbase.a(chdir.o)
 .data          0x0000000000000000        0x0 c:/devkitpro/devkita64/bin/../lib/gcc/aarch64-none-elf/8.3.0/../../../../aarch64-none-elf/lib/pic\libsysbase.a(chdir.o)
 .bss           0x0000000000000000        0x0 c:/devkitpro/devkita64/bin/../lib/gcc/aarch64-none-elf/8.3.0/../../../../aarch64-none-elf/lib/pic\libsysbase.a(chdir.o)
 .comment       0x0000000000000000       0x23 c:/devkitpro/devkita64/bin/../lib/gcc/aarch64-none-elf/8.3.0/../../../../aarch64-none-elf/lib/pic\libsysbase.a(chdir.o)
 .text          0x0000000000000000        0x0 c:/devkitpro/devkita64/bin/../lib/gcc/aarch64-none-elf/8.3.0/../../../../aarch64-none-elf/lib/pic\libsysbase.a(locks.o)
 .data          0x0000000000000000        0x0 c:/devkitpro/devkita64/bin/../lib/gcc/aarch64-none-elf/8.3.0/../../../../aarch64-none-elf/lib/pic\libsysbase.a(locks.o)
 .bss           0x0000000000000000        0x0 c:/devkitpro/devkita64/bin/../lib/gcc/aarch64-none-elf/8.3.0/../../../../aarch64-none-elf/lib/pic\libsysbase.a(locks.o)
 .comment       0x0000000000000000       0x23 c:/devkitpro/devkita64/bin/../lib/gcc/aarch64-none-elf/8.3.0/../../../../aarch64-none-elf/lib/pic\libsysbase.a(locks.o)
 .text          0x0000000000000000        0x0 c:/devkitpro/devkita64/bin/../lib/gcc/aarch64-none-elf/8.3.0/../../../../aarch64-none-elf/lib/pic\libsysbase.a(getreent.o)
 .data          0x0000000000000000        0x0 c:/devkitpro/devkita64/bin/../lib/gcc/aarch64-none-elf/8.3.0/../../../../aarch64-none-elf/lib/pic\libsysbase.a(getreent.o)
 .bss           0x0000000000000000        0x0 c:/devkitpro/devkita64/bin/../lib/gcc/aarch64-none-elf/8.3.0/../../../../aarch64-none-elf/lib/pic\libsysbase.a(getreent.o)
 .comment       0x0000000000000000       0x23 c:/devkitpro/devkita64/bin/../lib/gcc/aarch64-none-elf/8.3.0/../../../../aarch64-none-elf/lib/pic\libsysbase.a(getreent.o)
 .text          0x0000000000000000        0x0 c:/devkitpro/devkita64/bin/../lib/gcc/aarch64-none-elf/8.3.0/../../../../aarch64-none-elf/lib/pic\libsysbase.a(clocks.o)
 .data          0x0000000000000000        0x0 c:/devkitpro/devkita64/bin/../lib/gcc/aarch64-none-elf/8.3.0/../../../../aarch64-none-elf/lib/pic\libsysbase.a(clocks.o)
 .bss           0x0000000000000000        0x0 c:/devkitpro/devkita64/bin/../lib/gcc/aarch64-none-elf/8.3.0/../../../../aarch64-none-elf/lib/pic\libsysbase.a(clocks.o)
 .comment       0x0000000000000000       0x23 c:/devkitpro/devkita64/bin/../lib/gcc/aarch64-none-elf/8.3.0/../../../../aarch64-none-elf/lib/pic\libsysbase.a(clocks.o)
 .text          0x0000000000000000        0x0 c:/devkitpro/devkita64/bin/../lib/gcc/aarch64-none-elf/8.3.0/pic\libgcc.a(trunctfdf2.o)
 .data          0x0000000000000000        0x0 c:/devkitpro/devkita64/bin/../lib/gcc/aarch64-none-elf/8.3.0/pic\libgcc.a(trunctfdf2.o)
 .bss           0x0000000000000000        0x0 c:/devkitpro/devkita64/bin/../lib/gcc/aarch64-none-elf/8.3.0/pic\libgcc.a(trunctfdf2.o)
 .comment       0x0000000000000000       0x23 c:/devkitpro/devkita64/bin/../lib/gcc/aarch64-none-elf/8.3.0/pic\libgcc.a(trunctfdf2.o)
 .text          0x0000000000000000        0x0 c:/devkitpro/devkita64/bin/../lib/gcc/aarch64-none-elf/8.3.0/pic\libgcc.a(sfp-exceptions.o)
 .data          0x0000000000000000        0x0 c:/devkitpro/devkita64/bin/../lib/gcc/aarch64-none-elf/8.3.0/pic\libgcc.a(sfp-exceptions.o)
 .bss           0x0000000000000000        0x0 c:/devkitpro/devkita64/bin/../lib/gcc/aarch64-none-elf/8.3.0/pic\libgcc.a(sfp-exceptions.o)
 .comment       0x0000000000000000       0x23 c:/devkitpro/devkita64/bin/../lib/gcc/aarch64-none-elf/8.3.0/pic\libgcc.a(sfp-exceptions.o)
 .data          0x0000000000000000        0x0 c:/devkitpro/devkita64/bin/../lib/gcc/aarch64-none-elf/8.3.0/../../../../aarch64-none-elf/lib/pic\libg.a(lib_a-strrchr.o)
 .bss           0x0000000000000000        0x0 c:/devkitpro/devkita64/bin/../lib/gcc/aarch64-none-elf/8.3.0/../../../../aarch64-none-elf/lib/pic\libg.a(lib_a-strrchr.o)
 .text          0x0000000000000000        0x0 c:/devkitpro/devkita64/bin/../lib/gcc/aarch64-none-elf/8.3.0/pic/crtend.o
 .data          0x0000000000000000        0x0 c:/devkitpro/devkita64/bin/../lib/gcc/aarch64-none-elf/8.3.0/pic/crtend.o
 .bss           0x0000000000000000        0x0 c:/devkitpro/devkita64/bin/../lib/gcc/aarch64-none-elf/8.3.0/pic/crtend.o
 .comment       0x0000000000000000       0x23 c:/devkitpro/devkita64/bin/../lib/gcc/aarch64-none-elf/8.3.0/pic/crtend.o
 .text          0x0000000000000000        0x0 c:/devkitpro/devkita64/bin/../lib/gcc/aarch64-none-elf/8.3.0/pic/crtn.o
 .data          0x0000000000000000        0x0 c:/devkitpro/devkita64/bin/../lib/gcc/aarch64-none-elf/8.3.0/pic/crtn.o
 .bss           0x0000000000000000        0x0 c:/devkitpro/devkita64/bin/../lib/gcc/aarch64-none-elf/8.3.0/pic/crtn.o

Memory Configuration

Name             Origin             Length             Attributes
*default*        0x0000000000000000 0xffffffffffffffff

Linker script and memory map

                0x0000000000000000                PROVIDE (__start__ = 0x0)
                0x0000000000000000                . = __start__

.crt0           0x0000000000000000      0x158
 *(.crt0)
 .crt0          0x0000000000000000      0x158 C:/Users/RNG/Desktop/Stuff/Smash-Stuff/SMASH-ULTIMATE-MODS-BABY/50xx-the-mod/acmd-edits/code-mod-framework/lib/libnx_min/nx/lib\libnx_min.a(switch_crt0.o)
                0x0000000000000000                _start
                0x0000000000000120                __nx_exit
                0x0000000000000130                __nx_mod0
                0x0000000000000158                . = ALIGN (0x8)

.init           0x0000000000000158       0x38
 *(.init)
 .init          0x0000000000000158       0x18 c:/devkitpro/devkita64/bin/../lib/gcc/aarch64-none-elf/8.3.0/pic/crti.o
                0x0000000000000158                _init
 .init          0x0000000000000170       0x1c c:/devkitpro/devkita64/bin/../lib/gcc/aarch64-none-elf/8.3.0/pic/crtn.o
                0x0000000000000190                . = ALIGN (0x8)
 *fill*         0x000000000000018c        0x4 

.plt            0x0000000000000190       0xa0
 *(.plt)
 .plt           0x0000000000000190       0xa0 c:/devkitpro/devkita64/bin/../lib/gcc/aarch64-none-elf/8.3.0/pic/crti.o
 *(.iplt)
                0x0000000000000230                . = ALIGN (0x8)

.text           0x0000000000000240    0x532c0
 *(.text.unlikely .text.*_unlikely .text.unlikely.*)
 *(.text.exit .text.exit.*)
 .text.exit     0x0000000000000240       0x38 c:/devkitpro/devkita64/bin/../lib/gcc/aarch64-none-elf/8.3.0/../../../../aarch64-none-elf/lib/pic\libg.a(lib_a-exit.o)
                0x0000000000000240                exit
 *(.text.startup .text.startup.*)
 *fill*         0x0000000000000278        0x8 
 .text.startup  0x0000000000000280      0xe20 main.o
                0x0000000000000280                main
 *(.text.hot .text.hot.*)
 *(.text .stub .text.* .gnu.linkonce.t.*)
 .text.deregister_tm_clones
                0x00000000000010a0       0x2c c:/devkitpro/devkita64/bin/../lib/gcc/aarch64-none-elf/8.3.0/pic/crtbegin.o
 *fill*         0x00000000000010cc        0x4 
 .text.register_tm_clones
                0x00000000000010d0       0x38 c:/devkitpro/devkita64/bin/../lib/gcc/aarch64-none-elf/8.3.0/pic/crtbegin.o
 .text.__do_global_dtors_aux
                0x0000000000001108       0x48 c:/devkitpro/devkita64/bin/../lib/gcc/aarch64-none-elf/8.3.0/pic/crtbegin.o
 .text.frame_dummy
                0x0000000000001150       0x34 c:/devkitpro/devkita64/bin/../lib/gcc/aarch64-none-elf/8.3.0/pic/crtbegin.o
 *fill*         0x0000000000001184        0xc 
 .text          0x0000000000001190    0x292b0 main.o
                0x00000000000011a0                get_command_flag_cat_replace(unsigned long, int)
                0x0000000000001380                clear_lua_stack_replace(lib::L2CAgent*)
                0x000000000002a260                replace_scripts(lib::L2CAgent*, unsigned char, int)
                0x000000000002a2b0                sv_get_status_func(unsigned long, int, unsigned long)
                0x000000000002a300                sv_replace_status_func(unsigned long, int, unsigned long, void*)
                0x000000000002a340                script_replacement()
                0x000000000002a3a0                __libnx_init
                0x000000000002a3f0                __libnx_exit
 .text._ZN6Hash40C2EPKc
                0x000000000002a440       0x90 main.o
                0x000000000002a440                Hash40::Hash40(char const*)
                0x000000000002a440                Hash40::Hash40(char const*)
 .text          0x000000000002a4d0      0xbb8 acmd_wrapper.o
                0x000000000002a4d0                is_before_frame(unsigned long, float)
                0x000000000002a500                null_acmd_func(lib::L2CAgent*, void*)
                0x000000000002a510                load_module(unsigned long, unsigned long)
                0x000000000002a520                load_module_impl(unsigned long, unsigned long)
                0x000000000002a530                ACMD::ACMD()
                0x000000000002a530                ACMD::ACMD()
                0x000000000002a540                ACMD::ACMD(char const*, char const*, char const*, char const*, void (*)(ACMD*))
                0x000000000002a540                ACMD::ACMD(char const*, char const*, char const*, char const*, void (*)(ACMD*))
                0x000000000002a560                ACMD::match()
                0x000000000002a5e0                ACMD::nullify_original(lib::L2CAgent*)
                0x000000000002a6b0                ACMD::run(lib::L2CAgent*)
                0x000000000002a7a0                ACMD::frame(float)
                0x000000000002a7c0                ACMD::wait(float)
                0x000000000002a7d0                ACMD::is_excute()
                0x000000000002a850                ACMD::_frame(float)
                0x000000000002a8e0                ACMD::_frame_reimpl(float)
                0x000000000002a9d0                ACMD::_wait(float)
                0x000000000002aa60                ACMD::_is_excute()
                0x000000000002ab00                ACMD::wrap(void (*)(unsigned long), std::initializer_list<lib::L2CValue>)
                0x000000000002aba0                ACMD::ATTACK(unsigned long, unsigned long, unsigned long, float, unsigned long, unsigned long, unsigned long, unsigned long, float, float, float, float, float, float, unsigned long, unsigned long, unsigned long, unsigned long, float, unsigned long, unsigned long, unsigned long, unsigned long, unsigned long, unsigned long, unsigned long, unsigned long, unsigned long, unsigned long, unsigned long, unsigned long, unsigned long, unsigned long)
                0x000000000002ae20                ACMD::ATTACK(unsigned long, unsigned long, unsigned long, float, unsigned long, unsigned long, unsigned long, unsigned long, float, float, float, float, float, float, float, float, float, unsigned long, unsigned long, unsigned long, unsigned long, float, unsigned long, unsigned long, unsigned long, unsigned long, unsigned long, unsigned long, unsigned long, unsigned long, unsigned long, unsigned long, unsigned long, unsigned long, unsigned long, unsigned long)
 *fill*         0x000000000002b088        0x8 
 .text          0x000000000002b090      0x124 saltysd_helper.o
                0x000000000002b090                SaltySD_function_replace(unsigned long, unsigned long)
                0x000000000002b100                SaltySD_function_replace_sym(char*, unsigned long)
                0x000000000002b130                SaltySD_function_replace_sym_check_prev(char*, unsigned long, unsigned long&)
 *fill*         0x000000000002b1b4        0xc 
 .text          0x000000000002b1c0      0x128 l2c_imports.o
                0x000000000002b1c0                lib::lua_const(char const*)
                0x000000000002b200                lib::L2CValue::L2CValue()
                0x000000000002b200                lib::L2CValue::L2CValue()
                0x000000000002b210                lib::L2CValue::L2CValue(bool)
                0x000000000002b210                lib::L2CValue::L2CValue(bool)
                0x000000000002b230                lib::L2CValue::L2CValue(int)
                0x000000000002b230                lib::L2CValue::L2CValue(int)
                0x000000000002b250                lib::L2CValue::L2CValue(unsigned long)
                0x000000000002b250                lib::L2CValue::L2CValue(unsigned long)
                0x000000000002b260                lib::L2CValue::L2CValue(float)
                0x000000000002b260                lib::L2CValue::L2CValue(float)
                0x000000000002b270                lib::L2CValue::L2CValue(double)
                0x000000000002b270                lib::L2CValue::L2CValue(double)
                0x000000000002b290                lib::L2CValue::L2CValue(char const*)
                0x000000000002b290                lib::L2CValue::L2CValue(char const*)
                0x000000000002b2a0                lib::L2CAgent::get_lua_stack(int, lib::L2CValue*)
                0x000000000002b2b0                lib::L2CAgent::_clear_lua_stack()
 *fill*         0x000000000002b2e8        0x8 
 .text          0x000000000002b2f0      0x350 lua_bind_hash.o
                0x000000000002b2f0                lua_bind_hash(void const*, unsigned long)
                0x000000000002b610                lua_bind_hash_str(char const*)
 .text          0x000000000002b640      0x500 raygun_printer.o
                0x000000000002b640                show_segment(unsigned long, float, float, float, float, float)
                0x000000000002b710                alphabet_index(char)
                0x000000000002b780                print_char(unsigned long, char, int, float, float)
                0x000000000002b8e0                print_string(unsigned long, char const*, ...)
 .text.__libnx_exception_entry
                0x000000000002bb40      0x1c0 C:/Users/RNG/Desktop/Stuff/Smash-Stuff/SMASH-ULTIMATE-MODS-BABY/50xx-the-mod/acmd-edits/code-mod-framework/lib/libnx_min/nx/lib\libnx_min.a(exception.o)
                0x000000000002bb40                __libnx_exception_entry
 .text.__libnx_exception_returnentry
                0x000000000002bd00       0x18 C:/Users/RNG/Desktop/Stuff/Smash-Stuff/SMASH-ULTIMATE-MODS-BABY/50xx-the-mod/acmd-edits/code-mod-framework/lib/libnx_min/nx/lib\libnx_min.a(exception.o)
                0x000000000002bd00                __libnx_exception_returnentry
 *fill*         0x000000000002bd18        0x8 
 .text.argvSetup
                0x000000000002bd20      0x318 C:/Users/RNG/Desktop/Stuff/Smash-Stuff/SMASH-ULTIMATE-MODS-BABY/50xx-the-mod/acmd-edits/code-mod-framework/lib/libnx_min/nx/lib\libnx_min.a(argv.o)
                0x000000000002bd20                argvSetup
 *fill*         0x000000000002c038        0x8 
 .text.envSetup
                0x000000000002c040      0x208 C:/Users/RNG/Desktop/Stuff/Smash-Stuff/SMASH-ULTIMATE-MODS-BABY/50xx-the-mod/acmd-edits/code-mod-framework/lib/libnx_min/nx/lib\libnx_min.a(env.o)
                0x000000000002c040                envSetup
 *fill*         0x000000000002c248        0x8 
 .text.envGetMainThreadHandle
                0x000000000002c250       0x20 C:/Users/RNG/Desktop/Stuff/Smash-Stuff/SMASH-ULTIMATE-MODS-BABY/50xx-the-mod/acmd-edits/code-mod-framework/lib/libnx_min/nx/lib\libnx_min.a(env.o)
                0x000000000002c250                envGetMainThreadHandle
 .text.envIsNso
                0x000000000002c270        0xc C:/Users/RNG/Desktop/Stuff/Smash-Stuff/SMASH-ULTIMATE-MODS-BABY/50xx-the-mod/acmd-edits/code-mod-framework/lib/libnx_min/nx/lib\libnx_min.a(env.o)
                0x000000000002c270                envIsNso
 *fill*         0x000000000002c27c        0x4 
 .text.envHasHeapOverride
                0x000000000002c280       0x14 C:/Users/RNG/Desktop/Stuff/Smash-Stuff/SMASH-ULTIMATE-MODS-BABY/50xx-the-mod/acmd-edits/code-mod-framework/lib/libnx_min/nx/lib\libnx_min.a(env.o)
                0x000000000002c280                envHasHeapOverride
 *fill*         0x000000000002c294        0xc 
 .text.envGetHeapOverrideAddr
                0x000000000002c2a0        0xc C:/Users/RNG/Desktop/Stuff/Smash-Stuff/SMASH-ULTIMATE-MODS-BABY/50xx-the-mod/acmd-edits/code-mod-framework/lib/libnx_min/nx/lib\libnx_min.a(env.o)
                0x000000000002c2a0                envGetHeapOverrideAddr
 *fill*         0x000000000002c2ac        0x4 
 .text.envGetHeapOverrideSize
                0x000000000002c2b0        0xc C:/Users/RNG/Desktop/Stuff/Smash-Stuff/SMASH-ULTIMATE-MODS-BABY/50xx-the-mod/acmd-edits/code-mod-framework/lib/libnx_min/nx/lib\libnx_min.a(env.o)
                0x000000000002c2b0                envGetHeapOverrideSize
 *fill*         0x000000000002c2bc        0x4 
 .text.envHasArgv
                0x000000000002c2c0       0x14 C:/Users/RNG/Desktop/Stuff/Smash-Stuff/SMASH-ULTIMATE-MODS-BABY/50xx-the-mod/acmd-edits/code-mod-framework/lib/libnx_min/nx/lib\libnx_min.a(env.o)
                0x000000000002c2c0                envHasArgv
 *fill*         0x000000000002c2d4        0xc 
 .text.envGetArgv
                0x000000000002c2e0        0xc C:/Users/RNG/Desktop/Stuff/Smash-Stuff/SMASH-ULTIMATE-MODS-BABY/50xx-the-mod/acmd-edits/code-mod-framework/lib/libnx_min/nx/lib\libnx_min.a(env.o)
                0x000000000002c2e0                envGetArgv
 *fill*         0x000000000002c2ec        0x4 
 .text.envIsSyscallHinted
                0x000000000002c2f0       0x20 C:/Users/RNG/Desktop/Stuff/Smash-Stuff/SMASH-ULTIMATE-MODS-BABY/50xx-the-mod/acmd-edits/code-mod-framework/lib/libnx_min/nx/lib\libnx_min.a(env.o)
                0x000000000002c2f0                envIsSyscallHinted
 .text.envGetOwnProcessHandle
                0x000000000002c310        0xc C:/Users/RNG/Desktop/Stuff/Smash-Stuff/SMASH-ULTIMATE-MODS-BABY/50xx-the-mod/acmd-edits/code-mod-framework/lib/libnx_min/nx/lib\libnx_min.a(env.o)
                0x000000000002c310                envGetOwnProcessHandle
 *fill*         0x000000000002c31c        0x4 
 .text.envGetExitFuncPtr
                0x000000000002c320        0xc C:/Users/RNG/Desktop/Stuff/Smash-Stuff/SMASH-ULTIMATE-MODS-BABY/50xx-the-mod/acmd-edits/code-mod-framework/lib/libnx_min/nx/lib\libnx_min.a(env.o)
                0x000000000002c320                envGetExitFuncPtr
 *fill*         0x000000000002c32c        0x4 
 .text.envSetExitFuncPtr
                0x000000000002c330        0xc C:/Users/RNG/Desktop/Stuff/Smash-Stuff/SMASH-ULTIMATE-MODS-BABY/50xx-the-mod/acmd-edits/code-mod-framework/lib/libnx_min/nx/lib\libnx_min.a(env.o)
                0x000000000002c330                envSetExitFuncPtr
 *fill*         0x000000000002c33c        0x4 
 .text.envSetNextLoad
                0x000000000002c340       0x7c C:/Users/RNG/Desktop/Stuff/Smash-Stuff/SMASH-ULTIMATE-MODS-BABY/50xx-the-mod/acmd-edits/code-mod-framework/lib/libnx_min/nx/lib\libnx_min.a(env.o)
                0x000000000002c340                envSetNextLoad
 *fill*         0x000000000002c3bc        0x4 
 .text.envHasNextLoad
                0x000000000002c3c0       0x14 C:/Users/RNG/Desktop/Stuff/Smash-Stuff/SMASH-ULTIMATE-MODS-BABY/50xx-the-mod/acmd-edits/code-mod-framework/lib/libnx_min/nx/lib\libnx_min.a(env.o)
                0x000000000002c3c0                envHasNextLoad
 *fill*         0x000000000002c3d4        0xc 
 .text.envGetLastLoadResult
                0x000000000002c3e0        0xc C:/Users/RNG/Desktop/Stuff/Smash-Stuff/SMASH-ULTIMATE-MODS-BABY/50xx-the-mod/acmd-edits/code-mod-framework/lib/libnx_min/nx/lib\libnx_min.a(env.o)
                0x000000000002c3e0                envGetLastLoadResult
 *fill*         0x000000000002c3ec        0x4 
 .text.envHasRandomSeed
                0x000000000002c3f0        0xc C:/Users/RNG/Desktop/Stuff/Smash-Stuff/SMASH-ULTIMATE-MODS-BABY/50xx-the-mod/acmd-edits/code-mod-framework/lib/libnx_min/nx/lib\libnx_min.a(env.o)
                0x000000000002c3f0                envHasRandomSeed
 *fill*         0x000000000002c3fc        0x4 
 .text.envGetRandomSeed
                0x000000000002c400       0x18 C:/Users/RNG/Desktop/Stuff/Smash-Stuff/SMASH-ULTIMATE-MODS-BABY/50xx-the-mod/acmd-edits/code-mod-framework/lib/libnx_min/nx/lib\libnx_min.a(env.o)
                0x000000000002c400                envGetRandomSeed
 *fill*         0x000000000002c418        0x8 
 .text.__libnx_initheap
                0x000000000002c420       0xd8 C:/Users/RNG/Desktop/Stuff/Smash-Stuff/SMASH-ULTIMATE-MODS-BABY/50xx-the-mod/acmd-edits/code-mod-framework/lib/libnx_min/nx/lib\libnx_min.a(init.o)
                0x000000000002c420                __libnx_initheap
 *fill*         0x000000000002c4f8        0x8 
 .text.__appInit
                0x000000000002c500       0xdc C:/Users/RNG/Desktop/Stuff/Smash-Stuff/SMASH-ULTIMATE-MODS-BABY/50xx-the-mod/acmd-edits/code-mod-framework/lib/libnx_min/nx/lib\libnx_min.a(init.o)
                0x000000000002c500                __appInit
 *fill*         0x000000000002c5dc        0x4 
 .text.__appExit
                0x000000000002c5e0       0x44 C:/Users/RNG/Desktop/Stuff/Smash-Stuff/SMASH-ULTIMATE-MODS-BABY/50xx-the-mod/acmd-edits/code-mod-framework/lib/libnx_min/nx/lib\libnx_min.a(init.o)
                0x000000000002c5e0                __appExit
 *fill*         0x000000000002c624        0xc 
 .text.hosversionGet
                0x000000000002c630       0x10 C:/Users/RNG/Desktop/Stuff/Smash-Stuff/SMASH-ULTIMATE-MODS-BABY/50xx-the-mod/acmd-edits/code-mod-framework/lib/libnx_min/nx/lib\libnx_min.a(hosversion.o)
                0x000000000002c630                hosversionGet
 .text.hosversionSet
                0x000000000002c640       0x10 C:/Users/RNG/Desktop/Stuff/Smash-Stuff/SMASH-ULTIMATE-MODS-BABY/50xx-the-mod/acmd-edits/code-mod-framework/lib/libnx_min/nx/lib\libnx_min.a(hosversion.o)
                0x000000000002c640                hosversionSet
 .text.__nx_dynamic
                0x000000000002c650       0xa0 C:/Users/RNG/Desktop/Stuff/Smash-Stuff/SMASH-ULTIMATE-MODS-BABY/50xx-the-mod/acmd-edits/code-mod-framework/lib/libnx_min/nx/lib\libnx_min.a(dynamic.o)
                0x000000000002c650                __nx_dynamic
 .text.fsdev_link
                0x000000000002c6f0       0x10 C:/Users/RNG/Desktop/Stuff/Smash-Stuff/SMASH-ULTIMATE-MODS-BABY/50xx-the-mod/acmd-edits/code-mod-framework/lib/libnx_min/nx/lib\libnx_min.a(fs_dev.o)
 .text.fsdev_dirreset
                0x000000000002c700       0x10 C:/Users/RNG/Desktop/Stuff/Smash-Stuff/SMASH-ULTIMATE-MODS-BABY/50xx-the-mod/acmd-edits/code-mod-framework/lib/libnx_min/nx/lib\libnx_min.a(fs_dev.o)
 .text.fsdev_chmod
                0x000000000002c710       0x10 C:/Users/RNG/Desktop/Stuff/Smash-Stuff/SMASH-ULTIMATE-MODS-BABY/50xx-the-mod/acmd-edits/code-mod-framework/lib/libnx_min/nx/lib\libnx_min.a(fs_dev.o)
 .text.error_cmp
                0x000000000002c720       0x1c C:/Users/RNG/Desktop/Stuff/Smash-Stuff/SMASH-ULTIMATE-MODS-BABY/50xx-the-mod/acmd-edits/code-mod-framework/lib/libnx_min/nx/lib\libnx_min.a(fs_dev.o)
 *fill*         0x000000000002c73c        0x4 
 .text.fsdev_translate_error
                0x000000000002c740       0x5c C:/Users/RNG/Desktop/Stuff/Smash-Stuff/SMASH-ULTIMATE-MODS-BABY/50xx-the-mod/acmd-edits/code-mod-framework/lib/libnx_min/nx/lib\libnx_min.a(fs_dev.o)
 *fill*         0x000000000002c79c        0x4 
 .text.fsdev_fsync
                0x000000000002c7a0       0x40 C:/Users/RNG/Desktop/Stuff/Smash-Stuff/SMASH-ULTIMATE-MODS-BABY/50xx-the-mod/acmd-edits/code-mod-framework/lib/libnx_min/nx/lib\libnx_min.a(fs_dev.o)
 .text.fsdev_ftruncate
                0x000000000002c7e0       0x60 C:/Users/RNG/Desktop/Stuff/Smash-Stuff/SMASH-ULTIMATE-MODS-BABY/50xx-the-mod/acmd-edits/code-mod-framework/lib/libnx_min/nx/lib\libnx_min.a(fs_dev.o)
 .text.fsdev_dirclose
                0x000000000002c840       0x20 C:/Users/RNG/Desktop/Stuff/Smash-Stuff/SMASH-ULTIMATE-MODS-BABY/50xx-the-mod/acmd-edits/code-mod-framework/lib/libnx_min/nx/lib\libnx_min.a(fs_dev.o)
 .text.fsdev_dirnext
                0x000000000002c860      0x16c C:/Users/RNG/Desktop/Stuff/Smash-Stuff/SMASH-ULTIMATE-MODS-BABY/50xx-the-mod/acmd-edits/code-mod-framework/lib/libnx_min/nx/lib\libnx_min.a(fs_dev.o)
 *fill*         0x000000000002c9cc        0x4 
 .text.fsdev_close
                0x000000000002c9d0       0x1c C:/Users/RNG/Desktop/Stuff/Smash-Stuff/SMASH-ULTIMATE-MODS-BABY/50xx-the-mod/acmd-edits/code-mod-framework/lib/libnx_min/nx/lib\libnx_min.a(fs_dev.o)
 *fill*         0x000000000002c9ec        0x4 
 .text.fsdev_fstat
                0x000000000002c9f0       0xa4 C:/Users/RNG/Desktop/Stuff/Smash-Stuff/SMASH-ULTIMATE-MODS-BABY/50xx-the-mod/acmd-edits/code-mod-framework/lib/libnx_min/nx/lib\libnx_min.a(fs_dev.o)
 *fill*         0x000000000002ca94        0xc 
 .text.fsdev_seek
                0x000000000002caa0       0xb0 C:/Users/RNG/Desktop/Stuff/Smash-Stuff/SMASH-ULTIMATE-MODS-BABY/50xx-the-mod/acmd-edits/code-mod-framework/lib/libnx_min/nx/lib\libnx_min.a(fs_dev.o)
 .text.fsdev_read
                0x000000000002cb50      0x1a0 C:/Users/RNG/Desktop/Stuff/Smash-Stuff/SMASH-ULTIMATE-MODS-BABY/50xx-the-mod/acmd-edits/code-mod-framework/lib/libnx_min/nx/lib\libnx_min.a(fs_dev.o)
 .text.fsdev_write
                0x000000000002ccf0      0x1a8 C:/Users/RNG/Desktop/Stuff/Smash-Stuff/SMASH-ULTIMATE-MODS-BABY/50xx-the-mod/acmd-edits/code-mod-framework/lib/libnx_min/nx/lib\libnx_min.a(fs_dev.o)
 *fill*         0x000000000002ce98        0x8 
 .text.fsdevFindDevice
                0x000000000002cea0      0x120 C:/Users/RNG/Desktop/Stuff/Smash-Stuff/SMASH-ULTIMATE-MODS-BABY/50xx-the-mod/acmd-edits/code-mod-framework/lib/libnx_min/nx/lib\libnx_min.a(fs_dev.o)
 .text._fsdevMountDevice
                0x000000000002cfc0      0x140 C:/Users/RNG/Desktop/Stuff/Smash-Stuff/SMASH-ULTIMATE-MODS-BABY/50xx-the-mod/acmd-edits/code-mod-framework/lib/libnx_min/nx/lib\libnx_min.a(fs_dev.o)
 .text.fsdev_getfspath
                0x000000000002d100      0x1fc C:/Users/RNG/Desktop/Stuff/Smash-Stuff/SMASH-ULTIMATE-MODS-BABY/50xx-the-mod/acmd-edits/code-mod-framework/lib/libnx_min/nx/lib\libnx_min.a(fs_dev.o)
 *fill*         0x000000000002d2fc        0x4 
 .text.fsdev_rmdir
                0x000000000002d300       0x70 C:/Users/RNG/Desktop/Stuff/Smash-Stuff/SMASH-ULTIMATE-MODS-BABY/50xx-the-mod/acmd-edits/code-mod-framework/lib/libnx_min/nx/lib\libnx_min.a(fs_dev.o)
 .text.fsdev_statvfs
                0x000000000002d370       0xd4 C:/Users/RNG/Desktop/Stuff/Smash-Stuff/SMASH-ULTIMATE-MODS-BABY/50xx-the-mod/acmd-edits/code-mod-framework/lib/libnx_min/nx/lib\libnx_min.a(fs_dev.o)
 *fill*         0x000000000002d444        0xc 
 .text.fsdev_diropen
                0x000000000002d450       0xec C:/Users/RNG/Desktop/Stuff/Smash-Stuff/SMASH-ULTIMATE-MODS-BABY/50xx-the-mod/acmd-edits/code-mod-framework/lib/libnx_min/nx/lib\libnx_min.a(fs_dev.o)
 *fill*         0x000000000002d53c        0x4 
 .text.fsdev_mkdir
                0x000000000002d540       0x70 C:/Users/RNG/Desktop/Stuff/Smash-Stuff/SMASH-ULTIMATE-MODS-BABY/50xx-the-mod/acmd-edits/code-mod-framework/lib/libnx_min/nx/lib\libnx_min.a(fs_dev.o)
 .text.fsdev_rename
                0x000000000002d5b0      0x114 C:/Users/RNG/Desktop/Stuff/Smash-Stuff/SMASH-ULTIMATE-MODS-BABY/50xx-the-mod/acmd-edits/code-mod-framework/lib/libnx_min/nx/lib\libnx_min.a(fs_dev.o)
 *fill*         0x000000000002d6c4        0xc 
 .text.fsdev_chdir
                0x000000000002d6d0       0xe8 C:/Users/RNG/Desktop/Stuff/Smash-Stuff/SMASH-ULTIMATE-MODS-BABY/50xx-the-mod/acmd-edits/code-mod-framework/lib/libnx_min/nx/lib\libnx_min.a(fs_dev.o)
 *fill*         0x000000000002d7b8        0x8 
 .text.fsdev_unlink
                0x000000000002d7c0       0x70 C:/Users/RNG/Desktop/Stuff/Smash-Stuff/SMASH-ULTIMATE-MODS-BABY/50xx-the-mod/acmd-edits/code-mod-framework/lib/libnx_min/nx/lib\libnx_min.a(fs_dev.o)
 .text.fsdev_stat
                0x000000000002d830      0x1bc C:/Users/RNG/Desktop/Stuff/Smash-Stuff/SMASH-ULTIMATE-MODS-BABY/50xx-the-mod/acmd-edits/code-mod-framework/lib/libnx_min/nx/lib\libnx_min.a(fs_dev.o)
 *fill*         0x000000000002d9ec        0x4 
 .text.fsdev_open
                0x000000000002d9f0      0x19c C:/Users/RNG/Desktop/Stuff/Smash-Stuff/SMASH-ULTIMATE-MODS-BABY/50xx-the-mod/acmd-edits/code-mod-framework/lib/libnx_min/nx/lib\libnx_min.a(fs_dev.o)
 *fill*         0x000000000002db8c        0x4 
 .text._fsdevUnmountDeviceStruct.part.4
                0x000000000002db90       0xb8 C:/Users/RNG/Desktop/Stuff/Smash-Stuff/SMASH-ULTIMATE-MODS-BABY/50xx-the-mod/acmd-edits/code-mod-framework/lib/libnx_min/nx/lib\libnx_min.a(fs_dev.o)
 *fill*         0x000000000002dc48        0x8 
 .text.fsdev_fchmod
                0x000000000002dc50       0x10 C:/Users/RNG/Desktop/Stuff/Smash-Stuff/SMASH-ULTIMATE-MODS-BABY/50xx-the-mod/acmd-edits/code-mod-framework/lib/libnx_min/nx/lib\libnx_min.a(fs_dev.o)
 .text.fsdevMountDevice
                0x000000000002dc60       0x14 C:/Users/RNG/Desktop/Stuff/Smash-Stuff/SMASH-ULTIMATE-MODS-BABY/50xx-the-mod/acmd-edits/code-mod-framework/lib/libnx_min/nx/lib\libnx_min.a(fs_dev.o)
                0x000000000002dc60                fsdevMountDevice
 *fill*         0x000000000002dc74        0xc 
 .text.fsdevUnmountDevice
                0x000000000002dc80       0x3c C:/Users/RNG/Desktop/Stuff/Smash-Stuff/SMASH-ULTIMATE-MODS-BABY/50xx-the-mod/acmd-edits/code-mod-framework/lib/libnx_min/nx/lib\libnx_min.a(fs_dev.o)
                0x000000000002dc80                fsdevUnmountDevice
 *fill*         0x000000000002dcbc        0x4 
 .text.fsdevCommitDevice
                0x000000000002dcc0       0x28 C:/Users/RNG/Desktop/Stuff/Smash-Stuff/SMASH-ULTIMATE-MODS-BABY/50xx-the-mod/acmd-edits/code-mod-framework/lib/libnx_min/nx/lib\libnx_min.a(fs_dev.o)
                0x000000000002dcc0                fsdevCommitDevice
 *fill*         0x000000000002dce8        0x8 
 .text.fsdevSetArchiveBit
                0x000000000002dcf0       0x68 C:/Users/RNG/Desktop/Stuff/Smash-Stuff/SMASH-ULTIMATE-MODS-BABY/50xx-the-mod/acmd-edits/code-mod-framework/lib/libnx_min/nx/lib\libnx_min.a(fs_dev.o)
                0x000000000002dcf0                fsdevSetArchiveBit
 *fill*         0x000000000002dd58        0x8 
 .text.fsdevCreateFile
                0x000000000002dd60       0x88 C:/Users/RNG/Desktop/Stuff/Smash-Stuff/SMASH-ULTIMATE-MODS-BABY/50xx-the-mod/acmd-edits/code-mod-framework/lib/libnx_min/nx/lib\libnx_min.a(fs_dev.o)
                0x000000000002dd60                fsdevCreateFile
 *fill*         0x000000000002dde8        0x8 
 .text.fsdevDeleteDirectoryRecursively
                0x000000000002ddf0       0x68 C:/Users/RNG/Desktop/Stuff/Smash-Stuff/SMASH-ULTIMATE-MODS-BABY/50xx-the-mod/acmd-edits/code-mod-framework/lib/libnx_min/nx/lib\libnx_min.a(fs_dev.o)
                0x000000000002ddf0                fsdevDeleteDirectoryRecursively
 *fill*         0x000000000002de58        0x8 
 .text.fsdevMountSdmc
                0x000000000002de60      0x170 C:/Users/RNG/Desktop/Stuff/Smash-Stuff/SMASH-ULTIMATE-MODS-BABY/50xx-the-mod/acmd-edits/code-mod-framework/lib/libnx_min/nx/lib\libnx_min.a(fs_dev.o)
                0x000000000002de60                fsdevMountSdmc
 .text.fsdevUnmountAll
                0x000000000002dfd0       0x64 C:/Users/RNG/Desktop/Stuff/Smash-Stuff/SMASH-ULTIMATE-MODS-BABY/50xx-the-mod/acmd-edits/code-mod-framework/lib/libnx_min/nx/lib\libnx_min.a(fs_dev.o)
                0x000000000002dfd0                fsdevUnmountAll
 *fill*         0x000000000002e034        0xc 
 .text.fsdevGetDeviceFileSystem
                0x000000000002e040       0x20 C:/Users/RNG/Desktop/Stuff/Smash-Stuff/SMASH-ULTIMATE-MODS-BABY/50xx-the-mod/acmd-edits/code-mod-framework/lib/libnx_min/nx/lib\libnx_min.a(fs_dev.o)
                0x000000000002e040                fsdevGetDeviceFileSystem
 .text.fsdevGetDefaultFileSystem
                0x000000000002e060       0x40 C:/Users/RNG/Desktop/Stuff/Smash-Stuff/SMASH-ULTIMATE-MODS-BABY/50xx-the-mod/acmd-edits/code-mod-framework/lib/libnx_min/nx/lib\libnx_min.a(fs_dev.o)
                0x000000000002e060                fsdevGetDefaultFileSystem
 .text.fsdevTranslatePath
                0x000000000002e0a0       0x58 C:/Users/RNG/Desktop/Stuff/Smash-Stuff/SMASH-ULTIMATE-MODS-BABY/50xx-the-mod/acmd-edits/code-mod-framework/lib/libnx_min/nx/lib\libnx_min.a(fs_dev.o)
                0x000000000002e0a0                fsdevTranslatePath
 *fill*         0x000000000002e0f8        0x8 
 .text.fsdev_getmtime
                0x000000000002e100       0x20 C:/Users/RNG/Desktop/Stuff/Smash-Stuff/SMASH-ULTIMATE-MODS-BABY/50xx-the-mod/acmd-edits/code-mod-framework/lib/libnx_min/nx/lib\libnx_min.a(fs_dev.o)
                0x000000000002e100                fsdev_getmtime
 .text.fsdevGetLastResult
                0x000000000002e120       0x20 C:/Users/RNG/Desktop/Stuff/Smash-Stuff/SMASH-ULTIMATE-MODS-BABY/50xx-the-mod/acmd-edits/code-mod-framework/lib/libnx_min/nx/lib\libnx_min.a(fs_dev.o)
                0x000000000002e120                fsdevGetLastResult
 .text.decode_utf8
                0x000000000002e140      0x12c C:/Users/RNG/Desktop/Stuff/Smash-Stuff/SMASH-ULTIMATE-MODS-BABY/50xx-the-mod/acmd-edits/code-mod-framework/lib/libnx_min/nx/lib\libnx_min.a(decode_utf8.o)
                0x000000000002e140                decode_utf8
 .text.svcSetHeapSize
                0x000000000002e26c       0x14 C:/Users/RNG/Desktop/Stuff/Smash-Stuff/SMASH-ULTIMATE-MODS-BABY/50xx-the-mod/acmd-edits/code-mod-framework/lib/libnx_min/nx/lib\libnx_min.a(svc.o)
                0x000000000002e26c                svcSetHeapSize
 .text.svcSetMemoryPermission
                0x000000000002e280        0x8 C:/Users/RNG/Desktop/Stuff/Smash-Stuff/SMASH-ULTIMATE-MODS-BABY/50xx-the-mod/acmd-edits/code-mod-framework/lib/libnx_min/nx/lib\libnx_min.a(svc.o)
                0x000000000002e280                svcSetMemoryPermission
 .text.svcSetMemoryAttribute
                0x000000000002e288        0x8 C:/Users/RNG/Desktop/Stuff/Smash-Stuff/SMASH-ULTIMATE-MODS-BABY/50xx-the-mod/acmd-edits/code-mod-framework/lib/libnx_min/nx/lib\libnx_min.a(svc.o)
                0x000000000002e288                svcSetMemoryAttribute
 .text.svcMapMemory
                0x000000000002e290        0x8 C:/Users/RNG/Desktop/Stuff/Smash-Stuff/SMASH-ULTIMATE-MODS-BABY/50xx-the-mod/acmd-edits/code-mod-framework/lib/libnx_min/nx/lib\libnx_min.a(svc.o)
                0x000000000002e290                svcMapMemory
 .text.svcUnmapMemory
                0x000000000002e298        0x8 C:/Users/RNG/Desktop/Stuff/Smash-Stuff/SMASH-ULTIMATE-MODS-BABY/50xx-the-mod/acmd-edits/code-mod-framework/lib/libnx_min/nx/lib\libnx_min.a(svc.o)
                0x000000000002e298                svcUnmapMemory
 .text.svcQueryMemory
                0x000000000002e2a0       0x14 C:/Users/RNG/Desktop/Stuff/Smash-Stuff/SMASH-ULTIMATE-MODS-BABY/50xx-the-mod/acmd-edits/code-mod-framework/lib/libnx_min/nx/lib\libnx_min.a(svc.o)
                0x000000000002e2a0                svcQueryMemory
 .text.svcExitProcess
                0x000000000002e2b4        0x8 C:/Users/RNG/Desktop/Stuff/Smash-Stuff/SMASH-ULTIMATE-MODS-BABY/50xx-the-mod/acmd-edits/code-mod-framework/lib/libnx_min/nx/lib\libnx_min.a(svc.o)
                0x000000000002e2b4                svcExitProcess
 .text.svcCreateThread
                0x000000000002e2bc       0x14 C:/Users/RNG/Desktop/Stuff/Smash-Stuff/SMASH-ULTIMATE-MODS-BABY/50xx-the-mod/acmd-edits/code-mod-framework/lib/libnx_min/nx/lib\libnx_min.a(svc.o)
                0x000000000002e2bc                svcCreateThread
 .text.svcStartThread
                0x000000000002e2d0        0x8 C:/Users/RNG/Desktop/Stuff/Smash-Stuff/SMASH-ULTIMATE-MODS-BABY/50xx-the-mod/acmd-edits/code-mod-framework/lib/libnx_min/nx/lib\libnx_min.a(svc.o)
                0x000000000002e2d0                svcStartThread
 .text.svcExitThread
                0x000000000002e2d8        0x8 C:/Users/RNG/Desktop/Stuff/Smash-Stuff/SMASH-ULTIMATE-MODS-BABY/50xx-the-mod/acmd-edits/code-mod-framework/lib/libnx_min/nx/lib\libnx_min.a(svc.o)
                0x000000000002e2d8                svcExitThread
 .text.svcSleepThread
                0x000000000002e2e0        0x8 C:/Users/RNG/Desktop/Stuff/Smash-Stuff/SMASH-ULTIMATE-MODS-BABY/50xx-the-mod/acmd-edits/code-mod-framework/lib/libnx_min/nx/lib\libnx_min.a(svc.o)
                0x000000000002e2e0                svcSleepThread
 .text.svcGetThreadPriority
                0x000000000002e2e8       0x14 C:/Users/RNG/Desktop/Stuff/Smash-Stuff/SMASH-ULTIMATE-MODS-BABY/50xx-the-mod/acmd-edits/code-mod-framework/lib/libnx_min/nx/lib\libnx_min.a(svc.o)
                0x000000000002e2e8                svcGetThreadPriority
 .text.svcSetThreadPriority
                0x000000000002e2fc        0x8 C:/Users/RNG/Desktop/Stuff/Smash-Stuff/SMASH-ULTIMATE-MODS-BABY/50xx-the-mod/acmd-edits/code-mod-framework/lib/libnx_min/nx/lib\libnx_min.a(svc.o)
                0x000000000002e2fc                svcSetThreadPriority
 .text.svcGetThreadCoreMask
                0x000000000002e304       0x18 C:/Users/RNG/Desktop/Stuff/Smash-Stuff/SMASH-ULTIMATE-MODS-BABY/50xx-the-mod/acmd-edits/code-mod-framework/lib/libnx_min/nx/lib\libnx_min.a(svc.o)
                0x000000000002e304                svcGetThreadCoreMask
 .text.svcSetThreadCoreMask
                0x000000000002e31c        0x8 C:/Users/RNG/Desktop/Stuff/Smash-Stuff/SMASH-ULTIMATE-MODS-BABY/50xx-the-mod/acmd-edits/code-mod-framework/lib/libnx_min/nx/lib\libnx_min.a(svc.o)
                0x000000000002e31c                svcSetThreadCoreMask
 .text.svcGetCurrentProcessorNumber
                0x000000000002e324        0x8 C:/Users/RNG/Desktop/Stuff/Smash-Stuff/SMASH-ULTIMATE-MODS-BABY/50xx-the-mod/acmd-edits/code-mod-framework/lib/libnx_min/nx/lib\libnx_min.a(svc.o)
                0x000000000002e324                svcGetCurrentProcessorNumber
 .text.svcSignalEvent
                0x000000000002e32c        0x8 C:/Users/RNG/Desktop/Stuff/Smash-Stuff/SMASH-ULTIMATE-MODS-BABY/50xx-the-mod/acmd-edits/code-mod-framework/lib/libnx_min/nx/lib\libnx_min.a(svc.o)
                0x000000000002e32c                svcSignalEvent
 .text.svcClearEvent
                0x000000000002e334        0x8 C:/Users/RNG/Desktop/Stuff/Smash-Stuff/SMASH-ULTIMATE-MODS-BABY/50xx-the-mod/acmd-edits/code-mod-framework/lib/libnx_min/nx/lib\libnx_min.a(svc.o)
                0x000000000002e334                svcClearEvent
 .text.svcMapSharedMemory
                0x000000000002e33c        0x8 C:/Users/RNG/Desktop/Stuff/Smash-Stuff/SMASH-ULTIMATE-MODS-BABY/50xx-the-mod/acmd-edits/code-mod-framework/lib/libnx_min/nx/lib\libnx_min.a(svc.o)
                0x000000000002e33c                svcMapSharedMemory
 .text.svcUnmapSharedMemory
                0x000000000002e344        0x8 C:/Users/RNG/Desktop/Stuff/Smash-Stuff/SMASH-ULTIMATE-MODS-BABY/50xx-the-mod/acmd-edits/code-mod-framework/lib/libnx_min/nx/lib\libnx_min.a(svc.o)
                0x000000000002e344                svcUnmapSharedMemory
 .text.svcCreateTransferMemory
                0x000000000002e34c       0x14 C:/Users/RNG/Desktop/Stuff/Smash-Stuff/SMASH-ULTIMATE-MODS-BABY/50xx-the-mod/acmd-edits/code-mod-framework/lib/libnx_min/nx/lib\libnx_min.a(svc.o)
                0x000000000002e34c                svcCreateTransferMemory
 .text.svcCloseHandle
                0x000000000002e360        0x8 C:/Users/RNG/Desktop/Stuff/Smash-Stuff/SMASH-ULTIMATE-MODS-BABY/50xx-the-mod/acmd-edits/code-mod-framework/lib/libnx_min/nx/lib\libnx_min.a(svc.o)
                0x000000000002e360                svcCloseHandle
 .text.svcResetSignal
                0x000000000002e368        0x8 C:/Users/RNG/Desktop/Stuff/Smash-Stuff/SMASH-ULTIMATE-MODS-BABY/50xx-the-mod/acmd-edits/code-mod-framework/lib/libnx_min/nx/lib\libnx_min.a(svc.o)
                0x000000000002e368                svcResetSignal
 .text.svcWaitSynchronization
                0x000000000002e370       0x14 C:/Users/RNG/Desktop/Stuff/Smash-Stuff/SMASH-ULTIMATE-MODS-BABY/50xx-the-mod/acmd-edits/code-mod-framework/lib/libnx_min/nx/lib\libnx_min.a(svc.o)
                0x000000000002e370                svcWaitSynchronization
 .text.svcCancelSynchronization
                0x000000000002e384        0x8 C:/Users/RNG/Desktop/Stuff/Smash-Stuff/SMASH-ULTIMATE-MODS-BABY/50xx-the-mod/acmd-edits/code-mod-framework/lib/libnx_min/nx/lib\libnx_min.a(svc.o)
                0x000000000002e384                svcCancelSynchronization
 .text.svcArbitrateLock
                0x000000000002e38c        0x8 C:/Users/RNG/Desktop/Stuff/Smash-Stuff/SMASH-ULTIMATE-MODS-BABY/50xx-the-mod/acmd-edits/code-mod-framework/lib/libnx_min/nx/lib\libnx_min.a(svc.o)
                0x000000000002e38c                svcArbitrateLock
 .text.svcArbitrateUnlock
                0x000000000002e394        0x8 C:/Users/RNG/Desktop/Stuff/Smash-Stuff/SMASH-ULTIMATE-MODS-BABY/50xx-the-mod/acmd-edits/code-mod-framework/lib/libnx_min/nx/lib\libnx_min.a(svc.o)
                0x000000000002e394                svcArbitrateUnlock
 .text.svcWaitProcessWideKeyAtomic
                0x000000000002e39c        0x8 C:/Users/RNG/Desktop/Stuff/Smash-Stuff/SMASH-ULTIMATE-MODS-BABY/50xx-the-mod/acmd-edits/code-mod-framework/lib/libnx_min/nx/lib\libnx_min.a(svc.o)
                0x000000000002e39c                svcWaitProcessWideKeyAtomic
 .text.svcSignalProcessWideKey
                0x000000000002e3a4        0x8 C:/Users/RNG/Desktop/Stuff/Smash-Stuff/SMASH-ULTIMATE-MODS-BABY/50xx-the-mod/acmd-edits/code-mod-framework/lib/libnx_min/nx/lib\libnx_min.a(svc.o)
                0x000000000002e3a4                svcSignalProcessWideKey
 .text.svcGetSystemTick
                0x000000000002e3ac        0x8 C:/Users/RNG/Desktop/Stuff/Smash-Stuff/SMASH-ULTIMATE-MODS-BABY/50xx-the-mod/acmd-edits/code-mod-framework/lib/libnx_min/nx/lib\libnx_min.a(svc.o)
                0x000000000002e3ac                svcGetSystemTick
 .text.svcConnectToNamedPort
                0x000000000002e3b4       0x14 C:/Users/RNG/Desktop/Stuff/Smash-Stuff/SMASH-ULTIMATE-MODS-BABY/50xx-the-mod/acmd-edits/code-mod-framework/lib/libnx_min/nx/lib\libnx_min.a(svc.o)
                0x000000000002e3b4                svcConnectToNamedPort
 .text.svcSendSyncRequest
                0x000000000002e3c8        0x8 C:/Users/RNG/Desktop/Stuff/Smash-Stuff/SMASH-ULTIMATE-MODS-BABY/50xx-the-mod/acmd-edits/code-mod-framework/lib/libnx_min/nx/lib\libnx_min.a(svc.o)
                0x000000000002e3c8                svcSendSyncRequest
 .text.svcSendSyncRequestWithUserBuffer
                0x000000000002e3d0        0x8 C:/Users/RNG/Desktop/Stuff/Smash-Stuff/SMASH-ULTIMATE-MODS-BABY/50xx-the-mod/acmd-edits/code-mod-framework/lib/libnx_min/nx/lib\libnx_min.a(svc.o)
                0x000000000002e3d0                svcSendSyncRequestWithUserBuffer
 .text.svcSendAsyncRequestWithUserBuffer
                0x000000000002e3d8       0x14 C:/Users/RNG/Desktop/Stuff/Smash-Stuff/SMASH-ULTIMATE-MODS-BABY/50xx-the-mod/acmd-edits/code-mod-framework/lib/libnx_min/nx/lib\libnx_min.a(svc.o)
                0x000000000002e3d8                svcSendAsyncRequestWithUserBuffer
 .text.svcGetProcessId
                0x000000000002e3ec       0x14 C:/Users/RNG/Desktop/Stuff/Smash-Stuff/SMASH-ULTIMATE-MODS-BABY/50xx-the-mod/acmd-edits/code-mod-framework/lib/libnx_min/nx/lib\libnx_min.a(svc.o)
                0x000000000002e3ec                svcGetProcessId
 .text.svcGetThreadId
                0x000000000002e400       0x14 C:/Users/RNG/Desktop/Stuff/Smash-Stuff/SMASH-ULTIMATE-MODS-BABY/50xx-the-mod/acmd-edits/code-mod-framework/lib/libnx_min/nx/lib\libnx_min.a(svc.o)
                0x000000000002e400                svcGetThreadId
 .text.svcBreak
                0x000000000002e414        0x8 C:/Users/RNG/Desktop/Stuff/Smash-Stuff/SMASH-ULTIMATE-MODS-BABY/50xx-the-mod/acmd-edits/code-mod-framework/lib/libnx_min/nx/lib\libnx_min.a(svc.o)
                0x000000000002e414                svcBreak
 .text.svcOutputDebugString
                0x000000000002e41c        0x8 C:/Users/RNG/Desktop/Stuff/Smash-Stuff/SMASH-ULTIMATE-MODS-BABY/50xx-the-mod/acmd-edits/code-mod-framework/lib/libnx_min/nx/lib\libnx_min.a(svc.o)
                0x000000000002e41c                svcOutputDebugString
 .text.svcReturnFromException
                0x000000000002e424        0x8 C:/Users/RNG/Desktop/Stuff/Smash-Stuff/SMASH-ULTIMATE-MODS-BABY/50xx-the-mod/acmd-edits/code-mod-framework/lib/libnx_min/nx/lib\libnx_min.a(svc.o)
                0x000000000002e424                svcReturnFromException
 .text.svcGetInfo
                0x000000000002e42c       0x14 C:/Users/RNG/Desktop/Stuff/Smash-Stuff/SMASH-ULTIMATE-MODS-BABY/50xx-the-mod/acmd-edits/code-mod-framework/lib/libnx_min/nx/lib\libnx_min.a(svc.o)
                0x000000000002e42c                svcGetInfo
 .text.svcMapPhysicalMemory
                0x000000000002e440        0x8 C:/Users/RNG/Desktop/Stuff/Smash-Stuff/SMASH-ULTIMATE-MODS-BABY/50xx-the-mod/acmd-edits/code-mod-framework/lib/libnx_min/nx/lib\libnx_min.a(svc.o)
                0x000000000002e440                svcMapPhysicalMemory
 .text.svcUnmapPhysicalMemory
                0x000000000002e448        0x8 C:/Users/RNG/Desktop/Stuff/Smash-Stuff/SMASH-ULTIMATE-MODS-BABY/50xx-the-mod/acmd-edits/code-mod-framework/lib/libnx_min/nx/lib\libnx_min.a(svc.o)
                0x000000000002e448                svcUnmapPhysicalMemory
 .text.svcGetResourceLimitLimitValue
                0x000000000002e450       0x14 C:/Users/RNG/Desktop/Stuff/Smash-Stuff/SMASH-ULTIMATE-MODS-BABY/50xx-the-mod/acmd-edits/code-mod-framework/lib/libnx_min/nx/lib\libnx_min.a(svc.o)
                0x000000000002e450                svcGetResourceLimitLimitValue
 .text.svcGetResourceLimitCurrentValue
                0x000000000002e464       0x14 C:/Users/RNG/Desktop/Stuff/Smash-Stuff/SMASH-ULTIMATE-MODS-BABY/50xx-the-mod/acmd-edits/code-mod-framework/lib/libnx_min/nx/lib\libnx_min.a(svc.o)
                0x000000000002e464                svcGetResourceLimitCurrentValue
 .text.svcSetThreadActivity
                0x000000000002e478        0x8 C:/Users/RNG/Desktop/Stuff/Smash-Stuff/SMASH-ULTIMATE-MODS-BABY/50xx-the-mod/acmd-edits/code-mod-framework/lib/libnx_min/nx/lib\libnx_min.a(svc.o)
                0x000000000002e478                svcSetThreadActivity
 .text.svcGetThreadContext3
                0x000000000002e480        0x8 C:/Users/RNG/Desktop/Stuff/Smash-Stuff/SMASH-ULTIMATE-MODS-BABY/50xx-the-mod/acmd-edits/code-mod-framework/lib/libnx_min/nx/lib\libnx_min.a(svc.o)
                0x000000000002e480                svcGetThreadContext3
 .text.svcCreateSession
                0x000000000002e488       0x18 C:/Users/RNG/Desktop/Stuff/Smash-Stuff/SMASH-ULTIMATE-MODS-BABY/50xx-the-mod/acmd-edits/code-mod-framework/lib/libnx_min/nx/lib\libnx_min.a(svc.o)
                0x000000000002e488                svcCreateSession
 .text.svcAcceptSession
                0x000000000002e4a0       0x14 C:/Users/RNG/Desktop/Stuff/Smash-Stuff/SMASH-ULTIMATE-MODS-BABY/50xx-the-mod/acmd-edits/code-mod-framework/lib/libnx_min/nx/lib\libnx_min.a(svc.o)
                0x000000000002e4a0                svcAcceptSession
 .text.svcReplyAndReceive
                0x000000000002e4b4       0x14 C:/Users/RNG/Desktop/Stuff/Smash-Stuff/SMASH-ULTIMATE-MODS-BABY/50xx-the-mod/acmd-edits/code-mod-framework/lib/libnx_min/nx/lib\libnx_min.a(svc.o)
                0x000000000002e4b4                svcReplyAndReceive
 .text.svcReplyAndReceiveWithUserBuffer
                0x000000000002e4c8       0x14 C:/Users/RNG/Desktop/Stuff/Smash-Stuff/SMASH-ULTIMATE-MODS-BABY/50xx-the-mod/acmd-edits/code-mod-framework/lib/libnx_min/nx/lib\libnx_min.a(svc.o)
                0x000000000002e4c8                svcReplyAndReceiveWithUserBuffer
 .text.svcCreateEvent
                0x000000000002e4dc       0x18 C:/Users/RNG/Desktop/Stuff/Smash-Stuff/SMASH-ULTIMATE-MODS-BABY/50xx-the-mod/acmd-edits/code-mod-framework/lib/libnx_min/nx/lib\libnx_min.a(svc.o)
                0x000000000002e4dc                svcCreateEvent
 .text.svcMapPhysicalMemoryUnsafe
                0x000000000002e4f4        0x8 C:/Users/RNG/Desktop/Stuff/Smash-Stuff/SMASH-ULTIMATE-MODS-BABY/50xx-the-mod/acmd-edits/code-mod-framework/lib/libnx_min/nx/lib\libnx_min.a(svc.o)
                0x000000000002e4f4                svcMapPhysicalMemoryUnsafe
 .text.svcUnmapPhysicalMemoryUnsafe
                0x000000000002e4fc        0x8 C:/Users/RNG/Desktop/Stuff/Smash-Stuff/SMASH-ULTIMATE-MODS-BABY/50xx-the-mod/acmd-edits/code-mod-framework/lib/libnx_min/nx/lib\libnx_min.a(svc.o)
                0x000000000002e4fc                svcUnmapPhysicalMemoryUnsafe
 .text.svcSetUnsafeLimit
                0x000000000002e504        0x8 C:/Users/RNG/Desktop/Stuff/Smash-Stuff/SMASH-ULTIMATE-MODS-BABY/50xx-the-mod/acmd-edits/code-mod-framework/lib/libnx_min/nx/lib\libnx_min.a(svc.o)
                0x000000000002e504                svcSetUnsafeLimit
 .text.svcCreateCodeMemory
                0x000000000002e50c       0x14 C:/Users/RNG/Desktop/Stuff/Smash-Stuff/SMASH-ULTIMATE-MODS-BABY/50xx-the-mod/acmd-edits/code-mod-framework/lib/libnx_min/nx/lib\libnx_min.a(svc.o)
                0x000000000002e50c                svcCreateCodeMemory
 .text.svcControlCodeMemory
                0x000000000002e520        0x8 C:/Users/RNG/Desktop/Stuff/Smash-Stuff/SMASH-ULTIMATE-MODS-BABY/50xx-the-mod/acmd-edits/code-mod-framework/lib/libnx_min/nx/lib\libnx_min.a(svc.o)
                0x000000000002e520                svcControlCodeMemory
 .text.svcReadWriteRegister
                0x000000000002e528       0x14 C:/Users/RNG/Desktop/Stuff/Smash-Stuff/SMASH-ULTIMATE-MODS-BABY/50xx-the-mod/acmd-edits/code-mod-framework/lib/libnx_min/nx/lib\libnx_min.a(svc.o)
                0x000000000002e528                svcReadWriteRegister
 .text.svcCreateSharedMemory
                0x000000000002e53c       0x14 C:/Users/RNG/Desktop/Stuff/Smash-Stuff/SMASH-ULTIMATE-MODS-BABY/50xx-the-mod/acmd-edits/code-mod-framework/lib/libnx_min/nx/lib\libnx_min.a(svc.o)
                0x000000000002e53c                svcCreateSharedMemory
 .text.svcMapTransferMemory
                0x000000000002e550        0x8 C:/Users/RNG/Desktop/Stuff/Smash-Stuff/SMASH-ULTIMATE-MODS-BABY/50xx-the-mod/acmd-edits/code-mod-framework/lib/libnx_min/nx/lib\libnx_min.a(svc.o)
                0x000000000002e550                svcMapTransferMemory
 .text.svcUnmapTransferMemory
                0x000000000002e558        0x8 C:/Users/RNG/Desktop/Stuff/Smash-Stuff/SMASH-ULTIMATE-MODS-BABY/50xx-the-mod/acmd-edits/code-mod-framework/lib/libnx_min/nx/lib\libnx_min.a(svc.o)
                0x000000000002e558                svcUnmapTransferMemory
 .text.svcCreateInterruptEvent
                0x000000000002e560       0x14 C:/Users/RNG/Desktop/Stuff/Smash-Stuff/SMASH-ULTIMATE-MODS-BABY/50xx-the-mod/acmd-edits/code-mod-framework/lib/libnx_min/nx/lib\libnx_min.a(svc.o)
                0x000000000002e560                svcCreateInterruptEvent
 .text.svcQueryPhysicalAddress
                0x000000000002e574       0x18 C:/Users/RNG/Desktop/Stuff/Smash-Stuff/SMASH-ULTIMATE-MODS-BABY/50xx-the-mod/acmd-edits/code-mod-framework/lib/libnx_min/nx/lib\libnx_min.a(svc.o)
                0x000000000002e574                svcQueryPhysicalAddress
 .text.svcQueryIoMapping
                0x000000000002e58c       0x14 C:/Users/RNG/Desktop/Stuff/Smash-Stuff/SMASH-ULTIMATE-MODS-BABY/50xx-the-mod/acmd-edits/code-mod-framework/lib/libnx_min/nx/lib\libnx_min.a(svc.o)
                0x000000000002e58c                svcQueryIoMapping
 .text.svcCreateDeviceAddressSpace
                0x000000000002e5a0       0x14 C:/Users/RNG/Desktop/Stuff/Smash-Stuff/SMASH-ULTIMATE-MODS-BABY/50xx-the-mod/acmd-edits/code-mod-framework/lib/libnx_min/nx/lib\libnx_min.a(svc.o)
                0x000000000002e5a0                svcCreateDeviceAddressSpace
 .text.svcAttachDeviceAddressSpace
                0x000000000002e5b4        0x8 C:/Users/RNG/Desktop/Stuff/Smash-Stuff/SMASH-ULTIMATE-MODS-BABY/50xx-the-mod/acmd-edits/code-mod-framework/lib/libnx_min/nx/lib\libnx_min.a(svc.o)
                0x000000000002e5b4                svcAttachDeviceAddressSpace
 .text.svcDetachDeviceAddressSpace
                0x000000000002e5bc        0x8 C:/Users/RNG/Desktop/Stuff/Smash-Stuff/SMASH-ULTIMATE-MODS-BABY/50xx-the-mod/acmd-edits/code-mod-framework/lib/libnx_min/nx/lib\libnx_min.a(svc.o)
                0x000000000002e5bc                svcDetachDeviceAddressSpace
 .text.svcMapDeviceAddressSpaceByForce
                0x000000000002e5c4        0x8 C:/Users/RNG/Desktop/Stuff/Smash-Stuff/SMASH-ULTIMATE-MODS-BABY/50xx-the-mod/acmd-edits/code-mod-framework/lib/libnx_min/nx/lib\libnx_min.a(svc.o)
                0x000000000002e5c4                svcMapDeviceAddressSpaceByForce
 .text.svcMapDeviceAddressSpaceAligned
                0x000000000002e5cc        0x8 C:/Users/RNG/Desktop/Stuff/Smash-Stuff/SMASH-ULTIMATE-MODS-BABY/50xx-the-mod/acmd-edits/code-mod-framework/lib/libnx_min/nx/lib\libnx_min.a(svc.o)
                0x000000000002e5cc                svcMapDeviceAddressSpaceAligned
 .text.svcUnmapDeviceAddressSpace
                0x000000000002e5d4        0x8 C:/Users/RNG/Desktop/Stuff/Smash-Stuff/SMASH-ULTIMATE-MODS-BABY/50xx-the-mod/acmd-edits/code-mod-framework/lib/libnx_min/nx/lib\libnx_min.a(svc.o)
                0x000000000002e5d4                svcUnmapDeviceAddressSpace
 .text.svcDebugActiveProcess
                0x000000000002e5dc       0x14 C:/Users/RNG/Desktop/Stuff/Smash-Stuff/SMASH-ULTIMATE-MODS-BABY/50xx-the-mod/acmd-edits/code-mod-framework/lib/libnx_min/nx/lib\libnx_min.a(svc.o)
                0x000000000002e5dc                svcDebugActiveProcess
 .text.svcBreakDebugProcess
                0x000000000002e5f0        0x8 C:/Users/RNG/Desktop/Stuff/Smash-Stuff/SMASH-ULTIMATE-MODS-BABY/50xx-the-mod/acmd-edits/code-mod-framework/lib/libnx_min/nx/lib\libnx_min.a(svc.o)
                0x000000000002e5f0                svcBreakDebugProcess
 .text.svcTerminateDebugProcess
                0x000000000002e5f8        0x8 C:/Users/RNG/Desktop/Stuff/Smash-Stuff/SMASH-ULTIMATE-MODS-BABY/50xx-the-mod/acmd-edits/code-mod-framework/lib/libnx_min/nx/lib\libnx_min.a(svc.o)
                0x000000000002e5f8                svcTerminateDebugProcess
 .text.svcGetDebugEvent
                0x000000000002e600        0x8 C:/Users/RNG/Desktop/Stuff/Smash-Stuff/SMASH-ULTIMATE-MODS-BABY/50xx-the-mod/acmd-edits/code-mod-framework/lib/libnx_min/nx/lib\libnx_min.a(svc.o)
                0x000000000002e600                svcGetDebugEvent
 .text.svcLegacyContinueDebugEvent
                0x000000000002e608        0x8 C:/Users/RNG/Desktop/Stuff/Smash-Stuff/SMASH-ULTIMATE-MODS-BABY/50xx-the-mod/acmd-edits/code-mod-framework/lib/libnx_min/nx/lib\libnx_min.a(svc.o)
                0x000000000002e608                svcLegacyContinueDebugEvent
 .text.svcContinueDebugEvent
                0x000000000002e610        0x8 C:/Users/RNG/Desktop/Stuff/Smash-Stuff/SMASH-ULTIMATE-MODS-BABY/50xx-the-mod/acmd-edits/code-mod-framework/lib/libnx_min/nx/lib\libnx_min.a(svc.o)
                0x000000000002e610                svcContinueDebugEvent
 .text.svcGetProcessList
                0x000000000002e618       0x14 C:/Users/RNG/Desktop/Stuff/Smash-Stuff/SMASH-ULTIMATE-MODS-BABY/50xx-the-mod/acmd-edits/code-mod-framework/lib/libnx_min/nx/lib\libnx_min.a(svc.o)
                0x000000000002e618                svcGetProcessList
 .text.svcGetThreadList
                0x000000000002e62c       0x14 C:/Users/RNG/Desktop/Stuff/Smash-Stuff/SMASH-ULTIMATE-MODS-BABY/50xx-the-mod/acmd-edits/code-mod-framework/lib/libnx_min/nx/lib\libnx_min.a(svc.o)
                0x000000000002e62c                svcGetThreadList
 .text.svcGetDebugThreadContext
                0x000000000002e640        0x8 C:/Users/RNG/Desktop/Stuff/Smash-Stuff/SMASH-ULTIMATE-MODS-BABY/50xx-the-mod/acmd-edits/code-mod-framework/lib/libnx_min/nx/lib\libnx_min.a(svc.o)
                0x000000000002e640                svcGetDebugThreadContext
 .text.svcSetDebugThreadContext
                0x000000000002e648        0x8 C:/Users/RNG/Desktop/Stuff/Smash-Stuff/SMASH-ULTIMATE-MODS-BABY/50xx-the-mod/acmd-edits/code-mod-framework/lib/libnx_min/nx/lib\libnx_min.a(svc.o)
                0x000000000002e648                svcSetDebugThreadContext
 .text.svcQueryDebugProcessMemory
                0x000000000002e650       0x14 C:/Users/RNG/Desktop/Stuff/Smash-Stuff/SMASH-ULTIMATE-MODS-BABY/50xx-the-mod/acmd-edits/code-mod-framework/lib/libnx_min/nx/lib\libnx_min.a(svc.o)
                0x000000000002e650                svcQueryDebugProcessMemory
 .text.svcReadDebugProcessMemory
                0x000000000002e664        0x8 C:/Users/RNG/Desktop/Stuff/Smash-Stuff/SMASH-ULTIMATE-MODS-BABY/50xx-the-mod/acmd-edits/code-mod-framework/lib/libnx_min/nx/lib\libnx_min.a(svc.o)
                0x000000000002e664                svcReadDebugProcessMemory
 .text.svcWriteDebugProcessMemory
                0x000000000002e66c        0x8 C:/Users/RNG/Desktop/Stuff/Smash-Stuff/SMASH-ULTIMATE-MODS-BABY/50xx-the-mod/acmd-edits/code-mod-framework/lib/libnx_min/nx/lib\libnx_min.a(svc.o)
                0x000000000002e66c                svcWriteDebugProcessMemory
 .text.svcGetDebugThreadParam
                0x000000000002e674       0x18 C:/Users/RNG/Desktop/Stuff/Smash-Stuff/SMASH-ULTIMATE-MODS-BABY/50xx-the-mod/acmd-edits/code-mod-framework/lib/libnx_min/nx/lib\libnx_min.a(svc.o)
                0x000000000002e674                svcGetDebugThreadParam
 .text.svcGetSystemInfo
                0x000000000002e68c       0x14 C:/Users/RNG/Desktop/Stuff/Smash-Stuff/SMASH-ULTIMATE-MODS-BABY/50xx-the-mod/acmd-edits/code-mod-framework/lib/libnx_min/nx/lib\libnx_min.a(svc.o)
                0x000000000002e68c                svcGetSystemInfo
 .text.svcCreatePort
                0x000000000002e6a0       0x18 C:/Users/RNG/Desktop/Stuff/Smash-Stuff/SMASH-ULTIMATE-MODS-BABY/50xx-the-mod/acmd-edits/code-mod-framework/lib/libnx_min/nx/lib\libnx_min.a(svc.o)
                0x000000000002e6a0                svcCreatePort
 .text.svcManageNamedPort
                0x000000000002e6b8       0x14 C:/Users/RNG/Desktop/Stuff/Smash-Stuff/SMASH-ULTIMATE-MODS-BABY/50xx-the-mod/acmd-edits/code-mod-framework/lib/libnx_min/nx/lib\libnx_min.a(svc.o)
                0x000000000002e6b8                svcManageNamedPort
 .text.svcConnectToPort
                0x000000000002e6cc       0x14 C:/Users/RNG/Desktop/Stuff/Smash-Stuff/SMASH-ULTIMATE-MODS-BABY/50xx-the-mod/acmd-edits/code-mod-framework/lib/libnx_min/nx/lib\libnx_min.a(svc.o)
                0x000000000002e6cc                svcConnectToPort
 .text.svcSetProcessMemoryPermission
                0x000000000002e6e0        0x8 C:/Users/RNG/Desktop/Stuff/Smash-Stuff/SMASH-ULTIMATE-MODS-BABY/50xx-the-mod/acmd-edits/code-mod-framework/lib/libnx_min/nx/lib\libnx_min.a(svc.o)
                0x000000000002e6e0                svcSetProcessMemoryPermission
 .text.svcMapProcessMemory
                0x000000000002e6e8        0x8 C:/Users/RNG/Desktop/Stuff/Smash-Stuff/SMASH-ULTIMATE-MODS-BABY/50xx-the-mod/acmd-edits/code-mod-framework/lib/libnx_min/nx/lib\libnx_min.a(svc.o)
                0x000000000002e6e8                svcMapProcessMemory
 .text.svcUnmapProcessMemory
                0x000000000002e6f0        0x8 C:/Users/RNG/Desktop/Stuff/Smash-Stuff/SMASH-ULTIMATE-MODS-BABY/50xx-the-mod/acmd-edits/code-mod-framework/lib/libnx_min/nx/lib\libnx_min.a(svc.o)
                0x000000000002e6f0                svcUnmapProcessMemory
 .text.svcQueryProcessMemory
                0x000000000002e6f8       0x14 C:/Users/RNG/Desktop/Stuff/Smash-Stuff/SMASH-ULTIMATE-MODS-BABY/50xx-the-mod/acmd-edits/code-mod-framework/lib/libnx_min/nx/lib\libnx_min.a(svc.o)
                0x000000000002e6f8                svcQueryProcessMemory
 .text.svcMapProcessCodeMemory
                0x000000000002e70c        0x8 C:/Users/RNG/Desktop/Stuff/Smash-Stuff/SMASH-ULTIMATE-MODS-BABY/50xx-the-mod/acmd-edits/code-mod-framework/lib/libnx_min/nx/lib\libnx_min.a(svc.o)
                0x000000000002e70c                svcMapProcessCodeMemory
 .text.svcUnmapProcessCodeMemory
                0x000000000002e714        0x8 C:/Users/RNG/Desktop/Stuff/Smash-Stuff/SMASH-ULTIMATE-MODS-BABY/50xx-the-mod/acmd-edits/code-mod-framework/lib/libnx_min/nx/lib\libnx_min.a(svc.o)
                0x000000000002e714                svcUnmapProcessCodeMemory
 .text.svcCreateProcess
                0x000000000002e71c       0x14 C:/Users/RNG/Desktop/Stuff/Smash-Stuff/SMASH-ULTIMATE-MODS-BABY/50xx-the-mod/acmd-edits/code-mod-framework/lib/libnx_min/nx/lib\libnx_min.a(svc.o)
                0x000000000002e71c                svcCreateProcess
 .text.svcStartProcess
                0x000000000002e730        0x8 C:/Users/RNG/Desktop/Stuff/Smash-Stuff/SMASH-ULTIMATE-MODS-BABY/50xx-the-mod/acmd-edits/code-mod-framework/lib/libnx_min/nx/lib\libnx_min.a(svc.o)
                0x000000000002e730                svcStartProcess
 .text.svcTerminateProcess
                0x000000000002e738        0x8 C:/Users/RNG/Desktop/Stuff/Smash-Stuff/SMASH-ULTIMATE-MODS-BABY/50xx-the-mod/acmd-edits/code-mod-framework/lib/libnx_min/nx/lib\libnx_min.a(svc.o)
                0x000000000002e738                svcTerminateProcess
 .text.svcGetProcessInfo
                0x000000000002e740       0x14 C:/Users/RNG/Desktop/Stuff/Smash-Stuff/SMASH-ULTIMATE-MODS-BABY/50xx-the-mod/acmd-edits/code-mod-framework/lib/libnx_min/nx/lib\libnx_min.a(svc.o)
                0x000000000002e740                svcGetProcessInfo
 .text.svcCreateResourceLimit
                0x000000000002e754       0x14 C:/Users/RNG/Desktop/Stuff/Smash-Stuff/SMASH-ULTIMATE-MODS-BABY/50xx-the-mod/acmd-edits/code-mod-framework/lib/libnx_min/nx/lib\libnx_min.a(svc.o)
                0x000000000002e754                svcCreateResourceLimit
 .text.svcSetResourceLimitLimitValue
                0x000000000002e768        0x8 C:/Users/RNG/Desktop/Stuff/Smash-Stuff/SMASH-ULTIMATE-MODS-BABY/50xx-the-mod/acmd-edits/code-mod-framework/lib/libnx_min/nx/lib\libnx_min.a(svc.o)
                0x000000000002e768                svcSetResourceLimitLimitValue
 .text.svcCallSecureMonitor
                0x000000000002e770       0x34 C:/Users/RNG/Desktop/Stuff/Smash-Stuff/SMASH-ULTIMATE-MODS-BABY/50xx-the-mod/acmd-edits/code-mod-framework/lib/libnx_min/nx/lib\libnx_min.a(svc.o)
                0x000000000002e770                svcCallSecureMonitor
 .text.__aarch64_read_tp
                0x000000000002e7a4        0xc C:/Users/RNG/Desktop/Stuff/Smash-Stuff/SMASH-ULTIMATE-MODS-BABY/50xx-the-mod/acmd-edits/code-mod-framework/lib/libnx_min/nx/lib\libnx_min.a(readtp.o)
                0x000000000002e7a4                __aarch64_read_tp
 .text._GetRegionFromInfo.isra.1
                0x000000000002e7b0       0x7c C:/Users/RNG/Desktop/Stuff/Smash-Stuff/SMASH-ULTIMATE-MODS-BABY/50xx-the-mod/acmd-edits/code-mod-framework/lib/libnx_min/nx/lib\libnx_min.a(virtmem.o)
 *fill*         0x000000000002e82c        0x4 
 .text.virtmemSetup
                0x000000000002e830      0x114 C:/Users/RNG/Desktop/Stuff/Smash-Stuff/SMASH-ULTIMATE-MODS-BABY/50xx-the-mod/acmd-edits/code-mod-framework/lib/libnx_min/nx/lib\libnx_min.a(virtmem.o)
                0x000000000002e830                virtmemSetup
 *fill*         0x000000000002e944        0xc 
 .text.virtmemReserve
                0x000000000002e950      0x13c C:/Users/RNG/Desktop/Stuff/Smash-Stuff/SMASH-ULTIMATE-MODS-BABY/50xx-the-mod/acmd-edits/code-mod-framework/lib/libnx_min/nx/lib\libnx_min.a(virtmem.o)
                0x000000000002e950                virtmemReserve
 *fill*         0x000000000002ea8c        0x4 
 .text.virtmemFree
                0x000000000002ea90        0x4 C:/Users/RNG/Desktop/Stuff/Smash-Stuff/SMASH-ULTIMATE-MODS-BABY/50xx-the-mod/acmd-edits/code-mod-framework/lib/libnx_min/nx/lib\libnx_min.a(virtmem.o)
                0x000000000002ea90                virtmemFree
 *fill*         0x000000000002ea94        0xc 
 .text.virtmemReserveStack
                0x000000000002eaa0       0xc8 C:/Users/RNG/Desktop/Stuff/Smash-Stuff/SMASH-ULTIMATE-MODS-BABY/50xx-the-mod/acmd-edits/code-mod-framework/lib/libnx_min/nx/lib\libnx_min.a(virtmem.o)
                0x000000000002eaa0                virtmemReserveStack
 *fill*         0x000000000002eb68        0x8 
 .text.virtmemFreeStack
                0x000000000002eb70        0x4 C:/Users/RNG/Desktop/Stuff/Smash-Stuff/SMASH-ULTIMATE-MODS-BABY/50xx-the-mod/acmd-edits/code-mod-framework/lib/libnx_min/nx/lib\libnx_min.a(virtmem.o)
                0x000000000002eb70                virtmemFreeStack
 *fill*         0x000000000002eb74        0xc 
 .text.mutexLock
                0x000000000002eb80       0x8c C:/Users/RNG/Desktop/Stuff/Smash-Stuff/SMASH-ULTIMATE-MODS-BABY/50xx-the-mod/acmd-edits/code-mod-framework/lib/libnx_min/nx/lib\libnx_min.a(mutex.o)
                0x000000000002eb80                mutexLock
 *fill*         0x000000000002ec0c        0x4 
 .text.mutexTryLock
                0x000000000002ec10       0x34 C:/Users/RNG/Desktop/Stuff/Smash-Stuff/SMASH-ULTIMATE-MODS-BABY/50xx-the-mod/acmd-edits/code-mod-framework/lib/libnx_min/nx/lib\libnx_min.a(mutex.o)
                0x000000000002ec10                mutexTryLock
 *fill*         0x000000000002ec44        0xc 
 .text.mutexUnlock
                0x000000000002ec50       0x30 C:/Users/RNG/Desktop/Stuff/Smash-Stuff/SMASH-ULTIMATE-MODS-BABY/50xx-the-mod/acmd-edits/code-mod-framework/lib/libnx_min/nx/lib\libnx_min.a(mutex.o)
                0x000000000002ec50                mutexUnlock
 .text.rmutexLock
                0x000000000002ec80       0x4c C:/Users/RNG/Desktop/Stuff/Smash-Stuff/SMASH-ULTIMATE-MODS-BABY/50xx-the-mod/acmd-edits/code-mod-framework/lib/libnx_min/nx/lib\libnx_min.a(mutex.o)
                0x000000000002ec80                rmutexLock
 *fill*         0x000000000002eccc        0x4 
 .text.rmutexTryLock
                0x000000000002ecd0       0x5c C:/Users/RNG/Desktop/Stuff/Smash-Stuff/SMASH-ULTIMATE-MODS-BABY/50xx-the-mod/acmd-edits/code-mod-framework/lib/libnx_min/nx/lib\libnx_min.a(mutex.o)
                0x000000000002ecd0                rmutexTryLock
 *fill*         0x000000000002ed2c        0x4 
 .text.rmutexUnlock
                0x000000000002ed30       0x1c C:/Users/RNG/Desktop/Stuff/Smash-Stuff/SMASH-ULTIMATE-MODS-BABY/50xx-the-mod/acmd-edits/code-mod-framework/lib/libnx_min/nx/lib\libnx_min.a(mutex.o)
                0x000000000002ed30                rmutexUnlock
 *fill*         0x000000000002ed4c        0x4 
 .text.ipcPrepareHeader
                0x000000000002ed50      0x220 C:/Users/RNG/Desktop/Stuff/Smash-Stuff/SMASH-ULTIMATE-MODS-BABY/50xx-the-mod/acmd-edits/code-mod-framework/lib/libnx_min/nx/lib\libnx_min.a(fs.o)
 .text.ipcParse
                0x000000000002ef70      0x22c C:/Users/RNG/Desktop/Stuff/Smash-Stuff/SMASH-ULTIMATE-MODS-BABY/50xx-the-mod/acmd-edits/code-mod-framework/lib/libnx_min/nx/lib\libnx_min.a(fs.o)
 *fill*         0x000000000002f19c        0x4 
 .text.serviceIpcParse
                0x000000000002f1a0       0xb0 C:/Users/RNG/Desktop/Stuff/Smash-Stuff/SMASH-ULTIMATE-MODS-BABY/50xx-the-mod/acmd-edits/code-mod-framework/lib/libnx_min/nx/lib\libnx_min.a(fs.o)
 .text.ipcCloseObjectById
                0x000000000002f250       0x34 C:/Users/RNG/Desktop/Stuff/Smash-Stuff/SMASH-ULTIMATE-MODS-BABY/50xx-the-mod/acmd-edits/code-mod-framework/lib/libnx_min/nx/lib\libnx_min.a(fs.o)
 *fill*         0x000000000002f284        0xc 
 .text._fsDeviceOperatorCheckInserted
                0x000000000002f290      0x19c C:/Users/RNG/Desktop/Stuff/Smash-Stuff/SMASH-ULTIMATE-MODS-BABY/50xx-the-mod/acmd-edits/code-mod-framework/lib/libnx_min/nx/lib\libnx_min.a(fs.o)
 *fill*         0x000000000002f42c        0x4 
 .text.fsFsQueryEntry.part.12
                0x000000000002f430      0x274 C:/Users/RNG/Desktop/Stuff/Smash-Stuff/SMASH-ULTIMATE-MODS-BABY/50xx-the-mod/acmd-edits/code-mod-framework/lib/libnx_min/nx/lib\libnx_min.a(fs.o)
 *fill*         0x000000000002f6a4        0xc 
 .text.fsInitialize
                0x000000000002f6b0      0x200 C:/Users/RNG/Desktop/Stuff/Smash-Stuff/SMASH-ULTIMATE-MODS-BABY/50xx-the-mod/acmd-edits/code-mod-framework/lib/libnx_min/nx/lib\libnx_min.a(fs.o)
                0x000000000002f6b0                fsInitialize
 .text.fsExit   0x000000000002f8b0       0x9c C:/Users/RNG/Desktop/Stuff/Smash-Stuff/SMASH-ULTIMATE-MODS-BABY/50xx-the-mod/acmd-edits/code-mod-framework/lib/libnx_min/nx/lib\libnx_min.a(fs.o)
                0x000000000002f8b0                fsExit
 *fill*         0x000000000002f94c        0x4 
 .text.fsGetServiceSession
                0x000000000002f950        0xc C:/Users/RNG/Desktop/Stuff/Smash-Stuff/SMASH-ULTIMATE-MODS-BABY/50xx-the-mod/acmd-edits/code-mod-framework/lib/libnx_min/nx/lib\libnx_min.a(fs.o)
                0x000000000002f950                fsGetServiceSession
 *fill*         0x000000000002f95c        0x4 
 .text.fsOpenBisStorage
                0x000000000002f960      0x1ec C:/Users/RNG/Desktop/Stuff/Smash-Stuff/SMASH-ULTIMATE-MODS-BABY/50xx-the-mod/acmd-edits/code-mod-framework/lib/libnx_min/nx/lib\libnx_min.a(fs.o)
                0x000000000002f960                fsOpenBisStorage
 *fill*         0x000000000002fb4c        0x4 
 .text.fsOpenBisFileSystem
                0x000000000002fb50      0x170 C:/Users/RNG/Desktop/Stuff/Smash-Stuff/SMASH-ULTIMATE-MODS-BABY/50xx-the-mod/acmd-edits/code-mod-framework/lib/libnx_min/nx/lib\libnx_min.a(fs.o)
                0x000000000002fb50                fsOpenBisFileSystem
 .text.fsMountSdcard
                0x000000000002fcc0      0x1cc C:/Users/RNG/Desktop/Stuff/Smash-Stuff/SMASH-ULTIMATE-MODS-BABY/50xx-the-mod/acmd-edits/code-mod-framework/lib/libnx_min/nx/lib\libnx_min.a(fs.o)
                0x000000000002fcc0                fsMountSdcard
 *fill*         0x000000000002fe8c        0x4 
 .text.fsMountSaveData
                0x000000000002fe90      0x208 C:/Users/RNG/Desktop/Stuff/Smash-Stuff/SMASH-ULTIMATE-MODS-BABY/50xx-the-mod/acmd-edits/code-mod-framework/lib/libnx_min/nx/lib\libnx_min.a(fs.o)
                0x000000000002fe90                fsMountSaveData
 *fill*         0x0000000000030098        0x8 
 .text.fsMountSystemSaveData
                0x00000000000300a0      0x208 C:/Users/RNG/Desktop/Stuff/Smash-Stuff/SMASH-ULTIMATE-MODS-BABY/50xx-the-mod/acmd-edits/code-mod-framework/lib/libnx_min/nx/lib\libnx_min.a(fs.o)
                0x00000000000300a0                fsMountSystemSaveData
 *fill*         0x00000000000302a8        0x8 
 .text.fsOpenSaveDataIterator
                0x00000000000302b0      0x1e0 C:/Users/RNG/Desktop/Stuff/Smash-Stuff/SMASH-ULTIMATE-MODS-BABY/50xx-the-mod/acmd-edits/code-mod-framework/lib/libnx_min/nx/lib\libnx_min.a(fs.o)
                0x00000000000302b0                fsOpenSaveDataIterator
 .text.fsOpenContentStorageFileSystem
                0x0000000000030490      0x1d4 C:/Users/RNG/Desktop/Stuff/Smash-Stuff/SMASH-ULTIMATE-MODS-BABY/50xx-the-mod/acmd-edits/code-mod-framework/lib/libnx_min/nx/lib\libnx_min.a(fs.o)
                0x0000000000030490                fsOpenContentStorageFileSystem
 *fill*         0x0000000000030664        0xc 
 .text.fsOpenDataStorageByCurrentProcess
                0x0000000000030670      0x1cc C:/Users/RNG/Desktop/Stuff/Smash-Stuff/SMASH-ULTIMATE-MODS-BABY/50xx-the-mod/acmd-edits/code-mod-framework/lib/libnx_min/nx/lib\libnx_min.a(fs.o)
                0x0000000000030670                fsOpenDataStorageByCurrentProcess
 *fill*         0x000000000003083c        0x4 
 .text.fsOpenDataStorageByDataId
                0x0000000000030840      0x200 C:/Users/RNG/Desktop/Stuff/Smash-Stuff/SMASH-ULTIMATE-MODS-BABY/50xx-the-mod/acmd-edits/code-mod-framework/lib/libnx_min/nx/lib\libnx_min.a(fs.o)
                0x0000000000030840                fsOpenDataStorageByDataId
 .text.fsOpenDeviceOperator
                0x0000000000030a40      0x1cc C:/Users/RNG/Desktop/Stuff/Smash-Stuff/SMASH-ULTIMATE-MODS-BABY/50xx-the-mod/acmd-edits/code-mod-framework/lib/libnx_min/nx/lib\libnx_min.a(fs.o)
                0x0000000000030a40                fsOpenDeviceOperator
 *fill*         0x0000000000030c0c        0x4 
 .text.fsOpenSdCardDetectionEventNotifier
                0x0000000000030c10      0x1cc C:/Users/RNG/Desktop/Stuff/Smash-Stuff/SMASH-ULTIMATE-MODS-BABY/50xx-the-mod/acmd-edits/code-mod-framework/lib/libnx_min/nx/lib\libnx_min.a(fs.o)
                0x0000000000030c10                fsOpenSdCardDetectionEventNotifier
 *fill*         0x0000000000030ddc        0x4 
 .text.fsGetRightsIdByPath
                0x0000000000030de0      0x174 C:/Users/RNG/Desktop/Stuff/Smash-Stuff/SMASH-ULTIMATE-MODS-BABY/50xx-the-mod/acmd-edits/code-mod-framework/lib/libnx_min/nx/lib\libnx_min.a(fs.o)
                0x0000000000030de0                fsGetRightsIdByPath
 *fill*         0x0000000000030f54        0xc 
 .text.fsGetRightsIdAndKeyGenerationByPath
                0x0000000000030f60      0x184 C:/Users/RNG/Desktop/Stuff/Smash-Stuff/SMASH-ULTIMATE-MODS-BABY/50xx-the-mod/acmd-edits/code-mod-framework/lib/libnx_min/nx/lib\libnx_min.a(fs.o)
                0x0000000000030f60                fsGetRightsIdAndKeyGenerationByPath
 *fill*         0x00000000000310e4        0xc 
 .text.fsIsExFatSupported
                0x00000000000310f0      0x138 C:/Users/RNG/Desktop/Stuff/Smash-Stuff/SMASH-ULTIMATE-MODS-BABY/50xx-the-mod/acmd-edits/code-mod-framework/lib/libnx_min/nx/lib\libnx_min.a(fs.o)
                0x00000000000310f0                fsIsExFatSupported
 *fill*         0x0000000000031228        0x8 
 .text.fsMount_SaveData
                0x0000000000031230       0x3c C:/Users/RNG/Desktop/Stuff/Smash-Stuff/SMASH-ULTIMATE-MODS-BABY/50xx-the-mod/acmd-edits/code-mod-framework/lib/libnx_min/nx/lib\libnx_min.a(fs.o)
                0x0000000000031230                fsMount_SaveData
 *fill*         0x000000000003126c        0x4 
 .text.fsMount_SystemSaveData
                0x0000000000031270       0x30 C:/Users/RNG/Desktop/Stuff/Smash-Stuff/SMASH-ULTIMATE-MODS-BABY/50xx-the-mod/acmd-edits/code-mod-framework/lib/libnx_min/nx/lib\libnx_min.a(fs.o)
                0x0000000000031270                fsMount_SystemSaveData
 .text.fsOpenFileSystemWithId
                0x00000000000312a0      0x248 C:/Users/RNG/Desktop/Stuff/Smash-Stuff/SMASH-ULTIMATE-MODS-BABY/50xx-the-mod/acmd-edits/code-mod-framework/lib/libnx_min/nx/lib\libnx_min.a(fs.o)
                0x00000000000312a0                fsOpenFileSystemWithId
 *fill*         0x00000000000314e8        0x8 
 .text.fsOpenFileSystem
                0x00000000000314f0       0x10 C:/Users/RNG/Desktop/Stuff/Smash-Stuff/SMASH-ULTIMATE-MODS-BABY/50xx-the-mod/acmd-edits/code-mod-framework/lib/libnx_min/nx/lib\libnx_min.a(fs.o)
                0x00000000000314f0                fsOpenFileSystem
 .text.fsOpenFileSystemWithPatch
                0x0000000000031500      0x184 C:/Users/RNG/Desktop/Stuff/Smash-Stuff/SMASH-ULTIMATE-MODS-BABY/50xx-the-mod/acmd-edits/code-mod-framework/lib/libnx_min/nx/lib\libnx_min.a(fs.o)
                0x0000000000031500                fsOpenFileSystemWithPatch
 *fill*         0x0000000000031684        0xc 
 .text.fsFsCreateFile
                0x0000000000031690      0x1a4 C:/Users/RNG/Desktop/Stuff/Smash-Stuff/SMASH-ULTIMATE-MODS-BABY/50xx-the-mod/acmd-edits/code-mod-framework/lib/libnx_min/nx/lib\libnx_min.a(fs.o)
                0x0000000000031690                fsFsCreateFile
 *fill*         0x0000000000031834        0xc 
 .text.fsFsDeleteFile
                0x0000000000031840      0x19c C:/Users/RNG/Desktop/Stuff/Smash-Stuff/SMASH-ULTIMATE-MODS-BABY/50xx-the-mod/acmd-edits/code-mod-framework/lib/libnx_min/nx/lib\libnx_min.a(fs.o)
                0x0000000000031840                fsFsDeleteFile
 *fill*         0x00000000000319dc        0x4 
 .text.fsFsCreateDirectory
                0x00000000000319e0      0x19c C:/Users/RNG/Desktop/Stuff/Smash-Stuff/SMASH-ULTIMATE-MODS-BABY/50xx-the-mod/acmd-edits/code-mod-framework/lib/libnx_min/nx/lib\libnx_min.a(fs.o)
                0x00000000000319e0                fsFsCreateDirectory
 *fill*         0x0000000000031b7c        0x4 
 .text.fsFsDeleteDirectory
                0x0000000000031b80      0x19c C:/Users/RNG/Desktop/Stuff/Smash-Stuff/SMASH-ULTIMATE-MODS-BABY/50xx-the-mod/acmd-edits/code-mod-framework/lib/libnx_min/nx/lib\libnx_min.a(fs.o)
                0x0000000000031b80                fsFsDeleteDirectory
 *fill*         0x0000000000031d1c        0x4 
 .text.fsFsDeleteDirectoryRecursively
                0x0000000000031d20      0x19c C:/Users/RNG/Desktop/Stuff/Smash-Stuff/SMASH-ULTIMATE-MODS-BABY/50xx-the-mod/acmd-edits/code-mod-framework/lib/libnx_min/nx/lib\libnx_min.a(fs.o)
                0x0000000000031d20                fsFsDeleteDirectoryRecursively
 *fill*         0x0000000000031ebc        0x4 
 .text.fsFsRenameFile
                0x0000000000031ec0      0x214 C:/Users/RNG/Desktop/Stuff/Smash-Stuff/SMASH-ULTIMATE-MODS-BABY/50xx-the-mod/acmd-edits/code-mod-framework/lib/libnx_min/nx/lib\libnx_min.a(fs.o)
                0x0000000000031ec0                fsFsRenameFile
 *fill*         0x00000000000320d4        0xc 
 .text.fsFsRenameDirectory
                0x00000000000320e0      0x214 C:/Users/RNG/Desktop/Stuff/Smash-Stuff/SMASH-ULTIMATE-MODS-BABY/50xx-the-mod/acmd-edits/code-mod-framework/lib/libnx_min/nx/lib\libnx_min.a(fs.o)
                0x00000000000320e0                fsFsRenameDirectory
 *fill*         0x00000000000322f4        0xc 
 .text.fsFsGetEntryType
                0x0000000000032300      0x1b0 C:/Users/RNG/Desktop/Stuff/Smash-Stuff/SMASH-ULTIMATE-MODS-BABY/50xx-the-mod/acmd-edits/code-mod-framework/lib/libnx_min/nx/lib\libnx_min.a(fs.o)
                0x0000000000032300                fsFsGetEntryType
 .text.fsFsOpenFile
                0x00000000000324b0      0x1e4 C:/Users/RNG/Desktop/Stuff/Smash-Stuff/SMASH-ULTIMATE-MODS-BABY/50xx-the-mod/acmd-edits/code-mod-framework/lib/libnx_min/nx/lib\libnx_min.a(fs.o)
                0x00000000000324b0                fsFsOpenFile
 *fill*         0x0000000000032694        0xc 
 .text.fsFsOpenDirectory
                0x00000000000326a0      0x1f8 C:/Users/RNG/Desktop/Stuff/Smash-Stuff/SMASH-ULTIMATE-MODS-BABY/50xx-the-mod/acmd-edits/code-mod-framework/lib/libnx_min/nx/lib\libnx_min.a(fs.o)
                0x00000000000326a0                fsFsOpenDirectory
 *fill*         0x0000000000032898        0x8 
 .text.fsFsCommit
                0x00000000000328a0      0x17c C:/Users/RNG/Desktop/Stuff/Smash-Stuff/SMASH-ULTIMATE-MODS-BABY/50xx-the-mod/acmd-edits/code-mod-framework/lib/libnx_min/nx/lib\libnx_min.a(fs.o)
                0x00000000000328a0                fsFsCommit
 *fill*         0x0000000000032a1c        0x4 
 .text.fsFsGetFreeSpace
                0x0000000000032a20      0x1b0 C:/Users/RNG/Desktop/Stuff/Smash-Stuff/SMASH-ULTIMATE-MODS-BABY/50xx-the-mod/acmd-edits/code-mod-framework/lib/libnx_min/nx/lib\libnx_min.a(fs.o)
                0x0000000000032a20                fsFsGetFreeSpace
 .text.fsFsGetTotalSpace
                0x0000000000032bd0      0x1b0 C:/Users/RNG/Desktop/Stuff/Smash-Stuff/SMASH-ULTIMATE-MODS-BABY/50xx-the-mod/acmd-edits/code-mod-framework/lib/libnx_min/nx/lib\libnx_min.a(fs.o)
                0x0000000000032bd0                fsFsGetTotalSpace
 .text.fsFsCleanDirectoryRecursively
                0x0000000000032d80      0x140 C:/Users/RNG/Desktop/Stuff/Smash-Stuff/SMASH-ULTIMATE-MODS-BABY/50xx-the-mod/acmd-edits/code-mod-framework/lib/libnx_min/nx/lib\libnx_min.a(fs.o)
                0x0000000000032d80                fsFsCleanDirectoryRecursively
 .text.fsFsGetFileTimeStampRaw
                0x0000000000032ec0      0x194 C:/Users/RNG/Desktop/Stuff/Smash-Stuff/SMASH-ULTIMATE-MODS-BABY/50xx-the-mod/acmd-edits/code-mod-framework/lib/libnx_min/nx/lib\libnx_min.a(fs.o)
                0x0000000000032ec0                fsFsGetFileTimeStampRaw
 *fill*         0x0000000000033054        0xc 
 .text.fsFsQueryEntry
                0x0000000000033060       0x60 C:/Users/RNG/Desktop/Stuff/Smash-Stuff/SMASH-ULTIMATE-MODS-BABY/50xx-the-mod/acmd-edits/code-mod-framework/lib/libnx_min/nx/lib\libnx_min.a(fs.o)
                0x0000000000033060                fsFsQueryEntry
 .text.fsFsSetArchiveBit
                0x00000000000330c0       0x1c C:/Users/RNG/Desktop/Stuff/Smash-Stuff/SMASH-ULTIMATE-MODS-BABY/50xx-the-mod/acmd-edits/code-mod-framework/lib/libnx_min/nx/lib\libnx_min.a(fs.o)
                0x00000000000330c0                fsFsSetArchiveBit
 *fill*         0x00000000000330dc        0x4 
 .text.fsFsClose
                0x00000000000330e0       0x6c C:/Users/RNG/Desktop/Stuff/Smash-Stuff/SMASH-ULTIMATE-MODS-BABY/50xx-the-mod/acmd-edits/code-mod-framework/lib/libnx_min/nx/lib\libnx_min.a(fs.o)
                0x00000000000330e0                fsFsClose
 *fill*         0x000000000003314c        0x4 
 .text.fsFileRead
                0x0000000000033150      0x1f8 C:/Users/RNG/Desktop/Stuff/Smash-Stuff/SMASH-ULTIMATE-MODS-BABY/50xx-the-mod/acmd-edits/code-mod-framework/lib/libnx_min/nx/lib\libnx_min.a(fs.o)
                0x0000000000033150                fsFileRead
 *fill*         0x0000000000033348        0x8 
 .text.fsFileWrite
                0x0000000000033350      0x1cc C:/Users/RNG/Desktop/Stuff/Smash-Stuff/SMASH-ULTIMATE-MODS-BABY/50xx-the-mod/acmd-edits/code-mod-framework/lib/libnx_min/nx/lib\libnx_min.a(fs.o)
                0x0000000000033350                fsFileWrite
 *fill*         0x000000000003351c        0x4 
 .text.fsFileFlush
                0x0000000000033520      0x17c C:/Users/RNG/Desktop/Stuff/Smash-Stuff/SMASH-ULTIMATE-MODS-BABY/50xx-the-mod/acmd-edits/code-mod-framework/lib/libnx_min/nx/lib\libnx_min.a(fs.o)
                0x0000000000033520                fsFileFlush
 *fill*         0x000000000003369c        0x4 
 .text.fsFileSetSize
                0x00000000000336a0      0x18c C:/Users/RNG/Desktop/Stuff/Smash-Stuff/SMASH-ULTIMATE-MODS-BABY/50xx-the-mod/acmd-edits/code-mod-framework/lib/libnx_min/nx/lib\libnx_min.a(fs.o)
                0x00000000000336a0                fsFileSetSize
 *fill*         0x000000000003382c        0x4 
 .text.fsFileGetSize
                0x0000000000033830      0x194 C:/Users/RNG/Desktop/Stuff/Smash-Stuff/SMASH-ULTIMATE-MODS-BABY/50xx-the-mod/acmd-edits/code-mod-framework/lib/libnx_min/nx/lib\libnx_min.a(fs.o)
                0x0000000000033830                fsFileGetSize
 *fill*         0x00000000000339c4        0xc 
 .text.fsFileOperateRange
                0x00000000000339d0      0x180 C:/Users/RNG/Desktop/Stuff/Smash-Stuff/SMASH-ULTIMATE-MODS-BABY/50xx-the-mod/acmd-edits/code-mod-framework/lib/libnx_min/nx/lib\libnx_min.a(fs.o)
                0x00000000000339d0                fsFileOperateRange
 .text.fsFileClose
                0x0000000000033b50       0x6c C:/Users/RNG/Desktop/Stuff/Smash-Stuff/SMASH-ULTIMATE-MODS-BABY/50xx-the-mod/acmd-edits/code-mod-framework/lib/libnx_min/nx/lib\libnx_min.a(fs.o)
                0x0000000000033b50                fsFileClose
 *fill*         0x0000000000033bbc        0x4 
 .text.fsDirClose
                0x0000000000033bc0       0x6c C:/Users/RNG/Desktop/Stuff/Smash-Stuff/SMASH-ULTIMATE-MODS-BABY/50xx-the-mod/acmd-edits/code-mod-framework/lib/libnx_min/nx/lib\libnx_min.a(fs.o)
                0x0000000000033bc0                fsDirClose
 *fill*         0x0000000000033c2c        0x4 
 .text.fsDirRead
                0x0000000000033c30      0x1ec C:/Users/RNG/Desktop/Stuff/Smash-Stuff/SMASH-ULTIMATE-MODS-BABY/50xx-the-mod/acmd-edits/code-mod-framework/lib/libnx_min/nx/lib\libnx_min.a(fs.o)
                0x0000000000033c30                fsDirRead
 *fill*         0x0000000000033e1c        0x4 
 .text.fsDirGetEntryCount
                0x0000000000033e20      0x198 C:/Users/RNG/Desktop/Stuff/Smash-Stuff/SMASH-ULTIMATE-MODS-BABY/50xx-the-mod/acmd-edits/code-mod-framework/lib/libnx_min/nx/lib\libnx_min.a(fs.o)
                0x0000000000033e20                fsDirGetEntryCount
 *fill*         0x0000000000033fb8        0x8 
 .text.fsStorageRead
                0x0000000000033fc0      0x1d0 C:/Users/RNG/Desktop/Stuff/Smash-Stuff/SMASH-ULTIMATE-MODS-BABY/50xx-the-mod/acmd-edits/code-mod-framework/lib/libnx_min/nx/lib\libnx_min.a(fs.o)
                0x0000000000033fc0                fsStorageRead
 .text.fsStorageWrite
                0x0000000000034190      0x1d0 C:/Users/RNG/Desktop/Stuff/Smash-Stuff/SMASH-ULTIMATE-MODS-BABY/50xx-the-mod/acmd-edits/code-mod-framework/lib/libnx_min/nx/lib\libnx_min.a(fs.o)
                0x0000000000034190                fsStorageWrite
 .text.fsStorageFlush
                0x0000000000034360      0x17c C:/Users/RNG/Desktop/Stuff/Smash-Stuff/SMASH-ULTIMATE-MODS-BABY/50xx-the-mod/acmd-edits/code-mod-framework/lib/libnx_min/nx/lib\libnx_min.a(fs.o)
                0x0000000000034360                fsStorageFlush
 *fill*         0x00000000000344dc        0x4 
 .text.fsStorageSetSize
                0x00000000000344e0      0x18c C:/Users/RNG/Desktop/Stuff/Smash-Stuff/SMASH-ULTIMATE-MODS-BABY/50xx-the-mod/acmd-edits/code-mod-framework/lib/libnx_min/nx/lib\libnx_min.a(fs.o)
                0x00000000000344e0                fsStorageSetSize
 *fill*         0x000000000003466c        0x4 
 .text.fsStorageGetSize
                0x0000000000034670      0x194 C:/Users/RNG/Desktop/Stuff/Smash-Stuff/SMASH-ULTIMATE-MODS-BABY/50xx-the-mod/acmd-edits/code-mod-framework/lib/libnx_min/nx/lib\libnx_min.a(fs.o)
                0x0000000000034670                fsStorageGetSize
 *fill*         0x0000000000034804        0xc 
 .text.fsStorageOperateRange
                0x0000000000034810      0x180 C:/Users/RNG/Desktop/Stuff/Smash-Stuff/SMASH-ULTIMATE-MODS-BABY/50xx-the-mod/acmd-edits/code-mod-framework/lib/libnx_min/nx/lib\libnx_min.a(fs.o)
                0x0000000000034810                fsStorageOperateRange
 .text.fsStorageClose
                0x0000000000034990       0x6c C:/Users/RNG/Desktop/Stuff/Smash-Stuff/SMASH-ULTIMATE-MODS-BABY/50xx-the-mod/acmd-edits/code-mod-framework/lib/libnx_min/nx/lib\libnx_min.a(fs.o)
                0x0000000000034990                fsStorageClose
 *fill*         0x00000000000349fc        0x4 
 .text.fsSaveDataIteratorRead
                0x0000000000034a00      0x1d0 C:/Users/RNG/Desktop/Stuff/Smash-Stuff/SMASH-ULTIMATE-MODS-BABY/50xx-the-mod/acmd-edits/code-mod-framework/lib/libnx_min/nx/lib\libnx_min.a(fs.o)
                0x0000000000034a00                fsSaveDataIteratorRead
 .text.fsSaveDataIteratorClose
                0x0000000000034bd0       0x6c C:/Users/RNG/Desktop/Stuff/Smash-Stuff/SMASH-ULTIMATE-MODS-BABY/50xx-the-mod/acmd-edits/code-mod-framework/lib/libnx_min/nx/lib\libnx_min.a(fs.o)
                0x0000000000034bd0                fsSaveDataIteratorClose
 *fill*         0x0000000000034c3c        0x4 
 .text.fsEventNotifierGetEventHandle
                0x0000000000034c40      0x188 C:/Users/RNG/Desktop/Stuff/Smash-Stuff/SMASH-ULTIMATE-MODS-BABY/50xx-the-mod/acmd-edits/code-mod-framework/lib/libnx_min/nx/lib\libnx_min.a(fs.o)
                0x0000000000034c40                fsEventNotifierGetEventHandle
 *fill*         0x0000000000034dc8        0x8 
 .text.fsEventNotifierClose
                0x0000000000034dd0       0x6c C:/Users/RNG/Desktop/Stuff/Smash-Stuff/SMASH-ULTIMATE-MODS-BABY/50xx-the-mod/acmd-edits/code-mod-framework/lib/libnx_min/nx/lib\libnx_min.a(fs.o)
                0x0000000000034dd0                fsEventNotifierClose
 *fill*         0x0000000000034e3c        0x4 
 .text.fsDeviceOperatorIsSdCardInserted
                0x0000000000034e40        0xc C:/Users/RNG/Desktop/Stuff/Smash-Stuff/SMASH-ULTIMATE-MODS-BABY/50xx-the-mod/acmd-edits/code-mod-framework/lib/libnx_min/nx/lib\libnx_min.a(fs.o)
                0x0000000000034e40                fsDeviceOperatorIsSdCardInserted
 *fill*         0x0000000000034e4c        0x4 
 .text.fsDeviceOperatorIsGameCardInserted
                0x0000000000034e50        0xc C:/Users/RNG/Desktop/Stuff/Smash-Stuff/SMASH-ULTIMATE-MODS-BABY/50xx-the-mod/acmd-edits/code-mod-framework/lib/libnx_min/nx/lib\libnx_min.a(fs.o)
                0x0000000000034e50                fsDeviceOperatorIsGameCardInserted
 *fill*         0x0000000000034e5c        0x4 
 .text.fsDeviceOperatorGetGameCardHandle
                0x0000000000034e60      0x190 C:/Users/RNG/Desktop/Stuff/Smash-Stuff/SMASH-ULTIMATE-MODS-BABY/50xx-the-mod/acmd-edits/code-mod-framework/lib/libnx_min/nx/lib\libnx_min.a(fs.o)
                0x0000000000034e60                fsDeviceOperatorGetGameCardHandle
 .text.fsDeviceOperatorGetGameCardAttribute
                0x0000000000034ff0      0x18c C:/Users/RNG/Desktop/Stuff/Smash-Stuff/SMASH-ULTIMATE-MODS-BABY/50xx-the-mod/acmd-edits/code-mod-framework/lib/libnx_min/nx/lib\libnx_min.a(fs.o)
                0x0000000000034ff0                fsDeviceOperatorGetGameCardAttribute
 *fill*         0x000000000003517c        0x4 
 .text.fsDeviceOperatorClose
                0x0000000000035180       0x6c C:/Users/RNG/Desktop/Stuff/Smash-Stuff/SMASH-ULTIMATE-MODS-BABY/50xx-the-mod/acmd-edits/code-mod-framework/lib/libnx_min/nx/lib\libnx_min.a(fs.o)
                0x0000000000035180                fsDeviceOperatorClose
 *fill*         0x00000000000351ec        0x4 
 .text.ipcCloseObjectById
                0x00000000000351f0       0x34 C:/Users/RNG/Desktop/Stuff/Smash-Stuff/SMASH-ULTIMATE-MODS-BABY/50xx-the-mod/acmd-edits/code-mod-framework/lib/libnx_min/nx/lib\libnx_min.a(set.o)
 *fill*         0x0000000000035224        0xc 
 .text._setMakeLanguageCode
                0x0000000000035230       0xf4 C:/Users/RNG/Desktop/Stuff/Smash-Stuff/SMASH-ULTIMATE-MODS-BABY/50xx-the-mod/acmd-edits/code-mod-framework/lib/libnx_min/nx/lib\libnx_min.a(set.o)
 *fill*         0x0000000000035324        0xc 
 .text._setsysGetFirmwareVersionImpl
                0x0000000000035330      0x1d4 C:/Users/RNG/Desktop/Stuff/Smash-Stuff/SMASH-ULTIMATE-MODS-BABY/50xx-the-mod/acmd-edits/code-mod-framework/lib/libnx_min/nx/lib\libnx_min.a(set.o)
 *fill*         0x0000000000035504        0xc 
 .text.setInitialize
                0x0000000000035510       0x44 C:/Users/RNG/Desktop/Stuff/Smash-Stuff/SMASH-ULTIMATE-MODS-BABY/50xx-the-mod/acmd-edits/code-mod-framework/lib/libnx_min/nx/lib\libnx_min.a(set.o)
                0x0000000000035510                setInitialize
 *fill*         0x0000000000035554        0xc 
 .text.setExit  0x0000000000035560       0x9c C:/Users/RNG/Desktop/Stuff/Smash-Stuff/SMASH-ULTIMATE-MODS-BABY/50xx-the-mod/acmd-edits/code-mod-framework/lib/libnx_min/nx/lib\libnx_min.a(set.o)
                0x0000000000035560                setExit
 *fill*         0x00000000000355fc        0x4 
 .text.setsysInitialize
                0x0000000000035600       0x3c C:/Users/RNG/Desktop/Stuff/Smash-Stuff/SMASH-ULTIMATE-MODS-BABY/50xx-the-mod/acmd-edits/code-mod-framework/lib/libnx_min/nx/lib\libnx_min.a(set.o)
                0x0000000000035600                setsysInitialize
 *fill*         0x000000000003563c        0x4 
 .text.setsysExit
                0x0000000000035640       0x9c C:/Users/RNG/Desktop/Stuff/Smash-Stuff/SMASH-ULTIMATE-MODS-BABY/50xx-the-mod/acmd-edits/code-mod-framework/lib/libnx_min/nx/lib\libnx_min.a(set.o)
                0x0000000000035640                setsysExit
 *fill*         0x00000000000356dc        0x4 
 .text.setGetLanguageCode
                0x00000000000356e0       0xec C:/Users/RNG/Desktop/Stuff/Smash-Stuff/SMASH-ULTIMATE-MODS-BABY/50xx-the-mod/acmd-edits/code-mod-framework/lib/libnx_min/nx/lib\libnx_min.a(set.o)
                0x00000000000356e0                setGetLanguageCode
 *fill*         0x00000000000357cc        0x4 
 .text.setGetSystemLanguage
                0x00000000000357d0        0x4 C:/Users/RNG/Desktop/Stuff/Smash-Stuff/SMASH-ULTIMATE-MODS-BABY/50xx-the-mod/acmd-edits/code-mod-framework/lib/libnx_min/nx/lib\libnx_min.a(set.o)
                0x00000000000357d0                setGetSystemLanguage
 *fill*         0x00000000000357d4        0xc 
 .text.setGetAvailableLanguageCodeCount
                0x00000000000357e0      0x10c C:/Users/RNG/Desktop/Stuff/Smash-Stuff/SMASH-ULTIMATE-MODS-BABY/50xx-the-mod/acmd-edits/code-mod-framework/lib/libnx_min/nx/lib\libnx_min.a(set.o)
                0x00000000000357e0                setGetAvailableLanguageCodeCount
 *fill*         0x00000000000358ec        0x4 
 .text.setGetAvailableLanguageCodes
                0x00000000000358f0      0x1b4 C:/Users/RNG/Desktop/Stuff/Smash-Stuff/SMASH-ULTIMATE-MODS-BABY/50xx-the-mod/acmd-edits/code-mod-framework/lib/libnx_min/nx/lib\libnx_min.a(set.o)
                0x00000000000358f0                setGetAvailableLanguageCodes
 *fill*         0x0000000000035aa4        0xc 
 .text.setInitializeLanguageCodesCache
                0x0000000000035ab0       0x70 C:/Users/RNG/Desktop/Stuff/Smash-Stuff/SMASH-ULTIMATE-MODS-BABY/50xx-the-mod/acmd-edits/code-mod-framework/lib/libnx_min/nx/lib\libnx_min.a(set.o)
 .text.setMakeLanguage
                0x0000000000035b20       0x8c C:/Users/RNG/Desktop/Stuff/Smash-Stuff/SMASH-ULTIMATE-MODS-BABY/50xx-the-mod/acmd-edits/code-mod-framework/lib/libnx_min/nx/lib\libnx_min.a(set.o)
                0x0000000000035b20                setMakeLanguage
 *fill*         0x0000000000035bac        0x4 
 .text.setMakeLanguageCode
                0x0000000000035bb0       0x80 C:/Users/RNG/Desktop/Stuff/Smash-Stuff/SMASH-ULTIMATE-MODS-BABY/50xx-the-mod/acmd-edits/code-mod-framework/lib/libnx_min/nx/lib\libnx_min.a(set.o)
                0x0000000000035bb0                setMakeLanguageCode
 .text.setGetRegionCode
                0x0000000000035c30       0xf0 C:/Users/RNG/Desktop/Stuff/Smash-Stuff/SMASH-ULTIMATE-MODS-BABY/50xx-the-mod/acmd-edits/code-mod-framework/lib/libnx_min/nx/lib\libnx_min.a(set.o)
                0x0000000000035c30                setGetRegionCode
 .text.setsysGetColorSetId
                0x0000000000035d20       0xe4 C:/Users/RNG/Desktop/Stuff/Smash-Stuff/SMASH-ULTIMATE-MODS-BABY/50xx-the-mod/acmd-edits/code-mod-framework/lib/libnx_min/nx/lib\libnx_min.a(set.o)
                0x0000000000035d20                setsysGetColorSetId
 *fill*         0x0000000000035e04        0xc 
 .text.setsysSetColorSetId
                0x0000000000035e10       0xd0 C:/Users/RNG/Desktop/Stuff/Smash-Stuff/SMASH-ULTIMATE-MODS-BABY/50xx-the-mod/acmd-edits/code-mod-framework/lib/libnx_min/nx/lib\libnx_min.a(set.o)
                0x0000000000035e10                setsysSetColorSetId
 .text.setsysGetSettingsItemValue
                0x0000000000035ee0      0x19c C:/Users/RNG/Desktop/Stuff/Smash-Stuff/SMASH-ULTIMATE-MODS-BABY/50xx-the-mod/acmd-edits/code-mod-framework/lib/libnx_min/nx/lib\libnx_min.a(set.o)
                0x0000000000035ee0                setsysGetSettingsItemValue
 *fill*         0x000000000003607c        0x4 
 .text.setsysGetSettingsItemValueSize
                0x0000000000036080      0x198 C:/Users/RNG/Desktop/Stuff/Smash-Stuff/SMASH-ULTIMATE-MODS-BABY/50xx-the-mod/acmd-edits/code-mod-framework/lib/libnx_min/nx/lib\libnx_min.a(set.o)
                0x0000000000036080                setsysGetSettingsItemValueSize
 *fill*         0x0000000000036218        0x8 
 .text.setsysGetSerialNumber
                0x0000000000036220      0x108 C:/Users/RNG/Desktop/Stuff/Smash-Stuff/SMASH-ULTIMATE-MODS-BABY/50xx-the-mod/acmd-edits/code-mod-framework/lib/libnx_min/nx/lib\libnx_min.a(set.o)
                0x0000000000036220                setsysGetSerialNumber
 *fill*         0x0000000000036328        0x8 
 .text.setsysGetFlag
                0x0000000000036330       0xec C:/Users/RNG/Desktop/Stuff/Smash-Stuff/SMASH-ULTIMATE-MODS-BABY/50xx-the-mod/acmd-edits/code-mod-framework/lib/libnx_min/nx/lib\libnx_min.a(set.o)
                0x0000000000036330                setsysGetFlag
 *fill*         0x000000000003641c        0x4 
 .text.setsysSetFlag
                0x0000000000036420       0xd0 C:/Users/RNG/Desktop/Stuff/Smash-Stuff/SMASH-ULTIMATE-MODS-BABY/50xx-the-mod/acmd-edits/code-mod-framework/lib/libnx_min/nx/lib\libnx_min.a(set.o)
                0x0000000000036420                setsysSetFlag
 .text.setsysGetFirmwareVersion
                0x00000000000364f0       0x44 C:/Users/RNG/Desktop/Stuff/Smash-Stuff/SMASH-ULTIMATE-MODS-BABY/50xx-the-mod/acmd-edits/code-mod-framework/lib/libnx_min/nx/lib\libnx_min.a(set.o)
                0x00000000000364f0                setsysGetFirmwareVersion
 *fill*         0x0000000000036534        0xc 
 .text.setsysBindFatalDirtyFlagEvent
                0x0000000000036540      0x13c C:/Users/RNG/Desktop/Stuff/Smash-Stuff/SMASH-ULTIMATE-MODS-BABY/50xx-the-mod/acmd-edits/code-mod-framework/lib/libnx_min/nx/lib\libnx_min.a(set.o)
                0x0000000000036540                setsysBindFatalDirtyFlagEvent
 *fill*         0x000000000003667c        0x4 
 .text.setsysGetFatalDirtyFlags
                0x0000000000036680       0xf8 C:/Users/RNG/Desktop/Stuff/Smash-Stuff/SMASH-ULTIMATE-MODS-BABY/50xx-the-mod/acmd-edits/code-mod-framework/lib/libnx_min/nx/lib\libnx_min.a(set.o)
                0x0000000000036680                setsysGetFatalDirtyFlags
 *fill*         0x0000000000036778        0x8 
 .text.setsysGetDeviceNickname
                0x0000000000036780       0xf8 C:/Users/RNG/Desktop/Stuff/Smash-Stuff/SMASH-ULTIMATE-MODS-BABY/50xx-the-mod/acmd-edits/code-mod-framework/lib/libnx_min/nx/lib\libnx_min.a(set.o)
                0x0000000000036780                setsysGetDeviceNickname
 *fill*         0x0000000000036878        0x8 
 .text.setsysSetDeviceNickname
                0x0000000000036880      0x134 C:/Users/RNG/Desktop/Stuff/Smash-Stuff/SMASH-ULTIMATE-MODS-BABY/50xx-the-mod/acmd-edits/code-mod-framework/lib/libnx_min/nx/lib\libnx_min.a(set.o)
                0x0000000000036880                setsysSetDeviceNickname
 *fill*         0x00000000000369b4        0xc 
 .text._fatalImpl
                0x00000000000369c0      0x140 C:/Users/RNG/Desktop/Stuff/Smash-Stuff/SMASH-ULTIMATE-MODS-BABY/50xx-the-mod/acmd-edits/code-mod-framework/lib/libnx_min/nx/lib\libnx_min.a(fatal.o)
 .text.fatalWithType
                0x0000000000036b00       0x14 C:/Users/RNG/Desktop/Stuff/Smash-Stuff/SMASH-ULTIMATE-MODS-BABY/50xx-the-mod/acmd-edits/code-mod-framework/lib/libnx_min/nx/lib\libnx_min.a(fatal.o)
                0x0000000000036b00                fatalWithType
 *fill*         0x0000000000036b14        0xc 
 .text.fatalSimple
                0x0000000000036b20       0x14 C:/Users/RNG/Desktop/Stuff/Smash-Stuff/SMASH-ULTIMATE-MODS-BABY/50xx-the-mod/acmd-edits/code-mod-framework/lib/libnx_min/nx/lib\libnx_min.a(fatal.o)
                0x0000000000036b20                fatalSimple
 *fill*         0x0000000000036b34        0xc 
 .text.fatalWithContext
                0x0000000000036b40       0x14 C:/Users/RNG/Desktop/Stuff/Smash-Stuff/SMASH-ULTIMATE-MODS-BABY/50xx-the-mod/acmd-edits/code-mod-framework/lib/libnx_min/nx/lib\libnx_min.a(fatal.o)
                0x0000000000036b40                fatalWithContext
 *fill*         0x0000000000036b54        0xc 
 .text.ipcCloseObjectById
                0x0000000000036b60       0x34 C:/Users/RNG/Desktop/Stuff/Smash-Stuff/SMASH-ULTIMATE-MODS-BABY/50xx-the-mod/acmd-edits/code-mod-framework/lib/libnx_min/nx/lib\libnx_min.a(sm.o)
 *fill*         0x0000000000036b94        0xc 
 .text.smAddOverrideHandle
                0x0000000000036ba0       0x44 C:/Users/RNG/Desktop/Stuff/Smash-Stuff/SMASH-ULTIMATE-MODS-BABY/50xx-the-mod/acmd-edits/code-mod-framework/lib/libnx_min/nx/lib\libnx_min.a(sm.o)
                0x0000000000036ba0                smAddOverrideHandle
 *fill*         0x0000000000036be4        0xc 
 .text.smGetServiceOverride
                0x0000000000036bf0       0x60 C:/Users/RNG/Desktop/Stuff/Smash-Stuff/SMASH-ULTIMATE-MODS-BABY/50xx-the-mod/acmd-edits/code-mod-framework/lib/libnx_min/nx/lib\libnx_min.a(sm.o)
                0x0000000000036bf0                smGetServiceOverride
 .text.smHasInitialized
                0x0000000000036c50       0x14 C:/Users/RNG/Desktop/Stuff/Smash-Stuff/SMASH-ULTIMATE-MODS-BABY/50xx-the-mod/acmd-edits/code-mod-framework/lib/libnx_min/nx/lib\libnx_min.a(sm.o)
                0x0000000000036c50                smHasInitialized
 *fill*         0x0000000000036c64        0xc 
 .text.smExit   0x0000000000036c70       0x9c C:/Users/RNG/Desktop/Stuff/Smash-Stuff/SMASH-ULTIMATE-MODS-BABY/50xx-the-mod/acmd-edits/code-mod-framework/lib/libnx_min/nx/lib\libnx_min.a(sm.o)
                0x0000000000036c70                smExit
 *fill*         0x0000000000036d0c        0x4 
 .text.smGetServiceSession
                0x0000000000036d10        0xc C:/Users/RNG/Desktop/Stuff/Smash-Stuff/SMASH-ULTIMATE-MODS-BABY/50xx-the-mod/acmd-edits/code-mod-framework/lib/libnx_min/nx/lib\libnx_min.a(sm.o)
                0x0000000000036d10                smGetServiceSession
 *fill*         0x0000000000036d1c        0x4 
 .text.smEncodeName
                0x0000000000036d20       0x38 C:/Users/RNG/Desktop/Stuff/Smash-Stuff/SMASH-ULTIMATE-MODS-BABY/50xx-the-mod/acmd-edits/code-mod-framework/lib/libnx_min/nx/lib\libnx_min.a(sm.o)
                0x0000000000036d20                smEncodeName
 *fill*         0x0000000000036d58        0x8 
 .text.smGetServiceOriginal
                0x0000000000036d60      0x22c C:/Users/RNG/Desktop/Stuff/Smash-Stuff/SMASH-ULTIMATE-MODS-BABY/50xx-the-mod/acmd-edits/code-mod-framework/lib/libnx_min/nx/lib\libnx_min.a(sm.o)
                0x0000000000036d60                smGetServiceOriginal
 *fill*         0x0000000000036f8c        0x4 
 .text.smInitialize
                0x0000000000036f90      0x27c C:/Users/RNG/Desktop/Stuff/Smash-Stuff/SMASH-ULTIMATE-MODS-BABY/50xx-the-mod/acmd-edits/code-mod-framework/lib/libnx_min/nx/lib\libnx_min.a(sm.o)
                0x0000000000036f90                smInitialize
 *fill*         0x000000000003720c        0x4 
 .text.smGetService
                0x0000000000037210       0x74 C:/Users/RNG/Desktop/Stuff/Smash-Stuff/SMASH-ULTIMATE-MODS-BABY/50xx-the-mod/acmd-edits/code-mod-framework/lib/libnx_min/nx/lib\libnx_min.a(sm.o)
                0x0000000000037210                smGetService
 *fill*         0x0000000000037284        0xc 
 .text.smRegisterService
                0x0000000000037290      0x25c C:/Users/RNG/Desktop/Stuff/Smash-Stuff/SMASH-ULTIMATE-MODS-BABY/50xx-the-mod/acmd-edits/code-mod-framework/lib/libnx_min/nx/lib\libnx_min.a(sm.o)
                0x0000000000037290                smRegisterService
 *fill*         0x00000000000374ec        0x4 
 .text.smUnregisterService
                0x00000000000374f0      0x1ac C:/Users/RNG/Desktop/Stuff/Smash-Stuff/SMASH-ULTIMATE-MODS-BABY/50xx-the-mod/acmd-edits/code-mod-framework/lib/libnx_min/nx/lib\libnx_min.a(sm.o)
                0x00000000000374f0                smUnregisterService
 *fill*         0x000000000003769c        0x4 
 .text._hidGetDeviceHandles.part.7
                0x00000000000376a0       0xec C:/Users/RNG/Desktop/Stuff/Smash-Stuff/SMASH-ULTIMATE-MODS-BABY/50xx-the-mod/acmd-edits/code-mod-framework/lib/libnx_min/nx/lib\libnx_min.a(hid.o)
 *fill*         0x000000000003778c        0x4 
 .text.ipcCloseObjectById
                0x0000000000037790       0x34 C:/Users/RNG/Desktop/Stuff/Smash-Stuff/SMASH-ULTIMATE-MODS-BABY/50xx-the-mod/acmd-edits/code-mod-framework/lib/libnx_min/nx/lib\libnx_min.a(hid.o)
 *fill*         0x00000000000377c4        0xc 
 .text._hidActivateVibrationDevice
                0x00000000000377d0       0xc8 C:/Users/RNG/Desktop/Stuff/Smash-Stuff/SMASH-ULTIMATE-MODS-BABY/50xx-the-mod/acmd-edits/code-mod-framework/lib/libnx_min/nx/lib\libnx_min.a(hid.o)
 *fill*         0x0000000000037898        0x8 
 .text._hidGetSharedMemoryHandle.constprop.17
                0x00000000000378a0      0x124 C:/Users/RNG/Desktop/Stuff/Smash-Stuff/SMASH-ULTIMATE-MODS-BABY/50xx-the-mod/acmd-edits/code-mod-framework/lib/libnx_min/nx/lib\libnx_min.a(hid.o)
 *fill*         0x00000000000379c4        0xc 
 .text._hidCreateActiveVibrationDeviceList
                0x00000000000379d0      0x134 C:/Users/RNG/Desktop/Stuff/Smash-Stuff/SMASH-ULTIMATE-MODS-BABY/50xx-the-mod/acmd-edits/code-mod-framework/lib/libnx_min/nx/lib\libnx_min.a(hid.o)
 *fill*         0x0000000000037b04        0xc 
 .text._hidCmdWithNoInput
                0x0000000000037b10      0x100 C:/Users/RNG/Desktop/Stuff/Smash-Stuff/SMASH-ULTIMATE-MODS-BABY/50xx-the-mod/acmd-edits/code-mod-framework/lib/libnx_min/nx/lib\libnx_min.a(hid.o)
 .text._hidCreateAppletResource.constprop.16
                0x0000000000037c10      0x134 C:/Users/RNG/Desktop/Stuff/Smash-Stuff/SMASH-ULTIMATE-MODS-BABY/50xx-the-mod/acmd-edits/code-mod-framework/lib/libnx_min/nx/lib\libnx_min.a(hid.o)
 *fill*         0x0000000000037d44        0xc 
 .text._hidCmdWithInputU32
                0x0000000000037d50      0x10c C:/Users/RNG/Desktop/Stuff/Smash-Stuff/SMASH-ULTIMATE-MODS-BABY/50xx-the-mod/acmd-edits/code-mod-framework/lib/libnx_min/nx/lib\libnx_min.a(hid.o)
 *fill*         0x0000000000037e5c        0x4 
 .text._hidCmdWithInputU64.constprop.18
                0x0000000000037e60      0x108 C:/Users/RNG/Desktop/Stuff/Smash-Stuff/SMASH-ULTIMATE-MODS-BABY/50xx-the-mod/acmd-edits/code-mod-framework/lib/libnx_min/nx/lib\libnx_min.a(hid.o)
 *fill*         0x0000000000037f68        0x8 
 .text._hidInitializeSevenSixAxisSensor.isra.11.constprop.19
                0x0000000000037f70      0x1f8 C:/Users/RNG/Desktop/Stuff/Smash-Stuff/SMASH-ULTIMATE-MODS-BABY/50xx-the-mod/acmd-edits/code-mod-framework/lib/libnx_min/nx/lib\libnx_min.a(hid.o)
 *fill*         0x0000000000038168        0x8 
 .text.hidReset
                0x0000000000038170      0x1f8 C:/Users/RNG/Desktop/Stuff/Smash-Stuff/SMASH-ULTIMATE-MODS-BABY/50xx-the-mod/acmd-edits/code-mod-framework/lib/libnx_min/nx/lib\libnx_min.a(hid.o)
                0x0000000000038170                hidReset
 *fill*         0x0000000000038368        0x8 
 .text.hidGetSessionService
                0x0000000000038370        0xc C:/Users/RNG/Desktop/Stuff/Smash-Stuff/SMASH-ULTIMATE-MODS-BABY/50xx-the-mod/acmd-edits/code-mod-framework/lib/libnx_min/nx/lib\libnx_min.a(hid.o)
                0x0000000000038370                hidGetSessionService
 *fill*         0x000000000003837c        0x4 
 .text.hidGetSharedmemAddr
                0x0000000000038380        0xc C:/Users/RNG/Desktop/Stuff/Smash-Stuff/SMASH-ULTIMATE-MODS-BABY/50xx-the-mod/acmd-edits/code-mod-framework/lib/libnx_min/nx/lib\libnx_min.a(hid.o)
                0x0000000000038380                hidGetSharedmemAddr
 *fill*         0x000000000003838c        0x4 
 .text.hidSetControllerLayout
                0x0000000000038390       0x54 C:/Users/RNG/Desktop/Stuff/Smash-Stuff/SMASH-ULTIMATE-MODS-BABY/50xx-the-mod/acmd-edits/code-mod-framework/lib/libnx_min/nx/lib\libnx_min.a(hid.o)
                0x0000000000038390                hidSetControllerLayout
 *fill*         0x00000000000383e4        0xc 
 .text.hidGetControllerLayout
                0x00000000000383f0       0x50 C:/Users/RNG/Desktop/Stuff/Smash-Stuff/SMASH-ULTIMATE-MODS-BABY/50xx-the-mod/acmd-edits/code-mod-framework/lib/libnx_min/nx/lib\libnx_min.a(hid.o)
                0x00000000000383f0                hidGetControllerLayout
 .text.hidGetControllerType
                0x0000000000038440       0x78 C:/Users/RNG/Desktop/Stuff/Smash-Stuff/SMASH-ULTIMATE-MODS-BABY/50xx-the-mod/acmd-edits/code-mod-framework/lib/libnx_min/nx/lib\libnx_min.a(hid.o)
                0x0000000000038440                hidGetControllerType
 *fill*         0x00000000000384b8        0x8 
 .text.hidGetControllerColors
                0x00000000000384c0       0xd4 C:/Users/RNG/Desktop/Stuff/Smash-Stuff/SMASH-ULTIMATE-MODS-BABY/50xx-the-mod/acmd-edits/code-mod-framework/lib/libnx_min/nx/lib\libnx_min.a(hid.o)
                0x00000000000384c0                hidGetControllerColors
 *fill*         0x0000000000038594        0xc 
 .text.hidIsControllerConnected
                0x00000000000385a0       0x7c C:/Users/RNG/Desktop/Stuff/Smash-Stuff/SMASH-ULTIMATE-MODS-BABY/50xx-the-mod/acmd-edits/code-mod-framework/lib/libnx_min/nx/lib\libnx_min.a(hid.o)
                0x00000000000385a0                hidIsControllerConnected
 *fill*         0x000000000003861c        0x4 
 .text.hidGetControllerDeviceType
                0x0000000000038620       0x70 C:/Users/RNG/Desktop/Stuff/Smash-Stuff/SMASH-ULTIMATE-MODS-BABY/50xx-the-mod/acmd-edits/code-mod-framework/lib/libnx_min/nx/lib\libnx_min.a(hid.o)
                0x0000000000038620                hidGetControllerDeviceType
 .text.hidGetControllerFlags
                0x0000000000038690       0x90 C:/Users/RNG/Desktop/Stuff/Smash-Stuff/SMASH-ULTIMATE-MODS-BABY/50xx-the-mod/acmd-edits/code-mod-framework/lib/libnx_min/nx/lib\libnx_min.a(hid.o)
                0x0000000000038690                hidGetControllerFlags
 .text.hidGetControllerPowerInfo
                0x0000000000038720      0x114 C:/Users/RNG/Desktop/Stuff/Smash-Stuff/SMASH-ULTIMATE-MODS-BABY/50xx-the-mod/acmd-edits/code-mod-framework/lib/libnx_min/nx/lib\libnx_min.a(hid.o)
                0x0000000000038720                hidGetControllerPowerInfo
 *fill*         0x0000000000038834        0xc 
 .text.hidKeysHeld
                0x0000000000038840       0x6c C:/Users/RNG/Desktop/Stuff/Smash-Stuff/SMASH-ULTIMATE-MODS-BABY/50xx-the-mod/acmd-edits/code-mod-framework/lib/libnx_min/nx/lib\libnx_min.a(hid.o)
                0x0000000000038840                hidKeysHeld
 *fill*         0x00000000000388ac        0x4 
 .text.hidKeysDown
                0x00000000000388b0       0x6c C:/Users/RNG/Desktop/Stuff/Smash-Stuff/SMASH-ULTIMATE-MODS-BABY/50xx-the-mod/acmd-edits/code-mod-framework/lib/libnx_min/nx/lib\libnx_min.a(hid.o)
                0x00000000000388b0                hidKeysDown
 *fill*         0x000000000003891c        0x4 
 .text.hidKeysUp
                0x0000000000038920       0x6c C:/Users/RNG/Desktop/Stuff/Smash-Stuff/SMASH-ULTIMATE-MODS-BABY/50xx-the-mod/acmd-edits/code-mod-framework/lib/libnx_min/nx/lib\libnx_min.a(hid.o)
                0x0000000000038920                hidKeysUp
 *fill*         0x000000000003898c        0x4 
 .text.hidMouseButtonsHeld
                0x0000000000038990       0x3c C:/Users/RNG/Desktop/Stuff/Smash-Stuff/SMASH-ULTIMATE-MODS-BABY/50xx-the-mod/acmd-edits/code-mod-framework/lib/libnx_min/nx/lib\libnx_min.a(hid.o)
                0x0000000000038990                hidMouseButtonsHeld
 *fill*         0x00000000000389cc        0x4 
 .text.hidMouseButtonsDown
                0x00000000000389d0       0x3c C:/Users/RNG/Desktop/Stuff/Smash-Stuff/SMASH-ULTIMATE-MODS-BABY/50xx-the-mod/acmd-edits/code-mod-framework/lib/libnx_min/nx/lib\libnx_min.a(hid.o)
                0x00000000000389d0                hidMouseButtonsDown
 *fill*         0x0000000000038a0c        0x4 
 .text.hidMouseButtonsUp
                0x0000000000038a10       0x3c C:/Users/RNG/Desktop/Stuff/Smash-Stuff/SMASH-ULTIMATE-MODS-BABY/50xx-the-mod/acmd-edits/code-mod-framework/lib/libnx_min/nx/lib\libnx_min.a(hid.o)
                0x0000000000038a10                hidMouseButtonsUp
 *fill*         0x0000000000038a4c        0x4 
 .text.hidMouseRead
                0x0000000000038a50       0x48 C:/Users/RNG/Desktop/Stuff/Smash-Stuff/SMASH-ULTIMATE-MODS-BABY/50xx-the-mod/acmd-edits/code-mod-framework/lib/libnx_min/nx/lib\libnx_min.a(hid.o)
                0x0000000000038a50                hidMouseRead
 *fill*         0x0000000000038a98        0x8 
 .text.hidMouseMultiRead
                0x0000000000038aa0      0x150 C:/Users/RNG/Desktop/Stuff/Smash-Stuff/SMASH-ULTIMATE-MODS-BABY/50xx-the-mod/acmd-edits/code-mod-framework/lib/libnx_min/nx/lib\libnx_min.a(hid.o)
                0x0000000000038aa0                hidMouseMultiRead
 .text.hidKeyboardModifierHeld
                0x0000000000038bf0       0x48 C:/Users/RNG/Desktop/Stuff/Smash-Stuff/SMASH-ULTIMATE-MODS-BABY/50xx-the-mod/acmd-edits/code-mod-framework/lib/libnx_min/nx/lib\libnx_min.a(hid.o)
                0x0000000000038bf0                hidKeyboardModifierHeld
 *fill*         0x0000000000038c38        0x8 
 .text.hidKeyboardModifierDown
                0x0000000000038c40       0x48 C:/Users/RNG/Desktop/Stuff/Smash-Stuff/SMASH-ULTIMATE-MODS-BABY/50xx-the-mod/acmd-edits/code-mod-framework/lib/libnx_min/nx/lib\libnx_min.a(hid.o)
                0x0000000000038c40                hidKeyboardModifierDown
 *fill*         0x0000000000038c88        0x8 
 .text.hidKeyboardModifierUp
                0x0000000000038c90       0x48 C:/Users/RNG/Desktop/Stuff/Smash-Stuff/SMASH-ULTIMATE-MODS-BABY/50xx-the-mod/acmd-edits/code-mod-framework/lib/libnx_min/nx/lib\libnx_min.a(hid.o)
                0x0000000000038c90                hidKeyboardModifierUp
 *fill*         0x0000000000038cd8        0x8 
 .text.hidKeyboardHeld
                0x0000000000038ce0       0x60 C:/Users/RNG/Desktop/Stuff/Smash-Stuff/SMASH-ULTIMATE-MODS-BABY/50xx-the-mod/acmd-edits/code-mod-framework/lib/libnx_min/nx/lib\libnx_min.a(hid.o)
                0x0000000000038ce0                hidKeyboardHeld
 .text.hidKeyboardDown
                0x0000000000038d40       0x60 C:/Users/RNG/Desktop/Stuff/Smash-Stuff/SMASH-ULTIMATE-MODS-BABY/50xx-the-mod/acmd-edits/code-mod-framework/lib/libnx_min/nx/lib\libnx_min.a(hid.o)
                0x0000000000038d40                hidKeyboardDown
 .text.hidKeyboardUp
                0x0000000000038da0       0x60 C:/Users/RNG/Desktop/Stuff/Smash-Stuff/SMASH-ULTIMATE-MODS-BABY/50xx-the-mod/acmd-edits/code-mod-framework/lib/libnx_min/nx/lib\libnx_min.a(hid.o)
                0x0000000000038da0                hidKeyboardUp
 .text.hidTouchCount
                0x0000000000038e00        0xc C:/Users/RNG/Desktop/Stuff/Smash-Stuff/SMASH-ULTIMATE-MODS-BABY/50xx-the-mod/acmd-edits/code-mod-framework/lib/libnx_min/nx/lib\libnx_min.a(hid.o)
                0x0000000000038e00                hidTouchCount
 *fill*         0x0000000000038e0c        0x4 
 .text.hidScanInput
                0x0000000000038e10      0x598 C:/Users/RNG/Desktop/Stuff/Smash-Stuff/SMASH-ULTIMATE-MODS-BABY/50xx-the-mod/acmd-edits/code-mod-framework/lib/libnx_min/nx/lib\libnx_min.a(hid.o)
                0x0000000000038e10                hidScanInput
 *fill*         0x00000000000393a8        0x8 
 .text.hidTouchRead
                0x00000000000393b0       0x54 C:/Users/RNG/Desktop/Stuff/Smash-Stuff/SMASH-ULTIMATE-MODS-BABY/50xx-the-mod/acmd-edits/code-mod-framework/lib/libnx_min/nx/lib\libnx_min.a(hid.o)
                0x00000000000393b0                hidTouchRead
 *fill*         0x0000000000039404        0xc 
 .text.hidJoystickRead
                0x0000000000039410       0xac C:/Users/RNG/Desktop/Stuff/Smash-Stuff/SMASH-ULTIMATE-MODS-BABY/50xx-the-mod/acmd-edits/code-mod-framework/lib/libnx_min/nx/lib\libnx_min.a(hid.o)
                0x0000000000039410                hidJoystickRead
 *fill*         0x00000000000394bc        0x4 
 .text.hidSixAxisSensorValuesRead
                0x00000000000394c0      0x214 C:/Users/RNG/Desktop/Stuff/Smash-Stuff/SMASH-ULTIMATE-MODS-BABY/50xx-the-mod/acmd-edits/code-mod-framework/lib/libnx_min/nx/lib\libnx_min.a(hid.o)
                0x00000000000394c0                hidSixAxisSensorValuesRead
 *fill*         0x00000000000396d4        0xc 
 .text.hidGetHandheldMode
                0x00000000000396e0       0x14 C:/Users/RNG/Desktop/Stuff/Smash-Stuff/SMASH-ULTIMATE-MODS-BABY/50xx-the-mod/acmd-edits/code-mod-framework/lib/libnx_min/nx/lib\libnx_min.a(hid.o)
                0x00000000000396e0                hidGetHandheldMode
 *fill*         0x00000000000396f4        0xc 
 .text.hidSetSupportedNpadIdType
                0x0000000000039700      0x198 C:/Users/RNG/Desktop/Stuff/Smash-Stuff/SMASH-ULTIMATE-MODS-BABY/50xx-the-mod/acmd-edits/code-mod-framework/lib/libnx_min/nx/lib\libnx_min.a(hid.o)
                0x0000000000039700                hidSetSupportedNpadIdType
 *fill*         0x0000000000039898        0x8 
 .text.hidSetSupportedNpadStyleSet
                0x00000000000398a0        0xc C:/Users/RNG/Desktop/Stuff/Smash-Stuff/SMASH-ULTIMATE-MODS-BABY/50xx-the-mod/acmd-edits/code-mod-framework/lib/libnx_min/nx/lib\libnx_min.a(hid.o)
                0x00000000000398a0                hidSetSupportedNpadStyleSet
 *fill*         0x00000000000398ac        0x4 
 .text.hidAcquireNpadStyleSetUpdateEventHandle
                0x00000000000398b0      0x194 C:/Users/RNG/Desktop/Stuff/Smash-Stuff/SMASH-ULTIMATE-MODS-BABY/50xx-the-mod/acmd-edits/code-mod-framework/lib/libnx_min/nx/lib\libnx_min.a(hid.o)
                0x00000000000398b0                hidAcquireNpadStyleSetUpdateEventHandle
 *fill*         0x0000000000039a44        0xc 
 .text.hidSetNpadJoyHoldType
                0x0000000000039a50        0x8 C:/Users/RNG/Desktop/Stuff/Smash-Stuff/SMASH-ULTIMATE-MODS-BABY/50xx-the-mod/acmd-edits/code-mod-framework/lib/libnx_min/nx/lib\libnx_min.a(hid.o)
                0x0000000000039a50                hidSetNpadJoyHoldType
 *fill*         0x0000000000039a58        0x8 
 .text.hidSetNpadJoyAssignmentModeSingleByDefault
                0x0000000000039a60        0xc C:/Users/RNG/Desktop/Stuff/Smash-Stuff/SMASH-ULTIMATE-MODS-BABY/50xx-the-mod/acmd-edits/code-mod-framework/lib/libnx_min/nx/lib\libnx_min.a(hid.o)
                0x0000000000039a60                hidSetNpadJoyAssignmentModeSingleByDefault
 *fill*         0x0000000000039a6c        0x4 
 .text.hidSetNpadJoyAssignmentModeDual
                0x0000000000039a70        0xc C:/Users/RNG/Desktop/Stuff/Smash-Stuff/SMASH-ULTIMATE-MODS-BABY/50xx-the-mod/acmd-edits/code-mod-framework/lib/libnx_min/nx/lib\libnx_min.a(hid.o)
                0x0000000000039a70                hidSetNpadJoyAssignmentModeDual
 *fill*         0x0000000000039a7c        0x4 
 .text.hidMergeSingleJoyAsDualJoy
                0x0000000000039a80      0x110 C:/Users/RNG/Desktop/Stuff/Smash-Stuff/SMASH-ULTIMATE-MODS-BABY/50xx-the-mod/acmd-edits/code-mod-framework/lib/libnx_min/nx/lib\libnx_min.a(hid.o)
                0x0000000000039a80                hidMergeSingleJoyAsDualJoy
 .text.hidGetVibrationDeviceInfo
                0x0000000000039b90       0xf8 C:/Users/RNG/Desktop/Stuff/Smash-Stuff/SMASH-ULTIMATE-MODS-BABY/50xx-the-mod/acmd-edits/code-mod-framework/lib/libnx_min/nx/lib\libnx_min.a(hid.o)
                0x0000000000039b90                hidGetVibrationDeviceInfo
 *fill*         0x0000000000039c88        0x8 
 .text.hidSendVibrationValue
                0x0000000000039c90      0x120 C:/Users/RNG/Desktop/Stuff/Smash-Stuff/SMASH-ULTIMATE-MODS-BABY/50xx-the-mod/acmd-edits/code-mod-framework/lib/libnx_min/nx/lib\libnx_min.a(hid.o)
                0x0000000000039c90                hidSendVibrationValue
 .text.hidGetActualVibrationValue
                0x0000000000039db0      0x128 C:/Users/RNG/Desktop/Stuff/Smash-Stuff/SMASH-ULTIMATE-MODS-BABY/50xx-the-mod/acmd-edits/code-mod-framework/lib/libnx_min/nx/lib\libnx_min.a(hid.o)
                0x0000000000039db0                hidGetActualVibrationValue
 *fill*         0x0000000000039ed8        0x8 
 .text.hidPermitVibration
                0x0000000000039ee0       0xd0 C:/Users/RNG/Desktop/Stuff/Smash-Stuff/SMASH-ULTIMATE-MODS-BABY/50xx-the-mod/acmd-edits/code-mod-framework/lib/libnx_min/nx/lib\libnx_min.a(hid.o)
                0x0000000000039ee0                hidPermitVibration
 .text.hidIsVibrationPermitted
                0x0000000000039fb0       0xf4 C:/Users/RNG/Desktop/Stuff/Smash-Stuff/SMASH-ULTIMATE-MODS-BABY/50xx-the-mod/acmd-edits/code-mod-framework/lib/libnx_min/nx/lib\libnx_min.a(hid.o)
                0x0000000000039fb0                hidIsVibrationPermitted
 *fill*         0x000000000003a0a4        0xc 
 .text.hidSendVibrationValues
                0x000000000003a0b0      0x144 C:/Users/RNG/Desktop/Stuff/Smash-Stuff/SMASH-ULTIMATE-MODS-BABY/50xx-the-mod/acmd-edits/code-mod-framework/lib/libnx_min/nx/lib\libnx_min.a(hid.o)
                0x000000000003a0b0                hidSendVibrationValues
 *fill*         0x000000000003a1f4        0xc 
 .text.hidInitializeVibrationDevices
                0x000000000003a200      0x114 C:/Users/RNG/Desktop/Stuff/Smash-Stuff/SMASH-ULTIMATE-MODS-BABY/50xx-the-mod/acmd-edits/code-mod-framework/lib/libnx_min/nx/lib\libnx_min.a(hid.o)
                0x000000000003a200                hidInitializeVibrationDevices
 *fill*         0x000000000003a314        0xc 
 .text.hidGetSixAxisSensorHandles
                0x000000000003a320       0x2c C:/Users/RNG/Desktop/Stuff/Smash-Stuff/SMASH-ULTIMATE-MODS-BABY/50xx-the-mod/acmd-edits/code-mod-framework/lib/libnx_min/nx/lib\libnx_min.a(hid.o)
                0x000000000003a320                hidGetSixAxisSensorHandles
 *fill*         0x000000000003a34c        0x4 
 .text.hidStartSixAxisSensor
                0x000000000003a350       0x84 C:/Users/RNG/Desktop/Stuff/Smash-Stuff/SMASH-ULTIMATE-MODS-BABY/50xx-the-mod/acmd-edits/code-mod-framework/lib/libnx_min/nx/lib\libnx_min.a(hid.o)
                0x000000000003a350                hidStartSixAxisSensor
 *fill*         0x000000000003a3d4        0xc 
 .text.hidStopSixAxisSensor
                0x000000000003a3e0       0x80 C:/Users/RNG/Desktop/Stuff/Smash-Stuff/SMASH-ULTIMATE-MODS-BABY/50xx-the-mod/acmd-edits/code-mod-framework/lib/libnx_min/nx/lib\libnx_min.a(hid.o)
                0x000000000003a3e0                hidStopSixAxisSensor
 .text.hidStartSevenSixAxisSensor
                0x000000000003a460       0x30 C:/Users/RNG/Desktop/Stuff/Smash-Stuff/SMASH-ULTIMATE-MODS-BABY/50xx-the-mod/acmd-edits/code-mod-framework/lib/libnx_min/nx/lib\libnx_min.a(hid.o)
                0x000000000003a460                hidStartSevenSixAxisSensor
 .text.hidStopSevenSixAxisSensor
                0x000000000003a490       0x30 C:/Users/RNG/Desktop/Stuff/Smash-Stuff/SMASH-ULTIMATE-MODS-BABY/50xx-the-mod/acmd-edits/code-mod-framework/lib/libnx_min/nx/lib\libnx_min.a(hid.o)
                0x000000000003a490                hidStopSevenSixAxisSensor
 .text.hidFinalizeSevenSixAxisSensor
                0x000000000003a4c0       0x80 C:/Users/RNG/Desktop/Stuff/Smash-Stuff/SMASH-ULTIMATE-MODS-BABY/50xx-the-mod/acmd-edits/code-mod-framework/lib/libnx_min/nx/lib\libnx_min.a(hid.o)
                0x000000000003a4c0                hidFinalizeSevenSixAxisSensor
 .text.hidExit  0x000000000003a540      0x134 C:/Users/RNG/Desktop/Stuff/Smash-Stuff/SMASH-ULTIMATE-MODS-BABY/50xx-the-mod/acmd-edits/code-mod-framework/lib/libnx_min/nx/lib\libnx_min.a(hid.o)
                0x000000000003a540                hidExit
 *fill*         0x000000000003a674        0xc 
 .text.hidInitialize
                0x000000000003a680      0x168 C:/Users/RNG/Desktop/Stuff/Smash-Stuff/SMASH-ULTIMATE-MODS-BABY/50xx-the-mod/acmd-edits/code-mod-framework/lib/libnx_min/nx/lib\libnx_min.a(hid.o)
                0x000000000003a680                hidInitialize
 *fill*         0x000000000003a7e8        0x8 
 .text.hidInitializeSevenSixAxisSensor
                0x000000000003a7f0      0x130 C:/Users/RNG/Desktop/Stuff/Smash-Stuff/SMASH-ULTIMATE-MODS-BABY/50xx-the-mod/acmd-edits/code-mod-framework/lib/libnx_min/nx/lib\libnx_min.a(hid.o)
                0x000000000003a7f0                hidInitializeSevenSixAxisSensor
 .text.hidSetSevenSixAxisSensorFusionStrength
                0x000000000003a920      0x1f8 C:/Users/RNG/Desktop/Stuff/Smash-Stuff/SMASH-ULTIMATE-MODS-BABY/50xx-the-mod/acmd-edits/code-mod-framework/lib/libnx_min/nx/lib\libnx_min.a(hid.o)
                0x000000000003a920                hidSetSevenSixAxisSensorFusionStrength
 *fill*         0x000000000003ab18        0x8 
 .text.hidGetSevenSixAxisSensorFusionStrength
                0x000000000003ab20      0x1fc C:/Users/RNG/Desktop/Stuff/Smash-Stuff/SMASH-ULTIMATE-MODS-BABY/50xx-the-mod/acmd-edits/code-mod-framework/lib/libnx_min/nx/lib\libnx_min.a(hid.o)
                0x000000000003ab20                hidGetSevenSixAxisSensorFusionStrength
 *fill*         0x000000000003ad1c        0x4 
 .text.hidResetSevenSixAxisSensorTimestamp
                0x000000000003ad20       0x30 C:/Users/RNG/Desktop/Stuff/Smash-Stuff/SMASH-ULTIMATE-MODS-BABY/50xx-the-mod/acmd-edits/code-mod-framework/lib/libnx_min/nx/lib\libnx_min.a(hid.o)
                0x000000000003ad20                hidResetSevenSixAxisSensorTimestamp
 .text.ipcCloseObjectById
                0x000000000003ad50       0x34 C:/Users/RNG/Desktop/Stuff/Smash-Stuff/SMASH-ULTIMATE-MODS-BABY/50xx-the-mod/acmd-edits/code-mod-framework/lib/libnx_min/nx/lib\libnx_min.a(time.o)
 *fill*         0x000000000003ad84        0xc 
 .text._timeGetSession
                0x000000000003ad90      0x12c C:/Users/RNG/Desktop/Stuff/Smash-Stuff/SMASH-ULTIMATE-MODS-BABY/50xx-the-mod/acmd-edits/code-mod-framework/lib/libnx_min/nx/lib\libnx_min.a(time.o)
 *fill*         0x000000000003aebc        0x4 
 .text.timeExit
                0x000000000003aec0      0x1ec C:/Users/RNG/Desktop/Stuff/Smash-Stuff/SMASH-ULTIMATE-MODS-BABY/50xx-the-mod/acmd-edits/code-mod-framework/lib/libnx_min/nx/lib\libnx_min.a(time.o)
                0x000000000003aec0                timeExit
 *fill*         0x000000000003b0ac        0x4 
 .text.timeInitialize
                0x000000000003b0b0       0xd8 C:/Users/RNG/Desktop/Stuff/Smash-Stuff/SMASH-ULTIMATE-MODS-BABY/50xx-the-mod/acmd-edits/code-mod-framework/lib/libnx_min/nx/lib\libnx_min.a(time.o)
                0x000000000003b0b0                timeInitialize
 *fill*         0x000000000003b188        0x8 
 .text.timeGetSessionService
                0x000000000003b190        0xc C:/Users/RNG/Desktop/Stuff/Smash-Stuff/SMASH-ULTIMATE-MODS-BABY/50xx-the-mod/acmd-edits/code-mod-framework/lib/libnx_min/nx/lib\libnx_min.a(time.o)
                0x000000000003b190                timeGetSessionService
 *fill*         0x000000000003b19c        0x4 
 .text.timeGetCurrentTime
                0x000000000003b1a0      0x124 C:/Users/RNG/Desktop/Stuff/Smash-Stuff/SMASH-ULTIMATE-MODS-BABY/50xx-the-mod/acmd-edits/code-mod-framework/lib/libnx_min/nx/lib\libnx_min.a(time.o)
                0x000000000003b1a0                timeGetCurrentTime
 *fill*         0x000000000003b2c4        0xc 
 .text.timeSetCurrentTime
                0x000000000003b2d0      0x104 C:/Users/RNG/Desktop/Stuff/Smash-Stuff/SMASH-ULTIMATE-MODS-BABY/50xx-the-mod/acmd-edits/code-mod-framework/lib/libnx_min/nx/lib\libnx_min.a(time.o)
                0x000000000003b2d0                timeSetCurrentTime
 *fill*         0x000000000003b3d4        0xc 
 .text.timeToCalendarTimeWithMyRule
                0x000000000003b3e0      0x118 C:/Users/RNG/Desktop/Stuff/Smash-Stuff/SMASH-ULTIMATE-MODS-BABY/50xx-the-mod/acmd-edits/code-mod-framework/lib/libnx_min/nx/lib\libnx_min.a(time.o)
                0x000000000003b3e0                timeToCalendarTimeWithMyRule
 *fill*         0x000000000003b4f8        0x8 
 .text.ipcPrepareHeader
                0x000000000003b500      0x220 C:/Users/RNG/Desktop/Stuff/Smash-Stuff/SMASH-ULTIMATE-MODS-BABY/50xx-the-mod/acmd-edits/code-mod-framework/lib/libnx_min/nx/lib\libnx_min.a(applet.o)
 .text.ipcParse
                0x000000000003b720      0x22c C:/Users/RNG/Desktop/Stuff/Smash-Stuff/SMASH-ULTIMATE-MODS-BABY/50xx-the-mod/acmd-edits/code-mod-framework/lib/libnx_min/nx/lib\libnx_min.a(applet.o)
 *fill*         0x000000000003b94c        0x4 
 .text.serviceIpcParse
                0x000000000003b950       0xb0 C:/Users/RNG/Desktop/Stuff/Smash-Stuff/SMASH-ULTIMATE-MODS-BABY/50xx-the-mod/acmd-edits/code-mod-framework/lib/libnx_min/nx/lib\libnx_min.a(applet.o)
 .text.ipcConvertSessionToDomain
                0x000000000003ba00       0x78 C:/Users/RNG/Desktop/Stuff/Smash-Stuff/SMASH-ULTIMATE-MODS-BABY/50xx-the-mod/acmd-edits/code-mod-framework/lib/libnx_min/nx/lib\libnx_min.a(applet.o)
 *fill*         0x000000000003ba78        0x8 
 .text.ipcQueryPointerBufferSize
                0x000000000003ba80       0x7c C:/Users/RNG/Desktop/Stuff/Smash-Stuff/SMASH-ULTIMATE-MODS-BABY/50xx-the-mod/acmd-edits/code-mod-framework/lib/libnx_min/nx/lib\libnx_min.a(applet.o)
 *fill*         0x000000000003bafc        0x4 
 .text.ipcCloneSession.constprop.52
                0x000000000003bb00       0x84 C:/Users/RNG/Desktop/Stuff/Smash-Stuff/SMASH-ULTIMATE-MODS-BABY/50xx-the-mod/acmd-edits/code-mod-framework/lib/libnx_min/nx/lib\libnx_min.a(applet.o)
 *fill*         0x000000000003bb84        0xc 
 .text.ipcCloseObjectById
                0x000000000003bb90       0x34 C:/Users/RNG/Desktop/Stuff/Smash-Stuff/SMASH-ULTIMATE-MODS-BABY/50xx-the-mod/acmd-edits/code-mod-framework/lib/libnx_min/nx/lib\libnx_min.a(applet.o)
 *fill*         0x000000000003bbc4        0xc 
 .text.serviceClose
                0x000000000003bbd0       0x6c C:/Users/RNG/Desktop/Stuff/Smash-Stuff/SMASH-ULTIMATE-MODS-BABY/50xx-the-mod/acmd-edits/code-mod-framework/lib/libnx_min/nx/lib\libnx_min.a(applet.o)
 *fill*         0x000000000003bc3c        0x4 
 .text._appletCmdInHandle64
                0x000000000003bc40      0x204 C:/Users/RNG/Desktop/Stuff/Smash-Stuff/SMASH-ULTIMATE-MODS-BABY/50xx-the-mod/acmd-edits/code-mod-framework/lib/libnx_min/nx/lib\libnx_min.a(applet.o)
 *fill*         0x000000000003be44        0xc 
 .text._appletReceiveMessage
                0x000000000003be50      0x19c C:/Users/RNG/Desktop/Stuff/Smash-Stuff/SMASH-ULTIMATE-MODS-BABY/50xx-the-mod/acmd-edits/code-mod-framework/lib/libnx_min/nx/lib\libnx_min.a(applet.o)
 *fill*         0x000000000003bfec        0x4 
 .text._appletCmdNoIO
                0x000000000003bff0      0x164 C:/Users/RNG/Desktop/Stuff/Smash-Stuff/SMASH-ULTIMATE-MODS-BABY/50xx-the-mod/acmd-edits/code-mod-framework/lib/libnx_min/nx/lib\libnx_min.a(applet.o)
 *fill*         0x000000000003c154        0xc 
 .text._appletGetOperationMode.constprop.43
                0x000000000003c160      0x18c C:/Users/RNG/Desktop/Stuff/Smash-Stuff/SMASH-ULTIMATE-MODS-BABY/50xx-the-mod/acmd-edits/code-mod-framework/lib/libnx_min/nx/lib\libnx_min.a(applet.o)
 *fill*         0x000000000003c2ec        0x4 
 .text._appletGetCurrentFocusState.constprop.45
                0x000000000003c2f0      0x18c C:/Users/RNG/Desktop/Stuff/Smash-Stuff/SMASH-ULTIMATE-MODS-BABY/50xx-the-mod/acmd-edits/code-mod-framework/lib/libnx_min/nx/lib\libnx_min.a(applet.o)
 *fill*         0x000000000003c47c        0x4 
 .text._appletGetPerformanceMode.constprop.44
                0x000000000003c480      0x18c C:/Users/RNG/Desktop/Stuff/Smash-Stuff/SMASH-ULTIMATE-MODS-BABY/50xx-the-mod/acmd-edits/code-mod-framework/lib/libnx_min/nx/lib\libnx_min.a(applet.o)
 *fill*         0x000000000003c60c        0x4 
 .text._appletCmdNoInOutBool
                0x000000000003c610      0x184 C:/Users/RNG/Desktop/Stuff/Smash-Stuff/SMASH-ULTIMATE-MODS-BABY/50xx-the-mod/acmd-edits/code-mod-framework/lib/libnx_min/nx/lib\libnx_min.a(applet.o)
 *fill*         0x000000000003c794        0xc 
 .text._appletGetSession
                0x000000000003c7a0      0x1d8 C:/Users/RNG/Desktop/Stuff/Smash-Stuff/SMASH-ULTIMATE-MODS-BABY/50xx-the-mod/acmd-edits/code-mod-framework/lib/libnx_min/nx/lib\libnx_min.a(applet.o)
 *fill*         0x000000000003c978        0x8 
 .text._appletCmdNoInOut64
                0x000000000003c980      0x17c C:/Users/RNG/Desktop/Stuff/Smash-Stuff/SMASH-ULTIMATE-MODS-BABY/50xx-the-mod/acmd-edits/code-mod-framework/lib/libnx_min/nx/lib\libnx_min.a(applet.o)
 *fill*         0x000000000003cafc        0x4 
 .text._appletSetOperationModeChangedNotification.constprop.46
                0x000000000003cb00      0x164 C:/Users/RNG/Desktop/Stuff/Smash-Stuff/SMASH-ULTIMATE-MODS-BABY/50xx-the-mod/acmd-edits/code-mod-framework/lib/libnx_min/nx/lib\libnx_min.a(applet.o)
 *fill*         0x000000000003cc64        0xc 
 .text._appletCmdInU8
                0x000000000003cc70      0x17c C:/Users/RNG/Desktop/Stuff/Smash-Stuff/SMASH-ULTIMATE-MODS-BABY/50xx-the-mod/acmd-edits/code-mod-framework/lib/libnx_min/nx/lib\libnx_min.a(applet.o)
 *fill*         0x000000000003cdec        0x4 
 .text._appletSetOutOfFocusSuspendingEnabled
                0x000000000003cdf0      0x16c C:/Users/RNG/Desktop/Stuff/Smash-Stuff/SMASH-ULTIMATE-MODS-BABY/50xx-the-mod/acmd-edits/code-mod-framework/lib/libnx_min/nx/lib\libnx_min.a(applet.o)
 *fill*         0x000000000003cf5c        0x4 
 .text._appletSetPerformanceModeChangedNotification.constprop.47
                0x000000000003cf60      0x164 C:/Users/RNG/Desktop/Stuff/Smash-Stuff/SMASH-ULTIMATE-MODS-BABY/50xx-the-mod/acmd-edits/code-mod-framework/lib/libnx_min/nx/lib\libnx_min.a(applet.o)
 *fill*         0x000000000003d0c4        0xc 
 .text._appletCmdInU64.constprop.37
                0x000000000003d0d0      0x16c C:/Users/RNG/Desktop/Stuff/Smash-Stuff/SMASH-ULTIMATE-MODS-BABY/50xx-the-mod/acmd-edits/code-mod-framework/lib/libnx_min/nx/lib\libnx_min.a(applet.o)
 *fill*         0x000000000003d23c        0x4 
 .text._appletCmdInU32.constprop.48
                0x000000000003d240      0x16c C:/Users/RNG/Desktop/Stuff/Smash-Stuff/SMASH-ULTIMATE-MODS-BABY/50xx-the-mod/acmd-edits/code-mod-framework/lib/libnx_min/nx/lib\libnx_min.a(applet.o)
 *fill*         0x000000000003d3ac        0x4 
 .text._appletSetFocusHandlingMode
                0x000000000003d3b0      0x17c C:/Users/RNG/Desktop/Stuff/Smash-Stuff/SMASH-ULTIMATE-MODS-BABY/50xx-the-mod/acmd-edits/code-mod-framework/lib/libnx_min/nx/lib\libnx_min.a(applet.o)
 *fill*         0x000000000003d52c        0x4 
 .text._appletGetHandle.constprop.42
                0x000000000003d530      0x178 C:/Users/RNG/Desktop/Stuff/Smash-Stuff/SMASH-ULTIMATE-MODS-BABY/50xx-the-mod/acmd-edits/code-mod-framework/lib/libnx_min/nx/lib\libnx_min.a(applet.o)
 *fill*         0x000000000003d6a8        0x8 
 .text._appletGetEvent.constprop.41
                0x000000000003d6b0       0x54 C:/Users/RNG/Desktop/Stuff/Smash-Stuff/SMASH-ULTIMATE-MODS-BABY/50xx-the-mod/acmd-edits/code-mod-framework/lib/libnx_min/nx/lib\libnx_min.a(applet.o)
 *fill*         0x000000000003d704        0xc 
 .text._appletWaitLibraryAppletLaunchableEvent
                0x000000000003d710       0x50 C:/Users/RNG/Desktop/Stuff/Smash-Stuff/SMASH-ULTIMATE-MODS-BABY/50xx-the-mod/acmd-edits/code-mod-framework/lib/libnx_min/nx/lib\libnx_min.a(applet.o)
 .text._appletCreateApplicationAndRequestToStartForQuest.isra.20
                0x000000000003d760      0x17c C:/Users/RNG/Desktop/Stuff/Smash-Stuff/SMASH-ULTIMATE-MODS-BABY/50xx-the-mod/acmd-edits/code-mod-framework/lib/libnx_min/nx/lib\libnx_min.a(applet.o)
 *fill*         0x000000000003d8dc        0x4 
 .text._appletCreateApplicationAndPushAndRequestToStart
                0x000000000003d8e0      0x1e0 C:/Users/RNG/Desktop/Stuff/Smash-Stuff/SMASH-ULTIMATE-MODS-BABY/50xx-the-mod/acmd-edits/code-mod-framework/lib/libnx_min/nx/lib\libnx_min.a(applet.o)
 .text._appletCmdNoInOut32.constprop.38
                0x000000000003dac0      0x194 C:/Users/RNG/Desktop/Stuff/Smash-Stuff/SMASH-ULTIMATE-MODS-BABY/50xx-the-mod/acmd-edits/code-mod-framework/lib/libnx_min/nx/lib\libnx_min.a(applet.o)
 *fill*         0x000000000003dc54        0xc 
 .text._appletCmdInSession
                0x000000000003dc60      0x1d8 C:/Users/RNG/Desktop/Stuff/Smash-Stuff/SMASH-ULTIMATE-MODS-BABY/50xx-the-mod/acmd-edits/code-mod-framework/lib/libnx_min/nx/lib\libnx_min.a(applet.o)
 *fill*         0x000000000003de38        0x8 
 .text._appletStorageGetHandle
                0x000000000003de40      0x19c C:/Users/RNG/Desktop/Stuff/Smash-Stuff/SMASH-ULTIMATE-MODS-BABY/50xx-the-mod/acmd-edits/code-mod-framework/lib/libnx_min/nx/lib\libnx_min.a(applet.o)
 *fill*         0x000000000003dfdc        0x4 
 .text._appletCreateApplicationAndPushAndRequestToStartForQuest.isra.21
                0x000000000003dfe0      0x1e8 C:/Users/RNG/Desktop/Stuff/Smash-Stuff/SMASH-ULTIMATE-MODS-BABY/50xx-the-mod/acmd-edits/code-mod-framework/lib/libnx_min/nx/lib\libnx_min.a(applet.o)
 *fill*         0x000000000003e1c8        0x8 
 .text._appletCreateTransferMemoryStorage.isra.25
                0x000000000003e1d0      0x1e4 C:/Users/RNG/Desktop/Stuff/Smash-Stuff/SMASH-ULTIMATE-MODS-BABY/50xx-the-mod/acmd-edits/code-mod-framework/lib/libnx_min/nx/lib\libnx_min.a(applet.o)
 *fill*         0x000000000003e3b4        0xc 
 .text._appletGetSessionIn64.constprop.39
                0x000000000003e3c0      0x1c4 C:/Users/RNG/Desktop/Stuff/Smash-Stuff/SMASH-ULTIMATE-MODS-BABY/50xx-the-mod/acmd-edits/code-mod-framework/lib/libnx_min/nx/lib\libnx_min.a(applet.o)
 *fill*         0x000000000003e584        0xc 
 .text._appletStorageAccessorRW
                0x000000000003e590      0x314 C:/Users/RNG/Desktop/Stuff/Smash-Stuff/SMASH-ULTIMATE-MODS-BABY/50xx-the-mod/acmd-edits/code-mod-framework/lib/libnx_min/nx/lib\libnx_min.a(applet.o)
 *fill*         0x000000000003e8a4        0xc 
 .text._appletStorageRW
                0x000000000003e8b0      0x108 C:/Users/RNG/Desktop/Stuff/Smash-Stuff/SMASH-ULTIMATE-MODS-BABY/50xx-the-mod/acmd-edits/code-mod-framework/lib/libnx_min/nx/lib\libnx_min.a(applet.o)
 *fill*         0x000000000003e9b8        0x8 
 .text._appletCreateLibraryApplet
                0x000000000003e9c0      0x1c4 C:/Users/RNG/Desktop/Stuff/Smash-Stuff/SMASH-ULTIMATE-MODS-BABY/50xx-the-mod/acmd-edits/code-mod-framework/lib/libnx_min/nx/lib\libnx_min.a(applet.o)
 *fill*         0x000000000003eb84        0xc 
 .text._appletGetSessionProxy.constprop.40
                0x000000000003eb90      0x1f0 C:/Users/RNG/Desktop/Stuff/Smash-Stuff/SMASH-ULTIMATE-MODS-BABY/50xx-the-mod/acmd-edits/code-mod-framework/lib/libnx_min/nx/lib\libnx_min.a(applet.o)
 .text.appletGetAppletType
                0x000000000003ed80       0x10 C:/Users/RNG/Desktop/Stuff/Smash-Stuff/SMASH-ULTIMATE-MODS-BABY/50xx-the-mod/acmd-edits/code-mod-framework/lib/libnx_min/nx/lib\libnx_min.a(applet.o)
                0x000000000003ed80                appletGetAppletType
 .text.appletHook
                0x000000000003ed90       0x28 C:/Users/RNG/Desktop/Stuff/Smash-Stuff/SMASH-ULTIMATE-MODS-BABY/50xx-the-mod/acmd-edits/code-mod-framework/lib/libnx_min/nx/lib\libnx_min.a(applet.o)
                0x000000000003ed90                appletHook
 *fill*         0x000000000003edb8        0x8 
 .text.appletUnhook
                0x000000000003edc0       0x34 C:/Users/RNG/Desktop/Stuff/Smash-Stuff/SMASH-ULTIMATE-MODS-BABY/50xx-the-mod/acmd-edits/code-mod-framework/lib/libnx_min/nx/lib\libnx_min.a(applet.o)
                0x000000000003edc0                appletUnhook
 *fill*         0x000000000003edf4        0xc 
 .text.appletSetThemeColorType
                0x000000000003ee00        0xc C:/Users/RNG/Desktop/Stuff/Smash-Stuff/SMASH-ULTIMATE-MODS-BABY/50xx-the-mod/acmd-edits/code-mod-framework/lib/libnx_min/nx/lib\libnx_min.a(applet.o)
                0x000000000003ee00                appletSetThemeColorType
 *fill*         0x000000000003ee0c        0x4 
 .text.appletGetThemeColorType
                0x000000000003ee10        0xc C:/Users/RNG/Desktop/Stuff/Smash-Stuff/SMASH-ULTIMATE-MODS-BABY/50xx-the-mod/acmd-edits/code-mod-framework/lib/libnx_min/nx/lib\libnx_min.a(applet.o)
                0x000000000003ee10                appletGetThemeColorType
 *fill*         0x000000000003ee1c        0x4 
 .text.appletSetFocusHandlingMode
                0x000000000003ee20       0xf0 C:/Users/RNG/Desktop/Stuff/Smash-Stuff/SMASH-ULTIMATE-MODS-BABY/50xx-the-mod/acmd-edits/code-mod-framework/lib/libnx_min/nx/lib\libnx_min.a(applet.o)
                0x000000000003ee20                appletSetFocusHandlingMode
 .text.appletGetAppletResourceUserId
                0x000000000003ef10       0x28 C:/Users/RNG/Desktop/Stuff/Smash-Stuff/SMASH-ULTIMATE-MODS-BABY/50xx-the-mod/acmd-edits/code-mod-framework/lib/libnx_min/nx/lib\libnx_min.a(applet.o)
                0x000000000003ef10                appletGetAppletResourceUserId
 *fill*         0x000000000003ef38        0x8 
 .text._appletGetIndirectLayerConsumerHandle
                0x000000000003ef40      0x12c C:/Users/RNG/Desktop/Stuff/Smash-Stuff/SMASH-ULTIMATE-MODS-BABY/50xx-the-mod/acmd-edits/code-mod-framework/lib/libnx_min/nx/lib\libnx_min.a(applet.o)
 *fill*         0x000000000003f06c        0x4 
 .text._appletHolderCreate
                0x000000000003f070       0xc0 C:/Users/RNG/Desktop/Stuff/Smash-Stuff/SMASH-ULTIMATE-MODS-BABY/50xx-the-mod/acmd-edits/code-mod-framework/lib/libnx_min/nx/lib\libnx_min.a(applet.o)
 .text.appletPopLaunchParameter
                0x000000000003f130      0x194 C:/Users/RNG/Desktop/Stuff/Smash-Stuff/SMASH-ULTIMATE-MODS-BABY/50xx-the-mod/acmd-edits/code-mod-framework/lib/libnx_min/nx/lib\libnx_min.a(applet.o)
                0x000000000003f130                appletPopLaunchParameter
 *fill*         0x000000000003f2c4        0xc 
 .text.appletGetDesiredLanguage
                0x000000000003f2d0       0x3c C:/Users/RNG/Desktop/Stuff/Smash-Stuff/SMASH-ULTIMATE-MODS-BABY/50xx-the-mod/acmd-edits/code-mod-framework/lib/libnx_min/nx/lib\libnx_min.a(applet.o)
                0x000000000003f2d0                appletGetDesiredLanguage
 *fill*         0x000000000003f30c        0x4 
 .text.appletSetTerminateResult
                0x000000000003f310      0x14c C:/Users/RNG/Desktop/Stuff/Smash-Stuff/SMASH-ULTIMATE-MODS-BABY/50xx-the-mod/acmd-edits/code-mod-framework/lib/libnx_min/nx/lib\libnx_min.a(applet.o)
                0x000000000003f310                appletSetTerminateResult
 *fill*         0x000000000003f45c        0x4 
 .text.appletSetMediaPlaybackState
                0x000000000003f460       0x4c C:/Users/RNG/Desktop/Stuff/Smash-Stuff/SMASH-ULTIMATE-MODS-BABY/50xx-the-mod/acmd-edits/code-mod-framework/lib/libnx_min/nx/lib\libnx_min.a(applet.o)
                0x000000000003f460                appletSetMediaPlaybackState
 *fill*         0x000000000003f4ac        0x4 
 .text.appletBeginBlockingHomeButton
                0x000000000003f4b0      0x14c C:/Users/RNG/Desktop/Stuff/Smash-Stuff/SMASH-ULTIMATE-MODS-BABY/50xx-the-mod/acmd-edits/code-mod-framework/lib/libnx_min/nx/lib\libnx_min.a(applet.o)
                0x000000000003f4b0                appletBeginBlockingHomeButton
 *fill*         0x000000000003f5fc        0x4 
 .text.appletEndBlockingHomeButton
                0x000000000003f600       0x38 C:/Users/RNG/Desktop/Stuff/Smash-Stuff/SMASH-ULTIMATE-MODS-BABY/50xx-the-mod/acmd-edits/code-mod-framework/lib/libnx_min/nx/lib\libnx_min.a(applet.o)
                0x000000000003f600                appletEndBlockingHomeButton
 *fill*         0x000000000003f638        0x8 
 .text.appletNotifyRunning
                0x000000000003f640      0x174 C:/Users/RNG/Desktop/Stuff/Smash-Stuff/SMASH-ULTIMATE-MODS-BABY/50xx-the-mod/acmd-edits/code-mod-framework/lib/libnx_min/nx/lib\libnx_min.a(applet.o)
                0x000000000003f640                appletNotifyRunning
 *fill*         0x000000000003f7b4        0xc 
 .text.appletIsGamePlayRecordingSupported
                0x000000000003f7c0      0x168 C:/Users/RNG/Desktop/Stuff/Smash-Stuff/SMASH-ULTIMATE-MODS-BABY/50xx-the-mod/acmd-edits/code-mod-framework/lib/libnx_min/nx/lib\libnx_min.a(applet.o)
                0x000000000003f7c0                appletIsGamePlayRecordingSupported
 *fill*         0x000000000003f928        0x8 
 .text.appletSetGamePlayRecordingState
                0x000000000003f930      0x158 C:/Users/RNG/Desktop/Stuff/Smash-Stuff/SMASH-ULTIMATE-MODS-BABY/50xx-the-mod/acmd-edits/code-mod-framework/lib/libnx_min/nx/lib\libnx_min.a(applet.o)
                0x000000000003f930                appletSetGamePlayRecordingState
 *fill*         0x000000000003fa88        0x8 
 .text.appletInitializeGamePlayRecording
                0x000000000003fa90      0x138 C:/Users/RNG/Desktop/Stuff/Smash-Stuff/SMASH-ULTIMATE-MODS-BABY/50xx-the-mod/acmd-edits/code-mod-framework/lib/libnx_min/nx/lib\libnx_min.a(applet.o)
                0x000000000003fa90                appletInitializeGamePlayRecording
 *fill*         0x000000000003fbc8        0x8 
 .text.appletQueryApplicationPlayStatistics
                0x000000000003fbd0      0x1c0 C:/Users/RNG/Desktop/Stuff/Smash-Stuff/SMASH-ULTIMATE-MODS-BABY/50xx-the-mod/acmd-edits/code-mod-framework/lib/libnx_min/nx/lib\libnx_min.a(applet.o)
                0x000000000003fbd0                appletQueryApplicationPlayStatistics
 .text.appletBeginToWatchShortHomeButtonMessage
                0x000000000003fd90       0x2c C:/Users/RNG/Desktop/Stuff/Smash-Stuff/SMASH-ULTIMATE-MODS-BABY/50xx-the-mod/acmd-edits/code-mod-framework/lib/libnx_min/nx/lib\libnx_min.a(applet.o)
                0x000000000003fd90                appletBeginToWatchShortHomeButtonMessage
 *fill*         0x000000000003fdbc        0x4 
 .text.appletEndToWatchShortHomeButtonMessage
                0x000000000003fdc0       0x2c C:/Users/RNG/Desktop/Stuff/Smash-Stuff/SMASH-ULTIMATE-MODS-BABY/50xx-the-mod/acmd-edits/code-mod-framework/lib/libnx_min/nx/lib\libnx_min.a(applet.o)
                0x000000000003fdc0                appletEndToWatchShortHomeButtonMessage
 *fill*         0x000000000003fdec        0x4 
 .text.appletHomeButtonReaderLockAccessorGetEvent
                0x000000000003fdf0       0xc8 C:/Users/RNG/Desktop/Stuff/Smash-Stuff/SMASH-ULTIMATE-MODS-BABY/50xx-the-mod/acmd-edits/code-mod-framework/lib/libnx_min/nx/lib\libnx_min.a(applet.o)
                0x000000000003fdf0                appletHomeButtonReaderLockAccessorGetEvent
 *fill*         0x000000000003feb8        0x8 
 .text.appletIsVrModeEnabled
                0x000000000003fec0       0x4c C:/Users/RNG/Desktop/Stuff/Smash-Stuff/SMASH-ULTIMATE-MODS-BABY/50xx-the-mod/acmd-edits/code-mod-framework/lib/libnx_min/nx/lib\libnx_min.a(applet.o)
                0x000000000003fec0                appletIsVrModeEnabled
 *fill*         0x000000000003ff0c        0x4 
 .text.appletSetVrModeEnabled
                0x000000000003ff10       0x78 C:/Users/RNG/Desktop/Stuff/Smash-Stuff/SMASH-ULTIMATE-MODS-BABY/50xx-the-mod/acmd-edits/code-mod-framework/lib/libnx_min/nx/lib\libnx_min.a(applet.o)
                0x000000000003ff10                appletSetVrModeEnabled
 *fill*         0x000000000003ff88        0x8 
 .text.appletSetCpuBoostMode
                0x000000000003ff90       0x50 C:/Users/RNG/Desktop/Stuff/Smash-Stuff/SMASH-ULTIMATE-MODS-BABY/50xx-the-mod/acmd-edits/code-mod-framework/lib/libnx_min/nx/lib\libnx_min.a(applet.o)
                0x000000000003ff90                appletSetCpuBoostMode
 .text.appletExit
                0x000000000003ffe0      0x5dc C:/Users/RNG/Desktop/Stuff/Smash-Stuff/SMASH-ULTIMATE-MODS-BABY/50xx-the-mod/acmd-edits/code-mod-framework/lib/libnx_min/nx/lib\libnx_min.a(applet.o)
                0x000000000003ffe0                appletExit
 *fill*         0x00000000000405bc        0x4 
 .text.appletInitialize
                0x00000000000405c0      0x4f0 C:/Users/RNG/Desktop/Stuff/Smash-Stuff/SMASH-ULTIMATE-MODS-BABY/50xx-the-mod/acmd-edits/code-mod-framework/lib/libnx_min/nx/lib\libnx_min.a(applet.o)
                0x00000000000405c0                appletInitialize
 .text._appletExitProcess
                0x0000000000040ab0       0x10 C:/Users/RNG/Desktop/Stuff/Smash-Stuff/SMASH-ULTIMATE-MODS-BABY/50xx-the-mod/acmd-edits/code-mod-framework/lib/libnx_min/nx/lib\libnx_min.a(applet.o)
 .text.appletGetCurrentPerformanceConfiguration
                0x0000000000040ac0       0x40 C:/Users/RNG/Desktop/Stuff/Smash-Stuff/SMASH-ULTIMATE-MODS-BABY/50xx-the-mod/acmd-edits/code-mod-framework/lib/libnx_min/nx/lib\libnx_min.a(applet.o)
                0x0000000000040ac0                appletGetCurrentPerformanceConfiguration
 .text.appletLockExit
                0x0000000000040b00       0x10 C:/Users/RNG/Desktop/Stuff/Smash-Stuff/SMASH-ULTIMATE-MODS-BABY/50xx-the-mod/acmd-edits/code-mod-framework/lib/libnx_min/nx/lib\libnx_min.a(applet.o)
                0x0000000000040b00                appletLockExit
 .text.appletUnlockExit
                0x0000000000040b10       0x10 C:/Users/RNG/Desktop/Stuff/Smash-Stuff/SMASH-ULTIMATE-MODS-BABY/50xx-the-mod/acmd-edits/code-mod-framework/lib/libnx_min/nx/lib\libnx_min.a(applet.o)
                0x0000000000040b10                appletUnlockExit
 .text.appletSetScreenShotPermission
                0x0000000000040b20      0x16c C:/Users/RNG/Desktop/Stuff/Smash-Stuff/SMASH-ULTIMATE-MODS-BABY/50xx-the-mod/acmd-edits/code-mod-framework/lib/libnx_min/nx/lib\libnx_min.a(applet.o)
                0x0000000000040b20                appletSetScreenShotPermission
 *fill*         0x0000000000040c8c        0x4 
 .text.appletSetScreenShotImageOrientation
                0x0000000000040c90      0x1c4 C:/Users/RNG/Desktop/Stuff/Smash-Stuff/SMASH-ULTIMATE-MODS-BABY/50xx-the-mod/acmd-edits/code-mod-framework/lib/libnx_min/nx/lib\libnx_min.a(applet.o)
                0x0000000000040c90                appletSetScreenShotImageOrientation
 *fill*         0x0000000000040e54        0xc 
 .text.appletCreateManagedDisplayLayer
                0x0000000000040e60       0x14 C:/Users/RNG/Desktop/Stuff/Smash-Stuff/SMASH-ULTIMATE-MODS-BABY/50xx-the-mod/acmd-edits/code-mod-framework/lib/libnx_min/nx/lib\libnx_min.a(applet.o)
                0x0000000000040e60                appletCreateManagedDisplayLayer
 *fill*         0x0000000000040e74        0xc 
 .text.appletGetCurrentIlluminance
                0x0000000000040e80      0x168 C:/Users/RNG/Desktop/Stuff/Smash-Stuff/SMASH-ULTIMATE-MODS-BABY/50xx-the-mod/acmd-edits/code-mod-framework/lib/libnx_min/nx/lib\libnx_min.a(applet.o)
                0x0000000000040e80                appletGetCurrentIlluminance
 *fill*         0x0000000000040fe8        0x8 
 .text.appletIsIlluminanceAvailable
                0x0000000000040ff0       0x4c C:/Users/RNG/Desktop/Stuff/Smash-Stuff/SMASH-ULTIMATE-MODS-BABY/50xx-the-mod/acmd-edits/code-mod-framework/lib/libnx_min/nx/lib\libnx_min.a(applet.o)
                0x0000000000040ff0                appletIsIlluminanceAvailable
 *fill*         0x000000000004103c        0x4 
 .text.appletGetCurrentIlluminanceEx
                0x0000000000041040      0x19c C:/Users/RNG/Desktop/Stuff/Smash-Stuff/SMASH-ULTIMATE-MODS-BABY/50xx-the-mod/acmd-edits/code-mod-framework/lib/libnx_min/nx/lib\libnx_min.a(applet.o)
                0x0000000000041040                appletGetCurrentIlluminanceEx
 *fill*         0x00000000000411dc        0x4 
 .text.appletCreateLibraryApplet
                0x00000000000411e0        0x8 C:/Users/RNG/Desktop/Stuff/Smash-Stuff/SMASH-ULTIMATE-MODS-BABY/50xx-the-mod/acmd-edits/code-mod-framework/lib/libnx_min/nx/lib\libnx_min.a(applet.o)
                0x00000000000411e0                appletCreateLibraryApplet
 *fill*         0x00000000000411e8        0x8 
 .text.appletCreateLibraryAppletSelf
                0x00000000000411f0        0x8 C:/Users/RNG/Desktop/Stuff/Smash-Stuff/SMASH-ULTIMATE-MODS-BABY/50xx-the-mod/acmd-edits/code-mod-framework/lib/libnx_min/nx/lib\libnx_min.a(applet.o)
                0x00000000000411f0                appletCreateLibraryAppletSelf
 *fill*         0x00000000000411f8        0x8 
 .text.appletHolderClose
                0x0000000000041200       0x94 C:/Users/RNG/Desktop/Stuff/Smash-Stuff/SMASH-ULTIMATE-MODS-BABY/50xx-the-mod/acmd-edits/code-mod-framework/lib/libnx_min/nx/lib\libnx_min.a(applet.o)
                0x0000000000041200                appletHolderClose
 *fill*         0x0000000000041294        0xc 
 .text.appletHolderActive
                0x00000000000412a0       0x10 C:/Users/RNG/Desktop/Stuff/Smash-Stuff/SMASH-ULTIMATE-MODS-BABY/50xx-the-mod/acmd-edits/code-mod-framework/lib/libnx_min/nx/lib\libnx_min.a(applet.o)
                0x00000000000412a0                appletHolderActive
 .text.appletHolderGetIndirectLayerConsumerHandle
                0x00000000000412b0       0x74 C:/Users/RNG/Desktop/Stuff/Smash-Stuff/SMASH-ULTIMATE-MODS-BABY/50xx-the-mod/acmd-edits/code-mod-framework/lib/libnx_min/nx/lib\libnx_min.a(applet.o)
                0x00000000000412b0                appletHolderGetIndirectLayerConsumerHandle
 *fill*         0x0000000000041324        0xc 
 .text.appletHolderStart
                0x0000000000041330       0x50 C:/Users/RNG/Desktop/Stuff/Smash-Stuff/SMASH-ULTIMATE-MODS-BABY/50xx-the-mod/acmd-edits/code-mod-framework/lib/libnx_min/nx/lib\libnx_min.a(applet.o)
                0x0000000000041330                appletHolderStart
 .text.appletHolderJoin
                0x0000000000041380       0x80 C:/Users/RNG/Desktop/Stuff/Smash-Stuff/SMASH-ULTIMATE-MODS-BABY/50xx-the-mod/acmd-edits/code-mod-framework/lib/libnx_min/nx/lib\libnx_min.a(applet.o)
                0x0000000000041380                appletHolderJoin
 .text.appletHolderCheckFinished
                0x0000000000041400       0x24 C:/Users/RNG/Desktop/Stuff/Smash-Stuff/SMASH-ULTIMATE-MODS-BABY/50xx-the-mod/acmd-edits/code-mod-framework/lib/libnx_min/nx/lib\libnx_min.a(applet.o)
                0x0000000000041400                appletHolderCheckFinished
 *fill*         0x0000000000041424        0xc 
 .text.appletHolderRequestExit
                0x0000000000041430       0x50 C:/Users/RNG/Desktop/Stuff/Smash-Stuff/SMASH-ULTIMATE-MODS-BABY/50xx-the-mod/acmd-edits/code-mod-framework/lib/libnx_min/nx/lib\libnx_min.a(applet.o)
                0x0000000000041430                appletHolderRequestExit
 .text.appletHolderGetExitReason
                0x0000000000041480        0x8 C:/Users/RNG/Desktop/Stuff/Smash-Stuff/SMASH-ULTIMATE-MODS-BABY/50xx-the-mod/acmd-edits/code-mod-framework/lib/libnx_min/nx/lib\libnx_min.a(applet.o)
                0x0000000000041480                appletHolderGetExitReason
 *fill*         0x0000000000041488        0x8 
 .text.appletHolderWaitInteractiveOut
                0x0000000000041490       0x88 C:/Users/RNG/Desktop/Stuff/Smash-Stuff/SMASH-ULTIMATE-MODS-BABY/50xx-the-mod/acmd-edits/code-mod-framework/lib/libnx_min/nx/lib\libnx_min.a(applet.o)
                0x0000000000041490                appletHolderWaitInteractiveOut
 *fill*         0x0000000000041518        0x8 
 .text.appletHolderPopOutData
                0x0000000000041520       0x18 C:/Users/RNG/Desktop/Stuff/Smash-Stuff/SMASH-ULTIMATE-MODS-BABY/50xx-the-mod/acmd-edits/code-mod-framework/lib/libnx_min/nx/lib\libnx_min.a(applet.o)
                0x0000000000041520                appletHolderPopOutData
 *fill*         0x0000000000041538        0x8 
 .text.appletHolderPopInteractiveOutData
                0x0000000000041540       0x18 C:/Users/RNG/Desktop/Stuff/Smash-Stuff/SMASH-ULTIMATE-MODS-BABY/50xx-the-mod/acmd-edits/code-mod-framework/lib/libnx_min/nx/lib\libnx_min.a(applet.o)
                0x0000000000041540                appletHolderPopInteractiveOutData
 *fill*         0x0000000000041558        0x8 
 .text.appletCreateStorage
                0x0000000000041560       0x14 C:/Users/RNG/Desktop/Stuff/Smash-Stuff/SMASH-ULTIMATE-MODS-BABY/50xx-the-mod/acmd-edits/code-mod-framework/lib/libnx_min/nx/lib\libnx_min.a(applet.o)
                0x0000000000041560                appletCreateStorage
 *fill*         0x0000000000041574        0xc 
 .text.appletCreateTransferMemoryStorage
                0x0000000000041580       0xa8 C:/Users/RNG/Desktop/Stuff/Smash-Stuff/SMASH-ULTIMATE-MODS-BABY/50xx-the-mod/acmd-edits/code-mod-framework/lib/libnx_min/nx/lib\libnx_min.a(applet.o)
                0x0000000000041580                appletCreateTransferMemoryStorage
 *fill*         0x0000000000041628        0x8 
 .text.appletCreateHandleStorage
                0x0000000000041630       0x64 C:/Users/RNG/Desktop/Stuff/Smash-Stuff/SMASH-ULTIMATE-MODS-BABY/50xx-the-mod/acmd-edits/code-mod-framework/lib/libnx_min/nx/lib\libnx_min.a(applet.o)
                0x0000000000041630                appletCreateHandleStorage
 *fill*         0x0000000000041694        0xc 
 .text.appletCreateHandleStorageTmem
                0x00000000000416a0       0xa0 C:/Users/RNG/Desktop/Stuff/Smash-Stuff/SMASH-ULTIMATE-MODS-BABY/50xx-the-mod/acmd-edits/code-mod-framework/lib/libnx_min/nx/lib\libnx_min.a(applet.o)
                0x00000000000416a0                appletCreateHandleStorageTmem
 .text.appletStorageClose
                0x0000000000041740       0x6c C:/Users/RNG/Desktop/Stuff/Smash-Stuff/SMASH-ULTIMATE-MODS-BABY/50xx-the-mod/acmd-edits/code-mod-framework/lib/libnx_min/nx/lib\libnx_min.a(applet.o)
                0x0000000000041740                appletStorageClose
 *fill*         0x00000000000417ac        0x4 
 .text.appletRequestLaunchApplication
                0x00000000000417b0      0x188 C:/Users/RNG/Desktop/Stuff/Smash-Stuff/SMASH-ULTIMATE-MODS-BABY/50xx-the-mod/acmd-edits/code-mod-framework/lib/libnx_min/nx/lib\libnx_min.a(applet.o)
                0x00000000000417b0                appletRequestLaunchApplication
 *fill*         0x0000000000041938        0x8 
 .text.appletRequestLaunchApplicationForQuest
                0x0000000000041940      0x168 C:/Users/RNG/Desktop/Stuff/Smash-Stuff/SMASH-ULTIMATE-MODS-BABY/50xx-the-mod/acmd-edits/code-mod-framework/lib/libnx_min/nx/lib\libnx_min.a(applet.o)
                0x0000000000041940                appletRequestLaunchApplicationForQuest
 *fill*         0x0000000000041aa8        0x8 
 .text.appletHolderPushInteractiveInData
                0x0000000000041ab0       0x40 C:/Users/RNG/Desktop/Stuff/Smash-Stuff/SMASH-ULTIMATE-MODS-BABY/50xx-the-mod/acmd-edits/code-mod-framework/lib/libnx_min/nx/lib\libnx_min.a(applet.o)
                0x0000000000041ab0                appletHolderPushInteractiveInData
 .text.appletPushToGeneralChannel
                0x0000000000041af0       0x4c C:/Users/RNG/Desktop/Stuff/Smash-Stuff/SMASH-ULTIMATE-MODS-BABY/50xx-the-mod/acmd-edits/code-mod-framework/lib/libnx_min/nx/lib\libnx_min.a(applet.o)
                0x0000000000041af0                appletPushToGeneralChannel
 *fill*         0x0000000000041b3c        0x4 
 .text.appletHolderPushInData
                0x0000000000041b40       0x40 C:/Users/RNG/Desktop/Stuff/Smash-Stuff/SMASH-ULTIMATE-MODS-BABY/50xx-the-mod/acmd-edits/code-mod-framework/lib/libnx_min/nx/lib\libnx_min.a(applet.o)
                0x0000000000041b40                appletHolderPushInData
 .text.appletHolderPushExtraStorage
                0x0000000000041b80       0x40 C:/Users/RNG/Desktop/Stuff/Smash-Stuff/SMASH-ULTIMATE-MODS-BABY/50xx-the-mod/acmd-edits/code-mod-framework/lib/libnx_min/nx/lib\libnx_min.a(applet.o)
                0x0000000000041b80                appletHolderPushExtraStorage
 .text.appletStorageCloseTmem
                0x0000000000041bc0        0x8 C:/Users/RNG/Desktop/Stuff/Smash-Stuff/SMASH-ULTIMATE-MODS-BABY/50xx-the-mod/acmd-edits/code-mod-framework/lib/libnx_min/nx/lib\libnx_min.a(applet.o)
                0x0000000000041bc0                appletStorageCloseTmem
 *fill*         0x0000000000041bc8        0x8 
 .text.appletStorageGetSize
                0x0000000000041bd0       0xc4 C:/Users/RNG/Desktop/Stuff/Smash-Stuff/SMASH-ULTIMATE-MODS-BABY/50xx-the-mod/acmd-edits/code-mod-framework/lib/libnx_min/nx/lib\libnx_min.a(applet.o)
                0x0000000000041bd0                appletStorageGetSize
 *fill*         0x0000000000041c94        0xc 
 .text.appletStorageWrite
                0x0000000000041ca0        0x8 C:/Users/RNG/Desktop/Stuff/Smash-Stuff/SMASH-ULTIMATE-MODS-BABY/50xx-the-mod/acmd-edits/code-mod-framework/lib/libnx_min/nx/lib\libnx_min.a(applet.o)
                0x0000000000041ca0                appletStorageWrite
 *fill*         0x0000000000041ca8        0x8 
 .text.appletStorageRead
                0x0000000000041cb0        0x8 C:/Users/RNG/Desktop/Stuff/Smash-Stuff/SMASH-ULTIMATE-MODS-BABY/50xx-the-mod/acmd-edits/code-mod-framework/lib/libnx_min/nx/lib\libnx_min.a(applet.o)
                0x0000000000041cb0                appletStorageRead
 *fill*         0x0000000000041cb8        0x8 
 .text.appletStorageGetHandle
                0x0000000000041cc0       0xfc C:/Users/RNG/Desktop/Stuff/Smash-Stuff/SMASH-ULTIMATE-MODS-BABY/50xx-the-mod/acmd-edits/code-mod-framework/lib/libnx_min/nx/lib\libnx_min.a(applet.o)
                0x0000000000041cc0                appletStorageGetHandle
 *fill*         0x0000000000041dbc        0x4 
 .text.appletStorageMap
                0x0000000000041dc0       0xcc C:/Users/RNG/Desktop/Stuff/Smash-Stuff/SMASH-ULTIMATE-MODS-BABY/50xx-the-mod/acmd-edits/code-mod-framework/lib/libnx_min/nx/lib\libnx_min.a(applet.o)
                0x0000000000041dc0                appletStorageMap
 *fill*         0x0000000000041e8c        0x4 
 .text.appletGetOperationMode
                0x0000000000041e90        0xc C:/Users/RNG/Desktop/Stuff/Smash-Stuff/SMASH-ULTIMATE-MODS-BABY/50xx-the-mod/acmd-edits/code-mod-framework/lib/libnx_min/nx/lib\libnx_min.a(applet.o)
                0x0000000000041e90                appletGetOperationMode
 *fill*         0x0000000000041e9c        0x4 
 .text.appletGetPerformanceMode
                0x0000000000041ea0        0xc C:/Users/RNG/Desktop/Stuff/Smash-Stuff/SMASH-ULTIMATE-MODS-BABY/50xx-the-mod/acmd-edits/code-mod-framework/lib/libnx_min/nx/lib\libnx_min.a(applet.o)
                0x0000000000041ea0                appletGetPerformanceMode
 *fill*         0x0000000000041eac        0x4 
 .text.appletGetFocusState
                0x0000000000041eb0        0xc C:/Users/RNG/Desktop/Stuff/Smash-Stuff/SMASH-ULTIMATE-MODS-BABY/50xx-the-mod/acmd-edits/code-mod-framework/lib/libnx_min/nx/lib\libnx_min.a(applet.o)
                0x0000000000041eb0                appletGetFocusState
 *fill*         0x0000000000041ebc        0x4 
 .text.appletGetMessage
                0x0000000000041ec0       0x5c C:/Users/RNG/Desktop/Stuff/Smash-Stuff/SMASH-ULTIMATE-MODS-BABY/50xx-the-mod/acmd-edits/code-mod-framework/lib/libnx_min/nx/lib\libnx_min.a(applet.o)
                0x0000000000041ec0                appletGetMessage
 *fill*         0x0000000000041f1c        0x4 
 .text.appletProcessMessage
                0x0000000000041f20      0x118 C:/Users/RNG/Desktop/Stuff/Smash-Stuff/SMASH-ULTIMATE-MODS-BABY/50xx-the-mod/acmd-edits/code-mod-framework/lib/libnx_min/nx/lib\libnx_min.a(applet.o)
                0x0000000000041f20                appletProcessMessage
 *fill*         0x0000000000042038        0x8 
 .text.appletMainLoop
                0x0000000000042040       0x34 C:/Users/RNG/Desktop/Stuff/Smash-Stuff/SMASH-ULTIMATE-MODS-BABY/50xx-the-mod/acmd-edits/code-mod-framework/lib/libnx_min/nx/lib\libnx_min.a(applet.o)
                0x0000000000042040                appletMainLoop
 *fill*         0x0000000000042074        0xc 
 .text.__syscall_exit
                0x0000000000042080       0x1c C:/Users/RNG/Desktop/Stuff/Smash-Stuff/SMASH-ULTIMATE-MODS-BABY/50xx-the-mod/acmd-edits/code-mod-framework/lib/libnx_min/nx/lib\libnx_min.a(newlib.o)
                0x0000000000042080                __syscall_exit
 *fill*         0x000000000004209c        0x4 
 .text.__syscall_getreent
                0x00000000000420a0       0x10 C:/Users/RNG/Desktop/Stuff/Smash-Stuff/SMASH-ULTIMATE-MODS-BABY/50xx-the-mod/acmd-edits/code-mod-framework/lib/libnx_min/nx/lib\libnx_min.a(newlib.o)
                0x00000000000420a0                __syscall_getreent
 .text.__syscall_lock_acquire
                0x00000000000420b0        0x4 C:/Users/RNG/Desktop/Stuff/Smash-Stuff/SMASH-ULTIMATE-MODS-BABY/50xx-the-mod/acmd-edits/code-mod-framework/lib/libnx_min/nx/lib\libnx_min.a(newlib.o)
                0x00000000000420b0                __syscall_lock_acquire
 *fill*         0x00000000000420b4        0xc 
 .text.__syscall_lock_try_acquire
                0x00000000000420c0       0x1c C:/Users/RNG/Desktop/Stuff/Smash-Stuff/SMASH-ULTIMATE-MODS-BABY/50xx-the-mod/acmd-edits/code-mod-framework/lib/libnx_min/nx/lib\libnx_min.a(newlib.o)
                0x00000000000420c0                __syscall_lock_try_acquire
 *fill*         0x00000000000420dc        0x4 
 .text.__syscall_lock_release
                0x00000000000420e0        0x4 C:/Users/RNG/Desktop/Stuff/Smash-Stuff/SMASH-ULTIMATE-MODS-BABY/50xx-the-mod/acmd-edits/code-mod-framework/lib/libnx_min/nx/lib\libnx_min.a(newlib.o)
                0x00000000000420e0                __syscall_lock_release
 *fill*         0x00000000000420e4        0xc 
 .text.__syscall_lock_acquire_recursive
                0x00000000000420f0        0x4 C:/Users/RNG/Desktop/Stuff/Smash-Stuff/SMASH-ULTIMATE-MODS-BABY/50xx-the-mod/acmd-edits/code-mod-framework/lib/libnx_min/nx/lib\libnx_min.a(newlib.o)
                0x00000000000420f0                __syscall_lock_acquire_recursive
 *fill*         0x00000000000420f4        0xc 
 .text.__syscall_lock_try_acquire_recursive
                0x0000000000042100       0x1c C:/Users/RNG/Desktop/Stuff/Smash-Stuff/SMASH-ULTIMATE-MODS-BABY/50xx-the-mod/acmd-edits/code-mod-framework/lib/libnx_min/nx/lib\libnx_min.a(newlib.o)
                0x0000000000042100                __syscall_lock_try_acquire_recursive
 *fill*         0x000000000004211c        0x4 
 .text.__syscall_lock_release_recursive
                0x0000000000042120        0x4 C:/Users/RNG/Desktop/Stuff/Smash-Stuff/SMASH-ULTIMATE-MODS-BABY/50xx-the-mod/acmd-edits/code-mod-framework/lib/libnx_min/nx/lib\libnx_min.a(newlib.o)
                0x0000000000042120                __syscall_lock_release_recursive
 *fill*         0x0000000000042124        0xc 
 .text.__syscall_cond_signal
                0x0000000000042130       0x40 C:/Users/RNG/Desktop/Stuff/Smash-Stuff/SMASH-ULTIMATE-MODS-BABY/50xx-the-mod/acmd-edits/code-mod-framework/lib/libnx_min/nx/lib\libnx_min.a(newlib.o)
                0x0000000000042130                __syscall_cond_signal
 .text.__syscall_cond_broadcast
                0x0000000000042170       0x40 C:/Users/RNG/Desktop/Stuff/Smash-Stuff/SMASH-ULTIMATE-MODS-BABY/50xx-the-mod/acmd-edits/code-mod-framework/lib/libnx_min/nx/lib\libnx_min.a(newlib.o)
                0x0000000000042170                __syscall_cond_broadcast
 .text.__syscall_cond_wait
                0x00000000000421b0       0x3c C:/Users/RNG/Desktop/Stuff/Smash-Stuff/SMASH-ULTIMATE-MODS-BABY/50xx-the-mod/acmd-edits/code-mod-framework/lib/libnx_min/nx/lib\libnx_min.a(newlib.o)
                0x00000000000421b0                __syscall_cond_wait
 *fill*         0x00000000000421ec        0x4 
 .text.__syscall_cond_wait_recursive
                0x00000000000421f0       0x64 C:/Users/RNG/Desktop/Stuff/Smash-Stuff/SMASH-ULTIMATE-MODS-BABY/50xx-the-mod/acmd-edits/code-mod-framework/lib/libnx_min/nx/lib\libnx_min.a(newlib.o)
                0x00000000000421f0                __syscall_cond_wait_recursive
 *fill*         0x0000000000042254        0xc 
 .text.__syscall_thread_self
                0x0000000000042260       0x14 C:/Users/RNG/Desktop/Stuff/Smash-Stuff/SMASH-ULTIMATE-MODS-BABY/50xx-the-mod/acmd-edits/code-mod-framework/lib/libnx_min/nx/lib\libnx_min.a(newlib.o)
                0x0000000000042260                __syscall_thread_self
 *fill*         0x0000000000042274        0xc 
 .text.__syscall_thread_exit
                0x0000000000042280       0x2c C:/Users/RNG/Desktop/Stuff/Smash-Stuff/SMASH-ULTIMATE-MODS-BABY/50xx-the-mod/acmd-edits/code-mod-framework/lib/libnx_min/nx/lib\libnx_min.a(newlib.o)
                0x0000000000042280                __syscall_thread_exit
 *fill*         0x00000000000422ac        0x4 
 .text.__thread_entry
                0x00000000000422b0       0x58 C:/Users/RNG/Desktop/Stuff/Smash-Stuff/SMASH-ULTIMATE-MODS-BABY/50xx-the-mod/acmd-edits/code-mod-framework/lib/libnx_min/nx/lib\libnx_min.a(newlib.o)
 *fill*         0x0000000000042308        0x8 
 .text.__syscall_thread_create
                0x0000000000042310      0x15c C:/Users/RNG/Desktop/Stuff/Smash-Stuff/SMASH-ULTIMATE-MODS-BABY/50xx-the-mod/acmd-edits/code-mod-framework/lib/libnx_min/nx/lib\libnx_min.a(newlib.o)
                0x0000000000042310                __syscall_thread_create
 *fill*         0x000000000004246c        0x4 
 .text.__syscall_thread_join
                0x0000000000042470       0x58 C:/Users/RNG/Desktop/Stuff/Smash-Stuff/SMASH-ULTIMATE-MODS-BABY/50xx-the-mod/acmd-edits/code-mod-framework/lib/libnx_min/nx/lib\libnx_min.a(newlib.o)
                0x0000000000042470                __syscall_thread_join
 *fill*         0x00000000000424c8        0x8 
 .text.__syscall_tls_create
                0x00000000000424d0       0x44 C:/Users/RNG/Desktop/Stuff/Smash-Stuff/SMASH-ULTIMATE-MODS-BABY/50xx-the-mod/acmd-edits/code-mod-framework/lib/libnx_min/nx/lib\libnx_min.a(newlib.o)
                0x00000000000424d0                __syscall_tls_create
 *fill*         0x0000000000042514        0xc 
 .text.__syscall_tls_set
                0x0000000000042520       0x18 C:/Users/RNG/Desktop/Stuff/Smash-Stuff/SMASH-ULTIMATE-MODS-BABY/50xx-the-mod/acmd-edits/code-mod-framework/lib/libnx_min/nx/lib\libnx_min.a(newlib.o)
                0x0000000000042520                __syscall_tls_set
 *fill*         0x0000000000042538        0x8 
 .text.__syscall_tls_get
                0x0000000000042540        0x4 C:/Users/RNG/Desktop/Stuff/Smash-Stuff/SMASH-ULTIMATE-MODS-BABY/50xx-the-mod/acmd-edits/code-mod-framework/lib/libnx_min/nx/lib\libnx_min.a(newlib.o)
                0x0000000000042540                __syscall_tls_get
 *fill*         0x0000000000042544        0xc 
 .text.__syscall_tls_delete
                0x0000000000042550       0x18 C:/Users/RNG/Desktop/Stuff/Smash-Stuff/SMASH-ULTIMATE-MODS-BABY/50xx-the-mod/acmd-edits/code-mod-framework/lib/libnx_min/nx/lib\libnx_min.a(newlib.o)
                0x0000000000042550                __syscall_tls_delete
 *fill*         0x0000000000042568        0x8 
 .text.sched_yield
                0x0000000000042570       0x1c C:/Users/RNG/Desktop/Stuff/Smash-Stuff/SMASH-ULTIMATE-MODS-BABY/50xx-the-mod/acmd-edits/code-mod-framework/lib/libnx_min/nx/lib\libnx_min.a(newlib.o)
                0x0000000000042570                sched_yield
 *fill*         0x000000000004258c        0x4 
 .text.sched_getcpu
                0x0000000000042590        0x4 C:/Users/RNG/Desktop/Stuff/Smash-Stuff/SMASH-ULTIMATE-MODS-BABY/50xx-the-mod/acmd-edits/code-mod-framework/lib/libnx_min/nx/lib\libnx_min.a(newlib.o)
                0x0000000000042590                sched_getcpu
 *fill*         0x0000000000042594        0xc 
 .text.__libnx_init_time
                0x00000000000425a0      0x27c C:/Users/RNG/Desktop/Stuff/Smash-Stuff/SMASH-ULTIMATE-MODS-BABY/50xx-the-mod/acmd-edits/code-mod-framework/lib/libnx_min/nx/lib\libnx_min.a(newlib.o)
                0x00000000000425a0                __libnx_init_time
 *fill*         0x000000000004281c        0x4 
 .text.__syscall_clock_getres
                0x0000000000042820       0x58 C:/Users/RNG/Desktop/Stuff/Smash-Stuff/SMASH-ULTIMATE-MODS-BABY/50xx-the-mod/acmd-edits/code-mod-framework/lib/libnx_min/nx/lib\libnx_min.a(newlib.o)
                0x0000000000042820                __syscall_clock_getres
 *fill*         0x0000000000042878        0x8 
 .text.__syscall_clock_gettime
                0x0000000000042880       0xf8 C:/Users/RNG/Desktop/Stuff/Smash-Stuff/SMASH-ULTIMATE-MODS-BABY/50xx-the-mod/acmd-edits/code-mod-framework/lib/libnx_min/nx/lib\libnx_min.a(newlib.o)
                0x0000000000042880                __syscall_clock_gettime
 *fill*         0x0000000000042978        0x8 
 .text.__syscall_gettod_r
                0x0000000000042980       0x8c C:/Users/RNG/Desktop/Stuff/Smash-Stuff/SMASH-ULTIMATE-MODS-BABY/50xx-the-mod/acmd-edits/code-mod-framework/lib/libnx_min/nx/lib\libnx_min.a(newlib.o)
                0x0000000000042980                __syscall_gettod_r
 *fill*         0x0000000000042a0c        0x4 
 .text.__syscall_nanosleep
                0x0000000000042a10       0x5c C:/Users/RNG/Desktop/Stuff/Smash-Stuff/SMASH-ULTIMATE-MODS-BABY/50xx-the-mod/acmd-edits/code-mod-framework/lib/libnx_min/nx/lib\libnx_min.a(newlib.o)
                0x0000000000042a10                __syscall_nanosleep
 *fill*         0x0000000000042a6c        0x4 
 .text.newlibSetup
                0x0000000000042a70       0x74 C:/Users/RNG/Desktop/Stuff/Smash-Stuff/SMASH-ULTIMATE-MODS-BABY/50xx-the-mod/acmd-edits/code-mod-framework/lib/libnx_min/nx/lib\libnx_min.a(newlib.o)
                0x0000000000042a70                newlibSetup
 *fill*         0x0000000000042ae4        0xc 
 .text.threadCreate
                0x0000000000042af0      0x1fc C:/Users/RNG/Desktop/Stuff/Smash-Stuff/SMASH-ULTIMATE-MODS-BABY/50xx-the-mod/acmd-edits/code-mod-framework/lib/libnx_min/nx/lib\libnx_min.a(thread.o)
                0x0000000000042af0                threadCreate
 *fill*         0x0000000000042cec        0x4 
 .text.threadExit
                0x0000000000042cf0       0xb0 C:/Users/RNG/Desktop/Stuff/Smash-Stuff/SMASH-ULTIMATE-MODS-BABY/50xx-the-mod/acmd-edits/code-mod-framework/lib/libnx_min/nx/lib\libnx_min.a(thread.o)
                0x0000000000042cf0                threadExit
 .text._EntryWrap
                0x0000000000042da0       0x90 C:/Users/RNG/Desktop/Stuff/Smash-Stuff/SMASH-ULTIMATE-MODS-BABY/50xx-the-mod/acmd-edits/code-mod-framework/lib/libnx_min/nx/lib\libnx_min.a(thread.o)
 .text.threadStart
                0x0000000000042e30        0x8 C:/Users/RNG/Desktop/Stuff/Smash-Stuff/SMASH-ULTIMATE-MODS-BABY/50xx-the-mod/acmd-edits/code-mod-framework/lib/libnx_min/nx/lib\libnx_min.a(thread.o)
                0x0000000000042e30                threadStart
 *fill*         0x0000000000042e38        0x8 
 .text.threadWaitForExit
                0x0000000000042e40       0x2c C:/Users/RNG/Desktop/Stuff/Smash-Stuff/SMASH-ULTIMATE-MODS-BABY/50xx-the-mod/acmd-edits/code-mod-framework/lib/libnx_min/nx/lib\libnx_min.a(thread.o)
                0x0000000000042e40                threadWaitForExit
 *fill*         0x0000000000042e6c        0x4 
 .text.threadClose
                0x0000000000042e70       0x54 C:/Users/RNG/Desktop/Stuff/Smash-Stuff/SMASH-ULTIMATE-MODS-BABY/50xx-the-mod/acmd-edits/code-mod-framework/lib/libnx_min/nx/lib\libnx_min.a(thread.o)
                0x0000000000042e70                threadClose
 *fill*         0x0000000000042ec4        0xc 
 .text.threadPause
                0x0000000000042ed0        0xc C:/Users/RNG/Desktop/Stuff/Smash-Stuff/SMASH-ULTIMATE-MODS-BABY/50xx-the-mod/acmd-edits/code-mod-framework/lib/libnx_min/nx/lib\libnx_min.a(thread.o)
                0x0000000000042ed0                threadPause
 *fill*         0x0000000000042edc        0x4 
 .text.threadResume
                0x0000000000042ee0        0xc C:/Users/RNG/Desktop/Stuff/Smash-Stuff/SMASH-ULTIMATE-MODS-BABY/50xx-the-mod/acmd-edits/code-mod-framework/lib/libnx_min/nx/lib\libnx_min.a(thread.o)
                0x0000000000042ee0                threadResume
 *fill*         0x0000000000042eec        0x4 
 .text.threadDumpContext
                0x0000000000042ef0        0x8 C:/Users/RNG/Desktop/Stuff/Smash-Stuff/SMASH-ULTIMATE-MODS-BABY/50xx-the-mod/acmd-edits/code-mod-framework/lib/libnx_min/nx/lib\libnx_min.a(thread.o)
                0x0000000000042ef0                threadDumpContext
 *fill*         0x0000000000042ef8        0x8 
 .text.threadGetCurHandle
                0x0000000000042f00        0xc C:/Users/RNG/Desktop/Stuff/Smash-Stuff/SMASH-ULTIMATE-MODS-BABY/50xx-the-mod/acmd-edits/code-mod-framework/lib/libnx_min/nx/lib\libnx_min.a(thread.o)
                0x0000000000042f00                threadGetCurHandle
 *fill*         0x0000000000042f0c        0x4 
 .text.threadTlsGet
                0x0000000000042f10       0x10 C:/Users/RNG/Desktop/Stuff/Smash-Stuff/SMASH-ULTIMATE-MODS-BABY/50xx-the-mod/acmd-edits/code-mod-framework/lib/libnx_min/nx/lib\libnx_min.a(thread.o)
                0x0000000000042f10                threadTlsGet
 .text.threadTlsSet
                0x0000000000042f20       0x10 C:/Users/RNG/Desktop/Stuff/Smash-Stuff/SMASH-ULTIMATE-MODS-BABY/50xx-the-mod/acmd-edits/code-mod-framework/lib/libnx_min/nx/lib\libnx_min.a(thread.o)
                0x0000000000042f20                threadTlsSet
 .text.threadTlsAlloc
                0x0000000000042f30       0xd8 C:/Users/RNG/Desktop/Stuff/Smash-Stuff/SMASH-ULTIMATE-MODS-BABY/50xx-the-mod/acmd-edits/code-mod-framework/lib/libnx_min/nx/lib\libnx_min.a(thread.o)
                0x0000000000042f30                threadTlsAlloc
 *fill*         0x0000000000043008        0x8 
 .text.threadTlsFree
                0x0000000000043010       0x48 C:/Users/RNG/Desktop/Stuff/Smash-Stuff/SMASH-ULTIMATE-MODS-BABY/50xx-the-mod/acmd-edits/code-mod-framework/lib/libnx_min/nx/lib\libnx_min.a(thread.o)
                0x0000000000043010                threadTlsFree
 *fill*         0x0000000000043058        0x8 
 .text.condvarWaitTimeout
                0x0000000000043060       0x60 C:/Users/RNG/Desktop/Stuff/Smash-Stuff/SMASH-ULTIMATE-MODS-BABY/50xx-the-mod/acmd-edits/code-mod-framework/lib/libnx_min/nx/lib\libnx_min.a(condvar.o)
                0x0000000000043060                condvarWaitTimeout
 .text.eventCreate
                0x00000000000430c0       0x38 C:/Users/RNG/Desktop/Stuff/Smash-Stuff/SMASH-ULTIMATE-MODS-BABY/50xx-the-mod/acmd-edits/code-mod-framework/lib/libnx_min/nx/lib\libnx_min.a(event.o)
                0x00000000000430c0                eventCreate
 *fill*         0x00000000000430f8        0x8 
 .text.eventLoadRemote
                0x0000000000043100        0xc C:/Users/RNG/Desktop/Stuff/Smash-Stuff/SMASH-ULTIMATE-MODS-BABY/50xx-the-mod/acmd-edits/code-mod-framework/lib/libnx_min/nx/lib\libnx_min.a(event.o)
                0x0000000000043100                eventLoadRemote
 *fill*         0x000000000004310c        0x4 
 .text.eventWait
                0x0000000000043110       0x38 C:/Users/RNG/Desktop/Stuff/Smash-Stuff/SMASH-ULTIMATE-MODS-BABY/50xx-the-mod/acmd-edits/code-mod-framework/lib/libnx_min/nx/lib\libnx_min.a(event.o)
                0x0000000000043110                eventWait
 *fill*         0x0000000000043148        0x8 
 .text.eventFire
                0x0000000000043150       0x14 C:/Users/RNG/Desktop/Stuff/Smash-Stuff/SMASH-ULTIMATE-MODS-BABY/50xx-the-mod/acmd-edits/code-mod-framework/lib/libnx_min/nx/lib\libnx_min.a(event.o)
                0x0000000000043150                eventFire
 *fill*         0x0000000000043164        0xc 
 .text.eventClear
                0x0000000000043170       0x24 C:/Users/RNG/Desktop/Stuff/Smash-Stuff/SMASH-ULTIMATE-MODS-BABY/50xx-the-mod/acmd-edits/code-mod-framework/lib/libnx_min/nx/lib\libnx_min.a(event.o)
                0x0000000000043170                eventClear
 *fill*         0x0000000000043194        0xc 
 .text.eventClose
                0x00000000000431a0       0x50 C:/Users/RNG/Desktop/Stuff/Smash-Stuff/SMASH-ULTIMATE-MODS-BABY/50xx-the-mod/acmd-edits/code-mod-framework/lib/libnx_min/nx/lib\libnx_min.a(event.o)
                0x00000000000431a0                eventClose
 .text.tmemCreate
                0x00000000000431f0       0xa8 C:/Users/RNG/Desktop/Stuff/Smash-Stuff/SMASH-ULTIMATE-MODS-BABY/50xx-the-mod/acmd-edits/code-mod-framework/lib/libnx_min/nx/lib\libnx_min.a(tmem.o)
                0x00000000000431f0                tmemCreate
 *fill*         0x0000000000043298        0x8 
 .text.tmemCreateFromMemory
                0x00000000000432a0       0x2c C:/Users/RNG/Desktop/Stuff/Smash-Stuff/SMASH-ULTIMATE-MODS-BABY/50xx-the-mod/acmd-edits/code-mod-framework/lib/libnx_min/nx/lib\libnx_min.a(tmem.o)
                0x00000000000432a0                tmemCreateFromMemory
 *fill*         0x00000000000432cc        0x4 
 .text.tmemLoadRemote
                0x00000000000432d0       0x14 C:/Users/RNG/Desktop/Stuff/Smash-Stuff/SMASH-ULTIMATE-MODS-BABY/50xx-the-mod/acmd-edits/code-mod-framework/lib/libnx_min/nx/lib\libnx_min.a(tmem.o)
                0x00000000000432d0                tmemLoadRemote
 *fill*         0x00000000000432e4        0xc 
 .text.tmemMap  0x00000000000432f0       0x84 C:/Users/RNG/Desktop/Stuff/Smash-Stuff/SMASH-ULTIMATE-MODS-BABY/50xx-the-mod/acmd-edits/code-mod-framework/lib/libnx_min/nx/lib\libnx_min.a(tmem.o)
                0x00000000000432f0                tmemMap
 *fill*         0x0000000000043374        0xc 
 .text.tmemUnmap
                0x0000000000043380       0x58 C:/Users/RNG/Desktop/Stuff/Smash-Stuff/SMASH-ULTIMATE-MODS-BABY/50xx-the-mod/acmd-edits/code-mod-framework/lib/libnx_min/nx/lib\libnx_min.a(tmem.o)
                0x0000000000043380                tmemUnmap
 *fill*         0x00000000000433d8        0x8 
 .text.tmemClose
                0x00000000000433e0       0x68 C:/Users/RNG/Desktop/Stuff/Smash-Stuff/SMASH-ULTIMATE-MODS-BABY/50xx-the-mod/acmd-edits/code-mod-framework/lib/libnx_min/nx/lib\libnx_min.a(tmem.o)
                0x00000000000433e0                tmemClose
 *fill*         0x0000000000043448        0x8 
 .text.rwlockInit
                0x0000000000043450        0x8 C:/Users/RNG/Desktop/Stuff/Smash-Stuff/SMASH-ULTIMATE-MODS-BABY/50xx-the-mod/acmd-edits/code-mod-framework/lib/libnx_min/nx/lib\libnx_min.a(rwlock.o)
                0x0000000000043450                rwlockInit
 *fill*         0x0000000000043458        0x8 
 .text.rwlockReadLock
                0x0000000000043460       0x58 C:/Users/RNG/Desktop/Stuff/Smash-Stuff/SMASH-ULTIMATE-MODS-BABY/50xx-the-mod/acmd-edits/code-mod-framework/lib/libnx_min/nx/lib\libnx_min.a(rwlock.o)
                0x0000000000043460                rwlockReadLock
 *fill*         0x00000000000434b8        0x8 
 .text.rwlockReadUnlock
                0x00000000000434c0       0x5c C:/Users/RNG/Desktop/Stuff/Smash-Stuff/SMASH-ULTIMATE-MODS-BABY/50xx-the-mod/acmd-edits/code-mod-framework/lib/libnx_min/nx/lib\libnx_min.a(rwlock.o)
                0x00000000000434c0                rwlockReadUnlock
 *fill*         0x000000000004351c        0x4 
 .text.rwlockWriteLock
                0x0000000000043520       0x84 C:/Users/RNG/Desktop/Stuff/Smash-Stuff/SMASH-ULTIMATE-MODS-BABY/50xx-the-mod/acmd-edits/code-mod-framework/lib/libnx_min/nx/lib\libnx_min.a(rwlock.o)
                0x0000000000043520                rwlockWriteLock
 *fill*         0x00000000000435a4        0xc 
 .text.rwlockWriteUnlock
                0x00000000000435b0       0x3c C:/Users/RNG/Desktop/Stuff/Smash-Stuff/SMASH-ULTIMATE-MODS-BABY/50xx-the-mod/acmd-edits/code-mod-framework/lib/libnx_min/nx/lib\libnx_min.a(rwlock.o)
                0x00000000000435b0                rwlockWriteUnlock
 *fill*         0x00000000000435ec        0x4 
 .text._waitLoop
                0x00000000000435f0      0x104 C:/Users/RNG/Desktop/Stuff/Smash-Stuff/SMASH-ULTIMATE-MODS-BABY/50xx-the-mod/acmd-edits/code-mod-framework/lib/libnx_min/nx/lib\libnx_min.a(wait.o)
 *fill*         0x00000000000436f4        0xc 
 .text._waitObjectsImpl
                0x0000000000043700      0x338 C:/Users/RNG/Desktop/Stuff/Smash-Stuff/SMASH-ULTIMATE-MODS-BABY/50xx-the-mod/acmd-edits/code-mod-framework/lib/libnx_min/nx/lib\libnx_min.a(wait.o)
 *fill*         0x0000000000043a38        0x8 
 .text.waitObjects
                0x0000000000043a40        0xc C:/Users/RNG/Desktop/Stuff/Smash-Stuff/SMASH-ULTIMATE-MODS-BABY/50xx-the-mod/acmd-edits/code-mod-framework/lib/libnx_min/nx/lib\libnx_min.a(wait.o)
                0x0000000000043a40                waitObjects
 *fill*         0x0000000000043a4c        0x4 
 .text.waitHandles
                0x0000000000043a50        0xc C:/Users/RNG/Desktop/Stuff/Smash-Stuff/SMASH-ULTIMATE-MODS-BABY/50xx-the-mod/acmd-edits/code-mod-framework/lib/libnx_min/nx/lib\libnx_min.a(wait.o)
                0x0000000000043a50                waitHandles
 *fill*         0x0000000000043a5c        0x4 
 .text.shmemCreate
                0x0000000000043a60       0x14 C:/Users/RNG/Desktop/Stuff/Smash-Stuff/SMASH-ULTIMATE-MODS-BABY/50xx-the-mod/acmd-edits/code-mod-framework/lib/libnx_min/nx/lib\libnx_min.a(shmem.o)
                0x0000000000043a60                shmemCreate
 *fill*         0x0000000000043a74        0xc 
 .text.shmemLoadRemote
                0x0000000000043a80       0x14 C:/Users/RNG/Desktop/Stuff/Smash-Stuff/SMASH-ULTIMATE-MODS-BABY/50xx-the-mod/acmd-edits/code-mod-framework/lib/libnx_min/nx/lib\libnx_min.a(shmem.o)
                0x0000000000043a80                shmemLoadRemote
 *fill*         0x0000000000043a94        0xc 
 .text.shmemMap
                0x0000000000043aa0       0x84 C:/Users/RNG/Desktop/Stuff/Smash-Stuff/SMASH-ULTIMATE-MODS-BABY/50xx-the-mod/acmd-edits/code-mod-framework/lib/libnx_min/nx/lib\libnx_min.a(shmem.o)
                0x0000000000043aa0                shmemMap
 *fill*         0x0000000000043b24        0xc 
 .text.shmemUnmap
                0x0000000000043b30       0x58 C:/Users/RNG/Desktop/Stuff/Smash-Stuff/SMASH-ULTIMATE-MODS-BABY/50xx-the-mod/acmd-edits/code-mod-framework/lib/libnx_min/nx/lib\libnx_min.a(shmem.o)
                0x0000000000043b30                shmemUnmap
 *fill*         0x0000000000043b88        0x8 
 .text.shmemClose
                0x0000000000043b90       0x44 C:/Users/RNG/Desktop/Stuff/Smash-Stuff/SMASH-ULTIMATE-MODS-BABY/50xx-the-mod/acmd-edits/code-mod-framework/lib/libnx_min/nx/lib\libnx_min.a(shmem.o)
                0x0000000000043b90                shmemClose
 *fill*         0x0000000000043bd4        0xc 
 .text.detectKernelVersion
                0x0000000000043be0      0x17c C:/Users/RNG/Desktop/Stuff/Smash-Stuff/SMASH-ULTIMATE-MODS-BABY/50xx-the-mod/acmd-edits/code-mod-framework/lib/libnx_min/nx/lib\libnx_min.a(detect.o)
                0x0000000000043be0                detectKernelVersion
 *fill*         0x0000000000043d5c        0x4 
 .text.detectDebugger
                0x0000000000043d60       0x30 C:/Users/RNG/Desktop/Stuff/Smash-Stuff/SMASH-ULTIMATE-MODS-BABY/50xx-the-mod/acmd-edits/code-mod-framework/lib/libnx_min/nx/lib\libnx_min.a(detect.o)
                0x0000000000043d60                detectDebugger
 .text.detectJitKernelPatch
                0x0000000000043d90       0xdc C:/Users/RNG/Desktop/Stuff/Smash-Stuff/SMASH-ULTIMATE-MODS-BABY/50xx-the-mod/acmd-edits/code-mod-framework/lib/libnx_min/nx/lib\libnx_min.a(detect.o)
                0x0000000000043d90                detectJitKernelPatch
 *fill*         0x0000000000043e6c        0x4 
 .text.detectIgnoreJitKernelPatch
                0x0000000000043e70       0x44 C:/Users/RNG/Desktop/Stuff/Smash-Stuff/SMASH-ULTIMATE-MODS-BABY/50xx-the-mod/acmd-edits/code-mod-framework/lib/libnx_min/nx/lib\libnx_min.a(detect.o)
                0x0000000000043e70                detectIgnoreJitKernelPatch
 *fill*         0x0000000000043eb4        0xc 
 .text.ipcCloseObjectById
                0x0000000000043ec0       0x34 C:/Users/RNG/Desktop/Stuff/Smash-Stuff/SMASH-ULTIMATE-MODS-BABY/50xx-the-mod/acmd-edits/code-mod-framework/lib/libnx_min/nx/lib\libnx_min.a(apm.o)
 *fill*         0x0000000000043ef4        0xc 
 .text._apmGetSession.constprop.4
                0x0000000000043f00      0x124 C:/Users/RNG/Desktop/Stuff/Smash-Stuff/SMASH-ULTIMATE-MODS-BABY/50xx-the-mod/acmd-edits/code-mod-framework/lib/libnx_min/nx/lib\libnx_min.a(apm.o)
 *fill*         0x0000000000044024        0xc 
 .text.apmExit  0x0000000000044030       0xf0 C:/Users/RNG/Desktop/Stuff/Smash-Stuff/SMASH-ULTIMATE-MODS-BABY/50xx-the-mod/acmd-edits/code-mod-framework/lib/libnx_min/nx/lib\libnx_min.a(apm.o)
                0x0000000000044030                apmExit
 .text.apmInitialize
                0x0000000000044120       0x70 C:/Users/RNG/Desktop/Stuff/Smash-Stuff/SMASH-ULTIMATE-MODS-BABY/50xx-the-mod/acmd-edits/code-mod-framework/lib/libnx_min/nx/lib\libnx_min.a(apm.o)
                0x0000000000044120                apmInitialize
 .text.apmSetPerformanceConfiguration
                0x0000000000044190       0xcc C:/Users/RNG/Desktop/Stuff/Smash-Stuff/SMASH-ULTIMATE-MODS-BABY/50xx-the-mod/acmd-edits/code-mod-framework/lib/libnx_min/nx/lib\libnx_min.a(apm.o)
                0x0000000000044190                apmSetPerformanceConfiguration
 *fill*         0x000000000004425c        0x4 
 .text.apmGetPerformanceConfiguration
                0x0000000000044260       0xf4 C:/Users/RNG/Desktop/Stuff/Smash-Stuff/SMASH-ULTIMATE-MODS-BABY/50xx-the-mod/acmd-edits/code-mod-framework/lib/libnx_min/nx/lib\libnx_min.a(apm.o)
                0x0000000000044260                apmGetPerformanceConfiguration
 *fill*         0x0000000000044354        0x4 
 .text.bsearch  0x0000000000044358       0xb8 c:/devkitpro/devkita64/bin/../lib/gcc/aarch64-none-elf/8.3.0/../../../../aarch64-none-elf/lib/pic\libg.a(lib_a-bsearch.o)
                0x0000000000044358                bsearch
 .text.__set_ctype
                0x0000000000044410       0x10 c:/devkitpro/devkita64/bin/../lib/gcc/aarch64-none-elf/8.3.0/../../../../aarch64-none-elf/lib/pic\libg.a(lib_a-ctype_.o)
                0x0000000000044410                __set_ctype
 .text.__errno  0x0000000000044420       0x14 c:/devkitpro/devkita64/bin/../lib/gcc/aarch64-none-elf/8.3.0/../../../../aarch64-none-elf/lib/pic\libg.a(lib_a-errno.o)
                0x0000000000044420                __errno
 *fill*         0x0000000000044434        0x4 
 .text.__libc_fini_array
                0x0000000000044438       0x44 c:/devkitpro/devkita64/bin/../lib/gcc/aarch64-none-elf/8.3.0/../../../../aarch64-none-elf/lib/pic\libg.a(lib_a-fini.o)
                0x0000000000044438                __libc_fini_array
 *fill*         0x000000000004447c        0x4 
 .text.__libc_init_array
                0x0000000000044480       0x8c c:/devkitpro/devkita64/bin/../lib/gcc/aarch64-none-elf/8.3.0/../../../../aarch64-none-elf/lib/pic\libg.a(lib_a-init.o)
                0x0000000000044480                __libc_init_array
 *fill*         0x000000000004450c        0x4 
 .text.memalign
                0x0000000000044510       0x30 c:/devkitpro/devkita64/bin/../lib/gcc/aarch64-none-elf/8.3.0/../../../../aarch64-none-elf/lib/pic\libg.a(lib_a-malign.o)
                0x0000000000044510                memalign
 .text._memalign_r
                0x0000000000044540      0x198 c:/devkitpro/devkita64/bin/../lib/gcc/aarch64-none-elf/8.3.0/../../../../aarch64-none-elf/lib/pic\libg.a(lib_a-malignr.o)
                0x0000000000044540                _memalign_r
 .text.malloc   0x00000000000446d8       0x1c c:/devkitpro/devkita64/bin/../lib/gcc/aarch64-none-elf/8.3.0/../../../../aarch64-none-elf/lib/pic\libg.a(lib_a-malloc.o)
                0x00000000000446d8                malloc
 *fill*         0x00000000000446f4        0x4 
 .text.free     0x00000000000446f8       0x1c c:/devkitpro/devkita64/bin/../lib/gcc/aarch64-none-elf/8.3.0/../../../../aarch64-none-elf/lib/pic\libg.a(lib_a-malloc.o)
                0x00000000000446f8                free
 *fill*         0x0000000000044714        0x4 
 .text._malloc_r
                0x0000000000044718      0x87c c:/devkitpro/devkita64/bin/../lib/gcc/aarch64-none-elf/8.3.0/../../../../aarch64-none-elf/lib/pic\libg.a(lib_a-mallocr.o)
                0x0000000000044718                _malloc_r
 *fill*         0x0000000000044f94       0x2c 
 .text          0x0000000000044fc0      0x16c c:/devkitpro/devkita64/bin/../lib/gcc/aarch64-none-elf/8.3.0/../../../../aarch64-none-elf/lib/pic\libg.a(lib_a-memcpy.o)
                0x0000000000044fc0                memcpy
 *fill*         0x000000000004512c       0x14 
 .text          0x0000000000045140      0x1dc c:/devkitpro/devkita64/bin/../lib/gcc/aarch64-none-elf/8.3.0/../../../../aarch64-none-elf/lib/pic\libg.a(lib_a-memset.o)
                0x0000000000045140                memset
 *fill*         0x000000000004531c        0x4 
 .text.__malloc_lock
                0x0000000000045320        0xc c:/devkitpro/devkita64/bin/../lib/gcc/aarch64-none-elf/8.3.0/../../../../aarch64-none-elf/lib/pic\libg.a(lib_a-mlock.o)
                0x0000000000045320                __malloc_lock
 *fill*         0x000000000004532c        0x4 
 .text.__malloc_unlock
                0x0000000000045330        0xc c:/devkitpro/devkita64/bin/../lib/gcc/aarch64-none-elf/8.3.0/../../../../aarch64-none-elf/lib/pic\libg.a(lib_a-mlock.o)
                0x0000000000045330                __malloc_unlock
 *fill*         0x000000000004533c        0x4 
 .text.setenv   0x0000000000045340       0x3c c:/devkitpro/devkita64/bin/../lib/gcc/aarch64-none-elf/8.3.0/../../../../aarch64-none-elf/lib/pic\libg.a(lib_a-setenv.o)
                0x0000000000045340                setenv
 *fill*         0x000000000004537c        0x4 
 .text.unsetenv
                0x0000000000045380       0x1c c:/devkitpro/devkita64/bin/../lib/gcc/aarch64-none-elf/8.3.0/../../../../aarch64-none-elf/lib/pic\libg.a(lib_a-setenv.o)
                0x0000000000045380                unsetenv
 *fill*         0x000000000004539c        0x4 
 .text._setenv_r
                0x00000000000453a0      0x264 c:/devkitpro/devkita64/bin/../lib/gcc/aarch64-none-elf/8.3.0/../../../../aarch64-none-elf/lib/pic\libg.a(lib_a-setenv_r.o)
                0x00000000000453a0                _setenv_r
 *fill*         0x0000000000045604        0x4 
 .text._unsetenv_r
                0x0000000000045608       0xd4 c:/devkitpro/devkita64/bin/../lib/gcc/aarch64-none-elf/8.3.0/../../../../aarch64-none-elf/lib/pic\libg.a(lib_a-setenv_r.o)
                0x0000000000045608                _unsetenv_r
 .text          0x00000000000456dc       0xdc c:/devkitpro/devkita64/bin/../lib/gcc/aarch64-none-elf/8.3.0/../../../../aarch64-none-elf/lib/pic\libg.a(lib_a-strchr.o)
                0x00000000000456dc                strchr
 *fill*         0x00000000000457b8        0x8 
 .text          0x00000000000457c0       0xe4 c:/devkitpro/devkita64/bin/../lib/gcc/aarch64-none-elf/8.3.0/../../../../aarch64-none-elf/lib/pic\libg.a(lib_a-strcmp.o)
                0x00000000000457c0                strcmp
 *fill*         0x00000000000458a4       0x1c 
 .text          0x00000000000458c0      0x1b8 c:/devkitpro/devkita64/bin/../lib/gcc/aarch64-none-elf/8.3.0/../../../../aarch64-none-elf/lib/pic\libg.a(lib_a-strcpy.o)
                0x00000000000458c0                strcpy
 *fill*         0x0000000000045a78        0x8 
 .text          0x0000000000045a80      0x140 c:/devkitpro/devkita64/bin/../lib/gcc/aarch64-none-elf/8.3.0/../../../../aarch64-none-elf/lib/pic\libg.a(lib_a-strlen.o)
                0x0000000000045a80                strlen
 .text.strncat  0x0000000000045bc0       0x84 c:/devkitpro/devkita64/bin/../lib/gcc/aarch64-none-elf/8.3.0/../../../../aarch64-none-elf/lib/pic\libg.a(lib_a-strncat.o)
                0x0000000000045bc0                strncat
 *fill*         0x0000000000045c44       0x3c 
 .text          0x0000000000045c80      0x1d4 c:/devkitpro/devkita64/bin/../lib/gcc/aarch64-none-elf/8.3.0/../../../../aarch64-none-elf/lib/pic\libg.a(lib_a-strncmp.o)
                0x0000000000045c9c                strncmp
 *fill*         0x0000000000045e54        0x4 
 .text.strncpy  0x0000000000045e58       0xa8 c:/devkitpro/devkita64/bin/../lib/gcc/aarch64-none-elf/8.3.0/../../../../aarch64-none-elf/lib/pic\libg.a(lib_a-strncpy.o)
                0x0000000000045e58                strncpy
 .text          0x0000000000045f00       0xe0 c:/devkitpro/devkita64/bin/../lib/gcc/aarch64-none-elf/8.3.0/../../../../aarch64-none-elf/lib/pic\libg.a(lib_a-strnlen.o)
                0x0000000000045f24                strnlen
 .text.toupper  0x0000000000045fe0       0x24 c:/devkitpro/devkita64/bin/../lib/gcc/aarch64-none-elf/8.3.0/../../../../aarch64-none-elf/lib/pic\libg.a(lib_a-toupper.o)
                0x0000000000045fe0                toupper
 *fill*         0x0000000000046004        0x4 
 .text._vsnprintf_r
                0x0000000000046008       0xe0 c:/devkitpro/devkita64/bin/../lib/gcc/aarch64-none-elf/8.3.0/../../../../aarch64-none-elf/lib/pic\libg.a(lib_a-vsnprintf.o)
                0x0000000000046008                _vsnprintf_r
 .text.vsnprintf
                0x00000000000460e8       0x50 c:/devkitpro/devkita64/bin/../lib/gcc/aarch64-none-elf/8.3.0/../../../../aarch64-none-elf/lib/pic\libg.a(lib_a-vsnprintf.o)
                0x00000000000460e8                vsnprintf
 .text.__call_exitprocs
                0x0000000000046138      0x124 c:/devkitpro/devkita64/bin/../lib/gcc/aarch64-none-elf/8.3.0/../../../../aarch64-none-elf/lib/pic\libg.a(lib_a-__call_atexit.o)
                0x0000000000046138                __call_exitprocs
 *fill*         0x000000000004625c        0x4 
 .text.__env_lock
                0x0000000000046260        0xc c:/devkitpro/devkita64/bin/../lib/gcc/aarch64-none-elf/8.3.0/../../../../aarch64-none-elf/lib/pic\libg.a(lib_a-envlock.o)
                0x0000000000046260                __env_lock
 *fill*         0x000000000004626c        0x4 
 .text.__env_unlock
                0x0000000000046270        0xc c:/devkitpro/devkita64/bin/../lib/gcc/aarch64-none-elf/8.3.0/../../../../aarch64-none-elf/lib/pic\libg.a(lib_a-envlock.o)
                0x0000000000046270                __env_unlock
 *fill*         0x000000000004627c        0x4 
 .text._malloc_trim_r
                0x0000000000046280      0x118 c:/devkitpro/devkita64/bin/../lib/gcc/aarch64-none-elf/8.3.0/../../../../aarch64-none-elf/lib/pic\libg.a(lib_a-freer.o)
                0x0000000000046280                _malloc_trim_r
 .text._free_r  0x0000000000046398      0x2f4 c:/devkitpro/devkita64/bin/../lib/gcc/aarch64-none-elf/8.3.0/../../../../aarch64-none-elf/lib/pic\libg.a(lib_a-freer.o)
                0x0000000000046398                _free_r
 *fill*         0x000000000004668c        0x4 
 .text._findenv_r
                0x0000000000046690      0x100 c:/devkitpro/devkita64/bin/../lib/gcc/aarch64-none-elf/8.3.0/../../../../aarch64-none-elf/lib/pic\libg.a(lib_a-getenv_r.o)
                0x0000000000046690                _findenv_r
 .text._getenv_r
                0x0000000000046790       0x18 c:/devkitpro/devkita64/bin/../lib/gcc/aarch64-none-elf/8.3.0/../../../../aarch64-none-elf/lib/pic\libg.a(lib_a-getenv_r.o)
                0x0000000000046790                _getenv_r
 .text._realloc_r
                0x00000000000467a8      0x56c c:/devkitpro/devkita64/bin/../lib/gcc/aarch64-none-elf/8.3.0/../../../../aarch64-none-elf/lib/pic\libg.a(lib_a-reallocr.o)
                0x00000000000467a8                _realloc_r
 .text.get_arg  0x0000000000046d14      0x76c c:/devkitpro/devkita64/bin/../lib/gcc/aarch64-none-elf/8.3.0/../../../../aarch64-none-elf/lib/pic\libg.a(lib_a-svfprintf.o)
 .text._svfprintf_r
                0x0000000000047480     0x3b38 c:/devkitpro/devkita64/bin/../lib/gcc/aarch64-none-elf/8.3.0/../../../../aarch64-none-elf/lib/pic\libg.a(lib_a-svfprintf.o)
                0x0000000000047480                _svfprintf_r
 .text._wcrtomb_r
                0x000000000004afb8       0xd0 c:/devkitpro/devkita64/bin/../lib/gcc/aarch64-none-elf/8.3.0/../../../../aarch64-none-elf/lib/pic\libg.a(lib_a-wcrtomb.o)
                0x000000000004afb8                _wcrtomb_r
 .text.wcrtomb  0x000000000004b088       0xdc c:/devkitpro/devkita64/bin/../lib/gcc/aarch64-none-elf/8.3.0/../../../../aarch64-none-elf/lib/pic\libg.a(lib_a-wcrtomb.o)
                0x000000000004b088                wcrtomb
 *fill*         0x000000000004b164        0x4 
 .text._wcsrtombs_r
                0x000000000004b168       0x10 c:/devkitpro/devkita64/bin/../lib/gcc/aarch64-none-elf/8.3.0/../../../../aarch64-none-elf/lib/pic\libg.a(lib_a-wcsrtombs.o)
                0x000000000004b168                _wcsrtombs_r
 .text.wcsrtombs
                0x000000000004b178       0x44 c:/devkitpro/devkita64/bin/../lib/gcc/aarch64-none-elf/8.3.0/../../../../aarch64-none-elf/lib/pic\libg.a(lib_a-wcsrtombs.o)
                0x000000000004b178                wcsrtombs
 *fill*         0x000000000004b1bc        0x4 
 .text.quorem   0x000000000004b1c0      0x1a8 c:/devkitpro/devkita64/bin/../lib/gcc/aarch64-none-elf/8.3.0/../../../../aarch64-none-elf/lib/pic\libg.a(lib_a-dtoa.o)
 .text._dtoa_r  0x000000000004b368     0x10dc c:/devkitpro/devkita64/bin/../lib/gcc/aarch64-none-elf/8.3.0/../../../../aarch64-none-elf/lib/pic\libg.a(lib_a-dtoa.o)
                0x000000000004b368                _dtoa_r
 *fill*         0x000000000004c444        0x4 
 .text.__localeconv_l
                0x000000000004c448        0x8 c:/devkitpro/devkita64/bin/../lib/gcc/aarch64-none-elf/8.3.0/../../../../aarch64-none-elf/lib/pic\libg.a(lib_a-localeconv.o)
                0x000000000004c448                __localeconv_l
 .text._localeconv_r
                0x000000000004c450       0x28 c:/devkitpro/devkita64/bin/../lib/gcc/aarch64-none-elf/8.3.0/../../../../aarch64-none-elf/lib/pic\libg.a(lib_a-localeconv.o)
                0x000000000004c450                _localeconv_r
 .text.localeconv
                0x000000000004c478       0x28 c:/devkitpro/devkita64/bin/../lib/gcc/aarch64-none-elf/8.3.0/../../../../aarch64-none-elf/lib/pic\libg.a(lib_a-localeconv.o)
                0x000000000004c478                localeconv
 .text.currentlocale
                0x000000000004c4a0       0xb8 c:/devkitpro/devkita64/bin/../lib/gcc/aarch64-none-elf/8.3.0/../../../../aarch64-none-elf/lib/pic\libg.a(lib_a-locale.o)
 .text.__loadlocale
                0x000000000004c558      0x7a8 c:/devkitpro/devkita64/bin/../lib/gcc/aarch64-none-elf/8.3.0/../../../../aarch64-none-elf/lib/pic\libg.a(lib_a-locale.o)
                0x000000000004c558                __loadlocale
 .text.__get_locale_env
                0x000000000004cd00       0x88 c:/devkitpro/devkita64/bin/../lib/gcc/aarch64-none-elf/8.3.0/../../../../aarch64-none-elf/lib/pic\libg.a(lib_a-locale.o)
                0x000000000004cd00                __get_locale_env
 .text._setlocale_r
                0x000000000004cd88      0x3a4 c:/devkitpro/devkita64/bin/../lib/gcc/aarch64-none-elf/8.3.0/../../../../aarch64-none-elf/lib/pic\libg.a(lib_a-locale.o)
                0x000000000004cd88                _setlocale_r
 *fill*         0x000000000004d12c        0x4 
 .text.__locale_mb_cur_max
                0x000000000004d130       0x2c c:/devkitpro/devkita64/bin/../lib/gcc/aarch64-none-elf/8.3.0/../../../../aarch64-none-elf/lib/pic\libg.a(lib_a-locale.o)
                0x000000000004d130                __locale_mb_cur_max
 *fill*         0x000000000004d15c        0x4 
 .text.setlocale
                0x000000000004d160       0x30 c:/devkitpro/devkita64/bin/../lib/gcc/aarch64-none-elf/8.3.0/../../../../aarch64-none-elf/lib/pic\libg.a(lib_a-locale.o)
                0x000000000004d160                setlocale
 .text._mbtowc_r
                0x000000000004d190       0x4c c:/devkitpro/devkita64/bin/../lib/gcc/aarch64-none-elf/8.3.0/../../../../aarch64-none-elf/lib/pic\libg.a(lib_a-mbtowc_r.o)
                0x000000000004d190                _mbtowc_r
 *fill*         0x000000000004d1dc        0x4 
 .text.__ascii_mbtowc
                0x000000000004d1e0       0x48 c:/devkitpro/devkita64/bin/../lib/gcc/aarch64-none-elf/8.3.0/../../../../aarch64-none-elf/lib/pic\libg.a(lib_a-mbtowc_r.o)
                0x000000000004d1e0                __ascii_mbtowc
 .text.__utf8_mbtowc
                0x000000000004d228      0x2c8 c:/devkitpro/devkita64/bin/../lib/gcc/aarch64-none-elf/8.3.0/../../../../aarch64-none-elf/lib/pic\libg.a(lib_a-mbtowc_r.o)
                0x000000000004d228                __utf8_mbtowc
 .text.__sjis_mbtowc
                0x000000000004d4f0       0xcc c:/devkitpro/devkita64/bin/../lib/gcc/aarch64-none-elf/8.3.0/../../../../aarch64-none-elf/lib/pic\libg.a(lib_a-mbtowc_r.o)
                0x000000000004d4f0                __sjis_mbtowc
 *fill*         0x000000000004d5bc        0x4 
 .text.__eucjp_mbtowc
                0x000000000004d5c0      0x120 c:/devkitpro/devkita64/bin/../lib/gcc/aarch64-none-elf/8.3.0/../../../../aarch64-none-elf/lib/pic\libg.a(lib_a-mbtowc_r.o)
                0x000000000004d5c0                __eucjp_mbtowc
 .text.__jis_mbtowc
                0x000000000004d6e0      0x1d4 c:/devkitpro/devkita64/bin/../lib/gcc/aarch64-none-elf/8.3.0/../../../../aarch64-none-elf/lib/pic\libg.a(lib_a-mbtowc_r.o)
                0x000000000004d6e0                __jis_mbtowc
 .text          0x000000000004d8b4       0xd8 c:/devkitpro/devkita64/bin/../lib/gcc/aarch64-none-elf/8.3.0/../../../../aarch64-none-elf/lib/pic\libg.a(lib_a-memchr.o)
                0x000000000004d8b4                memchr
 *fill*         0x000000000004d98c       0x34 
 .text          0x000000000004d9c0       0xac c:/devkitpro/devkita64/bin/../lib/gcc/aarch64-none-elf/8.3.0/../../../../aarch64-none-elf/lib/pic\libg.a(lib_a-memmove.o)
                0x000000000004d9c0                memmove
 *fill*         0x000000000004da6c        0x4 
 .text._Balloc  0x000000000004da70       0x90 c:/devkitpro/devkita64/bin/../lib/gcc/aarch64-none-elf/8.3.0/../../../../aarch64-none-elf/lib/pic\libg.a(lib_a-mprec.o)
                0x000000000004da70                _Balloc
 .text._Bfree   0x000000000004db00       0x1c c:/devkitpro/devkita64/bin/../lib/gcc/aarch64-none-elf/8.3.0/../../../../aarch64-none-elf/lib/pic\libg.a(lib_a-mprec.o)
                0x000000000004db00                _Bfree
 *fill*         0x000000000004db1c        0x4 
 .text.__multadd
                0x000000000004db20       0xe8 c:/devkitpro/devkita64/bin/../lib/gcc/aarch64-none-elf/8.3.0/../../../../aarch64-none-elf/lib/pic\libg.a(lib_a-mprec.o)
                0x000000000004db20                __multadd
 .text.__s2b    0x000000000004dc08      0x120 c:/devkitpro/devkita64/bin/../lib/gcc/aarch64-none-elf/8.3.0/../../../../aarch64-none-elf/lib/pic\libg.a(lib_a-mprec.o)
                0x000000000004dc08                __s2b
 .text.__hi0bits
                0x000000000004dd28       0x5c c:/devkitpro/devkita64/bin/../lib/gcc/aarch64-none-elf/8.3.0/../../../../aarch64-none-elf/lib/pic\libg.a(lib_a-mprec.o)
                0x000000000004dd28                __hi0bits
 *fill*         0x000000000004dd84        0x4 
 .text.__lo0bits
                0x000000000004dd88       0xa0 c:/devkitpro/devkita64/bin/../lib/gcc/aarch64-none-elf/8.3.0/../../../../aarch64-none-elf/lib/pic\libg.a(lib_a-mprec.o)
                0x000000000004dd88                __lo0bits
 .text.__i2b    0x000000000004de28       0x2c c:/devkitpro/devkita64/bin/../lib/gcc/aarch64-none-elf/8.3.0/../../../../aarch64-none-elf/lib/pic\libg.a(lib_a-mprec.o)
                0x000000000004de28                __i2b
 *fill*         0x000000000004de54        0x4 
 .text.__multiply
                0x000000000004de58      0x1c8 c:/devkitpro/devkita64/bin/../lib/gcc/aarch64-none-elf/8.3.0/../../../../aarch64-none-elf/lib/pic\libg.a(lib_a-mprec.o)
                0x000000000004de58                __multiply
 .text.__pow5mult
                0x000000000004e020      0x104 c:/devkitpro/devkita64/bin/../lib/gcc/aarch64-none-elf/8.3.0/../../../../aarch64-none-elf/lib/pic\libg.a(lib_a-mprec.o)
                0x000000000004e020                __pow5mult
 *fill*         0x000000000004e124        0x4 
 .text.__lshift
                0x000000000004e128      0x134 c:/devkitpro/devkita64/bin/../lib/gcc/aarch64-none-elf/8.3.0/../../../../aarch64-none-elf/lib/pic\libg.a(lib_a-mprec.o)
                0x000000000004e128                __lshift
 *fill*         0x000000000004e25c        0x4 
 .text.__mcmp   0x000000000004e260       0x50 c:/devkitpro/devkita64/bin/../lib/gcc/aarch64-none-elf/8.3.0/../../../../aarch64-none-elf/lib/pic\libg.a(lib_a-mprec.o)
                0x000000000004e260                __mcmp
 .text.__mdiff  0x000000000004e2b0      0x14c c:/devkitpro/devkita64/bin/../lib/gcc/aarch64-none-elf/8.3.0/../../../../aarch64-none-elf/lib/pic\libg.a(lib_a-mprec.o)
                0x000000000004e2b0                __mdiff
 *fill*         0x000000000004e3fc        0x4 
 .text.__ulp    0x000000000004e400       0x68 c:/devkitpro/devkita64/bin/../lib/gcc/aarch64-none-elf/8.3.0/../../../../aarch64-none-elf/lib/pic\libg.a(lib_a-mprec.o)
                0x000000000004e400                __ulp
 .text.__b2d    0x000000000004e468      0x150 c:/devkitpro/devkita64/bin/../lib/gcc/aarch64-none-elf/8.3.0/../../../../aarch64-none-elf/lib/pic\libg.a(lib_a-mprec.o)
                0x000000000004e468                __b2d
 .text.__d2b    0x000000000004e5b8      0x138 c:/devkitpro/devkita64/bin/../lib/gcc/aarch64-none-elf/8.3.0/../../../../aarch64-none-elf/lib/pic\libg.a(lib_a-mprec.o)
                0x000000000004e5b8                __d2b
 .text.__ratio  0x000000000004e6f0       0xa0 c:/devkitpro/devkita64/bin/../lib/gcc/aarch64-none-elf/8.3.0/../../../../aarch64-none-elf/lib/pic\libg.a(lib_a-mprec.o)
                0x000000000004e6f0                __ratio
 .text._mprec_log10
                0x000000000004e790       0x30 c:/devkitpro/devkita64/bin/../lib/gcc/aarch64-none-elf/8.3.0/../../../../aarch64-none-elf/lib/pic\libg.a(lib_a-mprec.o)
                0x000000000004e790                _mprec_log10
 .text.__copybits
                0x000000000004e7c0       0x68 c:/devkitpro/devkita64/bin/../lib/gcc/aarch64-none-elf/8.3.0/../../../../aarch64-none-elf/lib/pic\libg.a(lib_a-mprec.o)
                0x000000000004e7c0                __copybits
 .text.__any_on
                0x000000000004e828       0x84 c:/devkitpro/devkita64/bin/../lib/gcc/aarch64-none-elf/8.3.0/../../../../aarch64-none-elf/lib/pic\libg.a(lib_a-mprec.o)
                0x000000000004e828                __any_on
 *fill*         0x000000000004e8ac        0x4 
 .text.frexp    0x000000000004e8b0       0x7c c:/devkitpro/devkita64/bin/../lib/gcc/aarch64-none-elf/8.3.0/../../../../aarch64-none-elf/lib/pic\libg.a(lib_a-s_frexp.o)
                0x000000000004e8b0                frexp
 *fill*         0x000000000004e92c        0x4 
 .text.strcasecmp
                0x000000000004e930       0x78 c:/devkitpro/devkita64/bin/../lib/gcc/aarch64-none-elf/8.3.0/../../../../aarch64-none-elf/lib/pic\libg.a(lib_a-strcasecmp.o)
                0x000000000004e930                strcasecmp
 .text.strcat   0x000000000004e9a8       0x74 c:/devkitpro/devkita64/bin/../lib/gcc/aarch64-none-elf/8.3.0/../../../../aarch64-none-elf/lib/pic\libg.a(lib_a-strcat.o)
                0x000000000004e9a8                strcat
 *fill*         0x000000000004ea1c        0x4 
 .text.strlcpy  0x000000000004ea20       0x54 c:/devkitpro/devkita64/bin/../lib/gcc/aarch64-none-elf/8.3.0/../../../../aarch64-none-elf/lib/pic\libg.a(lib_a-strlcpy.o)
                0x000000000004ea20                strlcpy
 *fill*         0x000000000004ea74        0x4 
 .text.strncasecmp
                0x000000000004ea78       0x8c c:/devkitpro/devkita64/bin/../lib/gcc/aarch64-none-elf/8.3.0/../../../../aarch64-none-elf/lib/pic\libg.a(lib_a-strncasecmp.o)
                0x000000000004ea78                strncasecmp
 *fill*         0x000000000004eb04        0x4 
 .text._strtol_l.isra.0
                0x000000000004eb08      0x1a0 c:/devkitpro/devkita64/bin/../lib/gcc/aarch64-none-elf/8.3.0/../../../../aarch64-none-elf/lib/pic\libg.a(lib_a-strtol.o)
 .text._strtol_r
                0x000000000004eca8       0x34 c:/devkitpro/devkita64/bin/../lib/gcc/aarch64-none-elf/8.3.0/../../../../aarch64-none-elf/lib/pic\libg.a(lib_a-strtol.o)
                0x000000000004eca8                _strtol_r
 *fill*         0x000000000004ecdc        0x4 
 .text.strtol_l
                0x000000000004ece0       0x3c c:/devkitpro/devkita64/bin/../lib/gcc/aarch64-none-elf/8.3.0/../../../../aarch64-none-elf/lib/pic\libg.a(lib_a-strtol.o)
                0x000000000004ece0                strtol_l
 *fill*         0x000000000004ed1c        0x4 
 .text.strtol   0x000000000004ed20       0x48 c:/devkitpro/devkita64/bin/../lib/gcc/aarch64-none-elf/8.3.0/../../../../aarch64-none-elf/lib/pic\libg.a(lib_a-strtol.o)
                0x000000000004ed20                strtol
 .text.get_arg  0x000000000004ed68      0x76c c:/devkitpro/devkita64/bin/../lib/gcc/aarch64-none-elf/8.3.0/../../../../aarch64-none-elf/lib/pic\libg.a(lib_a-svfiprintf.o)
 .text.__ssprint_r
                0x000000000004f4d4      0x1c0 c:/devkitpro/devkita64/bin/../lib/gcc/aarch64-none-elf/8.3.0/../../../../aarch64-none-elf/lib/pic\libg.a(lib_a-svfiprintf.o)
                0x000000000004f4d4                __ssprint_r
 .text._svfiprintf_r
                0x000000000004f694     0x28ec c:/devkitpro/devkita64/bin/../lib/gcc/aarch64-none-elf/8.3.0/../../../../aarch64-none-elf/lib/pic\libg.a(lib_a-svfiprintf.o)
                0x000000000004f694                _svfiprintf_r
 .text._wcsnrtombs_l
                0x0000000000051f80      0x1dc c:/devkitpro/devkita64/bin/../lib/gcc/aarch64-none-elf/8.3.0/../../../../aarch64-none-elf/lib/pic\libg.a(lib_a-wcsnrtombs.o)
                0x0000000000051f80                _wcsnrtombs_l
 *fill*         0x000000000005215c        0x4 
 .text._wcsnrtombs_r
                0x0000000000052160       0x54 c:/devkitpro/devkita64/bin/../lib/gcc/aarch64-none-elf/8.3.0/../../../../aarch64-none-elf/lib/pic\libg.a(lib_a-wcsnrtombs.o)
                0x0000000000052160                _wcsnrtombs_r
 *fill*         0x00000000000521b4        0x4 
 .text.wcsnrtombs
                0x00000000000521b8       0x64 c:/devkitpro/devkita64/bin/../lib/gcc/aarch64-none-elf/8.3.0/../../../../aarch64-none-elf/lib/pic\libg.a(lib_a-wcsnrtombs.o)
                0x00000000000521b8                wcsnrtombs
 *fill*         0x000000000005221c        0x4 
 .text._wctomb_r
                0x0000000000052220       0x54 c:/devkitpro/devkita64/bin/../lib/gcc/aarch64-none-elf/8.3.0/../../../../aarch64-none-elf/lib/pic\libg.a(lib_a-wctomb_r.o)
                0x0000000000052220                _wctomb_r
 *fill*         0x0000000000052274        0x4 
 .text.__ascii_wctomb
                0x0000000000052278       0x34 c:/devkitpro/devkita64/bin/../lib/gcc/aarch64-none-elf/8.3.0/../../../../aarch64-none-elf/lib/pic\libg.a(lib_a-wctomb_r.o)
                0x0000000000052278                __ascii_wctomb
 *fill*         0x00000000000522ac        0x4 
 .text.__utf8_wctomb
                0x00000000000522b0       0xe4 c:/devkitpro/devkita64/bin/../lib/gcc/aarch64-none-elf/8.3.0/../../../../aarch64-none-elf/lib/pic\libg.a(lib_a-wctomb_r.o)
                0x00000000000522b0                __utf8_wctomb
 *fill*         0x0000000000052394        0x4 
 .text.__sjis_wctomb
                0x0000000000052398       0x84 c:/devkitpro/devkita64/bin/../lib/gcc/aarch64-none-elf/8.3.0/../../../../aarch64-none-elf/lib/pic\libg.a(lib_a-wctomb_r.o)
                0x0000000000052398                __sjis_wctomb
 *fill*         0x000000000005241c        0x4 
 .text.__eucjp_wctomb
                0x0000000000052420       0xa8 c:/devkitpro/devkita64/bin/../lib/gcc/aarch64-none-elf/8.3.0/../../../../aarch64-none-elf/lib/pic\libg.a(lib_a-wctomb_r.o)
                0x0000000000052420                __eucjp_wctomb
 .text.__jis_wctomb
                0x00000000000524c8       0xbc c:/devkitpro/devkita64/bin/../lib/gcc/aarch64-none-elf/8.3.0/../../../../aarch64-none-elf/lib/pic\libg.a(lib_a-wctomb_r.o)
                0x00000000000524c8                __jis_wctomb
 *fill*         0x0000000000052584        0x4 
 .text._calloc_r
                0x0000000000052588       0x94 c:/devkitpro/devkita64/bin/../lib/gcc/aarch64-none-elf/8.3.0/../../../../aarch64-none-elf/lib/pic\libg.a(lib_a-callocr.o)
                0x0000000000052588                _calloc_r
 *fill*         0x000000000005261c        0x4 
 .text.null_write
                0x0000000000052620        0x8 c:/devkitpro/devkita64/bin/../lib/gcc/aarch64-none-elf/8.3.0/../../../../aarch64-none-elf/lib/pic\libsysbase.a(iosupport.o)
 .text.setDefaultDevice
                0x0000000000052628       0x18 c:/devkitpro/devkita64/bin/../lib/gcc/aarch64-none-elf/8.3.0/../../../../aarch64-none-elf/lib/pic\libsysbase.a(iosupport.o)
                0x0000000000052628                setDefaultDevice
 .text.FindDevice
                0x0000000000052640      0x108 c:/devkitpro/devkita64/bin/../lib/gcc/aarch64-none-elf/8.3.0/../../../../aarch64-none-elf/lib/pic\libsysbase.a(iosupport.o)
                0x0000000000052640                FindDevice
 .text.RemoveDevice
                0x0000000000052748       0x34 c:/devkitpro/devkita64/bin/../lib/gcc/aarch64-none-elf/8.3.0/../../../../aarch64-none-elf/lib/pic\libsysbase.a(iosupport.o)
                0x0000000000052748                RemoveDevice
 *fill*         0x000000000005277c        0x4 
 .text.AddDevice
                0x0000000000052780       0xd8 c:/devkitpro/devkita64/bin/../lib/gcc/aarch64-none-elf/8.3.0/../../../../aarch64-none-elf/lib/pic\libsysbase.a(iosupport.o)
                0x0000000000052780                AddDevice
 .text.GetDeviceOpTab
                0x0000000000052858       0x34 c:/devkitpro/devkita64/bin/../lib/gcc/aarch64-none-elf/8.3.0/../../../../aarch64-none-elf/lib/pic\libsysbase.a(iosupport.o)
                0x0000000000052858                GetDeviceOpTab
 *fill*         0x000000000005288c        0x4 
 .text._sbrk_r  0x0000000000052890       0x78 c:/devkitpro/devkita64/bin/../lib/gcc/aarch64-none-elf/8.3.0/../../../../aarch64-none-elf/lib/pic\libsysbase.a(sbrk.o)
                0x0000000000052890                _sbrk_r
 .text._exit    0x0000000000052908       0x20 c:/devkitpro/devkita64/bin/../lib/gcc/aarch64-none-elf/8.3.0/../../../../aarch64-none-elf/lib/pic\libsysbase.a(_exit.o)
                0x0000000000052908                _exit
 .text._concatenate_path
                0x0000000000052928      0x234 c:/devkitpro/devkita64/bin/../lib/gcc/aarch64-none-elf/8.3.0/../../../../aarch64-none-elf/lib/pic\libsysbase.a(chdir.o)
                0x0000000000052928                _concatenate_path
 *fill*         0x0000000000052b5c        0x4 
 .text.chdir    0x0000000000052b60      0x178 c:/devkitpro/devkita64/bin/../lib/gcc/aarch64-none-elf/8.3.0/../../../../aarch64-none-elf/lib/pic\libsysbase.a(chdir.o)
                0x0000000000052b60                chdir
 .text.getcwd   0x0000000000052cd8       0xb8 c:/devkitpro/devkita64/bin/../lib/gcc/aarch64-none-elf/8.3.0/../../../../aarch64-none-elf/lib/pic\libsysbase.a(chdir.o)
                0x0000000000052cd8                getcwd
 .text.timespec2nsec
                0x0000000000052d90       0x14 c:/devkitpro/devkita64/bin/../lib/gcc/aarch64-none-elf/8.3.0/../../../../aarch64-none-elf/lib/pic\libsysbase.a(locks.o)
                0x0000000000052d90                timespec2nsec
 *fill*         0x0000000000052da4        0x4 
 .text.abstimespec2nsec
                0x0000000000052da8       0xc4 c:/devkitpro/devkita64/bin/../lib/gcc/aarch64-none-elf/8.3.0/../../../../aarch64-none-elf/lib/pic\libsysbase.a(locks.o)
                0x0000000000052da8                abstimespec2nsec
 *fill*         0x0000000000052e6c        0x4 
 .text.__libc_lock_init
                0x0000000000052e70        0x8 c:/devkitpro/devkita64/bin/../lib/gcc/aarch64-none-elf/8.3.0/../../../../aarch64-none-elf/lib/pic\libsysbase.a(locks.o)
                0x0000000000052e70                __libc_lock_init
 .text.__libc_lock_acquire
                0x0000000000052e78       0x14 c:/devkitpro/devkita64/bin/../lib/gcc/aarch64-none-elf/8.3.0/../../../../aarch64-none-elf/lib/pic\libsysbase.a(locks.o)
                0x0000000000052e78                __libc_lock_acquire
 *fill*         0x0000000000052e8c        0x4 
 .text.__libc_lock_try_acquire
                0x0000000000052e90       0x18 c:/devkitpro/devkita64/bin/../lib/gcc/aarch64-none-elf/8.3.0/../../../../aarch64-none-elf/lib/pic\libsysbase.a(locks.o)
                0x0000000000052e90                __libc_lock_try_acquire
 .text.__libc_lock_release
                0x0000000000052ea8       0x14 c:/devkitpro/devkita64/bin/../lib/gcc/aarch64-none-elf/8.3.0/../../../../aarch64-none-elf/lib/pic\libsysbase.a(locks.o)
                0x0000000000052ea8                __libc_lock_release
 *fill*         0x0000000000052ebc        0x4 
 .text.__libc_lock_close
                0x0000000000052ec0        0x4 c:/devkitpro/devkita64/bin/../lib/gcc/aarch64-none-elf/8.3.0/../../../../aarch64-none-elf/lib/pic\libsysbase.a(locks.o)
                0x0000000000052ec0                __libc_lock_close
 *fill*         0x0000000000052ec4        0x4 
 .text.__libc_lock_init_recursive
                0x0000000000052ec8        0xc c:/devkitpro/devkita64/bin/../lib/gcc/aarch64-none-elf/8.3.0/../../../../aarch64-none-elf/lib/pic\libsysbase.a(locks.o)
                0x0000000000052ec8                __libc_lock_init_recursive
 *fill*         0x0000000000052ed4        0x4 
 .text.__libc_lock_acquire_recursive
                0x0000000000052ed8       0x14 c:/devkitpro/devkita64/bin/../lib/gcc/aarch64-none-elf/8.3.0/../../../../aarch64-none-elf/lib/pic\libsysbase.a(locks.o)
                0x0000000000052ed8                __libc_lock_acquire_recursive
 *fill*         0x0000000000052eec        0x4 
 .text.__libc_lock_try_acquire_recursive
                0x0000000000052ef0       0x18 c:/devkitpro/devkita64/bin/../lib/gcc/aarch64-none-elf/8.3.0/../../../../aarch64-none-elf/lib/pic\libsysbase.a(locks.o)
                0x0000000000052ef0                __libc_lock_try_acquire_recursive
 .text.__libc_lock_release_recursive
                0x0000000000052f08       0x14 c:/devkitpro/devkita64/bin/../lib/gcc/aarch64-none-elf/8.3.0/../../../../aarch64-none-elf/lib/pic\libsysbase.a(locks.o)
                0x0000000000052f08                __libc_lock_release_recursive
 *fill*         0x0000000000052f1c        0x4 
 .text.__libc_lock_close_recursive
                0x0000000000052f20        0x4 c:/devkitpro/devkita64/bin/../lib/gcc/aarch64-none-elf/8.3.0/../../../../aarch64-none-elf/lib/pic\libsysbase.a(locks.o)
                0x0000000000052f20                __libc_lock_close_recursive
 *fill*         0x0000000000052f24        0x4 
 .text.__libc_cond_init
                0x0000000000052f28        0xc c:/devkitpro/devkita64/bin/../lib/gcc/aarch64-none-elf/8.3.0/../../../../aarch64-none-elf/lib/pic\libsysbase.a(locks.o)
                0x0000000000052f28                __libc_cond_init
 *fill*         0x0000000000052f34        0x4 
 .text.__libc_cond_signal
                0x0000000000052f38       0x18 c:/devkitpro/devkita64/bin/../lib/gcc/aarch64-none-elf/8.3.0/../../../../aarch64-none-elf/lib/pic\libsysbase.a(locks.o)
                0x0000000000052f38                __libc_cond_signal
 .text.__libc_cond_broadcast
                0x0000000000052f50       0x18 c:/devkitpro/devkita64/bin/../lib/gcc/aarch64-none-elf/8.3.0/../../../../aarch64-none-elf/lib/pic\libsysbase.a(locks.o)
                0x0000000000052f50                __libc_cond_broadcast
 .text.__libc_cond_wait
                0x0000000000052f68       0x18 c:/devkitpro/devkita64/bin/../lib/gcc/aarch64-none-elf/8.3.0/../../../../aarch64-none-elf/lib/pic\libsysbase.a(locks.o)
                0x0000000000052f68                __libc_cond_wait
 .text.__libc_cond_wait_recursive
                0x0000000000052f80       0x18 c:/devkitpro/devkita64/bin/../lib/gcc/aarch64-none-elf/8.3.0/../../../../aarch64-none-elf/lib/pic\libsysbase.a(locks.o)
                0x0000000000052f80                __libc_cond_wait_recursive
 .text.__getreent
                0x0000000000052f98       0x20 c:/devkitpro/devkita64/bin/../lib/gcc/aarch64-none-elf/8.3.0/../../../../aarch64-none-elf/lib/pic\libsysbase.a(getreent.o)
                0x0000000000052f98                __getreent
 .text.clock_gettime
                0x0000000000052fb8       0x30 c:/devkitpro/devkita64/bin/../lib/gcc/aarch64-none-elf/8.3.0/../../../../aarch64-none-elf/lib/pic\libsysbase.a(clocks.o)
                0x0000000000052fb8                clock_gettime
 .text.clock_settime
                0x0000000000052fe8       0x30 c:/devkitpro/devkita64/bin/../lib/gcc/aarch64-none-elf/8.3.0/../../../../aarch64-none-elf/lib/pic\libsysbase.a(clocks.o)
                0x0000000000052fe8                clock_settime
 .text.clock_getres
                0x0000000000053018       0x30 c:/devkitpro/devkita64/bin/../lib/gcc/aarch64-none-elf/8.3.0/../../../../aarch64-none-elf/lib/pic\libsysbase.a(clocks.o)
                0x0000000000053018                clock_getres
 .text.__trunctfdf2
                0x0000000000053048      0x348 c:/devkitpro/devkita64/bin/../lib/gcc/aarch64-none-elf/8.3.0/pic\libgcc.a(trunctfdf2.o)
                0x0000000000053048                __trunctfdf2
 .text.__sfp_handle_exceptions
                0x0000000000053390       0x70 c:/devkitpro/devkita64/bin/../lib/gcc/aarch64-none-elf/8.3.0/pic\libgcc.a(sfp-exceptions.o)
                0x0000000000053390                __sfp_handle_exceptions
 .text          0x0000000000053400      0x100 c:/devkitpro/devkita64/bin/../lib/gcc/aarch64-none-elf/8.3.0/../../../../aarch64-none-elf/lib/pic\libg.a(lib_a-strrchr.o)
                0x0000000000053400                strrchr
                0x0000000000053500                . = ALIGN (0x8)

.fini           0x0000000000053500       0x38
 *(.fini)
 .fini          0x0000000000053500       0x18 c:/devkitpro/devkita64/bin/../lib/gcc/aarch64-none-elf/8.3.0/pic/crti.o
                0x0000000000053500                _fini
 .fini          0x0000000000053518       0x1c c:/devkitpro/devkita64/bin/../lib/gcc/aarch64-none-elf/8.3.0/pic/crtn.o
                0x0000000000053538                . = ALIGN (0x8)
 *fill*         0x0000000000053534        0x4 
                0x0000000000054000                . = ALIGN (0x1000)

.rodata         0x0000000000054000     0x2920
 *(.rodata .rodata.* .gnu.linkonce.r.*)
 .rodata        0x0000000000054000      0x400 main.o
 .rodata.cst4   0x0000000000054400        0x8 main.o
 .rodata.cst8   0x0000000000054408        0x8 main.o
 .rodata.str1.8
                0x0000000000054410      0xf33 main.o
 *fill*         0x0000000000055343        0x5 
 .rodata        0x0000000000055348      0x400 acmd_wrapper.o
 .rodata.str1.8
                0x0000000000055748        0x5 acmd_wrapper.o
 *fill*         0x000000000005574d        0x3 
 .rodata        0x0000000000055750        0x5 saltysd_helper.o
 *fill*         0x0000000000055755        0x3 
 .rodata.str1.8
                0x0000000000055758        0x5 saltysd_helper.o
 *fill*         0x000000000005575d        0x3 
 .rodata        0x0000000000055760       0x60 lua_bind_hash.o
 .rodata        0x00000000000557c0      0x53c raygun_printer.o
 *fill*         0x0000000000055cfc        0x4 
 .rodata.str1.8
                0x0000000000055d00      0x147 raygun_printer.o
                                        0x14f (size before relaxing)
 *fill*         0x0000000000055e47        0x1 
 .rodata._fsdevUnmountDeviceStruct.part.4.str1.8
                0x0000000000055e48        0x2 C:/Users/RNG/Desktop/Stuff/Smash-Stuff/SMASH-ULTIMATE-MODS-BABY/50xx-the-mod/acmd-edits/code-mod-framework/lib/libnx_min/nx/lib\libnx_min.a(fs_dev.o)
 *fill*         0x0000000000055e4a        0x6 
 .rodata.error_table
                0x0000000000055e50       0x20 C:/Users/RNG/Desktop/Stuff/Smash-Stuff/SMASH-ULTIMATE-MODS-BABY/50xx-the-mod/acmd-edits/code-mod-framework/lib/libnx_min/nx/lib\libnx_min.a(fs_dev.o)
 .rodata.fsdevMountSdmc.str1.8
                0x0000000000055e70        0x5 C:/Users/RNG/Desktop/Stuff/Smash-Stuff/SMASH-ULTIMATE-MODS-BABY/50xx-the-mod/acmd-edits/code-mod-framework/lib/libnx_min/nx/lib\libnx_min.a(fs_dev.o)
 *fill*         0x0000000000055e75        0x3 
 .rodata.fsInitialize.str1.8
                0x0000000000055e78        0x8 C:/Users/RNG/Desktop/Stuff/Smash-Stuff/SMASH-ULTIMATE-MODS-BABY/50xx-the-mod/acmd-edits/code-mod-framework/lib/libnx_min/nx/lib\libnx_min.a(fs.o)
 .rodata.setInitialize.str1.8
                0x0000000000055e80        0x4 C:/Users/RNG/Desktop/Stuff/Smash-Stuff/SMASH-ULTIMATE-MODS-BABY/50xx-the-mod/acmd-edits/code-mod-framework/lib/libnx_min/nx/lib\libnx_min.a(set.o)
 *fill*         0x0000000000055e84        0x4 
 .rodata.setsysInitialize.str1.8
                0x0000000000055e88        0x8 C:/Users/RNG/Desktop/Stuff/Smash-Stuff/SMASH-ULTIMATE-MODS-BABY/50xx-the-mod/acmd-edits/code-mod-framework/lib/libnx_min/nx/lib\libnx_min.a(set.o)
 .rodata._fatalImpl.str1.8
                0x0000000000055e90        0x8 C:/Users/RNG/Desktop/Stuff/Smash-Stuff/SMASH-ULTIMATE-MODS-BABY/50xx-the-mod/acmd-edits/code-mod-framework/lib/libnx_min/nx/lib\libnx_min.a(fatal.o)
 .rodata.smInitialize.str1.8
                0x0000000000055e98        0x4 C:/Users/RNG/Desktop/Stuff/Smash-Stuff/SMASH-ULTIMATE-MODS-BABY/50xx-the-mod/acmd-edits/code-mod-framework/lib/libnx_min/nx/lib\libnx_min.a(sm.o)
                                          0x9 (size before relaxing)
 *fill*         0x0000000000055e9c        0x4 
 .rodata        0x0000000000055ea0       0x24 C:/Users/RNG/Desktop/Stuff/Smash-Stuff/SMASH-ULTIMATE-MODS-BABY/50xx-the-mod/acmd-edits/code-mod-framework/lib/libnx_min/nx/lib\libnx_min.a(hid.o)
 *fill*         0x0000000000055ec4        0x4 
 .rodata.hidInitialize.str1.8
                0x0000000000055ec8        0x4 C:/Users/RNG/Desktop/Stuff/Smash-Stuff/SMASH-ULTIMATE-MODS-BABY/50xx-the-mod/acmd-edits/code-mod-framework/lib/libnx_min/nx/lib\libnx_min.a(hid.o)
 *fill*         0x0000000000055ecc        0x4 
 .rodata.timeInitialize.str1.8
                0x0000000000055ed0        0xf C:/Users/RNG/Desktop/Stuff/Smash-Stuff/SMASH-ULTIMATE-MODS-BABY/50xx-the-mod/acmd-edits/code-mod-framework/lib/libnx_min/nx/lib\libnx_min.a(time.o)
 *fill*         0x0000000000055edf        0x1 
 .rodata.CSWTCH.93
                0x0000000000055ee0       0x14 C:/Users/RNG/Desktop/Stuff/Smash-Stuff/SMASH-ULTIMATE-MODS-BABY/50xx-the-mod/acmd-edits/code-mod-framework/lib/libnx_min/nx/lib\libnx_min.a(applet.o)
 *fill*         0x0000000000055ef4        0x4 
 .rodata.appletInitialize.str1.8
                0x0000000000055ef8       0x19 C:/Users/RNG/Desktop/Stuff/Smash-Stuff/SMASH-ULTIMATE-MODS-BABY/50xx-the-mod/acmd-edits/code-mod-framework/lib/libnx_min/nx/lib\libnx_min.a(applet.o)
 *fill*         0x0000000000055f11        0x7 
 .rodata.__libnx_init_time.str1.8
                0x0000000000055f18        0x3 C:/Users/RNG/Desktop/Stuff/Smash-Stuff/SMASH-ULTIMATE-MODS-BABY/50xx-the-mod/acmd-edits/code-mod-framework/lib/libnx_min/nx/lib\libnx_min.a(newlib.o)
 *fill*         0x0000000000055f1b        0x5 
 .rodata.apmInitialize.str1.8
                0x0000000000055f20        0x4 C:/Users/RNG/Desktop/Stuff/Smash-Stuff/SMASH-ULTIMATE-MODS-BABY/50xx-the-mod/acmd-edits/code-mod-framework/lib/libnx_min/nx/lib\libnx_min.a(apm.o)
 *fill*         0x0000000000055f24        0x4 
 .rodata._ctype_
                0x0000000000055f28      0x101 c:/devkitpro/devkita64/bin/../lib/gcc/aarch64-none-elf/8.3.0/../../../../aarch64-none-elf/lib/pic\libg.a(lib_a-ctype_.o)
                0x0000000000055f28                _ctype_
 *fill*         0x0000000000056029        0x3 
 .rodata.get_arg
                0x000000000005602c       0x92 c:/devkitpro/devkita64/bin/../lib/gcc/aarch64-none-elf/8.3.0/../../../../aarch64-none-elf/lib/pic\libg.a(lib_a-svfprintf.o)
 *fill*         0x00000000000560be        0x2 
 .rodata._svfprintf_r
                0x00000000000560c0       0xb6 c:/devkitpro/devkita64/bin/../lib/gcc/aarch64-none-elf/8.3.0/../../../../aarch64-none-elf/lib/pic\libg.a(lib_a-svfprintf.o)
 .rodata._svfprintf_r.str1.1
                0x0000000000056176       0x3b c:/devkitpro/devkita64/bin/../lib/gcc/aarch64-none-elf/8.3.0/../../../../aarch64-none-elf/lib/pic\libg.a(lib_a-svfprintf.o)
 *fill*         0x00000000000561b1        0x7 
 .rodata.blanks.6590
                0x00000000000561b8       0x10 c:/devkitpro/devkita64/bin/../lib/gcc/aarch64-none-elf/8.3.0/../../../../aarch64-none-elf/lib/pic\libg.a(lib_a-svfprintf.o)
 .rodata.zeroes.6591
                0x00000000000561c8       0x10 c:/devkitpro/devkita64/bin/../lib/gcc/aarch64-none-elf/8.3.0/../../../../aarch64-none-elf/lib/pic\libg.a(lib_a-svfprintf.o)
 .rodata._dtoa_r.cst8
                0x00000000000561d8       0x18 c:/devkitpro/devkita64/bin/../lib/gcc/aarch64-none-elf/8.3.0/../../../../aarch64-none-elf/lib/pic\libg.a(lib_a-dtoa.o)
 .rodata._dtoa_r.str1.8
                0x00000000000561f0       0x1a c:/devkitpro/devkita64/bin/../lib/gcc/aarch64-none-elf/8.3.0/../../../../aarch64-none-elf/lib/pic\libg.a(lib_a-dtoa.o)
 *fill*         0x000000000005620a        0x2 
 .rodata.__loadlocale
                0x000000000005620c       0x6a c:/devkitpro/devkita64/bin/../lib/gcc/aarch64-none-elf/8.3.0/../../../../aarch64-none-elf/lib/pic\libg.a(lib_a-locale.o)
 *fill*         0x0000000000056276        0x2 
 .rodata.__get_locale_env.str1.8
                0x0000000000056278        0xd c:/devkitpro/devkita64/bin/../lib/gcc/aarch64-none-elf/8.3.0/../../../../aarch64-none-elf/lib/pic\libg.a(lib_a-locale.o)
 *fill*         0x0000000000056285        0x3 
 .rodata.__loadlocale.str1.8
                0x0000000000056288      0x10b c:/devkitpro/devkita64/bin/../lib/gcc/aarch64-none-elf/8.3.0/../../../../aarch64-none-elf/lib/pic\libg.a(lib_a-locale.o)
                                        0x113 (size before relaxing)
 *fill*         0x0000000000056393        0x5 
 .rodata.currentlocale.str1.8
                0x0000000000056398        0x2 c:/devkitpro/devkita64/bin/../lib/gcc/aarch64-none-elf/8.3.0/../../../../aarch64-none-elf/lib/pic\libg.a(lib_a-locale.o)
 *fill*         0x000000000005639a        0x6 
 .rodata.str1.8
                0x00000000000563a0       0x5c c:/devkitpro/devkita64/bin/../lib/gcc/aarch64-none-elf/8.3.0/../../../../aarch64-none-elf/lib/pic\libg.a(lib_a-locale.o)
                                         0x64 (size before relaxing)
 *fill*         0x00000000000563fc        0x4 
 .rodata.JIS_action_table
                0x0000000000056400       0x48 c:/devkitpro/devkita64/bin/../lib/gcc/aarch64-none-elf/8.3.0/../../../../aarch64-none-elf/lib/pic\libg.a(lib_a-mbtowc_r.o)
 .rodata.JIS_state_table
                0x0000000000056448       0x48 c:/devkitpro/devkita64/bin/../lib/gcc/aarch64-none-elf/8.3.0/../../../../aarch64-none-elf/lib/pic\libg.a(lib_a-mbtowc_r.o)
 .rodata.__mprec_bigtens
                0x0000000000056490       0x28 c:/devkitpro/devkita64/bin/../lib/gcc/aarch64-none-elf/8.3.0/../../../../aarch64-none-elf/lib/pic\libg.a(lib_a-mprec.o)
                0x0000000000056490                __mprec_bigtens
 .rodata.__mprec_tens
                0x00000000000564b8       0xc8 c:/devkitpro/devkita64/bin/../lib/gcc/aarch64-none-elf/8.3.0/../../../../aarch64-none-elf/lib/pic\libg.a(lib_a-mprec.o)
                0x00000000000564b8                __mprec_tens
 .rodata.__mprec_tinytens
                0x0000000000056580       0x28 c:/devkitpro/devkita64/bin/../lib/gcc/aarch64-none-elf/8.3.0/../../../../aarch64-none-elf/lib/pic\libg.a(lib_a-mprec.o)
                0x0000000000056580                __mprec_tinytens
 .rodata.p05.5339
                0x00000000000565a8        0xc c:/devkitpro/devkita64/bin/../lib/gcc/aarch64-none-elf/8.3.0/../../../../aarch64-none-elf/lib/pic\libg.a(lib_a-mprec.o)
 .rodata.get_arg
                0x00000000000565b4       0x92 c:/devkitpro/devkita64/bin/../lib/gcc/aarch64-none-elf/8.3.0/../../../../aarch64-none-elf/lib/pic\libg.a(lib_a-svfiprintf.o)
 *fill*         0x0000000000056646        0x2 
 .rodata._svfiprintf_r
                0x0000000000056648       0xb6 c:/devkitpro/devkita64/bin/../lib/gcc/aarch64-none-elf/8.3.0/../../../../aarch64-none-elf/lib/pic\libg.a(lib_a-svfiprintf.o)
 *fill*         0x00000000000566fe        0x2 
 .rodata.__action_table
                0x0000000000056700       0x6c c:/devkitpro/devkita64/bin/../lib/gcc/aarch64-none-elf/8.3.0/../../../../aarch64-none-elf/lib/pic\libg.a(lib_a-svfiprintf.o)
                0x0000000000056700                __action_table
 *fill*         0x000000000005676c        0x4 
 .rodata.__chclass
                0x0000000000056770      0x100 c:/devkitpro/devkita64/bin/../lib/gcc/aarch64-none-elf/8.3.0/../../../../aarch64-none-elf/lib/pic\libg.a(lib_a-svfiprintf.o)
                0x0000000000056770                __chclass
 .rodata.__state_table
                0x0000000000056870       0x6c c:/devkitpro/devkita64/bin/../lib/gcc/aarch64-none-elf/8.3.0/../../../../aarch64-none-elf/lib/pic\libg.a(lib_a-svfiprintf.o)
                0x0000000000056870                __state_table
 .rodata._svfiprintf_r.str1.1
                0x00000000000568dc       0x29 c:/devkitpro/devkita64/bin/../lib/gcc/aarch64-none-elf/8.3.0/../../../../aarch64-none-elf/lib/pic\libg.a(lib_a-svfiprintf.o)
 *fill*         0x00000000000568dc        0x4 
 .rodata.blanks.6569
                0x00000000000568e0       0x10 c:/devkitpro/devkita64/bin/../lib/gcc/aarch64-none-elf/8.3.0/../../../../aarch64-none-elf/lib/pic\libg.a(lib_a-svfiprintf.o)
 .rodata.zeroes.6570
                0x00000000000568f0       0x10 c:/devkitpro/devkita64/bin/../lib/gcc/aarch64-none-elf/8.3.0/../../../../aarch64-none-elf/lib/pic\libg.a(lib_a-svfiprintf.o)
 .rodata.AddDevice.str1.8
                0x0000000000056900        0x8 c:/devkitpro/devkita64/bin/../lib/gcc/aarch64-none-elf/8.3.0/../../../../aarch64-none-elf/lib/pic\libsysbase.a(iosupport.o)
 .rodata.DIRECTORY_PARENT
                0x0000000000056908        0x3 c:/devkitpro/devkita64/bin/../lib/gcc/aarch64-none-elf/8.3.0/../../../../aarch64-none-elf/lib/pic\libsysbase.a(chdir.o)
                0x0000000000056908                DIRECTORY_PARENT
 *fill*         0x000000000005690b        0x5 
 .rodata.DIRECTORY_SEPARATOR
                0x0000000000056910        0x2 c:/devkitpro/devkita64/bin/../lib/gcc/aarch64-none-elf/8.3.0/../../../../aarch64-none-elf/lib/pic\libsysbase.a(chdir.o)
                0x0000000000056910                DIRECTORY_SEPARATOR
 *fill*         0x0000000000056912        0x6 
 .rodata.DIRECTORY_THIS
                0x0000000000056918        0x2 c:/devkitpro/devkita64/bin/../lib/gcc/aarch64-none-elf/8.3.0/../../../../aarch64-none-elf/lib/pic\libsysbase.a(chdir.o)
                0x0000000000056918                DIRECTORY_THIS
                0x0000000000056920                . = ALIGN (0x8)
 *fill*         0x000000000005691a        0x6 

.eh_frame_hdr   0x0000000000056920        0x0
                0x0000000000056920                __eh_frame_hdr_start = .
 *(.eh_frame_hdr)
 *(.eh_frame_entry .eh_frame_entry.*)
                0x0000000000056920                __eh_frame_hdr_end = .

.eh_frame       0x0000000000056920     0x9b48
 *(.eh_frame)
 .eh_frame      0x0000000000056920       0x80 c:/devkitpro/devkita64/bin/../lib/gcc/aarch64-none-elf/8.3.0/pic/crtbegin.o
 .eh_frame      0x00000000000569a0     0x2598 main.o
                                       0x25a8 (size before relaxing)
 .eh_frame      0x0000000000058f38      0x300 acmd_wrapper.o
                                        0x318 (size before relaxing)
 .eh_frame      0x0000000000059238       0x70 saltysd_helper.o
                                         0x88 (size before relaxing)
 .eh_frame      0x00000000000592a8       0xd8 l2c_imports.o
                                         0xe8 (size before relaxing)
 .eh_frame      0x0000000000059380       0x40 lua_bind_hash.o
                                         0x58 (size before relaxing)
 .eh_frame      0x00000000000593c0      0x120 raygun_printer.o
                                        0x130 (size before relaxing)
 .eh_frame      0x00000000000594e0       0x28 C:/Users/RNG/Desktop/Stuff/Smash-Stuff/SMASH-ULTIMATE-MODS-BABY/50xx-the-mod/acmd-edits/code-mod-framework/lib/libnx_min/nx/lib\libnx_min.a(exception.o)
                                         0x40 (size before relaxing)
 .eh_frame      0x0000000000059508       0xa8 C:/Users/RNG/Desktop/Stuff/Smash-Stuff/SMASH-ULTIMATE-MODS-BABY/50xx-the-mod/acmd-edits/code-mod-framework/lib/libnx_min/nx/lib\libnx_min.a(argv.o)
                                         0xb8 (size before relaxing)
 .eh_frame      0x00000000000595b0      0x1c0 C:/Users/RNG/Desktop/Stuff/Smash-Stuff/SMASH-ULTIMATE-MODS-BABY/50xx-the-mod/acmd-edits/code-mod-framework/lib/libnx_min/nx/lib\libnx_min.a(env.o)
                                        0x1d8 (size before relaxing)
 .eh_frame      0x0000000000059770       0x68 C:/Users/RNG/Desktop/Stuff/Smash-Stuff/SMASH-ULTIMATE-MODS-BABY/50xx-the-mod/acmd-edits/code-mod-framework/lib/libnx_min/nx/lib\libnx_min.a(init.o)
                                         0xb8 (size before relaxing)
 .eh_frame      0x00000000000597d8       0x28 C:/Users/RNG/Desktop/Stuff/Smash-Stuff/SMASH-ULTIMATE-MODS-BABY/50xx-the-mod/acmd-edits/code-mod-framework/lib/libnx_min/nx/lib\libnx_min.a(hosversion.o)
                                         0x40 (size before relaxing)
 .eh_frame      0x0000000000059800       0x18 C:/Users/RNG/Desktop/Stuff/Smash-Stuff/SMASH-ULTIMATE-MODS-BABY/50xx-the-mod/acmd-edits/code-mod-framework/lib/libnx_min/nx/lib\libnx_min.a(dynamic.o)
                                         0x30 (size before relaxing)
 .eh_frame      0x0000000000059818      0x800 C:/Users/RNG/Desktop/Stuff/Smash-Stuff/SMASH-ULTIMATE-MODS-BABY/50xx-the-mod/acmd-edits/code-mod-framework/lib/libnx_min/nx/lib\libnx_min.a(fs_dev.o)
                                        0x818 (size before relaxing)
 .eh_frame      0x000000000005a018       0x18 C:/Users/RNG/Desktop/Stuff/Smash-Stuff/SMASH-ULTIMATE-MODS-BABY/50xx-the-mod/acmd-edits/code-mod-framework/lib/libnx_min/nx/lib\libnx_min.a(decode_utf8.o)
                                         0x28 (size before relaxing)
 .eh_frame      0x000000000005a030      0x7d0 C:/Users/RNG/Desktop/Stuff/Smash-Stuff/SMASH-ULTIMATE-MODS-BABY/50xx-the-mod/acmd-edits/code-mod-framework/lib/libnx_min/nx/lib\libnx_min.a(svc.o)
                                        0x7e8 (size before relaxing)
 .eh_frame      0x000000000005a800       0x18 C:/Users/RNG/Desktop/Stuff/Smash-Stuff/SMASH-ULTIMATE-MODS-BABY/50xx-the-mod/acmd-edits/code-mod-framework/lib/libnx_min/nx/lib\libnx_min.a(readtp.o)
                                         0x28 (size before relaxing)
 .eh_frame      0x000000000005a818      0x108 C:/Users/RNG/Desktop/Stuff/Smash-Stuff/SMASH-ULTIMATE-MODS-BABY/50xx-the-mod/acmd-edits/code-mod-framework/lib/libnx_min/nx/lib\libnx_min.a(virtmem.o)
                                        0x120 (size before relaxing)
 .eh_frame      0x000000000005a920       0xb0 C:/Users/RNG/Desktop/Stuff/Smash-Stuff/SMASH-ULTIMATE-MODS-BABY/50xx-the-mod/acmd-edits/code-mod-framework/lib/libnx_min/nx/lib\libnx_min.a(mutex.o)
                                         0xc0 (size before relaxing)
 .eh_frame      0x000000000005a9d0      0xed0 C:/Users/RNG/Desktop/Stuff/Smash-Stuff/SMASH-ULTIMATE-MODS-BABY/50xx-the-mod/acmd-edits/code-mod-framework/lib/libnx_min/nx/lib\libnx_min.a(fs.o)
                                        0xee0 (size before relaxing)
 .eh_frame      0x000000000005b8a0      0x540 C:/Users/RNG/Desktop/Stuff/Smash-Stuff/SMASH-ULTIMATE-MODS-BABY/50xx-the-mod/acmd-edits/code-mod-framework/lib/libnx_min/nx/lib\libnx_min.a(set.o)
                                        0x550 (size before relaxing)
 .eh_frame      0x000000000005bde0       0x70 C:/Users/RNG/Desktop/Stuff/Smash-Stuff/SMASH-ULTIMATE-MODS-BABY/50xx-the-mod/acmd-edits/code-mod-framework/lib/libnx_min/nx/lib\libnx_min.a(fatal.o)
                                         0x88 (size before relaxing)
 .eh_frame      0x000000000005be50      0x1d8 C:/Users/RNG/Desktop/Stuff/Smash-Stuff/SMASH-ULTIMATE-MODS-BABY/50xx-the-mod/acmd-edits/code-mod-framework/lib/libnx_min/nx/lib\libnx_min.a(sm.o)
                                        0x1f0 (size before relaxing)
 .eh_frame      0x000000000005c028      0xbe0 C:/Users/RNG/Desktop/Stuff/Smash-Stuff/SMASH-ULTIMATE-MODS-BABY/50xx-the-mod/acmd-edits/code-mod-framework/lib/libnx_min/nx/lib\libnx_min.a(hid.o)
                                        0xbf0 (size before relaxing)
 .eh_frame      0x000000000005cc08      0x180 C:/Users/RNG/Desktop/Stuff/Smash-Stuff/SMASH-ULTIMATE-MODS-BABY/50xx-the-mod/acmd-edits/code-mod-framework/lib/libnx_min/nx/lib\libnx_min.a(time.o)
                                        0x198 (size before relaxing)
 .eh_frame      0x000000000005cd88     0x1448 C:/Users/RNG/Desktop/Stuff/Smash-Stuff/SMASH-ULTIMATE-MODS-BABY/50xx-the-mod/acmd-edits/code-mod-framework/lib/libnx_min/nx/lib\libnx_min.a(applet.o)
                                       0x1458 (size before relaxing)
 .eh_frame      0x000000000005e1d0      0x408 C:/Users/RNG/Desktop/Stuff/Smash-Stuff/SMASH-ULTIMATE-MODS-BABY/50xx-the-mod/acmd-edits/code-mod-framework/lib/libnx_min/nx/lib\libnx_min.a(newlib.o)
                                        0x420 (size before relaxing)
 .eh_frame      0x000000000005e5d8      0x1b8 C:/Users/RNG/Desktop/Stuff/Smash-Stuff/SMASH-ULTIMATE-MODS-BABY/50xx-the-mod/acmd-edits/code-mod-framework/lib/libnx_min/nx/lib\libnx_min.a(thread.o)
                                        0x1c8 (size before relaxing)
 .eh_frame      0x000000000005e790       0x30 C:/Users/RNG/Desktop/Stuff/Smash-Stuff/SMASH-ULTIMATE-MODS-BABY/50xx-the-mod/acmd-edits/code-mod-framework/lib/libnx_min/nx/lib\libnx_min.a(condvar.o)
                                         0x48 (size before relaxing)
 .eh_frame      0x000000000005e7c0       0xb0 C:/Users/RNG/Desktop/Stuff/Smash-Stuff/SMASH-ULTIMATE-MODS-BABY/50xx-the-mod/acmd-edits/code-mod-framework/lib/libnx_min/nx/lib\libnx_min.a(event.o)
                                         0xc0 (size before relaxing)
 .eh_frame      0x000000000005e870       0xf0 C:/Users/RNG/Desktop/Stuff/Smash-Stuff/SMASH-ULTIMATE-MODS-BABY/50xx-the-mod/acmd-edits/code-mod-framework/lib/libnx_min/nx/lib\libnx_min.a(tmem.o)
                                        0x108 (size before relaxing)
 .eh_frame      0x000000000005e960       0xb0 C:/Users/RNG/Desktop/Stuff/Smash-Stuff/SMASH-ULTIMATE-MODS-BABY/50xx-the-mod/acmd-edits/code-mod-framework/lib/libnx_min/nx/lib\libnx_min.a(rwlock.o)
                                         0xc0 (size before relaxing)
 .eh_frame      0x000000000005ea10       0xb0 C:/Users/RNG/Desktop/Stuff/Smash-Stuff/SMASH-ULTIMATE-MODS-BABY/50xx-the-mod/acmd-edits/code-mod-framework/lib/libnx_min/nx/lib\libnx_min.a(wait.o)
                                         0xc8 (size before relaxing)
 .eh_frame      0x000000000005eac0       0xb8 C:/Users/RNG/Desktop/Stuff/Smash-Stuff/SMASH-ULTIMATE-MODS-BABY/50xx-the-mod/acmd-edits/code-mod-framework/lib/libnx_min/nx/lib\libnx_min.a(shmem.o)
                                         0xc8 (size before relaxing)
 .eh_frame      0x000000000005eb78       0xc8 C:/Users/RNG/Desktop/Stuff/Smash-Stuff/SMASH-ULTIMATE-MODS-BABY/50xx-the-mod/acmd-edits/code-mod-framework/lib/libnx_min/nx/lib\libnx_min.a(detect.o)
                                         0xd8 (size before relaxing)
 .eh_frame      0x000000000005ec40      0x110 C:/Users/RNG/Desktop/Stuff/Smash-Stuff/SMASH-ULTIMATE-MODS-BABY/50xx-the-mod/acmd-edits/code-mod-framework/lib/libnx_min/nx/lib\libnx_min.a(apm.o)
                                        0x128 (size before relaxing)
 .eh_frame      0x000000000005ed50       0x68 c:/devkitpro/devkita64/bin/../lib/gcc/aarch64-none-elf/8.3.0/../../../../aarch64-none-elf/lib/pic\libg.a(lib_a-bsearch.o)
                                         0x78 (size before relaxing)
 .eh_frame      0x000000000005edb8       0x18 c:/devkitpro/devkita64/bin/../lib/gcc/aarch64-none-elf/8.3.0/../../../../aarch64-none-elf/lib/pic\libg.a(lib_a-ctype_.o)
                                         0x28 (size before relaxing)
 .eh_frame      0x000000000005edd0       0x20 c:/devkitpro/devkita64/bin/../lib/gcc/aarch64-none-elf/8.3.0/../../../../aarch64-none-elf/lib/pic\libg.a(lib_a-errno.o)
                                         0x38 (size before relaxing)
 .eh_frame      0x000000000005edf0       0x20 c:/devkitpro/devkita64/bin/../lib/gcc/aarch64-none-elf/8.3.0/../../../../aarch64-none-elf/lib/pic\libg.a(lib_a-exit.o)
                                         0x30 (size before relaxing)
 .eh_frame      0x000000000005ee10       0x28 c:/devkitpro/devkita64/bin/../lib/gcc/aarch64-none-elf/8.3.0/../../../../aarch64-none-elf/lib/pic\libg.a(lib_a-fini.o)
                                         0x38 (size before relaxing)
 .eh_frame      0x000000000005ee38       0x28 c:/devkitpro/devkita64/bin/../lib/gcc/aarch64-none-elf/8.3.0/../../../../aarch64-none-elf/lib/pic\libg.a(lib_a-init.o)
                                         0x40 (size before relaxing)
 .eh_frame      0x000000000005ee60       0x28 c:/devkitpro/devkita64/bin/../lib/gcc/aarch64-none-elf/8.3.0/../../../../aarch64-none-elf/lib/pic\libg.a(lib_a-malign.o)
                                         0x38 (size before relaxing)
 .eh_frame      0x000000000005ee88       0x50 c:/devkitpro/devkita64/bin/../lib/gcc/aarch64-none-elf/8.3.0/../../../../aarch64-none-elf/lib/pic\libg.a(lib_a-malignr.o)
                                         0x68 (size before relaxing)
 .eh_frame      0x000000000005eed8       0x40 c:/devkitpro/devkita64/bin/../lib/gcc/aarch64-none-elf/8.3.0/../../../../aarch64-none-elf/lib/pic\libg.a(lib_a-malloc.o)
                                         0x58 (size before relaxing)
 .eh_frame      0x000000000005ef18       0xd0 c:/devkitpro/devkita64/bin/../lib/gcc/aarch64-none-elf/8.3.0/../../../../aarch64-none-elf/lib/pic\libg.a(lib_a-mallocr.o)
                                         0xe0 (size before relaxing)
 .eh_frame      0x000000000005efe8       0x28 c:/devkitpro/devkita64/bin/../lib/gcc/aarch64-none-elf/8.3.0/../../../../aarch64-none-elf/lib/pic\libg.a(lib_a-mlock.o)
                                         0x40 (size before relaxing)
 .eh_frame      0x000000000005f010       0x48 c:/devkitpro/devkita64/bin/../lib/gcc/aarch64-none-elf/8.3.0/../../../../aarch64-none-elf/lib/pic\libg.a(lib_a-setenv.o)
                                         0x58 (size before relaxing)
 .eh_frame      0x000000000005f058       0xb0 c:/devkitpro/devkita64/bin/../lib/gcc/aarch64-none-elf/8.3.0/../../../../aarch64-none-elf/lib/pic\libg.a(lib_a-setenv_r.o)
                                         0xc8 (size before relaxing)
 .eh_frame      0x000000000005f108       0x18 c:/devkitpro/devkita64/bin/../lib/gcc/aarch64-none-elf/8.3.0/../../../../aarch64-none-elf/lib/pic\libg.a(lib_a-strncat.o)
                                         0x28 (size before relaxing)
 .eh_frame      0x000000000005f120       0x18 c:/devkitpro/devkita64/bin/../lib/gcc/aarch64-none-elf/8.3.0/../../../../aarch64-none-elf/lib/pic\libg.a(lib_a-strncpy.o)
                                         0x28 (size before relaxing)
 .eh_frame      0x000000000005f138       0x18 c:/devkitpro/devkita64/bin/../lib/gcc/aarch64-none-elf/8.3.0/../../../../aarch64-none-elf/lib/pic\libg.a(lib_a-toupper.o)
                                         0x28 (size before relaxing)
 .eh_frame      0x000000000005f150       0x58 c:/devkitpro/devkita64/bin/../lib/gcc/aarch64-none-elf/8.3.0/../../../../aarch64-none-elf/lib/pic\libg.a(lib_a-vsnprintf.o)
                                         0x68 (size before relaxing)
 .eh_frame      0x000000000005f1a8       0x40 c:/devkitpro/devkita64/bin/../lib/gcc/aarch64-none-elf/8.3.0/../../../../aarch64-none-elf/lib/pic\libg.a(lib_a-__call_atexit.o)
                                         0x58 (size before relaxing)
 .eh_frame      0x000000000005f1e8       0x28 c:/devkitpro/devkita64/bin/../lib/gcc/aarch64-none-elf/8.3.0/../../../../aarch64-none-elf/lib/pic\libg.a(lib_a-envlock.o)
                                         0x40 (size before relaxing)
 .eh_frame      0x000000000005f210       0x80 c:/devkitpro/devkita64/bin/../lib/gcc/aarch64-none-elf/8.3.0/../../../../aarch64-none-elf/lib/pic\libg.a(lib_a-freer.o)
                                         0x98 (size before relaxing)
 .eh_frame      0x000000000005f290       0x68 c:/devkitpro/devkita64/bin/../lib/gcc/aarch64-none-elf/8.3.0/../../../../aarch64-none-elf/lib/pic\libg.a(lib_a-getenv_r.o)
                                         0x78 (size before relaxing)
 .eh_frame      0x000000000005f2f8       0xf0 c:/devkitpro/devkita64/bin/../lib/gcc/aarch64-none-elf/8.3.0/../../../../aarch64-none-elf/lib/pic\libg.a(lib_a-reallocr.o)
                                        0x108 (size before relaxing)
 .eh_frame      0x000000000005f3e8       0xb8 c:/devkitpro/devkita64/bin/../lib/gcc/aarch64-none-elf/8.3.0/../../../../aarch64-none-elf/lib/pic\libg.a(lib_a-svfprintf.o)
                                         0xc8 (size before relaxing)
 .eh_frame      0x000000000005f4a0       0x70 c:/devkitpro/devkita64/bin/../lib/gcc/aarch64-none-elf/8.3.0/../../../../aarch64-none-elf/lib/pic\libg.a(lib_a-wcrtomb.o)
                                         0x80 (size before relaxing)
 .eh_frame      0x000000000005f510       0x38 c:/devkitpro/devkita64/bin/../lib/gcc/aarch64-none-elf/8.3.0/../../../../aarch64-none-elf/lib/pic\libg.a(lib_a-wcsrtombs.o)
                                         0x50 (size before relaxing)
 .eh_frame      0x000000000005f548       0x98 c:/devkitpro/devkita64/bin/../lib/gcc/aarch64-none-elf/8.3.0/../../../../aarch64-none-elf/lib/pic\libg.a(lib_a-dtoa.o)
                                         0xb0 (size before relaxing)
 .eh_frame      0x000000000005f5e0       0x58 c:/devkitpro/devkita64/bin/../lib/gcc/aarch64-none-elf/8.3.0/../../../../aarch64-none-elf/lib/pic\libg.a(lib_a-localeconv.o)
                                         0x68 (size before relaxing)
 .eh_frame      0x000000000005f638      0x200 c:/devkitpro/devkita64/bin/../lib/gcc/aarch64-none-elf/8.3.0/../../../../aarch64-none-elf/lib/pic\libg.a(lib_a-locale.o)
                                        0x210 (size before relaxing)
 .eh_frame      0x000000000005f838       0xf8 c:/devkitpro/devkita64/bin/../lib/gcc/aarch64-none-elf/8.3.0/../../../../aarch64-none-elf/lib/pic\libg.a(lib_a-mbtowc_r.o)
                                        0x110 (size before relaxing)
 .eh_frame      0x000000000005f930      0x2f8 c:/devkitpro/devkita64/bin/../lib/gcc/aarch64-none-elf/8.3.0/../../../../aarch64-none-elf/lib/pic\libg.a(lib_a-mprec.o)
                                        0x310 (size before relaxing)
 .eh_frame      0x000000000005fc28       0x18 c:/devkitpro/devkita64/bin/../lib/gcc/aarch64-none-elf/8.3.0/../../../../aarch64-none-elf/lib/pic\libg.a(lib_a-s_frexp.o)
                                         0x28 (size before relaxing)
 .eh_frame      0x000000000005fc40       0x18 c:/devkitpro/devkita64/bin/../lib/gcc/aarch64-none-elf/8.3.0/../../../../aarch64-none-elf/lib/pic\libg.a(lib_a-strcasecmp.o)
                                         0x28 (size before relaxing)
 .eh_frame      0x000000000005fc58       0x28 c:/devkitpro/devkita64/bin/../lib/gcc/aarch64-none-elf/8.3.0/../../../../aarch64-none-elf/lib/pic\libg.a(lib_a-strcat.o)
                                         0x38 (size before relaxing)
 .eh_frame      0x000000000005fc80       0x18 c:/devkitpro/devkita64/bin/../lib/gcc/aarch64-none-elf/8.3.0/../../../../aarch64-none-elf/lib/pic\libg.a(lib_a-strlcpy.o)
                                         0x28 (size before relaxing)
 .eh_frame      0x000000000005fc98       0x18 c:/devkitpro/devkita64/bin/../lib/gcc/aarch64-none-elf/8.3.0/../../../../aarch64-none-elf/lib/pic\libg.a(lib_a-strncasecmp.o)
                                         0x28 (size before relaxing)
 .eh_frame      0x000000000005fcb0       0x80 c:/devkitpro/devkita64/bin/../lib/gcc/aarch64-none-elf/8.3.0/../../../../aarch64-none-elf/lib/pic\libg.a(lib_a-strtol.o)
                                         0x98 (size before relaxing)
 .eh_frame      0x000000000005fd30       0xe0 c:/devkitpro/devkita64/bin/../lib/gcc/aarch64-none-elf/8.3.0/../../../../aarch64-none-elf/lib/pic\libg.a(lib_a-svfiprintf.o)
                                         0xf8 (size before relaxing)
 .eh_frame      0x000000000005fe10      0x128 c:/devkitpro/devkita64/bin/../lib/gcc/aarch64-none-elf/8.3.0/../../../../aarch64-none-elf/lib/pic\libg.a(lib_a-wcsnrtombs.o)
                                        0x138 (size before relaxing)
 .eh_frame      0x000000000005ff38       0x88 c:/devkitpro/devkita64/bin/../lib/gcc/aarch64-none-elf/8.3.0/../../../../aarch64-none-elf/lib/pic\libg.a(lib_a-wctomb_r.o)
                                         0xa0 (size before relaxing)
 .eh_frame      0x000000000005ffc0       0x30 c:/devkitpro/devkita64/bin/../lib/gcc/aarch64-none-elf/8.3.0/../../../../aarch64-none-elf/lib/pic\libg.a(lib_a-callocr.o)
                                         0x40 (size before relaxing)
 .eh_frame      0x000000000005fff0      0x118 c:/devkitpro/devkita64/bin/../lib/gcc/aarch64-none-elf/8.3.0/../../../../aarch64-none-elf/lib/pic\libsysbase.a(iosupport.o)
                                        0x130 (size before relaxing)
 .eh_frame      0x0000000000060108       0x18 c:/devkitpro/devkita64/bin/../lib/gcc/aarch64-none-elf/8.3.0/../../../../aarch64-none-elf/lib/pic\libsysbase.a(sbrk.o)
                                         0x28 (size before relaxing)
 .eh_frame      0x0000000000060120       0x20 c:/devkitpro/devkita64/bin/../lib/gcc/aarch64-none-elf/8.3.0/../../../../aarch64-none-elf/lib/pic\libsysbase.a(_exit.o)
                                         0x38 (size before relaxing)
 .eh_frame      0x0000000000060140      0x110 c:/devkitpro/devkita64/bin/../lib/gcc/aarch64-none-elf/8.3.0/../../../../aarch64-none-elf/lib/pic\libsysbase.a(chdir.o)
                                        0x128 (size before relaxing)
 .eh_frame      0x0000000000060250      0x168 c:/devkitpro/devkita64/bin/../lib/gcc/aarch64-none-elf/8.3.0/../../../../aarch64-none-elf/lib/pic\libsysbase.a(locks.o)
                                        0x178 (size before relaxing)
 .eh_frame      0x00000000000603b8       0x18 c:/devkitpro/devkita64/bin/../lib/gcc/aarch64-none-elf/8.3.0/../../../../aarch64-none-elf/lib/pic\libsysbase.a(getreent.o)
                                         0x28 (size before relaxing)
 .eh_frame      0x00000000000603d0       0x60 c:/devkitpro/devkita64/bin/../lib/gcc/aarch64-none-elf/8.3.0/../../../../aarch64-none-elf/lib/pic\libsysbase.a(clocks.o)
                                         0x78 (size before relaxing)
 .eh_frame      0x0000000000060430       0x20 c:/devkitpro/devkita64/bin/../lib/gcc/aarch64-none-elf/8.3.0/pic\libgcc.a(trunctfdf2.o)
                                         0x38 (size before relaxing)
 .eh_frame      0x0000000000060450       0x14 c:/devkitpro/devkita64/bin/../lib/gcc/aarch64-none-elf/8.3.0/pic\libgcc.a(sfp-exceptions.o)
                                         0x28 (size before relaxing)
 .eh_frame      0x0000000000060464        0x4 c:/devkitpro/devkita64/bin/../lib/gcc/aarch64-none-elf/8.3.0/pic/crtend.o
 *(.eh_frame.*)

.gcc_except_table
 *(.gcc_except_table .gcc_except_table.*)

.gnu_extab
 *(.gnu_extab*)

.dynamic        0x0000000000060468      0x1a0
 *(.dynamic)
 .dynamic       0x0000000000060468      0x1a0 c:/devkitpro/devkita64/bin/../lib/gcc/aarch64-none-elf/8.3.0/pic/crti.o
                0x0000000000060468                _DYNAMIC

.dynsym         0x0000000000060608     0x49c8
 *(.dynsym)
 .dynsym        0x0000000000060608     0x49c8 c:/devkitpro/devkita64/bin/../lib/gcc/aarch64-none-elf/8.3.0/pic/crti.o

.dynstr         0x0000000000064fd0     0x423f
 *(.dynstr)
 .dynstr        0x0000000000064fd0     0x423f c:/devkitpro/devkita64/bin/../lib/gcc/aarch64-none-elf/8.3.0/pic/crti.o

.rela.dyn       0x0000000000069210     0x32d0
 *(.rela.*)
 .rela.got      0x0000000000069210      0xea0 c:/devkitpro/devkita64/bin/../lib/gcc/aarch64-none-elf/8.3.0/pic/crti.o
 .rela.plt      0x000000000006c420       0xc0 c:/devkitpro/devkita64/bin/../lib/gcc/aarch64-none-elf/8.3.0/pic/crti.o
 .rela.bss      0x000000000006a170        0x0 c:/devkitpro/devkita64/bin/../lib/gcc/aarch64-none-elf/8.3.0/pic/crti.o
 .rela.data.rel.ro
                0x000000000006a170        0x0 c:/devkitpro/devkita64/bin/../lib/gcc/aarch64-none-elf/8.3.0/pic/crti.o
 .rela.init_array
                0x000000000006a0b0       0x30 c:/devkitpro/devkita64/bin/../lib/gcc/aarch64-none-elf/8.3.0/pic/crti.o
 .rela.fini_array
                0x000000000006a0e0       0x18 c:/devkitpro/devkita64/bin/../lib/gcc/aarch64-none-elf/8.3.0/pic/crti.o
 .rela.ifunc    0x000000000006a1b8        0x0 c:/devkitpro/devkita64/bin/../lib/gcc/aarch64-none-elf/8.3.0/pic/crti.o
 .rela.data.rel.local
                0x000000000006a0f8      0x3c0 c:/devkitpro/devkita64/bin/../lib/gcc/aarch64-none-elf/8.3.0/pic/crti.o
 .rela.data.rel.ro.local.fsdev_devoptab
                0x000000000006a4b8      0x210 c:/devkitpro/devkita64/bin/../lib/gcc/aarch64-none-elf/8.3.0/pic/crti.o
 .rela.data.rel.local._impure_ptr
                0x000000000006a6c8       0x18 c:/devkitpro/devkita64/bin/../lib/gcc/aarch64-none-elf/8.3.0/pic/crti.o
 .rela.data.rel.local.impure_data
                0x000000000006a6e0       0x48 c:/devkitpro/devkita64/bin/../lib/gcc/aarch64-none-elf/8.3.0/pic/crti.o
 .rela.data.rel.ro.local._global_impure_ptr
                0x000000000006a728       0x18 c:/devkitpro/devkita64/bin/../lib/gcc/aarch64-none-elf/8.3.0/pic/crti.o
 .rela.data.rel.__malloc_av_
                0x000000000006a740     0x1800 c:/devkitpro/devkita64/bin/../lib/gcc/aarch64-none-elf/8.3.0/pic/crti.o
 .rela.data.rel.local.environ
                0x000000000006bf40       0x18 c:/devkitpro/devkita64/bin/../lib/gcc/aarch64-none-elf/8.3.0/pic/crti.o
 .rela.data.rel.__global_locale
                0x000000000006bf58      0x138 c:/devkitpro/devkita64/bin/../lib/gcc/aarch64-none-elf/8.3.0/pic/crti.o
 .rela.data.rel.ro.__C_locale
                0x000000000006c090      0x138 c:/devkitpro/devkita64/bin/../lib/gcc/aarch64-none-elf/8.3.0/pic/crti.o
 .rela.data.rel.ro.local.categories
                0x000000000006c1c8       0xa8 c:/devkitpro/devkita64/bin/../lib/gcc/aarch64-none-elf/8.3.0/pic/crti.o
 .rela.data.rel.devoptab_list
                0x000000000006c270      0x180 c:/devkitpro/devkita64/bin/../lib/gcc/aarch64-none-elf/8.3.0/pic/crti.o
 .rela.data.rel.ro.local.dotab_stdnull
                0x000000000006c3f0       0x30 c:/devkitpro/devkita64/bin/../lib/gcc/aarch64-none-elf/8.3.0/pic/crti.o

.interp         0x000000000006c4e0        0xd
 *(.interp)
 .interp        0x000000000006c4e0        0xd c:/devkitpro/devkita64/bin/../lib/gcc/aarch64-none-elf/8.3.0/pic/crti.o

.hash           0x000000000006c4f0     0x1478
 *(.hash)
 .hash          0x000000000006c4f0     0x1478 c:/devkitpro/devkita64/bin/../lib/gcc/aarch64-none-elf/8.3.0/pic/crti.o

.gnu.hash
 *(.gnu.hash)

.gnu.version    0x000000000006d968        0x0
 *(.gnu.version)
 .gnu.version   0x000000000006d968        0x0 c:/devkitpro/devkita64/bin/../lib/gcc/aarch64-none-elf/8.3.0/pic/crti.o

.gnu.version_d  0x000000000006d968        0x0
 *(.gnu.version_d)
 .gnu.version_d
                0x000000000006d968        0x0 c:/devkitpro/devkita64/bin/../lib/gcc/aarch64-none-elf/8.3.0/pic/crti.o

.gnu.version_r  0x000000000006d968        0x0
 *(.gnu.version_r)
 .gnu.version_r
                0x000000000006d968        0x0 c:/devkitpro/devkita64/bin/../lib/gcc/aarch64-none-elf/8.3.0/pic/crti.o

.note.gnu.build-id
                0x000000000006d968       0x24
 *(.note.gnu.build-id)
 .note.gnu.build-id
                0x000000000006d968       0x24 c:/devkitpro/devkita64/bin/../lib/gcc/aarch64-none-elf/8.3.0/pic/crti.o
                0x000000000006e000                . = ALIGN (0x1000)

.eh_frame
 *(.eh_frame)
 *(.eh_frame.*)

.gcc_except_table
 *(.gcc_except_table .gcc_except_table.*)

.gnu_extab
 *(.gnu_extab*)

.exception_ranges
 *(.exception_ranges .exception_ranges*)

.tdata          0x000000000006e000        0x0
                0x000000000006e000                __tdata_lma = .
 *(.tdata .tdata.* .gnu.linkonce.td.*)
                0x000000000006e000                . = ALIGN (0x8)
                0x000000000006e000                __tdata_lma_end = .

.tbss           0x000000000006e000     0x4408
 *(.tbss .tbss.* .gnu.linkonce.tb.*)
 .tbss.__fixedpath
                0x000000000006e000      0x401 C:/Users/RNG/Desktop/Stuff/Smash-Stuff/SMASH-ULTIMATE-MODS-BABY/50xx-the-mod/acmd-edits/code-mod-framework/lib/libnx_min/nx/lib\libnx_min.a(fs_dev.o)
 *fill*         0x000000000006e401        0x3 
 .tbss.fsdev_last_result
                0x000000000006e404        0x4 C:/Users/RNG/Desktop/Stuff/Smash-Stuff/SMASH-ULTIMATE-MODS-BABY/50xx-the-mod/acmd-edits/code-mod-framework/lib/libnx_min/nx/lib\libnx_min.a(fs_dev.o)
 .tbss.tmp_buffer.7389
                0x000000000006e408     0x2000 C:/Users/RNG/Desktop/Stuff/Smash-Stuff/SMASH-ULTIMATE-MODS-BABY/50xx-the-mod/acmd-edits/code-mod-framework/lib/libnx_min/nx/lib\libnx_min.a(fs_dev.o)
 .tbss.tmp_buffer.7413
                0x0000000000070408     0x2000 C:/Users/RNG/Desktop/Stuff/Smash-Stuff/SMASH-ULTIMATE-MODS-BABY/50xx-the-mod/acmd-edits/code-mod-framework/lib/libnx_min/nx/lib\libnx_min.a(fs_dev.o)
 *(.tcommon)
                0x0000000000072408                . = ALIGN (0x8)

.preinit_array  0x000000000006e000        0x0
                0x000000000006e000                PROVIDE (__preinit_array_start = .)
 *(.preinit_array)
                0x000000000006e000                PROVIDE (__preinit_array_end = .)

.init_array     0x000000000006e000       0x10
                0x000000000006e000                PROVIDE (__init_array_start = .)
 *(SORT_BY_NAME(.init_array.*))
 *(.init_array)
 .init_array    0x000000000006e000        0x8 c:/devkitpro/devkita64/bin/../lib/gcc/aarch64-none-elf/8.3.0/pic/crtbegin.o
 .init_array    0x000000000006e008        0x8 main.o
                0x000000000006e010                PROVIDE (__init_array_end = .)

.fini_array     0x000000000006e010        0x8
                0x000000000006e010                PROVIDE (__fini_array_start = .)
 *(.fini_array)
 .fini_array    0x000000000006e010        0x8 c:/devkitpro/devkita64/bin/../lib/gcc/aarch64-none-elf/8.3.0/pic/crtbegin.o
 *(SORT_BY_NAME(.fini_array.*))
                0x000000000006e018                PROVIDE (__fini_array_end = .)

.ctors
 *crtbegin.o(.ctors)
 *(EXCLUDE_FILE(*crtend.o) .ctors)
 *(SORT_BY_NAME(.ctors.*))
 *(.ctors)

.dtors
 *crtbegin.o(.dtors)
 *(EXCLUDE_FILE(*crtend.o) .dtors)
 *(SORT_BY_NAME(.dtors.*))
 *(.dtors)
                0x000000000006e018                __got_start__ = .

.got            0x000000000006e018      0x4e8
 *(.got)
 .got           0x000000000006e018      0x4e8 c:/devkitpro/devkita64/bin/../lib/gcc/aarch64-none-elf/8.3.0/pic/crti.o
                0x000000000006e018                _GLOBAL_OFFSET_TABLE_
 *(.igot)

.got.plt        0x000000000006e500       0x58
 *(.got.plt)
 .got.plt       0x000000000006e500       0x58 c:/devkitpro/devkita64/bin/../lib/gcc/aarch64-none-elf/8.3.0/pic/crti.o
 *(.igot.plt)
                0x000000000006e558                __got_end__ = .

.data           0x000000000006e558     0x1ef8
 *(.data .data.* .gnu.linkonce.d.*)
 .data.rel.ro   0x000000000006e558        0x0 c:/devkitpro/devkita64/bin/../lib/gcc/aarch64-none-elf/8.3.0/pic/crti.o
 .data          0x000000000006e558        0x4 main.o
                0x000000000006e558                __nx_applet_type
 *fill*         0x000000000006e55c        0x4 
 .data.rel.local
                0x000000000006e560      0x140 raygun_printer.o
                0x000000000006e560                alphabet
 .data.__nx_exception_stack_size
                0x000000000006e6a0        0x8 C:/Users/RNG/Desktop/Stuff/Smash-Stuff/SMASH-ULTIMATE-MODS-BABY/50xx-the-mod/acmd-edits/code-mod-framework/lib/libnx_min/nx/lib\libnx_min.a(init.o)
                0x000000000006e6a0                __nx_exception_stack_size
 .data.__cwd    0x000000000006e6a8      0x401 C:/Users/RNG/Desktop/Stuff/Smash-Stuff/SMASH-ULTIMATE-MODS-BABY/50xx-the-mod/acmd-edits/code-mod-framework/lib/libnx_min/nx/lib\libnx_min.a(fs_dev.o)
 *fill*         0x000000000006eaa9        0x3 
 .data.fsdev_fsdevice_cwd
                0x000000000006eaac        0x4 C:/Users/RNG/Desktop/Stuff/Smash-Stuff/SMASH-ULTIMATE-MODS-BABY/50xx-the-mod/acmd-edits/code-mod-framework/lib/libnx_min/nx/lib\libnx_min.a(fs_dev.o)
 .data.fsdev_fsdevice_default
                0x000000000006eab0        0x4 C:/Users/RNG/Desktop/Stuff/Smash-Stuff/SMASH-ULTIMATE-MODS-BABY/50xx-the-mod/acmd-edits/code-mod-framework/lib/libnx_min/nx/lib\libnx_min.a(fs_dev.o)
 *fill*         0x000000000006eab4        0x4 
 .data.rel.ro.local.fsdev_devoptab
                0x000000000006eab8       0xe0 C:/Users/RNG/Desktop/Stuff/Smash-Stuff/SMASH-ULTIMATE-MODS-BABY/50xx-the-mod/acmd-edits/code-mod-framework/lib/libnx_min/nx/lib\libnx_min.a(fs_dev.o)
 .data.__nx_applet_auto_notifyrunning
                0x000000000006eb98        0x1 C:/Users/RNG/Desktop/Stuff/Smash-Stuff/SMASH-ULTIMATE-MODS-BABY/50xx-the-mod/acmd-edits/code-mod-framework/lib/libnx_min/nx/lib\libnx_min.a(applet.o)
                0x000000000006eb98                __nx_applet_auto_notifyrunning
 *fill*         0x000000000006eb99        0x7 
 .data.rel.local._impure_ptr
                0x000000000006eba0        0x8 c:/devkitpro/devkita64/bin/../lib/gcc/aarch64-none-elf/8.3.0/../../../../aarch64-none-elf/lib/pic\libg.a(lib_a-impure.o)
                0x000000000006eba0                _impure_ptr
 .data.rel.local.impure_data
                0x000000000006eba8      0x768 c:/devkitpro/devkita64/bin/../lib/gcc/aarch64-none-elf/8.3.0/../../../../aarch64-none-elf/lib/pic\libg.a(lib_a-impure.o)
 .data.rel.ro.local._global_impure_ptr
                0x000000000006f310        0x8 c:/devkitpro/devkita64/bin/../lib/gcc/aarch64-none-elf/8.3.0/../../../../aarch64-none-elf/lib/pic\libg.a(lib_a-impure.o)
                0x000000000006f310                _global_impure_ptr
 .data.__malloc_sbrk_base
                0x000000000006f318        0x8 c:/devkitpro/devkita64/bin/../lib/gcc/aarch64-none-elf/8.3.0/../../../../aarch64-none-elf/lib/pic\libg.a(lib_a-mallocr.o)
                0x000000000006f318                __malloc_sbrk_base
 .data.__malloc_trim_threshold
                0x000000000006f320        0x8 c:/devkitpro/devkita64/bin/../lib/gcc/aarch64-none-elf/8.3.0/../../../../aarch64-none-elf/lib/pic\libg.a(lib_a-mallocr.o)
                0x000000000006f320                __malloc_trim_threshold
 .data.rel.__malloc_av_
                0x000000000006f328      0x810 c:/devkitpro/devkita64/bin/../lib/gcc/aarch64-none-elf/8.3.0/../../../../aarch64-none-elf/lib/pic\libg.a(lib_a-mallocr.o)
                0x000000000006f328                __malloc_av_
 .data.rel.local.environ
                0x000000000006fb38        0x8 c:/devkitpro/devkita64/bin/../lib/gcc/aarch64-none-elf/8.3.0/../../../../aarch64-none-elf/lib/pic\libg.a(lib_a-environ.o)
                0x000000000006fb38                environ
 .data.__default_locale
                0x000000000006fb40       0x20 c:/devkitpro/devkita64/bin/../lib/gcc/aarch64-none-elf/8.3.0/../../../../aarch64-none-elf/lib/pic\libg.a(lib_a-locale.o)
                0x000000000006fb40                __default_locale
 .data.rel.__global_locale
                0x000000000006fb60      0x1a8 c:/devkitpro/devkita64/bin/../lib/gcc/aarch64-none-elf/8.3.0/../../../../aarch64-none-elf/lib/pic\libg.a(lib_a-locale.o)
                0x000000000006fb60                __global_locale
 .data.rel.ro.__C_locale
                0x000000000006fd08      0x1a8 c:/devkitpro/devkita64/bin/../lib/gcc/aarch64-none-elf/8.3.0/../../../../aarch64-none-elf/lib/pic\libg.a(lib_a-locale.o)
                0x000000000006fd08                __C_locale
 .data.rel.ro.local.categories
                0x000000000006feb0       0x38 c:/devkitpro/devkita64/bin/../lib/gcc/aarch64-none-elf/8.3.0/../../../../aarch64-none-elf/lib/pic\libg.a(lib_a-locale.o)
 .data.defaultDevice
                0x000000000006fee8        0x4 c:/devkitpro/devkita64/bin/../lib/gcc/aarch64-none-elf/8.3.0/../../../../aarch64-none-elf/lib/pic\libsysbase.a(iosupport.o)
 *fill*         0x000000000006feec        0x4 
 .data.rel.devoptab_list
                0x000000000006fef0       0x80 c:/devkitpro/devkita64/bin/../lib/gcc/aarch64-none-elf/8.3.0/../../../../aarch64-none-elf/lib/pic\libsysbase.a(iosupport.o)
                0x000000000006fef0                devoptab_list
 .data.rel.ro.local.dotab_stdnull
                0x000000000006ff70       0xe0 c:/devkitpro/devkita64/bin/../lib/gcc/aarch64-none-elf/8.3.0/../../../../aarch64-none-elf/lib/pic\libsysbase.a(iosupport.o)
                0x000000000006ff70                dotab_stdnull
 .data._current_working_directory
                0x0000000000070050      0x400 c:/devkitpro/devkita64/bin/../lib/gcc/aarch64-none-elf/8.3.0/../../../../aarch64-none-elf/lib/pic\libsysbase.a(chdir.o)
                0x0000000000070450                __bss_start__ = .

.tm_clone_table
                0x0000000000070450        0x0
 .tm_clone_table
                0x0000000000070450        0x0 c:/devkitpro/devkita64/bin/../lib/gcc/aarch64-none-elf/8.3.0/pic/crtbegin.o
 .tm_clone_table
                0x0000000000070450        0x0 c:/devkitpro/devkita64/bin/../lib/gcc/aarch64-none-elf/8.3.0/pic/crtend.o

.bss            0x0000000000070450    0x16ce0
 *(.dynbss)
 .dynbss        0x0000000000070450        0x0 c:/devkitpro/devkita64/bin/../lib/gcc/aarch64-none-elf/8.3.0/pic/crti.o
 *(.bss .bss.* .gnu.linkonce.b.*)
 .bss.completed.7870
                0x0000000000070450        0x1 c:/devkitpro/devkita64/bin/../lib/gcc/aarch64-none-elf/8.3.0/pic/crtbegin.o
 *fill*         0x0000000000070451        0x7 
 .bss.object.7875
                0x0000000000070458       0x30 c:/devkitpro/devkita64/bin/../lib/gcc/aarch64-none-elf/8.3.0/pic/crtbegin.o
 .bss           0x0000000000070488     0x9528 main.o
                0x0000000000070488                prev_get_command_flag_cat
                0x0000000000070490                fighter_agents
                0x00000000000704d0                fighter_module_accessors
                0x0000000000070510                prev_clear_lua_stack
                0x0000000000070518                orig_ctx
                0x0000000000070520                orig_main_thread
                0x0000000000070528                orig_saved_lr
                0x0000000000078530                acmd_objs
 .bss           0x00000000000799b0        0x8 saltysd_helper.o
                0x00000000000799b0                ANCHOR_ABS
 .bss.g_argv_empty
                0x00000000000799b8        0x8 C:/Users/RNG/Desktop/Stuff/Smash-Stuff/SMASH-ULTIMATE-MODS-BABY/50xx-the-mod/acmd-edits/code-mod-framework/lib/libnx_min/nx/lib\libnx_min.a(argv.o)
 .bss.g_hasRandomSeed
                0x00000000000799c0        0x1 C:/Users/RNG/Desktop/Stuff/Smash-Stuff/SMASH-ULTIMATE-MODS-BABY/50xx-the-mod/acmd-edits/code-mod-framework/lib/libnx_min/nx/lib\libnx_min.a(env.o)
 .bss.g_isNso   0x00000000000799c1        0x1 C:/Users/RNG/Desktop/Stuff/Smash-Stuff/SMASH-ULTIMATE-MODS-BABY/50xx-the-mod/acmd-edits/code-mod-framework/lib/libnx_min/nx/lib\libnx_min.a(env.o)
 *fill*         0x00000000000799c2        0x2 
 .bss.g_lastLoadResult
                0x00000000000799c4        0x4 C:/Users/RNG/Desktop/Stuff/Smash-Stuff/SMASH-ULTIMATE-MODS-BABY/50xx-the-mod/acmd-edits/code-mod-framework/lib/libnx_min/nx/lib\libnx_min.a(env.o)
 .bss.g_loaderRetAddr
                0x00000000000799c8        0x8 C:/Users/RNG/Desktop/Stuff/Smash-Stuff/SMASH-ULTIMATE-MODS-BABY/50xx-the-mod/acmd-edits/code-mod-framework/lib/libnx_min/nx/lib\libnx_min.a(env.o)
 .bss.g_mainThreadHandle
                0x00000000000799d0        0x4 C:/Users/RNG/Desktop/Stuff/Smash-Stuff/SMASH-ULTIMATE-MODS-BABY/50xx-the-mod/acmd-edits/code-mod-framework/lib/libnx_min/nx/lib\libnx_min.a(env.o)
 *fill*         0x00000000000799d4        0x4 
 .bss.g_nextLoadArgv
                0x00000000000799d8        0x8 C:/Users/RNG/Desktop/Stuff/Smash-Stuff/SMASH-ULTIMATE-MODS-BABY/50xx-the-mod/acmd-edits/code-mod-framework/lib/libnx_min/nx/lib\libnx_min.a(env.o)
 .bss.g_nextLoadPath
                0x00000000000799e0        0x8 C:/Users/RNG/Desktop/Stuff/Smash-Stuff/SMASH-ULTIMATE-MODS-BABY/50xx-the-mod/acmd-edits/code-mod-framework/lib/libnx_min/nx/lib\libnx_min.a(env.o)
 .bss.g_overrideArgv
                0x00000000000799e8        0x8 C:/Users/RNG/Desktop/Stuff/Smash-Stuff/SMASH-ULTIMATE-MODS-BABY/50xx-the-mod/acmd-edits/code-mod-framework/lib/libnx_min/nx/lib\libnx_min.a(env.o)
 .bss.g_overrideHeapAddr
                0x00000000000799f0        0x8 C:/Users/RNG/Desktop/Stuff/Smash-Stuff/SMASH-ULTIMATE-MODS-BABY/50xx-the-mod/acmd-edits/code-mod-framework/lib/libnx_min/nx/lib\libnx_min.a(env.o)
 .bss.g_overrideHeapSize
                0x00000000000799f8        0x8 C:/Users/RNG/Desktop/Stuff/Smash-Stuff/SMASH-ULTIMATE-MODS-BABY/50xx-the-mod/acmd-edits/code-mod-framework/lib/libnx_min/nx/lib\libnx_min.a(env.o)
 .bss.g_processHandle
                0x0000000000079a00        0x4 C:/Users/RNG/Desktop/Stuff/Smash-Stuff/SMASH-ULTIMATE-MODS-BABY/50xx-the-mod/acmd-edits/code-mod-framework/lib/libnx_min/nx/lib\libnx_min.a(env.o)
 *fill*         0x0000000000079a04        0x4 
 .bss.g_randomSeed
                0x0000000000079a08       0x10 C:/Users/RNG/Desktop/Stuff/Smash-Stuff/SMASH-ULTIMATE-MODS-BABY/50xx-the-mod/acmd-edits/code-mod-framework/lib/libnx_min/nx/lib\libnx_min.a(env.o)
 .bss.g_syscallHints
                0x0000000000079a18       0x10 C:/Users/RNG/Desktop/Stuff/Smash-Stuff/SMASH-ULTIMATE-MODS-BABY/50xx-the-mod/acmd-edits/code-mod-framework/lib/libnx_min/nx/lib\libnx_min.a(env.o)
 .bss.__nx_exception_ignoredebug
                0x0000000000079a28        0x4 C:/Users/RNG/Desktop/Stuff/Smash-Stuff/SMASH-ULTIMATE-MODS-BABY/50xx-the-mod/acmd-edits/code-mod-framework/lib/libnx_min/nx/lib\libnx_min.a(init.o)
                0x0000000000079a28                __nx_exception_ignoredebug
 *fill*         0x0000000000079a2c        0x4 
 .bss.__nx_exception_stack
                0x0000000000079a30      0x400 C:/Users/RNG/Desktop/Stuff/Smash-Stuff/SMASH-ULTIMATE-MODS-BABY/50xx-the-mod/acmd-edits/code-mod-framework/lib/libnx_min/nx/lib\libnx_min.a(init.o)
                0x0000000000079a30                __nx_exception_stack
 .bss.__nx_heap_size
                0x0000000000079e30        0x8 C:/Users/RNG/Desktop/Stuff/Smash-Stuff/SMASH-ULTIMATE-MODS-BABY/50xx-the-mod/acmd-edits/code-mod-framework/lib/libnx_min/nx/lib\libnx_min.a(init.o)
                0x0000000000079e30                __nx_heap_size
 .bss.g_hosVersion
                0x0000000000079e38        0x4 C:/Users/RNG/Desktop/Stuff/Smash-Stuff/SMASH-ULTIMATE-MODS-BABY/50xx-the-mod/acmd-edits/code-mod-framework/lib/libnx_min/nx/lib\libnx_min.a(hosversion.o)
 *fill*         0x0000000000079e3c        0x4 
 .bss.fsdev_fsdevices
                0x0000000000079e40     0x2300 C:/Users/RNG/Desktop/Stuff/Smash-Stuff/SMASH-ULTIMATE-MODS-BABY/50xx-the-mod/acmd-edits/code-mod-framework/lib/libnx_min/nx/lib\libnx_min.a(fs_dev.o)
 .bss.fsdev_initialised
                0x000000000007c140        0x1 C:/Users/RNG/Desktop/Stuff/Smash-Stuff/SMASH-ULTIMATE-MODS-BABY/50xx-the-mod/acmd-edits/code-mod-framework/lib/libnx_min/nx/lib\libnx_min.a(fs_dev.o)
 *fill*         0x000000000007c141        0x7 
 .bss.g_AddressSpace
                0x000000000007c148       0x10 C:/Users/RNG/Desktop/Stuff/Smash-Stuff/SMASH-ULTIMATE-MODS-BABY/50xx-the-mod/acmd-edits/code-mod-framework/lib/libnx_min/nx/lib\libnx_min.a(virtmem.o)
 .bss.g_CurrentAddr
                0x000000000007c158        0x8 C:/Users/RNG/Desktop/Stuff/Smash-Stuff/SMASH-ULTIMATE-MODS-BABY/50xx-the-mod/acmd-edits/code-mod-framework/lib/libnx_min/nx/lib\libnx_min.a(virtmem.o)
 .bss.g_CurrentMapAddr
                0x000000000007c160        0x8 C:/Users/RNG/Desktop/Stuff/Smash-Stuff/SMASH-ULTIMATE-MODS-BABY/50xx-the-mod/acmd-edits/code-mod-framework/lib/libnx_min/nx/lib\libnx_min.a(virtmem.o)
 .bss.g_Region  0x000000000007c168       0x30 C:/Users/RNG/Desktop/Stuff/Smash-Stuff/SMASH-ULTIMATE-MODS-BABY/50xx-the-mod/acmd-edits/code-mod-framework/lib/libnx_min/nx/lib\libnx_min.a(virtmem.o)
 .bss.g_VirtMemMutex
                0x000000000007c198        0x4 C:/Users/RNG/Desktop/Stuff/Smash-Stuff/SMASH-ULTIMATE-MODS-BABY/50xx-the-mod/acmd-edits/code-mod-framework/lib/libnx_min/nx/lib\libnx_min.a(virtmem.o)
 *fill*         0x000000000007c19c        0x4 
 .bss.g_fsSrv   0x000000000007c1a0        0xc C:/Users/RNG/Desktop/Stuff/Smash-Stuff/SMASH-ULTIMATE-MODS-BABY/50xx-the-mod/acmd-edits/code-mod-framework/lib/libnx_min/nx/lib\libnx_min.a(fs.o)
 *fill*         0x000000000007c1ac        0x4 
 .bss.g_refCnt  0x000000000007c1b0        0x8 C:/Users/RNG/Desktop/Stuff/Smash-Stuff/SMASH-ULTIMATE-MODS-BABY/50xx-the-mod/acmd-edits/code-mod-framework/lib/libnx_min/nx/lib\libnx_min.a(fs.o)
 .bss.g_refCnt  0x000000000007c1b8        0x8 C:/Users/RNG/Desktop/Stuff/Smash-Stuff/SMASH-ULTIMATE-MODS-BABY/50xx-the-mod/acmd-edits/code-mod-framework/lib/libnx_min/nx/lib\libnx_min.a(set.o)
 .bss.g_refCntSys
                0x000000000007c1c0        0x8 C:/Users/RNG/Desktop/Stuff/Smash-Stuff/SMASH-ULTIMATE-MODS-BABY/50xx-the-mod/acmd-edits/code-mod-framework/lib/libnx_min/nx/lib\libnx_min.a(set.o)
 .bss.g_setLanguageCodes
                0x000000000007c1c8      0x200 C:/Users/RNG/Desktop/Stuff/Smash-Stuff/SMASH-ULTIMATE-MODS-BABY/50xx-the-mod/acmd-edits/code-mod-framework/lib/libnx_min/nx/lib\libnx_min.a(set.o)
 .bss.g_setLanguageCodesInitialized
                0x000000000007c3c8        0x1 C:/Users/RNG/Desktop/Stuff/Smash-Stuff/SMASH-ULTIMATE-MODS-BABY/50xx-the-mod/acmd-edits/code-mod-framework/lib/libnx_min/nx/lib\libnx_min.a(set.o)
 *fill*         0x000000000007c3c9        0x3 
 .bss.g_setLanguageCodesTotal
                0x000000000007c3cc        0x4 C:/Users/RNG/Desktop/Stuff/Smash-Stuff/SMASH-ULTIMATE-MODS-BABY/50xx-the-mod/acmd-edits/code-mod-framework/lib/libnx_min/nx/lib\libnx_min.a(set.o)
 .bss.g_setSrv  0x000000000007c3d0        0xc C:/Users/RNG/Desktop/Stuff/Smash-Stuff/SMASH-ULTIMATE-MODS-BABY/50xx-the-mod/acmd-edits/code-mod-framework/lib/libnx_min/nx/lib\libnx_min.a(set.o)
 *fill*         0x000000000007c3dc        0x4 
 .bss.g_setsysSrv
                0x000000000007c3e0        0xc C:/Users/RNG/Desktop/Stuff/Smash-Stuff/SMASH-ULTIMATE-MODS-BABY/50xx-the-mod/acmd-edits/code-mod-framework/lib/libnx_min/nx/lib\libnx_min.a(set.o)
 *fill*         0x000000000007c3ec        0x4 
 .bss.g_refCnt  0x000000000007c3f0        0x8 C:/Users/RNG/Desktop/Stuff/Smash-Stuff/SMASH-ULTIMATE-MODS-BABY/50xx-the-mod/acmd-edits/code-mod-framework/lib/libnx_min/nx/lib\libnx_min.a(sm.o)
 .bss.g_smOverrides
                0x000000000007c3f8      0x200 C:/Users/RNG/Desktop/Stuff/Smash-Stuff/SMASH-ULTIMATE-MODS-BABY/50xx-the-mod/acmd-edits/code-mod-framework/lib/libnx_min/nx/lib\libnx_min.a(sm.o)
 .bss.g_smOverridesNum
                0x000000000007c5f8        0x8 C:/Users/RNG/Desktop/Stuff/Smash-Stuff/SMASH-ULTIMATE-MODS-BABY/50xx-the-mod/acmd-edits/code-mod-framework/lib/libnx_min/nx/lib\libnx_min.a(sm.o)
 .bss.g_smSrv   0x000000000007c600        0xc C:/Users/RNG/Desktop/Stuff/Smash-Stuff/SMASH-ULTIMATE-MODS-BABY/50xx-the-mod/acmd-edits/code-mod-framework/lib/libnx_min/nx/lib\libnx_min.a(sm.o)
 *fill*         0x000000000007c60c        0x4 
 .bss.g_controllerDown
                0x000000000007c610       0x50 C:/Users/RNG/Desktop/Stuff/Smash-Stuff/SMASH-ULTIMATE-MODS-BABY/50xx-the-mod/acmd-edits/code-mod-framework/lib/libnx_min/nx/lib\libnx_min.a(hid.o)
 .bss.g_controllerEntries
                0x000000000007c660      0x1e0 C:/Users/RNG/Desktop/Stuff/Smash-Stuff/SMASH-ULTIMATE-MODS-BABY/50xx-the-mod/acmd-edits/code-mod-framework/lib/libnx_min/nx/lib\libnx_min.a(hid.o)
 .bss.g_controllerHeaders
                0x000000000007c840      0x190 C:/Users/RNG/Desktop/Stuff/Smash-Stuff/SMASH-ULTIMATE-MODS-BABY/50xx-the-mod/acmd-edits/code-mod-framework/lib/libnx_min/nx/lib\libnx_min.a(hid.o)
 .bss.g_controllerHeld
                0x000000000007c9d0       0x50 C:/Users/RNG/Desktop/Stuff/Smash-Stuff/SMASH-ULTIMATE-MODS-BABY/50xx-the-mod/acmd-edits/code-mod-framework/lib/libnx_min/nx/lib\libnx_min.a(hid.o)
 .bss.g_controllerLayout
                0x000000000007ca20       0x28 C:/Users/RNG/Desktop/Stuff/Smash-Stuff/SMASH-ULTIMATE-MODS-BABY/50xx-the-mod/acmd-edits/code-mod-framework/lib/libnx_min/nx/lib\libnx_min.a(hid.o)
 .bss.g_controllerMisc
                0x000000000007ca48      0x500 C:/Users/RNG/Desktop/Stuff/Smash-Stuff/SMASH-ULTIMATE-MODS-BABY/50xx-the-mod/acmd-edits/code-mod-framework/lib/libnx_min/nx/lib\libnx_min.a(hid.o)
 .bss.g_controllerOld
                0x000000000007cf48       0x50 C:/Users/RNG/Desktop/Stuff/Smash-Stuff/SMASH-ULTIMATE-MODS-BABY/50xx-the-mod/acmd-edits/code-mod-framework/lib/libnx_min/nx/lib\libnx_min.a(hid.o)
 .bss.g_controllerP1AutoID
                0x000000000007cf98        0x4 C:/Users/RNG/Desktop/Stuff/Smash-Stuff/SMASH-ULTIMATE-MODS-BABY/50xx-the-mod/acmd-edits/code-mod-framework/lib/libnx_min/nx/lib\libnx_min.a(hid.o)
 *fill*         0x000000000007cf9c        0x4 
 .bss.g_controllerTimestamps
                0x000000000007cfa0       0x50 C:/Users/RNG/Desktop/Stuff/Smash-Stuff/SMASH-ULTIMATE-MODS-BABY/50xx-the-mod/acmd-edits/code-mod-framework/lib/libnx_min/nx/lib\libnx_min.a(hid.o)
 .bss.g_controllerUp
                0x000000000007cff0       0x50 C:/Users/RNG/Desktop/Stuff/Smash-Stuff/SMASH-ULTIMATE-MODS-BABY/50xx-the-mod/acmd-edits/code-mod-framework/lib/libnx_min/nx/lib\libnx_min.a(hid.o)
 .bss.g_hidIAppletResource
                0x000000000007d040        0xc C:/Users/RNG/Desktop/Stuff/Smash-Stuff/SMASH-ULTIMATE-MODS-BABY/50xx-the-mod/acmd-edits/code-mod-framework/lib/libnx_min/nx/lib\libnx_min.a(hid.o)
 *fill*         0x000000000007d04c        0x4 
 .bss.g_hidLock
                0x000000000007d050       0x10 C:/Users/RNG/Desktop/Stuff/Smash-Stuff/SMASH-ULTIMATE-MODS-BABY/50xx-the-mod/acmd-edits/code-mod-framework/lib/libnx_min/nx/lib\libnx_min.a(hid.o)
 .bss.g_hidSharedmem
                0x000000000007d060       0x20 C:/Users/RNG/Desktop/Stuff/Smash-Stuff/SMASH-ULTIMATE-MODS-BABY/50xx-the-mod/acmd-edits/code-mod-framework/lib/libnx_min/nx/lib\libnx_min.a(hid.o)
 .bss.g_hidSrv  0x000000000007d080        0xc C:/Users/RNG/Desktop/Stuff/Smash-Stuff/SMASH-ULTIMATE-MODS-BABY/50xx-the-mod/acmd-edits/code-mod-framework/lib/libnx_min/nx/lib\libnx_min.a(hid.o)
 *fill*         0x000000000007d08c        0x4 
 .bss.g_keyboardDown
                0x000000000007d090       0x20 C:/Users/RNG/Desktop/Stuff/Smash-Stuff/SMASH-ULTIMATE-MODS-BABY/50xx-the-mod/acmd-edits/code-mod-framework/lib/libnx_min/nx/lib\libnx_min.a(hid.o)
 .bss.g_keyboardEntry
                0x000000000007d0b0       0x38 C:/Users/RNG/Desktop/Stuff/Smash-Stuff/SMASH-ULTIMATE-MODS-BABY/50xx-the-mod/acmd-edits/code-mod-framework/lib/libnx_min/nx/lib\libnx_min.a(hid.o)
 .bss.g_keyboardHeld
                0x000000000007d0e8       0x20 C:/Users/RNG/Desktop/Stuff/Smash-Stuff/SMASH-ULTIMATE-MODS-BABY/50xx-the-mod/acmd-edits/code-mod-framework/lib/libnx_min/nx/lib\libnx_min.a(hid.o)
 .bss.g_keyboardModDown
                0x000000000007d108        0x8 C:/Users/RNG/Desktop/Stuff/Smash-Stuff/SMASH-ULTIMATE-MODS-BABY/50xx-the-mod/acmd-edits/code-mod-framework/lib/libnx_min/nx/lib\libnx_min.a(hid.o)
 .bss.g_keyboardModHeld
                0x000000000007d110        0x8 C:/Users/RNG/Desktop/Stuff/Smash-Stuff/SMASH-ULTIMATE-MODS-BABY/50xx-the-mod/acmd-edits/code-mod-framework/lib/libnx_min/nx/lib\libnx_min.a(hid.o)
 .bss.g_keyboardModOld
                0x000000000007d118        0x8 C:/Users/RNG/Desktop/Stuff/Smash-Stuff/SMASH-ULTIMATE-MODS-BABY/50xx-the-mod/acmd-edits/code-mod-framework/lib/libnx_min/nx/lib\libnx_min.a(hid.o)
 .bss.g_keyboardModUp
                0x000000000007d120        0x8 C:/Users/RNG/Desktop/Stuff/Smash-Stuff/SMASH-ULTIMATE-MODS-BABY/50xx-the-mod/acmd-edits/code-mod-framework/lib/libnx_min/nx/lib\libnx_min.a(hid.o)
 .bss.g_keyboardOld
                0x000000000007d128       0x20 C:/Users/RNG/Desktop/Stuff/Smash-Stuff/SMASH-ULTIMATE-MODS-BABY/50xx-the-mod/acmd-edits/code-mod-framework/lib/libnx_min/nx/lib\libnx_min.a(hid.o)
 .bss.g_keyboardTimestamp
                0x000000000007d148        0x8 C:/Users/RNG/Desktop/Stuff/Smash-Stuff/SMASH-ULTIMATE-MODS-BABY/50xx-the-mod/acmd-edits/code-mod-framework/lib/libnx_min/nx/lib\libnx_min.a(hid.o)
 .bss.g_keyboardUp
                0x000000000007d150       0x20 C:/Users/RNG/Desktop/Stuff/Smash-Stuff/SMASH-ULTIMATE-MODS-BABY/50xx-the-mod/acmd-edits/code-mod-framework/lib/libnx_min/nx/lib\libnx_min.a(hid.o)
 .bss.g_mouse   0x000000000007d170      0x400 C:/Users/RNG/Desktop/Stuff/Smash-Stuff/SMASH-ULTIMATE-MODS-BABY/50xx-the-mod/acmd-edits/code-mod-framework/lib/libnx_min/nx/lib\libnx_min.a(hid.o)
 .bss.g_mouseDown
                0x000000000007d570        0x8 C:/Users/RNG/Desktop/Stuff/Smash-Stuff/SMASH-ULTIMATE-MODS-BABY/50xx-the-mod/acmd-edits/code-mod-framework/lib/libnx_min/nx/lib\libnx_min.a(hid.o)
 .bss.g_mouseEntry
                0x000000000007d578        0x8 C:/Users/RNG/Desktop/Stuff/Smash-Stuff/SMASH-ULTIMATE-MODS-BABY/50xx-the-mod/acmd-edits/code-mod-framework/lib/libnx_min/nx/lib\libnx_min.a(hid.o)
 .bss.g_mouseHeld
                0x000000000007d580        0x8 C:/Users/RNG/Desktop/Stuff/Smash-Stuff/SMASH-ULTIMATE-MODS-BABY/50xx-the-mod/acmd-edits/code-mod-framework/lib/libnx_min/nx/lib\libnx_min.a(hid.o)
 .bss.g_mouseOld
                0x000000000007d588        0x8 C:/Users/RNG/Desktop/Stuff/Smash-Stuff/SMASH-ULTIMATE-MODS-BABY/50xx-the-mod/acmd-edits/code-mod-framework/lib/libnx_min/nx/lib\libnx_min.a(hid.o)
 .bss.g_mouseTimestamp
                0x000000000007d590        0x8 C:/Users/RNG/Desktop/Stuff/Smash-Stuff/SMASH-ULTIMATE-MODS-BABY/50xx-the-mod/acmd-edits/code-mod-framework/lib/libnx_min/nx/lib\libnx_min.a(hid.o)
 .bss.g_mouseUp
                0x000000000007d598        0x8 C:/Users/RNG/Desktop/Stuff/Smash-Stuff/SMASH-ULTIMATE-MODS-BABY/50xx-the-mod/acmd-edits/code-mod-framework/lib/libnx_min/nx/lib\libnx_min.a(hid.o)
 .bss.g_refCnt  0x000000000007d5a0        0x8 C:/Users/RNG/Desktop/Stuff/Smash-Stuff/SMASH-ULTIMATE-MODS-BABY/50xx-the-mod/acmd-edits/code-mod-framework/lib/libnx_min/nx/lib\libnx_min.a(hid.o)
 .bss.g_sevenSixAxisSensorBuffer
                0x000000000007d5a8        0x8 C:/Users/RNG/Desktop/Stuff/Smash-Stuff/SMASH-ULTIMATE-MODS-BABY/50xx-the-mod/acmd-edits/code-mod-framework/lib/libnx_min/nx/lib\libnx_min.a(hid.o)
 .bss.g_sevenSixAxisSensorTmem0
                0x000000000007d5b0       0x28 C:/Users/RNG/Desktop/Stuff/Smash-Stuff/SMASH-ULTIMATE-MODS-BABY/50xx-the-mod/acmd-edits/code-mod-framework/lib/libnx_min/nx/lib\libnx_min.a(hid.o)
 .bss.g_sevenSixAxisSensorTmem1
                0x000000000007d5d8       0x28 C:/Users/RNG/Desktop/Stuff/Smash-Stuff/SMASH-ULTIMATE-MODS-BABY/50xx-the-mod/acmd-edits/code-mod-framework/lib/libnx_min/nx/lib\libnx_min.a(hid.o)
 .bss.g_sixaxisEnabled
                0x000000000007d600        0xa C:/Users/RNG/Desktop/Stuff/Smash-Stuff/SMASH-ULTIMATE-MODS-BABY/50xx-the-mod/acmd-edits/code-mod-framework/lib/libnx_min/nx/lib\libnx_min.a(hid.o)
 *fill*         0x000000000007d60a        0x6 
 .bss.g_sixaxisLayouts
                0x000000000007d610     0x4650 C:/Users/RNG/Desktop/Stuff/Smash-Stuff/SMASH-ULTIMATE-MODS-BABY/50xx-the-mod/acmd-edits/code-mod-framework/lib/libnx_min/nx/lib\libnx_min.a(hid.o)
 .bss.g_touchEntry
                0x0000000000081c60      0x298 C:/Users/RNG/Desktop/Stuff/Smash-Stuff/SMASH-ULTIMATE-MODS-BABY/50xx-the-mod/acmd-edits/code-mod-framework/lib/libnx_min/nx/lib\libnx_min.a(hid.o)
 .bss.g_touchTimestamp
                0x0000000000081ef8        0x8 C:/Users/RNG/Desktop/Stuff/Smash-Stuff/SMASH-ULTIMATE-MODS-BABY/50xx-the-mod/acmd-edits/code-mod-framework/lib/libnx_min/nx/lib\libnx_min.a(hid.o)
 .bss.g_refCnt  0x0000000000081f00        0x8 C:/Users/RNG/Desktop/Stuff/Smash-Stuff/SMASH-ULTIMATE-MODS-BABY/50xx-the-mod/acmd-edits/code-mod-framework/lib/libnx_min/nx/lib\libnx_min.a(time.o)
 .bss.g_timeLocalSystemClock
                0x0000000000081f08        0xc C:/Users/RNG/Desktop/Stuff/Smash-Stuff/SMASH-ULTIMATE-MODS-BABY/50xx-the-mod/acmd-edits/code-mod-framework/lib/libnx_min/nx/lib\libnx_min.a(time.o)
 *fill*         0x0000000000081f14        0x4 
 .bss.g_timeNetworkSystemClock
                0x0000000000081f18        0xc C:/Users/RNG/Desktop/Stuff/Smash-Stuff/SMASH-ULTIMATE-MODS-BABY/50xx-the-mod/acmd-edits/code-mod-framework/lib/libnx_min/nx/lib\libnx_min.a(time.o)
 *fill*         0x0000000000081f24        0x4 
 .bss.g_timeSrv
                0x0000000000081f28        0xc C:/Users/RNG/Desktop/Stuff/Smash-Stuff/SMASH-ULTIMATE-MODS-BABY/50xx-the-mod/acmd-edits/code-mod-framework/lib/libnx_min/nx/lib\libnx_min.a(time.o)
 *fill*         0x0000000000081f34        0x4 
 .bss.g_timeTimeZoneService
                0x0000000000081f38        0xc C:/Users/RNG/Desktop/Stuff/Smash-Stuff/SMASH-ULTIMATE-MODS-BABY/50xx-the-mod/acmd-edits/code-mod-framework/lib/libnx_min/nx/lib\libnx_min.a(time.o)
 *fill*         0x0000000000081f44        0x4 
 .bss.g_timeUserSystemClock
                0x0000000000081f48        0xc C:/Users/RNG/Desktop/Stuff/Smash-Stuff/SMASH-ULTIMATE-MODS-BABY/50xx-the-mod/acmd-edits/code-mod-framework/lib/libnx_min/nx/lib\libnx_min.a(time.o)
 *fill*         0x0000000000081f54        0x4 
 .bss.__nx_applet_AppletAttribute
                0x0000000000081f58       0x80 C:/Users/RNG/Desktop/Stuff/Smash-Stuff/SMASH-ULTIMATE-MODS-BABY/50xx-the-mod/acmd-edits/code-mod-framework/lib/libnx_min/nx/lib\libnx_min.a(applet.o)
                0x0000000000081f58                __nx_applet_AppletAttribute
 .bss.__nx_applet_PerformanceConfiguration
                0x0000000000081fd8        0x8 C:/Users/RNG/Desktop/Stuff/Smash-Stuff/SMASH-ULTIMATE-MODS-BABY/50xx-the-mod/acmd-edits/code-mod-framework/lib/libnx_min/nx/lib\libnx_min.a(applet.o)
                0x0000000000081fd8                __nx_applet_PerformanceConfiguration
 .bss.__nx_applet_exit_mode
                0x0000000000081fe0        0x4 C:/Users/RNG/Desktop/Stuff/Smash-Stuff/SMASH-ULTIMATE-MODS-BABY/50xx-the-mod/acmd-edits/code-mod-framework/lib/libnx_min/nx/lib\libnx_min.a(applet.o)
                0x0000000000081fe0                __nx_applet_exit_mode
 .bss.g_appletCpuBoostMode
                0x0000000000081fe4        0x4 C:/Users/RNG/Desktop/Stuff/Smash-Stuff/SMASH-ULTIMATE-MODS-BABY/50xx-the-mod/acmd-edits/code-mod-framework/lib/libnx_min/nx/lib\libnx_min.a(applet.o)
 .bss.g_appletExitProcessFlag
                0x0000000000081fe8        0x1 C:/Users/RNG/Desktop/Stuff/Smash-Stuff/SMASH-ULTIMATE-MODS-BABY/50xx-the-mod/acmd-edits/code-mod-framework/lib/libnx_min/nx/lib\libnx_min.a(applet.o)
 *fill*         0x0000000000081fe9        0x7 
 .bss.g_appletFirstHook
                0x0000000000081ff0       0x18 C:/Users/RNG/Desktop/Stuff/Smash-Stuff/SMASH-ULTIMATE-MODS-BABY/50xx-the-mod/acmd-edits/code-mod-framework/lib/libnx_min/nx/lib\libnx_min.a(applet.o)
 .bss.g_appletFocusState
                0x0000000000082008        0x1 C:/Users/RNG/Desktop/Stuff/Smash-Stuff/SMASH-ULTIMATE-MODS-BABY/50xx-the-mod/acmd-edits/code-mod-framework/lib/libnx_min/nx/lib\libnx_min.a(applet.o)
 *fill*         0x0000000000082009        0x7 
 .bss.g_appletIApplicationCreator
                0x0000000000082010        0xc C:/Users/RNG/Desktop/Stuff/Smash-Stuff/SMASH-ULTIMATE-MODS-BABY/50xx-the-mod/acmd-edits/code-mod-framework/lib/libnx_min/nx/lib\libnx_min.a(applet.o)
 *fill*         0x000000000008201c        0x4 
 .bss.g_appletIAudioController
                0x0000000000082020        0xc C:/Users/RNG/Desktop/Stuff/Smash-Stuff/SMASH-ULTIMATE-MODS-BABY/50xx-the-mod/acmd-edits/code-mod-framework/lib/libnx_min/nx/lib\libnx_min.a(applet.o)
 *fill*         0x000000000008202c        0x4 
 .bss.g_appletICommonStateGetter
                0x0000000000082030        0xc C:/Users/RNG/Desktop/Stuff/Smash-Stuff/SMASH-ULTIMATE-MODS-BABY/50xx-the-mod/acmd-edits/code-mod-framework/lib/libnx_min/nx/lib\libnx_min.a(applet.o)
 *fill*         0x000000000008203c        0x4 
 .bss.g_appletIDebugFunctions
                0x0000000000082040        0xc C:/Users/RNG/Desktop/Stuff/Smash-Stuff/SMASH-ULTIMATE-MODS-BABY/50xx-the-mod/acmd-edits/code-mod-framework/lib/libnx_min/nx/lib\libnx_min.a(applet.o)
 *fill*         0x000000000008204c        0x4 
 .bss.g_appletIDisplayController
                0x0000000000082050        0xc C:/Users/RNG/Desktop/Stuff/Smash-Stuff/SMASH-ULTIMATE-MODS-BABY/50xx-the-mod/acmd-edits/code-mod-framework/lib/libnx_min/nx/lib\libnx_min.a(applet.o)
 *fill*         0x000000000008205c        0x4 
 .bss.g_appletIFunctions
                0x0000000000082060        0xc C:/Users/RNG/Desktop/Stuff/Smash-Stuff/SMASH-ULTIMATE-MODS-BABY/50xx-the-mod/acmd-edits/code-mod-framework/lib/libnx_min/nx/lib\libnx_min.a(applet.o)
 *fill*         0x000000000008206c        0x4 
 .bss.g_appletIGlobalStateController
                0x0000000000082070        0xc C:/Users/RNG/Desktop/Stuff/Smash-Stuff/SMASH-ULTIMATE-MODS-BABY/50xx-the-mod/acmd-edits/code-mod-framework/lib/libnx_min/nx/lib\libnx_min.a(applet.o)
 *fill*         0x000000000008207c        0x4 
 .bss.g_appletILibraryAppletCreator
                0x0000000000082080        0xc C:/Users/RNG/Desktop/Stuff/Smash-Stuff/SMASH-ULTIMATE-MODS-BABY/50xx-the-mod/acmd-edits/code-mod-framework/lib/libnx_min/nx/lib\libnx_min.a(applet.o)
 *fill*         0x000000000008208c        0x4 
 .bss.g_appletILibraryAppletSelfAccessor
                0x0000000000082090        0xc C:/Users/RNG/Desktop/Stuff/Smash-Stuff/SMASH-ULTIMATE-MODS-BABY/50xx-the-mod/acmd-edits/code-mod-framework/lib/libnx_min/nx/lib\libnx_min.a(applet.o)
 *fill*         0x000000000008209c        0x4 
 .bss.g_appletIProcessWindingController
                0x00000000000820a0        0xc C:/Users/RNG/Desktop/Stuff/Smash-Stuff/SMASH-ULTIMATE-MODS-BABY/50xx-the-mod/acmd-edits/code-mod-framework/lib/libnx_min/nx/lib\libnx_min.a(applet.o)
 *fill*         0x00000000000820ac        0x4 
 .bss.g_appletISelfController
                0x00000000000820b0        0xc C:/Users/RNG/Desktop/Stuff/Smash-Stuff/SMASH-ULTIMATE-MODS-BABY/50xx-the-mod/acmd-edits/code-mod-framework/lib/libnx_min/nx/lib\libnx_min.a(applet.o)
 *fill*         0x00000000000820bc        0x4 
 .bss.g_appletIWindowController
                0x00000000000820c0        0xc C:/Users/RNG/Desktop/Stuff/Smash-Stuff/SMASH-ULTIMATE-MODS-BABY/50xx-the-mod/acmd-edits/code-mod-framework/lib/libnx_min/nx/lib\libnx_min.a(applet.o)
 *fill*         0x00000000000820cc        0x4 
 .bss.g_appletLibraryAppletLaunchableEvent
                0x00000000000820d0        0xc C:/Users/RNG/Desktop/Stuff/Smash-Stuff/SMASH-ULTIMATE-MODS-BABY/50xx-the-mod/acmd-edits/code-mod-framework/lib/libnx_min/nx/lib\libnx_min.a(applet.o)
 *fill*         0x00000000000820dc        0x4 
 .bss.g_appletMessageEvent
                0x00000000000820e0        0xc C:/Users/RNG/Desktop/Stuff/Smash-Stuff/SMASH-ULTIMATE-MODS-BABY/50xx-the-mod/acmd-edits/code-mod-framework/lib/libnx_min/nx/lib\libnx_min.a(applet.o)
 .bss.g_appletNotifiedRunning
                0x00000000000820ec        0x1 C:/Users/RNG/Desktop/Stuff/Smash-Stuff/SMASH-ULTIMATE-MODS-BABY/50xx-the-mod/acmd-edits/code-mod-framework/lib/libnx_min/nx/lib\libnx_min.a(applet.o)
 .bss.g_appletOperationMode
                0x00000000000820ed        0x1 C:/Users/RNG/Desktop/Stuff/Smash-Stuff/SMASH-ULTIMATE-MODS-BABY/50xx-the-mod/acmd-edits/code-mod-framework/lib/libnx_min/nx/lib\libnx_min.a(applet.o)
 *fill*         0x00000000000820ee        0x2 
 .bss.g_appletPerformanceMode
                0x00000000000820f0        0x4 C:/Users/RNG/Desktop/Stuff/Smash-Stuff/SMASH-ULTIMATE-MODS-BABY/50xx-the-mod/acmd-edits/code-mod-framework/lib/libnx_min/nx/lib\libnx_min.a(applet.o)
 *fill*         0x00000000000820f4        0x4 
 .bss.g_appletProxySession
                0x00000000000820f8        0xc C:/Users/RNG/Desktop/Stuff/Smash-Stuff/SMASH-ULTIMATE-MODS-BABY/50xx-the-mod/acmd-edits/code-mod-framework/lib/libnx_min/nx/lib\libnx_min.a(applet.o)
 .bss.g_appletRecordingInitialized
                0x0000000000082104        0x4 C:/Users/RNG/Desktop/Stuff/Smash-Stuff/SMASH-ULTIMATE-MODS-BABY/50xx-the-mod/acmd-edits/code-mod-framework/lib/libnx_min/nx/lib\libnx_min.a(applet.o)
 .bss.g_appletRecordingTmem
                0x0000000000082108       0x28 C:/Users/RNG/Desktop/Stuff/Smash-Stuff/SMASH-ULTIMATE-MODS-BABY/50xx-the-mod/acmd-edits/code-mod-framework/lib/libnx_min/nx/lib\libnx_min.a(applet.o)
 .bss.g_appletResourceUserId
                0x0000000000082130        0x8 C:/Users/RNG/Desktop/Stuff/Smash-Stuff/SMASH-ULTIMATE-MODS-BABY/50xx-the-mod/acmd-edits/code-mod-framework/lib/libnx_min/nx/lib\libnx_min.a(applet.o)
 .bss.g_appletSrv
                0x0000000000082138        0xc C:/Users/RNG/Desktop/Stuff/Smash-Stuff/SMASH-ULTIMATE-MODS-BABY/50xx-the-mod/acmd-edits/code-mod-framework/lib/libnx_min/nx/lib\libnx_min.a(applet.o)
 .bss.g_appletThemeColorType
                0x0000000000082144        0x4 C:/Users/RNG/Desktop/Stuff/Smash-Stuff/SMASH-ULTIMATE-MODS-BABY/50xx-the-mod/acmd-edits/code-mod-framework/lib/libnx_min/nx/lib\libnx_min.a(applet.o)
 .bss.g_refCnt  0x0000000000082148        0x8 C:/Users/RNG/Desktop/Stuff/Smash-Stuff/SMASH-ULTIMATE-MODS-BABY/50xx-the-mod/acmd-edits/code-mod-framework/lib/libnx_min/nx/lib\libnx_min.a(applet.o)
 .bss.__bootticks
                0x0000000000082150        0x8 C:/Users/RNG/Desktop/Stuff/Smash-Stuff/SMASH-ULTIMATE-MODS-BABY/50xx-the-mod/acmd-edits/code-mod-framework/lib/libnx_min/nx/lib\libnx_min.a(newlib.o)
 .bss.__boottime
                0x0000000000082158        0x8 C:/Users/RNG/Desktop/Stuff/Smash-Stuff/SMASH-ULTIMATE-MODS-BABY/50xx-the-mod/acmd-edits/code-mod-framework/lib/libnx_min/nx/lib\libnx_min.a(newlib.o)
 .bss.__nx_time_type
                0x0000000000082160        0x4 C:/Users/RNG/Desktop/Stuff/Smash-Stuff/SMASH-ULTIMATE-MODS-BABY/50xx-the-mod/acmd-edits/code-mod-framework/lib/libnx_min/nx/lib\libnx_min.a(newlib.o)
                0x0000000000082160                __nx_time_type
 *fill*         0x0000000000082164        0x4 
 .bss.g_threadList
                0x0000000000082168        0x8 C:/Users/RNG/Desktop/Stuff/Smash-Stuff/SMASH-ULTIMATE-MODS-BABY/50xx-the-mod/acmd-edits/code-mod-framework/lib/libnx_min/nx/lib\libnx_min.a(thread.o)
 .bss.g_threadMutex
                0x0000000000082170        0x4 C:/Users/RNG/Desktop/Stuff/Smash-Stuff/SMASH-ULTIMATE-MODS-BABY/50xx-the-mod/acmd-edits/code-mod-framework/lib/libnx_min/nx/lib\libnx_min.a(thread.o)
 *fill*         0x0000000000082174        0x4 
 .bss.g_tlsDestructors
                0x0000000000082178       0xd0 C:/Users/RNG/Desktop/Stuff/Smash-Stuff/SMASH-ULTIMATE-MODS-BABY/50xx-the-mod/acmd-edits/code-mod-framework/lib/libnx_min/nx/lib\libnx_min.a(thread.o)
 .bss.g_tlsUsageMask
                0x0000000000082248        0x8 C:/Users/RNG/Desktop/Stuff/Smash-Stuff/SMASH-ULTIMATE-MODS-BABY/50xx-the-mod/acmd-edits/code-mod-framework/lib/libnx_min/nx/lib\libnx_min.a(thread.o)
 .bss.g_JitKernelPatchCached
                0x0000000000082250        0x1 C:/Users/RNG/Desktop/Stuff/Smash-Stuff/SMASH-ULTIMATE-MODS-BABY/50xx-the-mod/acmd-edits/code-mod-framework/lib/libnx_min/nx/lib\libnx_min.a(detect.o)
 .bss.g_JitKernelPatchDetected
                0x0000000000082251        0x1 C:/Users/RNG/Desktop/Stuff/Smash-Stuff/SMASH-ULTIMATE-MODS-BABY/50xx-the-mod/acmd-edits/code-mod-framework/lib/libnx_min/nx/lib\libnx_min.a(detect.o)
 *fill*         0x0000000000082252        0x2 
 .bss.g_JitKernelPatchMutex
                0x0000000000082254        0x4 C:/Users/RNG/Desktop/Stuff/Smash-Stuff/SMASH-ULTIMATE-MODS-BABY/50xx-the-mod/acmd-edits/code-mod-framework/lib/libnx_min/nx/lib\libnx_min.a(detect.o)
 .bss.g_Version
                0x0000000000082258        0x4 C:/Users/RNG/Desktop/Stuff/Smash-Stuff/SMASH-ULTIMATE-MODS-BABY/50xx-the-mod/acmd-edits/code-mod-framework/lib/libnx_min/nx/lib\libnx_min.a(detect.o)
 .bss.g_VersionCached
                0x000000000008225c        0x1 C:/Users/RNG/Desktop/Stuff/Smash-Stuff/SMASH-ULTIMATE-MODS-BABY/50xx-the-mod/acmd-edits/code-mod-framework/lib/libnx_min/nx/lib\libnx_min.a(detect.o)
 *fill*         0x000000000008225d        0x3 
 .bss.g_VersionMutex
                0x0000000000082260        0x4 C:/Users/RNG/Desktop/Stuff/Smash-Stuff/SMASH-ULTIMATE-MODS-BABY/50xx-the-mod/acmd-edits/code-mod-framework/lib/libnx_min/nx/lib\libnx_min.a(detect.o)
 *fill*         0x0000000000082264        0x4 
 .bss.g_apmISession
                0x0000000000082268        0xc C:/Users/RNG/Desktop/Stuff/Smash-Stuff/SMASH-ULTIMATE-MODS-BABY/50xx-the-mod/acmd-edits/code-mod-framework/lib/libnx_min/nx/lib\libnx_min.a(apm.o)
 *fill*         0x0000000000082274        0x4 
 .bss.g_apmSrv  0x0000000000082278        0xc C:/Users/RNG/Desktop/Stuff/Smash-Stuff/SMASH-ULTIMATE-MODS-BABY/50xx-the-mod/acmd-edits/code-mod-framework/lib/libnx_min/nx/lib\libnx_min.a(apm.o)
 *fill*         0x0000000000082284        0x4 
 .bss.g_refCnt  0x0000000000082288        0x8 C:/Users/RNG/Desktop/Stuff/Smash-Stuff/SMASH-ULTIMATE-MODS-BABY/50xx-the-mod/acmd-edits/code-mod-framework/lib/libnx_min/nx/lib\libnx_min.a(apm.o)
 .bss.__malloc_current_mallinfo
                0x0000000000082290       0x28 c:/devkitpro/devkita64/bin/../lib/gcc/aarch64-none-elf/8.3.0/../../../../aarch64-none-elf/lib/pic\libg.a(lib_a-mallocr.o)
                0x0000000000082290                __malloc_current_mallinfo
 .bss.__malloc_max_sbrked_mem
                0x00000000000822b8        0x8 c:/devkitpro/devkita64/bin/../lib/gcc/aarch64-none-elf/8.3.0/../../../../aarch64-none-elf/lib/pic\libg.a(lib_a-mallocr.o)
                0x00000000000822b8                __malloc_max_sbrked_mem
 .bss.__malloc_max_total_mem
                0x00000000000822c0        0x8 c:/devkitpro/devkita64/bin/../lib/gcc/aarch64-none-elf/8.3.0/../../../../aarch64-none-elf/lib/pic\libg.a(lib_a-mallocr.o)
                0x00000000000822c0                __malloc_max_total_mem
 .bss.__malloc_top_pad
                0x00000000000822c8        0x8 c:/devkitpro/devkita64/bin/../lib/gcc/aarch64-none-elf/8.3.0/../../../../aarch64-none-elf/lib/pic\libg.a(lib_a-mallocr.o)
                0x00000000000822c8                __malloc_top_pad
 .bss.__malloc_recursive_mutex
                0x00000000000822d0        0xc c:/devkitpro/devkita64/bin/../lib/gcc/aarch64-none-elf/8.3.0/../../../../aarch64-none-elf/lib/pic\libg.a(lib_a-mlock.o)
 .bss.alloced.4086
                0x00000000000822dc        0x4 c:/devkitpro/devkita64/bin/../lib/gcc/aarch64-none-elf/8.3.0/../../../../aarch64-none-elf/lib/pic\libg.a(lib_a-setenv_r.o)
 .bss.__atexit_recursive_mutex
                0x00000000000822e0        0xc c:/devkitpro/devkita64/bin/../lib/gcc/aarch64-none-elf/8.3.0/../../../../aarch64-none-elf/lib/pic\libg.a(lib_a-__call_atexit.o)
                0x00000000000822e0                __atexit_recursive_mutex
 *fill*         0x00000000000822ec        0x4 
 .bss.initial_env
                0x00000000000822f0        0x8 c:/devkitpro/devkita64/bin/../lib/gcc/aarch64-none-elf/8.3.0/../../../../aarch64-none-elf/lib/pic\libg.a(lib_a-environ.o)
 .bss.__env_recursive_mutex
                0x00000000000822f8        0xc c:/devkitpro/devkita64/bin/../lib/gcc/aarch64-none-elf/8.3.0/../../../../aarch64-none-elf/lib/pic\libg.a(lib_a-envlock.o)
 *fill*         0x0000000000082304        0x4 
 .bss._PathLocale
                0x0000000000082308        0x8 c:/devkitpro/devkita64/bin/../lib/gcc/aarch64-none-elf/8.3.0/../../../../aarch64-none-elf/lib/pic\libg.a(lib_a-locale.o)
                0x0000000000082308                _PathLocale
 .bss.global_locale_string
                0x0000000000082310       0xe7 c:/devkitpro/devkita64/bin/../lib/gcc/aarch64-none-elf/8.3.0/../../../../aarch64-none-elf/lib/pic\libg.a(lib_a-locale.o)
 *fill*         0x00000000000823f7        0x1 
 .bss.new_categories.4568
                0x00000000000823f8       0xe0 c:/devkitpro/devkita64/bin/../lib/gcc/aarch64-none-elf/8.3.0/../../../../aarch64-none-elf/lib/pic\libg.a(lib_a-locale.o)
 .bss.saved_categories.4569
                0x00000000000824d8       0xe0 c:/devkitpro/devkita64/bin/../lib/gcc/aarch64-none-elf/8.3.0/../../../../aarch64-none-elf/lib/pic\libg.a(lib_a-locale.o)
 .bss.heap_start.5295
                0x00000000000825b8        0x8 c:/devkitpro/devkita64/bin/../lib/gcc/aarch64-none-elf/8.3.0/../../../../aarch64-none-elf/lib/pic\libsysbase.a(sbrk.o)
 .bss.fake_heap_end
                0x00000000000825c0        0x8 c:/devkitpro/devkita64/bin/../lib/gcc/aarch64-none-elf/8.3.0/../../../../aarch64-none-elf/lib/pic\libsysbase.a(malloc_vars.o)
                0x00000000000825c0                fake_heap_end
 .bss.fake_heap_start
                0x00000000000825c8        0x8 c:/devkitpro/devkita64/bin/../lib/gcc/aarch64-none-elf/8.3.0/../../../../aarch64-none-elf/lib/pic\libsysbase.a(malloc_vars.o)
                0x00000000000825c8                fake_heap_start
 .bss.temp_cwd  0x00000000000825d0      0x400 c:/devkitpro/devkita64/bin/../lib/gcc/aarch64-none-elf/8.3.0/../../../../aarch64-none-elf/lib/pic\libsysbase.a(chdir.o)
 *(COMMON)
 COMMON         0x00000000000829d0        0xc C:/Users/RNG/Desktop/Stuff/Smash-Stuff/SMASH-ULTIMATE-MODS-BABY/50xx-the-mod/acmd-edits/code-mod-framework/lib/libnx_min/nx/lib\libnx_min.a(argv.o)
                0x00000000000829d0                __system_argv
                0x00000000000829d8                __system_argc
 *fill*         0x00000000000829dc        0x4 
 COMMON         0x00000000000829e0      0x348 C:/Users/RNG/Desktop/Stuff/Smash-Stuff/SMASH-ULTIMATE-MODS-BABY/50xx-the-mod/acmd-edits/code-mod-framework/lib/libnx_min/nx/lib\libnx_min.a(init.o)
                0x00000000000829e0                __nx_exceptiondump
                0x0000000000082d20                __stack_top
                0x0000000000082d28                . = ALIGN (0x8)
                0x0000000000082d28                __tls_start = .
                0x0000000000087130                . = (. + (SIZEOF (.tdata) + SIZEOF (.tbss)))
 *fill*         0x0000000000082d28     0x4408 
                0x0000000000087130                __tls_end = .
                0x0000000000087130                __bss_end__ = .
                0x0000000000087130                __end__ = ABSOLUTE (.)
                0x0000000000088000                . = ALIGN (0x1000)
                0x0000000000088000                __argdata__ = ABSOLUTE (.)

/DISCARD/
 *(.group .comment .note)

.stab
 *(.stab)

.stabstr
 *(.stabstr)

.stab.excl
 *(.stab.excl)

.stab.exclstr
 *(.stab.exclstr)

.stab.index
 *(.stab.index)

.stab.indexstr
 *(.stab.indexstr)

.debug
 *(.debug)

.line
 *(.line)

.debug_srcinfo
 *(.debug_srcinfo)

.debug_sfnames
 *(.debug_sfnames)

.debug_aranges
 *(.debug_aranges)

.debug_pubnames
 *(.debug_pubnames)

.debug_info
 *(.debug_info)

.debug_abbrev
 *(.debug_abbrev)

.debug_line
 *(.debug_line)

.debug_frame
 *(.debug_frame)

.debug_str
 *(.debug_str)

.debug_loc
 *(.debug_loc)

.debug_macinfo
 *(.debug_macinfo)
LOAD c:/devkitpro/devkita64/bin/../lib/gcc/aarch64-none-elf/8.3.0/pic/crti.o
LOAD c:/devkitpro/devkita64/bin/../lib/gcc/aarch64-none-elf/8.3.0/pic/crtbegin.o
LOAD main.o
LOAD acmd_wrapper.o
LOAD saltysd_helper.o
LOAD l2c_imports.o
LOAD lua_bind_hash.o
LOAD raygun_printer.o
LOAD C:/Users/RNG/Desktop/Stuff/Smash-Stuff/SMASH-ULTIMATE-MODS-BABY/50xx-the-mod/acmd-edits/code-mod-framework/lib/libnx_min/nx/lib\libnx_min.a
LOAD c:/devkitpro/devkita64/bin/../lib/gcc/aarch64-none-elf/8.3.0/../../../../aarch64-none-elf/lib/pic\libstdc++.a
LOAD c:/devkitpro/devkita64/bin/../lib/gcc/aarch64-none-elf/8.3.0/../../../../aarch64-none-elf/lib/pic\libm.a
START GROUP
LOAD c:/devkitpro/devkita64/bin/../lib/gcc/aarch64-none-elf/8.3.0/pic\libgcc.a
LOAD c:/devkitpro/devkita64/bin/../lib/gcc/aarch64-none-elf/8.3.0/../../../../aarch64-none-elf/lib/pic\libg.a
LOAD c:/devkitpro/devkita64/bin/../lib/gcc/aarch64-none-elf/8.3.0/../../../../aarch64-none-elf/lib/pic\libc.a
LOAD c:/devkitpro/devkita64/bin/../lib/gcc/aarch64-none-elf/8.3.0/../../../../aarch64-none-elf/lib/pic\libsysbase.a
END GROUP
LOAD c:/devkitpro/devkita64/bin/../lib/gcc/aarch64-none-elf/8.3.0/pic/crtend.o
LOAD c:/devkitpro/devkita64/bin/../lib/gcc/aarch64-none-elf/8.3.0/pic/crtn.o
OUTPUT(C:/Users/RNG/Desktop/Stuff/Smash-Stuff/SMASH-ULTIMATE-MODS-BABY/50xx-the-mod/acmd-edits/acmd-edits.elf elf64-littleaarch64)
