Archive member included to satisfy reference by file (symbol)

C:/Users/RNG/Desktop/Stuff/Smash-Stuff/SMASH-ULTIMATE-MODS-BABY/50xx-the-mod/acmd-edits/code-mod-framework/lib/libnx_min/nx/lib\libnx_min.a(switch_crt0.o)
                              (_start)
C:/Users/RNG/Desktop/Stuff/Smash-Stuff/SMASH-ULTIMATE-MODS-BABY/50xx-the-mod/acmd-edits/code-mod-framework/lib/libnx_min/nx/lib\libnx_min.a(exception.o)
                              C:/Users/RNG/Desktop/Stuff/Smash-Stuff/SMASH-ULTIMATE-MODS-BABY/50xx-the-mod/acmd-edits/code-mod-framework/lib/libnx_min/nx/lib\libnx_min.a(switch_crt0.o) (__libnx_exception_entry)
C:/Users/RNG/Desktop/Stuff/Smash-Stuff/SMASH-ULTIMATE-MODS-BABY/50xx-the-mod/acmd-edits/code-mod-framework/lib/libnx_min/nx/lib\libnx_min.a(argv.o)
                              C:/Users/RNG/Desktop/Stuff/Smash-Stuff/SMASH-ULTIMATE-MODS-BABY/50xx-the-mod/acmd-edits/code-mod-framework/lib/libnx_min/nx/lib\libnx_min.a(switch_crt0.o) (__system_argv)
C:/Users/RNG/Desktop/Stuff/Smash-Stuff/SMASH-ULTIMATE-MODS-BABY/50xx-the-mod/acmd-edits/code-mod-framework/lib/libnx_min/nx/lib\libnx_min.a(env.o)
                              C:/Users/RNG/Desktop/Stuff/Smash-Stuff/SMASH-ULTIMATE-MODS-BABY/50xx-the-mod/acmd-edits/code-mod-framework/lib/libnx_min/nx/lib\libnx_min.a(argv.o) (envIsNso)
C:/Users/RNG/Desktop/Stuff/Smash-Stuff/SMASH-ULTIMATE-MODS-BABY/50xx-the-mod/acmd-edits/code-mod-framework/lib/libnx_min/nx/lib\libnx_min.a(init.o)
                              C:/Users/RNG/Desktop/Stuff/Smash-Stuff/SMASH-ULTIMATE-MODS-BABY/50xx-the-mod/acmd-edits/code-mod-framework/lib/libnx_min/nx/lib\libnx_min.a(exception.o) (__nx_exceptiondump)
C:/Users/RNG/Desktop/Stuff/Smash-Stuff/SMASH-ULTIMATE-MODS-BABY/50xx-the-mod/acmd-edits/code-mod-framework/lib/libnx_min/nx/lib\libnx_min.a(hosversion.o)
                              C:/Users/RNG/Desktop/Stuff/Smash-Stuff/SMASH-ULTIMATE-MODS-BABY/50xx-the-mod/acmd-edits/code-mod-framework/lib/libnx_min/nx/lib\libnx_min.a(init.o) (hosversionSet)
C:/Users/RNG/Desktop/Stuff/Smash-Stuff/SMASH-ULTIMATE-MODS-BABY/50xx-the-mod/acmd-edits/code-mod-framework/lib/libnx_min/nx/lib\libnx_min.a(dynamic.o)
                              C:/Users/RNG/Desktop/Stuff/Smash-Stuff/SMASH-ULTIMATE-MODS-BABY/50xx-the-mod/acmd-edits/code-mod-framework/lib/libnx_min/nx/lib\libnx_min.a(switch_crt0.o) (__nx_dynamic)
C:/Users/RNG/Desktop/Stuff/Smash-Stuff/SMASH-ULTIMATE-MODS-BABY/50xx-the-mod/acmd-edits/code-mod-framework/lib/libnx_min/nx/lib\libnx_min.a(fs_dev.o)
                              C:/Users/RNG/Desktop/Stuff/Smash-Stuff/SMASH-ULTIMATE-MODS-BABY/50xx-the-mod/acmd-edits/code-mod-framework/lib/libnx_min/nx/lib\libnx_min.a(init.o) (fsdevMountSdmc)
C:/Users/RNG/Desktop/Stuff/Smash-Stuff/SMASH-ULTIMATE-MODS-BABY/50xx-the-mod/acmd-edits/code-mod-framework/lib/libnx_min/nx/lib\libnx_min.a(decode_utf8.o)
                              C:/Users/RNG/Desktop/Stuff/Smash-Stuff/SMASH-ULTIMATE-MODS-BABY/50xx-the-mod/acmd-edits/code-mod-framework/lib/libnx_min/nx/lib\libnx_min.a(fs_dev.o) (decode_utf8)
C:/Users/RNG/Desktop/Stuff/Smash-Stuff/SMASH-ULTIMATE-MODS-BABY/50xx-the-mod/acmd-edits/code-mod-framework/lib/libnx_min/nx/lib\libnx_min.a(svc.o)
                              C:/Users/RNG/Desktop/Stuff/Smash-Stuff/SMASH-ULTIMATE-MODS-BABY/50xx-the-mod/acmd-edits/code-mod-framework/lib/libnx_min/nx/lib\libnx_min.a(init.o) (svcSetHeapSize)
C:/Users/RNG/Desktop/Stuff/Smash-Stuff/SMASH-ULTIMATE-MODS-BABY/50xx-the-mod/acmd-edits/code-mod-framework/lib/libnx_min/nx/lib\libnx_min.a(readtp.o)
                              C:/Users/RNG/Desktop/Stuff/Smash-Stuff/SMASH-ULTIMATE-MODS-BABY/50xx-the-mod/acmd-edits/code-mod-framework/lib/libnx_min/nx/lib\libnx_min.a(fs_dev.o) (__aarch64_read_tp)
C:/Users/RNG/Desktop/Stuff/Smash-Stuff/SMASH-ULTIMATE-MODS-BABY/50xx-the-mod/acmd-edits/code-mod-framework/lib/libnx_min/nx/lib\libnx_min.a(virtmem.o)
                              C:/Users/RNG/Desktop/Stuff/Smash-Stuff/SMASH-ULTIMATE-MODS-BABY/50xx-the-mod/acmd-edits/code-mod-framework/lib/libnx_min/nx/lib\libnx_min.a(init.o) (virtmemSetup)
C:/Users/RNG/Desktop/Stuff/Smash-Stuff/SMASH-ULTIMATE-MODS-BABY/50xx-the-mod/acmd-edits/code-mod-framework/lib/libnx_min/nx/lib\libnx_min.a(mutex.o)
                              C:/Users/RNG/Desktop/Stuff/Smash-Stuff/SMASH-ULTIMATE-MODS-BABY/50xx-the-mod/acmd-edits/code-mod-framework/lib/libnx_min/nx/lib\libnx_min.a(virtmem.o) (mutexLock)
C:/Users/RNG/Desktop/Stuff/Smash-Stuff/SMASH-ULTIMATE-MODS-BABY/50xx-the-mod/acmd-edits/code-mod-framework/lib/libnx_min/nx/lib\libnx_min.a(fs.o)
                              C:/Users/RNG/Desktop/Stuff/Smash-Stuff/SMASH-ULTIMATE-MODS-BABY/50xx-the-mod/acmd-edits/code-mod-framework/lib/libnx_min/nx/lib\libnx_min.a(init.o) (fsInitialize)
C:/Users/RNG/Desktop/Stuff/Smash-Stuff/SMASH-ULTIMATE-MODS-BABY/50xx-the-mod/acmd-edits/code-mod-framework/lib/libnx_min/nx/lib\libnx_min.a(set.o)
                              C:/Users/RNG/Desktop/Stuff/Smash-Stuff/SMASH-ULTIMATE-MODS-BABY/50xx-the-mod/acmd-edits/code-mod-framework/lib/libnx_min/nx/lib\libnx_min.a(init.o) (setsysInitialize)
C:/Users/RNG/Desktop/Stuff/Smash-Stuff/SMASH-ULTIMATE-MODS-BABY/50xx-the-mod/acmd-edits/code-mod-framework/lib/libnx_min/nx/lib\libnx_min.a(fatal.o)
                              C:/Users/RNG/Desktop/Stuff/Smash-Stuff/SMASH-ULTIMATE-MODS-BABY/50xx-the-mod/acmd-edits/code-mod-framework/lib/libnx_min/nx/lib\libnx_min.a(env.o) (fatalSimple)
C:/Users/RNG/Desktop/Stuff/Smash-Stuff/SMASH-ULTIMATE-MODS-BABY/50xx-the-mod/acmd-edits/code-mod-framework/lib/libnx_min/nx/lib\libnx_min.a(sm.o)
                              C:/Users/RNG/Desktop/Stuff/Smash-Stuff/SMASH-ULTIMATE-MODS-BABY/50xx-the-mod/acmd-edits/code-mod-framework/lib/libnx_min/nx/lib\libnx_min.a(env.o) (smAddOverrideHandle)
C:/Users/RNG/Desktop/Stuff/Smash-Stuff/SMASH-ULTIMATE-MODS-BABY/50xx-the-mod/acmd-edits/code-mod-framework/lib/libnx_min/nx/lib\libnx_min.a(hid.o)
                              C:/Users/RNG/Desktop/Stuff/Smash-Stuff/SMASH-ULTIMATE-MODS-BABY/50xx-the-mod/acmd-edits/code-mod-framework/lib/libnx_min/nx/lib\libnx_min.a(init.o) (hidExit)
C:/Users/RNG/Desktop/Stuff/Smash-Stuff/SMASH-ULTIMATE-MODS-BABY/50xx-the-mod/acmd-edits/code-mod-framework/lib/libnx_min/nx/lib\libnx_min.a(time.o)
                              C:/Users/RNG/Desktop/Stuff/Smash-Stuff/SMASH-ULTIMATE-MODS-BABY/50xx-the-mod/acmd-edits/code-mod-framework/lib/libnx_min/nx/lib\libnx_min.a(init.o) (timeExit)
C:/Users/RNG/Desktop/Stuff/Smash-Stuff/SMASH-ULTIMATE-MODS-BABY/50xx-the-mod/acmd-edits/code-mod-framework/lib/libnx_min/nx/lib\libnx_min.a(applet.o)
                              C:/Users/RNG/Desktop/Stuff/Smash-Stuff/SMASH-ULTIMATE-MODS-BABY/50xx-the-mod/acmd-edits/code-mod-framework/lib/libnx_min/nx/lib\libnx_min.a(hid.o) (appletGetAppletResourceUserId)
C:/Users/RNG/Desktop/Stuff/Smash-Stuff/SMASH-ULTIMATE-MODS-BABY/50xx-the-mod/acmd-edits/code-mod-framework/lib/libnx_min/nx/lib\libnx_min.a(newlib.o)
                              C:/Users/RNG/Desktop/Stuff/Smash-Stuff/SMASH-ULTIMATE-MODS-BABY/50xx-the-mod/acmd-edits/code-mod-framework/lib/libnx_min/nx/lib\libnx_min.a(init.o) (__libnx_init_time)
C:/Users/RNG/Desktop/Stuff/Smash-Stuff/SMASH-ULTIMATE-MODS-BABY/50xx-the-mod/acmd-edits/code-mod-framework/lib/libnx_min/nx/lib\libnx_min.a(thread.o)
                              C:/Users/RNG/Desktop/Stuff/Smash-Stuff/SMASH-ULTIMATE-MODS-BABY/50xx-the-mod/acmd-edits/code-mod-framework/lib/libnx_min/nx/lib\libnx_min.a(newlib.o) (threadCreate)
C:/Users/RNG/Desktop/Stuff/Smash-Stuff/SMASH-ULTIMATE-MODS-BABY/50xx-the-mod/acmd-edits/code-mod-framework/lib/libnx_min/nx/lib\libnx_min.a(condvar.o)
                              C:/Users/RNG/Desktop/Stuff/Smash-Stuff/SMASH-ULTIMATE-MODS-BABY/50xx-the-mod/acmd-edits/code-mod-framework/lib/libnx_min/nx/lib\libnx_min.a(newlib.o) (condvarWaitTimeout)
C:/Users/RNG/Desktop/Stuff/Smash-Stuff/SMASH-ULTIMATE-MODS-BABY/50xx-the-mod/acmd-edits/code-mod-framework/lib/libnx_min/nx/lib\libnx_min.a(event.o)
                              C:/Users/RNG/Desktop/Stuff/Smash-Stuff/SMASH-ULTIMATE-MODS-BABY/50xx-the-mod/acmd-edits/code-mod-framework/lib/libnx_min/nx/lib\libnx_min.a(set.o) (eventLoadRemote)
C:/Users/RNG/Desktop/Stuff/Smash-Stuff/SMASH-ULTIMATE-MODS-BABY/50xx-the-mod/acmd-edits/code-mod-framework/lib/libnx_min/nx/lib\libnx_min.a(tmem.o)
                              C:/Users/RNG/Desktop/Stuff/Smash-Stuff/SMASH-ULTIMATE-MODS-BABY/50xx-the-mod/acmd-edits/code-mod-framework/lib/libnx_min/nx/lib\libnx_min.a(applet.o) (tmemCreate)
C:/Users/RNG/Desktop/Stuff/Smash-Stuff/SMASH-ULTIMATE-MODS-BABY/50xx-the-mod/acmd-edits/code-mod-framework/lib/libnx_min/nx/lib\libnx_min.a(rwlock.o)
                              C:/Users/RNG/Desktop/Stuff/Smash-Stuff/SMASH-ULTIMATE-MODS-BABY/50xx-the-mod/acmd-edits/code-mod-framework/lib/libnx_min/nx/lib\libnx_min.a(hid.o) (rwlockReadLock)
C:/Users/RNG/Desktop/Stuff/Smash-Stuff/SMASH-ULTIMATE-MODS-BABY/50xx-the-mod/acmd-edits/code-mod-framework/lib/libnx_min/nx/lib\libnx_min.a(wait.o)
                              C:/Users/RNG/Desktop/Stuff/Smash-Stuff/SMASH-ULTIMATE-MODS-BABY/50xx-the-mod/acmd-edits/code-mod-framework/lib/libnx_min/nx/lib\libnx_min.a(applet.o) (waitObjects)
C:/Users/RNG/Desktop/Stuff/Smash-Stuff/SMASH-ULTIMATE-MODS-BABY/50xx-the-mod/acmd-edits/code-mod-framework/lib/libnx_min/nx/lib\libnx_min.a(shmem.o)
                              C:/Users/RNG/Desktop/Stuff/Smash-Stuff/SMASH-ULTIMATE-MODS-BABY/50xx-the-mod/acmd-edits/code-mod-framework/lib/libnx_min/nx/lib\libnx_min.a(hid.o) (shmemLoadRemote)
C:/Users/RNG/Desktop/Stuff/Smash-Stuff/SMASH-ULTIMATE-MODS-BABY/50xx-the-mod/acmd-edits/code-mod-framework/lib/libnx_min/nx/lib\libnx_min.a(detect.o)
                              C:/Users/RNG/Desktop/Stuff/Smash-Stuff/SMASH-ULTIMATE-MODS-BABY/50xx-the-mod/acmd-edits/code-mod-framework/lib/libnx_min/nx/lib\libnx_min.a(fatal.o) (detectKernelVersion)
C:/Users/RNG/Desktop/Stuff/Smash-Stuff/SMASH-ULTIMATE-MODS-BABY/50xx-the-mod/acmd-edits/code-mod-framework/lib/libnx_min/nx/lib\libnx_min.a(apm.o)
                              C:/Users/RNG/Desktop/Stuff/Smash-Stuff/SMASH-ULTIMATE-MODS-BABY/50xx-the-mod/acmd-edits/code-mod-framework/lib/libnx_min/nx/lib\libnx_min.a(applet.o) (apmExit)
c:/devkitpro/devkita64/bin/../lib/gcc/aarch64-none-elf/8.3.0/../../../../aarch64-none-elf/lib/pic\libg.a(lib_a-bsearch.o)
                              C:/Users/RNG/Desktop/Stuff/Smash-Stuff/SMASH-ULTIMATE-MODS-BABY/50xx-the-mod/acmd-edits/code-mod-framework/lib/libnx_min/nx/lib\libnx_min.a(fs_dev.o) (bsearch)
c:/devkitpro/devkita64/bin/../lib/gcc/aarch64-none-elf/8.3.0/../../../../aarch64-none-elf/lib/pic\libg.a(lib_a-ctype_.o)
                              C:/Users/RNG/Desktop/Stuff/Smash-Stuff/SMASH-ULTIMATE-MODS-BABY/50xx-the-mod/acmd-edits/code-mod-framework/lib/libnx_min/nx/lib\libnx_min.a(argv.o) (_ctype_)
c:/devkitpro/devkita64/bin/../lib/gcc/aarch64-none-elf/8.3.0/../../../../aarch64-none-elf/lib/pic\libg.a(lib_a-errno.o)
                              C:/Users/RNG/Desktop/Stuff/Smash-Stuff/SMASH-ULTIMATE-MODS-BABY/50xx-the-mod/acmd-edits/code-mod-framework/lib/libnx_min/nx/lib\libnx_min.a(fs_dev.o) (__errno)
c:/devkitpro/devkita64/bin/../lib/gcc/aarch64-none-elf/8.3.0/../../../../aarch64-none-elf/lib/pic\libg.a(lib_a-exit.o)
                              C:/Users/RNG/Desktop/Stuff/Smash-Stuff/SMASH-ULTIMATE-MODS-BABY/50xx-the-mod/acmd-edits/code-mod-framework/lib/libnx_min/nx/lib\libnx_min.a(switch_crt0.o) (exit)
c:/devkitpro/devkita64/bin/../lib/gcc/aarch64-none-elf/8.3.0/../../../../aarch64-none-elf/lib/pic\libg.a(lib_a-fini.o)
                              main.o (__libc_fini_array)
c:/devkitpro/devkita64/bin/../lib/gcc/aarch64-none-elf/8.3.0/../../../../aarch64-none-elf/lib/pic\libg.a(lib_a-impure.o)
                              c:/devkitpro/devkita64/bin/../lib/gcc/aarch64-none-elf/8.3.0/../../../../aarch64-none-elf/lib/pic\libg.a(lib_a-exit.o) (_global_impure_ptr)
c:/devkitpro/devkita64/bin/../lib/gcc/aarch64-none-elf/8.3.0/../../../../aarch64-none-elf/lib/pic\libg.a(lib_a-init.o)
                              main.o (__libc_init_array)
c:/devkitpro/devkita64/bin/../lib/gcc/aarch64-none-elf/8.3.0/../../../../aarch64-none-elf/lib/pic\libg.a(lib_a-malign.o)
                              C:/Users/RNG/Desktop/Stuff/Smash-Stuff/SMASH-ULTIMATE-MODS-BABY/50xx-the-mod/acmd-edits/code-mod-framework/lib/libnx_min/nx/lib\libnx_min.a(hid.o) (memalign)
c:/devkitpro/devkita64/bin/../lib/gcc/aarch64-none-elf/8.3.0/../../../../aarch64-none-elf/lib/pic\libg.a(lib_a-malignr.o)
                              c:/devkitpro/devkita64/bin/../lib/gcc/aarch64-none-elf/8.3.0/../../../../aarch64-none-elf/lib/pic\libg.a(lib_a-malign.o) (_memalign_r)
c:/devkitpro/devkita64/bin/../lib/gcc/aarch64-none-elf/8.3.0/../../../../aarch64-none-elf/lib/pic\libg.a(lib_a-malloc.o)
                              C:/Users/RNG/Desktop/Stuff/Smash-Stuff/SMASH-ULTIMATE-MODS-BABY/50xx-the-mod/acmd-edits/code-mod-framework/lib/libnx_min/nx/lib\libnx_min.a(newlib.o) (malloc)
c:/devkitpro/devkita64/bin/../lib/gcc/aarch64-none-elf/8.3.0/../../../../aarch64-none-elf/lib/pic\libg.a(lib_a-mallocr.o)
                              c:/devkitpro/devkita64/bin/../lib/gcc/aarch64-none-elf/8.3.0/../../../../aarch64-none-elf/lib/pic\libg.a(lib_a-malignr.o) (_malloc_r)
c:/devkitpro/devkita64/bin/../lib/gcc/aarch64-none-elf/8.3.0/../../../../aarch64-none-elf/lib/pic\libg.a(lib_a-memcpy.o)
                              C:/Users/RNG/Desktop/Stuff/Smash-Stuff/SMASH-ULTIMATE-MODS-BABY/50xx-the-mod/acmd-edits/code-mod-framework/lib/libnx_min/nx/lib\libnx_min.a(fs_dev.o) (memcpy)
c:/devkitpro/devkita64/bin/../lib/gcc/aarch64-none-elf/8.3.0/../../../../aarch64-none-elf/lib/pic\libg.a(lib_a-memset.o)
                              C:/Users/RNG/Desktop/Stuff/Smash-Stuff/SMASH-ULTIMATE-MODS-BABY/50xx-the-mod/acmd-edits/code-mod-framework/lib/libnx_min/nx/lib\libnx_min.a(argv.o) (memset)
c:/devkitpro/devkita64/bin/../lib/gcc/aarch64-none-elf/8.3.0/../../../../aarch64-none-elf/lib/pic\libg.a(lib_a-mlock.o)
                              c:/devkitpro/devkita64/bin/../lib/gcc/aarch64-none-elf/8.3.0/../../../../aarch64-none-elf/lib/pic\libg.a(lib_a-malignr.o) (__malloc_lock)
c:/devkitpro/devkita64/bin/../lib/gcc/aarch64-none-elf/8.3.0/../../../../aarch64-none-elf/lib/pic\libg.a(lib_a-setenv.o)
                              C:/Users/RNG/Desktop/Stuff/Smash-Stuff/SMASH-ULTIMATE-MODS-BABY/50xx-the-mod/acmd-edits/code-mod-framework/lib/libnx_min/nx/lib\libnx_min.a(newlib.o) (setenv)
c:/devkitpro/devkita64/bin/../lib/gcc/aarch64-none-elf/8.3.0/../../../../aarch64-none-elf/lib/pic\libg.a(lib_a-setenv_r.o)
                              c:/devkitpro/devkita64/bin/../lib/gcc/aarch64-none-elf/8.3.0/../../../../aarch64-none-elf/lib/pic\libg.a(lib_a-setenv.o) (_setenv_r)
c:/devkitpro/devkita64/bin/../lib/gcc/aarch64-none-elf/8.3.0/../../../../aarch64-none-elf/lib/pic\libg.a(lib_a-strchr.o)
                              raygun_printer.o (strchr)
c:/devkitpro/devkita64/bin/../lib/gcc/aarch64-none-elf/8.3.0/../../../../aarch64-none-elf/lib/pic\libg.a(lib_a-strcmp.o)
                              saltysd_helper.o (strcmp)
c:/devkitpro/devkita64/bin/../lib/gcc/aarch64-none-elf/8.3.0/../../../../aarch64-none-elf/lib/pic\libg.a(lib_a-strcpy.o)
                              C:/Users/RNG/Desktop/Stuff/Smash-Stuff/SMASH-ULTIMATE-MODS-BABY/50xx-the-mod/acmd-edits/code-mod-framework/lib/libnx_min/nx/lib\libnx_min.a(env.o) (strcpy)
c:/devkitpro/devkita64/bin/../lib/gcc/aarch64-none-elf/8.3.0/../../../../aarch64-none-elf/lib/pic\libg.a(lib_a-strlen.o)
                              main.o (strlen)
c:/devkitpro/devkita64/bin/../lib/gcc/aarch64-none-elf/8.3.0/../../../../aarch64-none-elf/lib/pic\libg.a(lib_a-strncat.o)
                              C:/Users/RNG/Desktop/Stuff/Smash-Stuff/SMASH-ULTIMATE-MODS-BABY/50xx-the-mod/acmd-edits/code-mod-framework/lib/libnx_min/nx/lib\libnx_min.a(fs_dev.o) (strncat)
c:/devkitpro/devkita64/bin/../lib/gcc/aarch64-none-elf/8.3.0/../../../../aarch64-none-elf/lib/pic\libg.a(lib_a-strncmp.o)
                              saltysd_helper.o (strncmp)
c:/devkitpro/devkita64/bin/../lib/gcc/aarch64-none-elf/8.3.0/../../../../aarch64-none-elf/lib/pic\libg.a(lib_a-strncpy.o)
                              C:/Users/RNG/Desktop/Stuff/Smash-Stuff/SMASH-ULTIMATE-MODS-BABY/50xx-the-mod/acmd-edits/code-mod-framework/lib/libnx_min/nx/lib\libnx_min.a(argv.o) (strncpy)
c:/devkitpro/devkita64/bin/../lib/gcc/aarch64-none-elf/8.3.0/../../../../aarch64-none-elf/lib/pic\libg.a(lib_a-strnlen.o)
                              C:/Users/RNG/Desktop/Stuff/Smash-Stuff/SMASH-ULTIMATE-MODS-BABY/50xx-the-mod/acmd-edits/code-mod-framework/lib/libnx_min/nx/lib\libnx_min.a(fs_dev.o) (strnlen)
c:/devkitpro/devkita64/bin/../lib/gcc/aarch64-none-elf/8.3.0/../../../../aarch64-none-elf/lib/pic\libg.a(lib_a-toupper.o)
                              raygun_printer.o (toupper)
c:/devkitpro/devkita64/bin/../lib/gcc/aarch64-none-elf/8.3.0/../../../../aarch64-none-elf/lib/pic\libg.a(lib_a-vsnprintf.o)
                              raygun_printer.o (vsnprintf)
c:/devkitpro/devkita64/bin/../lib/gcc/aarch64-none-elf/8.3.0/../../../../aarch64-none-elf/lib/pic\libg.a(lib_a-__call_atexit.o)
                              c:/devkitpro/devkita64/bin/../lib/gcc/aarch64-none-elf/8.3.0/../../../../aarch64-none-elf/lib/pic\libg.a(lib_a-exit.o) (__call_exitprocs)
c:/devkitpro/devkita64/bin/../lib/gcc/aarch64-none-elf/8.3.0/../../../../aarch64-none-elf/lib/pic\libg.a(lib_a-environ.o)
                              c:/devkitpro/devkita64/bin/../lib/gcc/aarch64-none-elf/8.3.0/../../../../aarch64-none-elf/lib/pic\libg.a(lib_a-setenv_r.o) (environ)
c:/devkitpro/devkita64/bin/../lib/gcc/aarch64-none-elf/8.3.0/../../../../aarch64-none-elf/lib/pic\libg.a(lib_a-envlock.o)
                              c:/devkitpro/devkita64/bin/../lib/gcc/aarch64-none-elf/8.3.0/../../../../aarch64-none-elf/lib/pic\libg.a(lib_a-setenv_r.o) (__env_lock)
c:/devkitpro/devkita64/bin/../lib/gcc/aarch64-none-elf/8.3.0/../../../../aarch64-none-elf/lib/pic\libg.a(lib_a-freer.o)
                              c:/devkitpro/devkita64/bin/../lib/gcc/aarch64-none-elf/8.3.0/../../../../aarch64-none-elf/lib/pic\libg.a(lib_a-malignr.o) (_free_r)
c:/devkitpro/devkita64/bin/../lib/gcc/aarch64-none-elf/8.3.0/../../../../aarch64-none-elf/lib/pic\libg.a(lib_a-getenv_r.o)
                              c:/devkitpro/devkita64/bin/../lib/gcc/aarch64-none-elf/8.3.0/../../../../aarch64-none-elf/lib/pic\libg.a(lib_a-setenv_r.o) (_findenv_r)
c:/devkitpro/devkita64/bin/../lib/gcc/aarch64-none-elf/8.3.0/../../../../aarch64-none-elf/lib/pic\libg.a(lib_a-reallocr.o)
                              c:/devkitpro/devkita64/bin/../lib/gcc/aarch64-none-elf/8.3.0/../../../../aarch64-none-elf/lib/pic\libg.a(lib_a-setenv_r.o) (_realloc_r)
c:/devkitpro/devkita64/bin/../lib/gcc/aarch64-none-elf/8.3.0/../../../../aarch64-none-elf/lib/pic\libg.a(lib_a-svfprintf.o)
                              c:/devkitpro/devkita64/bin/../lib/gcc/aarch64-none-elf/8.3.0/../../../../aarch64-none-elf/lib/pic\libg.a(lib_a-vsnprintf.o) (_svfprintf_r)
c:/devkitpro/devkita64/bin/../lib/gcc/aarch64-none-elf/8.3.0/../../../../aarch64-none-elf/lib/pic\libg.a(lib_a-wcrtomb.o)
                              c:/devkitpro/devkita64/bin/../lib/gcc/aarch64-none-elf/8.3.0/../../../../aarch64-none-elf/lib/pic\libg.a(lib_a-svfprintf.o) (_wcrtomb_r)
c:/devkitpro/devkita64/bin/../lib/gcc/aarch64-none-elf/8.3.0/../../../../aarch64-none-elf/lib/pic\libg.a(lib_a-wcsrtombs.o)
                              c:/devkitpro/devkita64/bin/../lib/gcc/aarch64-none-elf/8.3.0/../../../../aarch64-none-elf/lib/pic\libg.a(lib_a-svfprintf.o) (_wcsrtombs_r)
c:/devkitpro/devkita64/bin/../lib/gcc/aarch64-none-elf/8.3.0/../../../../aarch64-none-elf/lib/pic\libg.a(lib_a-dtoa.o)
                              c:/devkitpro/devkita64/bin/../lib/gcc/aarch64-none-elf/8.3.0/../../../../aarch64-none-elf/lib/pic\libg.a(lib_a-svfprintf.o) (_dtoa_r)
c:/devkitpro/devkita64/bin/../lib/gcc/aarch64-none-elf/8.3.0/../../../../aarch64-none-elf/lib/pic\libg.a(lib_a-localeconv.o)
                              c:/devkitpro/devkita64/bin/../lib/gcc/aarch64-none-elf/8.3.0/../../../../aarch64-none-elf/lib/pic\libg.a(lib_a-svfprintf.o) (_localeconv_r)
c:/devkitpro/devkita64/bin/../lib/gcc/aarch64-none-elf/8.3.0/../../../../aarch64-none-elf/lib/pic\libg.a(lib_a-locale.o)
                              c:/devkitpro/devkita64/bin/../lib/gcc/aarch64-none-elf/8.3.0/../../../../aarch64-none-elf/lib/pic\libg.a(lib_a-svfprintf.o) (__global_locale)
c:/devkitpro/devkita64/bin/../lib/gcc/aarch64-none-elf/8.3.0/../../../../aarch64-none-elf/lib/pic\libg.a(lib_a-mbtowc_r.o)
                              c:/devkitpro/devkita64/bin/../lib/gcc/aarch64-none-elf/8.3.0/../../../../aarch64-none-elf/lib/pic\libg.a(lib_a-locale.o) (__ascii_mbtowc)
c:/devkitpro/devkita64/bin/../lib/gcc/aarch64-none-elf/8.3.0/../../../../aarch64-none-elf/lib/pic\libg.a(lib_a-memchr.o)
                              c:/devkitpro/devkita64/bin/../lib/gcc/aarch64-none-elf/8.3.0/../../../../aarch64-none-elf/lib/pic\libg.a(lib_a-svfprintf.o) (memchr)
c:/devkitpro/devkita64/bin/../lib/gcc/aarch64-none-elf/8.3.0/../../../../aarch64-none-elf/lib/pic\libg.a(lib_a-memmove.o)
                              c:/devkitpro/devkita64/bin/../lib/gcc/aarch64-none-elf/8.3.0/../../../../aarch64-none-elf/lib/pic\libg.a(lib_a-reallocr.o) (memmove)
c:/devkitpro/devkita64/bin/../lib/gcc/aarch64-none-elf/8.3.0/../../../../aarch64-none-elf/lib/pic\libg.a(lib_a-mprec.o)
                              c:/devkitpro/devkita64/bin/../lib/gcc/aarch64-none-elf/8.3.0/../../../../aarch64-none-elf/lib/pic\libg.a(lib_a-dtoa.o) (_Balloc)
c:/devkitpro/devkita64/bin/../lib/gcc/aarch64-none-elf/8.3.0/../../../../aarch64-none-elf/lib/pic\libg.a(lib_a-s_frexp.o)
                              c:/devkitpro/devkita64/bin/../lib/gcc/aarch64-none-elf/8.3.0/../../../../aarch64-none-elf/lib/pic\libg.a(lib_a-svfprintf.o) (frexp)
c:/devkitpro/devkita64/bin/../lib/gcc/aarch64-none-elf/8.3.0/../../../../aarch64-none-elf/lib/pic\libg.a(lib_a-strcasecmp.o)
                              c:/devkitpro/devkita64/bin/../lib/gcc/aarch64-none-elf/8.3.0/../../../../aarch64-none-elf/lib/pic\libg.a(lib_a-locale.o) (strcasecmp)
c:/devkitpro/devkita64/bin/../lib/gcc/aarch64-none-elf/8.3.0/../../../../aarch64-none-elf/lib/pic\libg.a(lib_a-strcat.o)
                              c:/devkitpro/devkita64/bin/../lib/gcc/aarch64-none-elf/8.3.0/../../../../aarch64-none-elf/lib/pic\libg.a(lib_a-locale.o) (strcat)
c:/devkitpro/devkita64/bin/../lib/gcc/aarch64-none-elf/8.3.0/../../../../aarch64-none-elf/lib/pic\libg.a(lib_a-strlcpy.o)
                              c:/devkitpro/devkita64/bin/../lib/gcc/aarch64-none-elf/8.3.0/../../../../aarch64-none-elf/lib/pic\libg.a(lib_a-locale.o) (strlcpy)
c:/devkitpro/devkita64/bin/../lib/gcc/aarch64-none-elf/8.3.0/../../../../aarch64-none-elf/lib/pic\libg.a(lib_a-strncasecmp.o)
                              c:/devkitpro/devkita64/bin/../lib/gcc/aarch64-none-elf/8.3.0/../../../../aarch64-none-elf/lib/pic\libg.a(lib_a-locale.o) (strncasecmp)
c:/devkitpro/devkita64/bin/../lib/gcc/aarch64-none-elf/8.3.0/../../../../aarch64-none-elf/lib/pic\libg.a(lib_a-strtol.o)
                              c:/devkitpro/devkita64/bin/../lib/gcc/aarch64-none-elf/8.3.0/../../../../aarch64-none-elf/lib/pic\libg.a(lib_a-locale.o) (strtol)
c:/devkitpro/devkita64/bin/../lib/gcc/aarch64-none-elf/8.3.0/../../../../aarch64-none-elf/lib/pic\libg.a(lib_a-svfiprintf.o)
                              c:/devkitpro/devkita64/bin/../lib/gcc/aarch64-none-elf/8.3.0/../../../../aarch64-none-elf/lib/pic\libg.a(lib_a-svfprintf.o) (__chclass)
c:/devkitpro/devkita64/bin/../lib/gcc/aarch64-none-elf/8.3.0/../../../../aarch64-none-elf/lib/pic\libg.a(lib_a-wcsnrtombs.o)
                              c:/devkitpro/devkita64/bin/../lib/gcc/aarch64-none-elf/8.3.0/../../../../aarch64-none-elf/lib/pic\libg.a(lib_a-wcsrtombs.o) (_wcsnrtombs_r)
c:/devkitpro/devkita64/bin/../lib/gcc/aarch64-none-elf/8.3.0/../../../../aarch64-none-elf/lib/pic\libg.a(lib_a-wctomb_r.o)
                              c:/devkitpro/devkita64/bin/../lib/gcc/aarch64-none-elf/8.3.0/../../../../aarch64-none-elf/lib/pic\libg.a(lib_a-locale.o) (__ascii_wctomb)
c:/devkitpro/devkita64/bin/../lib/gcc/aarch64-none-elf/8.3.0/../../../../aarch64-none-elf/lib/pic\libg.a(lib_a-callocr.o)
                              c:/devkitpro/devkita64/bin/../lib/gcc/aarch64-none-elf/8.3.0/../../../../aarch64-none-elf/lib/pic\libg.a(lib_a-mprec.o) (_calloc_r)
c:/devkitpro/devkita64/bin/../lib/gcc/aarch64-none-elf/8.3.0/../../../../aarch64-none-elf/lib/pic\libsysbase.a(iosupport.o)
                              C:/Users/RNG/Desktop/Stuff/Smash-Stuff/SMASH-ULTIMATE-MODS-BABY/50xx-the-mod/acmd-edits/code-mod-framework/lib/libnx_min/nx/lib\libnx_min.a(fs_dev.o) (setDefaultDevice)
c:/devkitpro/devkita64/bin/../lib/gcc/aarch64-none-elf/8.3.0/../../../../aarch64-none-elf/lib/pic\libsysbase.a(sbrk.o)
                              c:/devkitpro/devkita64/bin/../lib/gcc/aarch64-none-elf/8.3.0/../../../../aarch64-none-elf/lib/pic\libg.a(lib_a-mallocr.o) (_sbrk_r)
c:/devkitpro/devkita64/bin/../lib/gcc/aarch64-none-elf/8.3.0/../../../../aarch64-none-elf/lib/pic\libsysbase.a(_exit.o)
                              c:/devkitpro/devkita64/bin/../lib/gcc/aarch64-none-elf/8.3.0/../../../../aarch64-none-elf/lib/pic\libg.a(lib_a-exit.o) (_exit)
c:/devkitpro/devkita64/bin/../lib/gcc/aarch64-none-elf/8.3.0/../../../../aarch64-none-elf/lib/pic\libsysbase.a(malloc_vars.o)
                              main.o (fake_heap_start)
c:/devkitpro/devkita64/bin/../lib/gcc/aarch64-none-elf/8.3.0/../../../../aarch64-none-elf/lib/pic\libsysbase.a(chdir.o)
                              C:/Users/RNG/Desktop/Stuff/Smash-Stuff/SMASH-ULTIMATE-MODS-BABY/50xx-the-mod/acmd-edits/code-mod-framework/lib/libnx_min/nx/lib\libnx_min.a(fs_dev.o) (chdir)
c:/devkitpro/devkita64/bin/../lib/gcc/aarch64-none-elf/8.3.0/../../../../aarch64-none-elf/lib/pic\libsysbase.a(locks.o)
                              C:/Users/RNG/Desktop/Stuff/Smash-Stuff/SMASH-ULTIMATE-MODS-BABY/50xx-the-mod/acmd-edits/code-mod-framework/lib/libnx_min/nx/lib\libnx_min.a(newlib.o) (timespec2nsec)
c:/devkitpro/devkita64/bin/../lib/gcc/aarch64-none-elf/8.3.0/../../../../aarch64-none-elf/lib/pic\libsysbase.a(getreent.o)
                              C:/Users/RNG/Desktop/Stuff/Smash-Stuff/SMASH-ULTIMATE-MODS-BABY/50xx-the-mod/acmd-edits/code-mod-framework/lib/libnx_min/nx/lib\libnx_min.a(fs_dev.o) (__getreent)
c:/devkitpro/devkita64/bin/../lib/gcc/aarch64-none-elf/8.3.0/../../../../aarch64-none-elf/lib/pic\libsysbase.a(clocks.o)
                              c:/devkitpro/devkita64/bin/../lib/gcc/aarch64-none-elf/8.3.0/../../../../aarch64-none-elf/lib/pic\libsysbase.a(locks.o) (clock_gettime)
c:/devkitpro/devkita64/bin/../lib/gcc/aarch64-none-elf/8.3.0/pic\libgcc.a(trunctfdf2.o)
                              c:/devkitpro/devkita64/bin/../lib/gcc/aarch64-none-elf/8.3.0/../../../../aarch64-none-elf/lib/pic\libg.a(lib_a-svfprintf.o) (__trunctfdf2)
c:/devkitpro/devkita64/bin/../lib/gcc/aarch64-none-elf/8.3.0/pic\libgcc.a(sfp-exceptions.o)
                              c:/devkitpro/devkita64/bin/../lib/gcc/aarch64-none-elf/8.3.0/pic\libgcc.a(trunctfdf2.o) (__sfp_handle_exceptions)
c:/devkitpro/devkita64/bin/../lib/gcc/aarch64-none-elf/8.3.0/../../../../aarch64-none-elf/lib/pic\libg.a(lib_a-strrchr.o)
                              c:/devkitpro/devkita64/bin/../lib/gcc/aarch64-none-elf/8.3.0/../../../../aarch64-none-elf/lib/pic\libsysbase.a(chdir.o) (strrchr)

Allocating common symbols
Common symbol       size              file

__nx_exceptiondump  0x340             C:/Users/RNG/Desktop/Stuff/Smash-Stuff/SMASH-ULTIMATE-MODS-BABY/50xx-the-mod/acmd-edits/code-mod-framework/lib/libnx_min/nx/lib\libnx_min.a(init.o)
__system_argv       0x8               C:/Users/RNG/Desktop/Stuff/Smash-Stuff/SMASH-ULTIMATE-MODS-BABY/50xx-the-mod/acmd-edits/code-mod-framework/lib/libnx_min/nx/lib\libnx_min.a(argv.o)
__system_argc       0x4               C:/Users/RNG/Desktop/Stuff/Smash-Stuff/SMASH-ULTIMATE-MODS-BABY/50xx-the-mod/acmd-edits/code-mod-framework/lib/libnx_min/nx/lib\libnx_min.a(argv.o)
__stack_top         0x8               C:/Users/RNG/Desktop/Stuff/Smash-Stuff/SMASH-ULTIMATE-MODS-BABY/50xx-the-mod/acmd-edits/code-mod-framework/lib/libnx_min/nx/lib\libnx_min.a(init.o)

Discarded input sections

 .text          0x0000000000000000        0x0 c:/devkitpro/devkita64/bin/../lib/gcc/aarch64-none-elf/8.3.0/pic/crti.o
 .data          0x0000000000000000        0x0 c:/devkitpro/devkita64/bin/../lib/gcc/aarch64-none-elf/8.3.0/pic/crti.o
 .bss           0x0000000000000000        0x0 c:/devkitpro/devkita64/bin/../lib/gcc/aarch64-none-elf/8.3.0/pic/crti.o
 .text          0x0000000000000000        0x0 c:/devkitpro/devkita64/bin/../lib/gcc/aarch64-none-elf/8.3.0/pic/crtbegin.o
 .data          0x0000000000000000        0x0 c:/devkitpro/devkita64/bin/../lib/gcc/aarch64-none-elf/8.3.0/pic/crtbegin.o
 .bss           0x0000000000000000        0x0 c:/devkitpro/devkita64/bin/../lib/gcc/aarch64-none-elf/8.3.0/pic/crtbegin.o
 .data.__dso_handle
                0x0000000000000000        0x8 c:/devkitpro/devkita64/bin/../lib/gcc/aarch64-none-elf/8.3.0/pic/crtbegin.o
 .comment       0x0000000000000000       0x23 c:/devkitpro/devkita64/bin/../lib/gcc/aarch64-none-elf/8.3.0/pic/crtbegin.o
 .group         0x0000000000000000        0xc main.o
 .comment       0x0000000000000000       0x23 main.o
 .data          0x0000000000000000        0x0 acmd_wrapper.o
 .bss           0x0000000000000000        0x0 acmd_wrapper.o
 .comment       0x0000000000000000       0x23 acmd_wrapper.o
 .data          0x0000000000000000        0x0 saltysd_helper.o
 .comment       0x0000000000000000       0x23 saltysd_helper.o
 .data          0x0000000000000000        0x0 l2c_imports.o
 .bss           0x0000000000000000        0x0 l2c_imports.o
 .comment       0x0000000000000000       0x23 l2c_imports.o
 .data          0x0000000000000000        0x0 lua_bind_hash.o
 .bss           0x0000000000000000        0x0 lua_bind_hash.o
 .comment       0x0000000000000000       0x23 lua_bind_hash.o
 .data          0x0000000000000000        0x0 raygun_printer.o
 .bss           0x0000000000000000        0x0 raygun_printer.o
 .comment       0x0000000000000000       0x23 raygun_printer.o
 .text          0x0000000000000000        0x0 C:/Users/RNG/Desktop/Stuff/Smash-Stuff/SMASH-ULTIMATE-MODS-BABY/50xx-the-mod/acmd-edits/code-mod-framework/lib/libnx_min/nx/lib\libnx_min.a(switch_crt0.o)
 .data          0x0000000000000000        0x0 C:/Users/RNG/Desktop/Stuff/Smash-Stuff/SMASH-ULTIMATE-MODS-BABY/50xx-the-mod/acmd-edits/code-mod-framework/lib/libnx_min/nx/lib\libnx_min.a(switch_crt0.o)
 .bss           0x0000000000000000        0x0 C:/Users/RNG/Desktop/Stuff/Smash-Stuff/SMASH-ULTIMATE-MODS-BABY/50xx-the-mod/acmd-edits/code-mod-framework/lib/libnx_min/nx/lib\libnx_min.a(switch_crt0.o)
 .debug_line    0x0000000000000000       0xc3 C:/Users/RNG/Desktop/Stuff/Smash-Stuff/SMASH-ULTIMATE-MODS-BABY/50xx-the-mod/acmd-edits/code-mod-framework/lib/libnx_min/nx/lib\libnx_min.a(switch_crt0.o)
 .debug_info    0x0000000000000000       0x2e C:/Users/RNG/Desktop/Stuff/Smash-Stuff/SMASH-ULTIMATE-MODS-BABY/50xx-the-mod/acmd-edits/code-mod-framework/lib/libnx_min/nx/lib\libnx_min.a(switch_crt0.o)
 .debug_abbrev  0x0000000000000000       0x14 C:/Users/RNG/Desktop/Stuff/Smash-Stuff/SMASH-ULTIMATE-MODS-BABY/50xx-the-mod/acmd-edits/code-mod-framework/lib/libnx_min/nx/lib\libnx_min.a(switch_crt0.o)
 .debug_aranges
                0x0000000000000000       0x30 C:/Users/RNG/Desktop/Stuff/Smash-Stuff/SMASH-ULTIMATE-MODS-BABY/50xx-the-mod/acmd-edits/code-mod-framework/lib/libnx_min/nx/lib\libnx_min.a(switch_crt0.o)
 .debug_str     0x0000000000000000       0xc1 C:/Users/RNG/Desktop/Stuff/Smash-Stuff/SMASH-ULTIMATE-MODS-BABY/50xx-the-mod/acmd-edits/code-mod-framework/lib/libnx_min/nx/lib\libnx_min.a(switch_crt0.o)
 .text          0x0000000000000000        0x0 C:/Users/RNG/Desktop/Stuff/Smash-Stuff/SMASH-ULTIMATE-MODS-BABY/50xx-the-mod/acmd-edits/code-mod-framework/lib/libnx_min/nx/lib\libnx_min.a(exception.o)
 .data          0x0000000000000000        0x0 C:/Users/RNG/Desktop/Stuff/Smash-Stuff/SMASH-ULTIMATE-MODS-BABY/50xx-the-mod/acmd-edits/code-mod-framework/lib/libnx_min/nx/lib\libnx_min.a(exception.o)
 .bss           0x0000000000000000        0x0 C:/Users/RNG/Desktop/Stuff/Smash-Stuff/SMASH-ULTIMATE-MODS-BABY/50xx-the-mod/acmd-edits/code-mod-framework/lib/libnx_min/nx/lib\libnx_min.a(exception.o)
 .debug_line    0x0000000000000000      0x11e C:/Users/RNG/Desktop/Stuff/Smash-Stuff/SMASH-ULTIMATE-MODS-BABY/50xx-the-mod/acmd-edits/code-mod-framework/lib/libnx_min/nx/lib\libnx_min.a(exception.o)
 .debug_info    0x0000000000000000       0x22 C:/Users/RNG/Desktop/Stuff/Smash-Stuff/SMASH-ULTIMATE-MODS-BABY/50xx-the-mod/acmd-edits/code-mod-framework/lib/libnx_min/nx/lib\libnx_min.a(exception.o)
 .debug_abbrev  0x0000000000000000       0x12 C:/Users/RNG/Desktop/Stuff/Smash-Stuff/SMASH-ULTIMATE-MODS-BABY/50xx-the-mod/acmd-edits/code-mod-framework/lib/libnx_min/nx/lib\libnx_min.a(exception.o)
 .debug_aranges
                0x0000000000000000       0x40 C:/Users/RNG/Desktop/Stuff/Smash-Stuff/SMASH-ULTIMATE-MODS-BABY/50xx-the-mod/acmd-edits/code-mod-framework/lib/libnx_min/nx/lib\libnx_min.a(exception.o)
 .debug_str     0x0000000000000000       0xbf C:/Users/RNG/Desktop/Stuff/Smash-Stuff/SMASH-ULTIMATE-MODS-BABY/50xx-the-mod/acmd-edits/code-mod-framework/lib/libnx_min/nx/lib\libnx_min.a(exception.o)
 .debug_ranges  0x0000000000000000       0x40 C:/Users/RNG/Desktop/Stuff/Smash-Stuff/SMASH-ULTIMATE-MODS-BABY/50xx-the-mod/acmd-edits/code-mod-framework/lib/libnx_min/nx/lib\libnx_min.a(exception.o)
 .text          0x0000000000000000        0x0 C:/Users/RNG/Desktop/Stuff/Smash-Stuff/SMASH-ULTIMATE-MODS-BABY/50xx-the-mod/acmd-edits/code-mod-framework/lib/libnx_min/nx/lib\libnx_min.a(argv.o)
 .data          0x0000000000000000        0x0 C:/Users/RNG/Desktop/Stuff/Smash-Stuff/SMASH-ULTIMATE-MODS-BABY/50xx-the-mod/acmd-edits/code-mod-framework/lib/libnx_min/nx/lib\libnx_min.a(argv.o)
 .bss           0x0000000000000000        0x0 C:/Users/RNG/Desktop/Stuff/Smash-Stuff/SMASH-ULTIMATE-MODS-BABY/50xx-the-mod/acmd-edits/code-mod-framework/lib/libnx_min/nx/lib\libnx_min.a(argv.o)
 .debug_info    0x0000000000000000      0xe43 C:/Users/RNG/Desktop/Stuff/Smash-Stuff/SMASH-ULTIMATE-MODS-BABY/50xx-the-mod/acmd-edits/code-mod-framework/lib/libnx_min/nx/lib\libnx_min.a(argv.o)
 .debug_abbrev  0x0000000000000000      0x2de C:/Users/RNG/Desktop/Stuff/Smash-Stuff/SMASH-ULTIMATE-MODS-BABY/50xx-the-mod/acmd-edits/code-mod-framework/lib/libnx_min/nx/lib\libnx_min.a(argv.o)
 .debug_loc     0x0000000000000000      0x6a8 C:/Users/RNG/Desktop/Stuff/Smash-Stuff/SMASH-ULTIMATE-MODS-BABY/50xx-the-mod/acmd-edits/code-mod-framework/lib/libnx_min/nx/lib\libnx_min.a(argv.o)
 .debug_aranges
                0x0000000000000000       0x30 C:/Users/RNG/Desktop/Stuff/Smash-Stuff/SMASH-ULTIMATE-MODS-BABY/50xx-the-mod/acmd-edits/code-mod-framework/lib/libnx_min/nx/lib\libnx_min.a(argv.o)
 .debug_ranges  0x0000000000000000       0x20 C:/Users/RNG/Desktop/Stuff/Smash-Stuff/SMASH-ULTIMATE-MODS-BABY/50xx-the-mod/acmd-edits/code-mod-framework/lib/libnx_min/nx/lib\libnx_min.a(argv.o)
 .debug_line    0x0000000000000000      0x64d C:/Users/RNG/Desktop/Stuff/Smash-Stuff/SMASH-ULTIMATE-MODS-BABY/50xx-the-mod/acmd-edits/code-mod-framework/lib/libnx_min/nx/lib\libnx_min.a(argv.o)
 .debug_str     0x0000000000000000      0x874 C:/Users/RNG/Desktop/Stuff/Smash-Stuff/SMASH-ULTIMATE-MODS-BABY/50xx-the-mod/acmd-edits/code-mod-framework/lib/libnx_min/nx/lib\libnx_min.a(argv.o)
 .comment       0x0000000000000000       0x23 C:/Users/RNG/Desktop/Stuff/Smash-Stuff/SMASH-ULTIMATE-MODS-BABY/50xx-the-mod/acmd-edits/code-mod-framework/lib/libnx_min/nx/lib\libnx_min.a(argv.o)
 .text          0x0000000000000000        0x0 C:/Users/RNG/Desktop/Stuff/Smash-Stuff/SMASH-ULTIMATE-MODS-BABY/50xx-the-mod/acmd-edits/code-mod-framework/lib/libnx_min/nx/lib\libnx_min.a(env.o)
 .data          0x0000000000000000        0x0 C:/Users/RNG/Desktop/Stuff/Smash-Stuff/SMASH-ULTIMATE-MODS-BABY/50xx-the-mod/acmd-edits/code-mod-framework/lib/libnx_min/nx/lib\libnx_min.a(env.o)
 .bss           0x0000000000000000        0x0 C:/Users/RNG/Desktop/Stuff/Smash-Stuff/SMASH-ULTIMATE-MODS-BABY/50xx-the-mod/acmd-edits/code-mod-framework/lib/libnx_min/nx/lib\libnx_min.a(env.o)
 .debug_info    0x0000000000000000     0x111a C:/Users/RNG/Desktop/Stuff/Smash-Stuff/SMASH-ULTIMATE-MODS-BABY/50xx-the-mod/acmd-edits/code-mod-framework/lib/libnx_min/nx/lib\libnx_min.a(env.o)
 .debug_abbrev  0x0000000000000000      0x322 C:/Users/RNG/Desktop/Stuff/Smash-Stuff/SMASH-ULTIMATE-MODS-BABY/50xx-the-mod/acmd-edits/code-mod-framework/lib/libnx_min/nx/lib\libnx_min.a(env.o)
 .debug_loc     0x0000000000000000      0x362 C:/Users/RNG/Desktop/Stuff/Smash-Stuff/SMASH-ULTIMATE-MODS-BABY/50xx-the-mod/acmd-edits/code-mod-framework/lib/libnx_min/nx/lib\libnx_min.a(env.o)
 .debug_aranges
                0x0000000000000000      0x130 C:/Users/RNG/Desktop/Stuff/Smash-Stuff/SMASH-ULTIMATE-MODS-BABY/50xx-the-mod/acmd-edits/code-mod-framework/lib/libnx_min/nx/lib\libnx_min.a(env.o)
 .debug_ranges  0x0000000000000000      0x120 C:/Users/RNG/Desktop/Stuff/Smash-Stuff/SMASH-ULTIMATE-MODS-BABY/50xx-the-mod/acmd-edits/code-mod-framework/lib/libnx_min/nx/lib\libnx_min.a(env.o)
 .debug_line    0x0000000000000000      0x6fe C:/Users/RNG/Desktop/Stuff/Smash-Stuff/SMASH-ULTIMATE-MODS-BABY/50xx-the-mod/acmd-edits/code-mod-framework/lib/libnx_min/nx/lib\libnx_min.a(env.o)
 .debug_str     0x0000000000000000     0x107e C:/Users/RNG/Desktop/Stuff/Smash-Stuff/SMASH-ULTIMATE-MODS-BABY/50xx-the-mod/acmd-edits/code-mod-framework/lib/libnx_min/nx/lib\libnx_min.a(env.o)
 .comment       0x0000000000000000       0x23 C:/Users/RNG/Desktop/Stuff/Smash-Stuff/SMASH-ULTIMATE-MODS-BABY/50xx-the-mod/acmd-edits/code-mod-framework/lib/libnx_min/nx/lib\libnx_min.a(env.o)
 .text          0x0000000000000000        0x0 C:/Users/RNG/Desktop/Stuff/Smash-Stuff/SMASH-ULTIMATE-MODS-BABY/50xx-the-mod/acmd-edits/code-mod-framework/lib/libnx_min/nx/lib\libnx_min.a(init.o)
 .data          0x0000000000000000        0x0 C:/Users/RNG/Desktop/Stuff/Smash-Stuff/SMASH-ULTIMATE-MODS-BABY/50xx-the-mod/acmd-edits/code-mod-framework/lib/libnx_min/nx/lib\libnx_min.a(init.o)
 .bss           0x0000000000000000        0x0 C:/Users/RNG/Desktop/Stuff/Smash-Stuff/SMASH-ULTIMATE-MODS-BABY/50xx-the-mod/acmd-edits/code-mod-framework/lib/libnx_min/nx/lib\libnx_min.a(init.o)
 .text.__libnx_init
                0x0000000000000000       0x28 C:/Users/RNG/Desktop/Stuff/Smash-Stuff/SMASH-ULTIMATE-MODS-BABY/50xx-the-mod/acmd-edits/code-mod-framework/lib/libnx_min/nx/lib\libnx_min.a(init.o)
 .text.__libnx_exit
                0x0000000000000000       0x20 C:/Users/RNG/Desktop/Stuff/Smash-Stuff/SMASH-ULTIMATE-MODS-BABY/50xx-the-mod/acmd-edits/code-mod-framework/lib/libnx_min/nx/lib\libnx_min.a(init.o)
 .debug_info    0x0000000000000000      0xce2 C:/Users/RNG/Desktop/Stuff/Smash-Stuff/SMASH-ULTIMATE-MODS-BABY/50xx-the-mod/acmd-edits/code-mod-framework/lib/libnx_min/nx/lib\libnx_min.a(init.o)
 .debug_abbrev  0x0000000000000000      0x2a1 C:/Users/RNG/Desktop/Stuff/Smash-Stuff/SMASH-ULTIMATE-MODS-BABY/50xx-the-mod/acmd-edits/code-mod-framework/lib/libnx_min/nx/lib\libnx_min.a(init.o)
 .debug_loc     0x0000000000000000      0x34a C:/Users/RNG/Desktop/Stuff/Smash-Stuff/SMASH-ULTIMATE-MODS-BABY/50xx-the-mod/acmd-edits/code-mod-framework/lib/libnx_min/nx/lib\libnx_min.a(init.o)
 .debug_aranges
                0x0000000000000000       0x70 C:/Users/RNG/Desktop/Stuff/Smash-Stuff/SMASH-ULTIMATE-MODS-BABY/50xx-the-mod/acmd-edits/code-mod-framework/lib/libnx_min/nx/lib\libnx_min.a(init.o)
 .debug_ranges  0x0000000000000000       0xa0 C:/Users/RNG/Desktop/Stuff/Smash-Stuff/SMASH-ULTIMATE-MODS-BABY/50xx-the-mod/acmd-edits/code-mod-framework/lib/libnx_min/nx/lib\libnx_min.a(init.o)
 .debug_line    0x0000000000000000      0x685 C:/Users/RNG/Desktop/Stuff/Smash-Stuff/SMASH-ULTIMATE-MODS-BABY/50xx-the-mod/acmd-edits/code-mod-framework/lib/libnx_min/nx/lib\libnx_min.a(init.o)
 .debug_str     0x0000000000000000      0xf19 C:/Users/RNG/Desktop/Stuff/Smash-Stuff/SMASH-ULTIMATE-MODS-BABY/50xx-the-mod/acmd-edits/code-mod-framework/lib/libnx_min/nx/lib\libnx_min.a(init.o)
 .comment       0x0000000000000000       0x23 C:/Users/RNG/Desktop/Stuff/Smash-Stuff/SMASH-ULTIMATE-MODS-BABY/50xx-the-mod/acmd-edits/code-mod-framework/lib/libnx_min/nx/lib\libnx_min.a(init.o)
 .text          0x0000000000000000        0x0 C:/Users/RNG/Desktop/Stuff/Smash-Stuff/SMASH-ULTIMATE-MODS-BABY/50xx-the-mod/acmd-edits/code-mod-framework/lib/libnx_min/nx/lib\libnx_min.a(hosversion.o)
 .data          0x0000000000000000        0x0 C:/Users/RNG/Desktop/Stuff/Smash-Stuff/SMASH-ULTIMATE-MODS-BABY/50xx-the-mod/acmd-edits/code-mod-framework/lib/libnx_min/nx/lib\libnx_min.a(hosversion.o)
 .bss           0x0000000000000000        0x0 C:/Users/RNG/Desktop/Stuff/Smash-Stuff/SMASH-ULTIMATE-MODS-BABY/50xx-the-mod/acmd-edits/code-mod-framework/lib/libnx_min/nx/lib\libnx_min.a(hosversion.o)
 .debug_info    0x0000000000000000      0x103 C:/Users/RNG/Desktop/Stuff/Smash-Stuff/SMASH-ULTIMATE-MODS-BABY/50xx-the-mod/acmd-edits/code-mod-framework/lib/libnx_min/nx/lib\libnx_min.a(hosversion.o)
 .debug_abbrev  0x0000000000000000       0xa2 C:/Users/RNG/Desktop/Stuff/Smash-Stuff/SMASH-ULTIMATE-MODS-BABY/50xx-the-mod/acmd-edits/code-mod-framework/lib/libnx_min/nx/lib\libnx_min.a(hosversion.o)
 .debug_aranges
                0x0000000000000000       0x40 C:/Users/RNG/Desktop/Stuff/Smash-Stuff/SMASH-ULTIMATE-MODS-BABY/50xx-the-mod/acmd-edits/code-mod-framework/lib/libnx_min/nx/lib\libnx_min.a(hosversion.o)
 .debug_ranges  0x0000000000000000       0x30 C:/Users/RNG/Desktop/Stuff/Smash-Stuff/SMASH-ULTIMATE-MODS-BABY/50xx-the-mod/acmd-edits/code-mod-framework/lib/libnx_min/nx/lib\libnx_min.a(hosversion.o)
 .debug_line    0x0000000000000000      0x1b0 C:/Users/RNG/Desktop/Stuff/Smash-Stuff/SMASH-ULTIMATE-MODS-BABY/50xx-the-mod/acmd-edits/code-mod-framework/lib/libnx_min/nx/lib\libnx_min.a(hosversion.o)
 .debug_str     0x0000000000000000      0x234 C:/Users/RNG/Desktop/Stuff/Smash-Stuff/SMASH-ULTIMATE-MODS-BABY/50xx-the-mod/acmd-edits/code-mod-framework/lib/libnx_min/nx/lib\libnx_min.a(hosversion.o)
 .comment       0x0000000000000000       0x23 C:/Users/RNG/Desktop/Stuff/Smash-Stuff/SMASH-ULTIMATE-MODS-BABY/50xx-the-mod/acmd-edits/code-mod-framework/lib/libnx_min/nx/lib\libnx_min.a(hosversion.o)
 .text          0x0000000000000000        0x0 C:/Users/RNG/Desktop/Stuff/Smash-Stuff/SMASH-ULTIMATE-MODS-BABY/50xx-the-mod/acmd-edits/code-mod-framework/lib/libnx_min/nx/lib\libnx_min.a(dynamic.o)
 .data          0x0000000000000000        0x0 C:/Users/RNG/Desktop/Stuff/Smash-Stuff/SMASH-ULTIMATE-MODS-BABY/50xx-the-mod/acmd-edits/code-mod-framework/lib/libnx_min/nx/lib\libnx_min.a(dynamic.o)
 .bss           0x0000000000000000        0x0 C:/Users/RNG/Desktop/Stuff/Smash-Stuff/SMASH-ULTIMATE-MODS-BABY/50xx-the-mod/acmd-edits/code-mod-framework/lib/libnx_min/nx/lib\libnx_min.a(dynamic.o)
 .debug_info    0x0000000000000000      0x3c9 C:/Users/RNG/Desktop/Stuff/Smash-Stuff/SMASH-ULTIMATE-MODS-BABY/50xx-the-mod/acmd-edits/code-mod-framework/lib/libnx_min/nx/lib\libnx_min.a(dynamic.o)
 .debug_abbrev  0x0000000000000000      0x16b C:/Users/RNG/Desktop/Stuff/Smash-Stuff/SMASH-ULTIMATE-MODS-BABY/50xx-the-mod/acmd-edits/code-mod-framework/lib/libnx_min/nx/lib\libnx_min.a(dynamic.o)
 .debug_loc     0x0000000000000000      0x1b8 C:/Users/RNG/Desktop/Stuff/Smash-Stuff/SMASH-ULTIMATE-MODS-BABY/50xx-the-mod/acmd-edits/code-mod-framework/lib/libnx_min/nx/lib\libnx_min.a(dynamic.o)
 .debug_aranges
                0x0000000000000000       0x30 C:/Users/RNG/Desktop/Stuff/Smash-Stuff/SMASH-ULTIMATE-MODS-BABY/50xx-the-mod/acmd-edits/code-mod-framework/lib/libnx_min/nx/lib\libnx_min.a(dynamic.o)
 .debug_ranges  0x0000000000000000       0x20 C:/Users/RNG/Desktop/Stuff/Smash-Stuff/SMASH-ULTIMATE-MODS-BABY/50xx-the-mod/acmd-edits/code-mod-framework/lib/libnx_min/nx/lib\libnx_min.a(dynamic.o)
 .debug_line    0x0000000000000000      0x2df C:/Users/RNG/Desktop/Stuff/Smash-Stuff/SMASH-ULTIMATE-MODS-BABY/50xx-the-mod/acmd-edits/code-mod-framework/lib/libnx_min/nx/lib\libnx_min.a(dynamic.o)
 .debug_str     0x0000000000000000      0x837 C:/Users/RNG/Desktop/Stuff/Smash-Stuff/SMASH-ULTIMATE-MODS-BABY/50xx-the-mod/acmd-edits/code-mod-framework/lib/libnx_min/nx/lib\libnx_min.a(dynamic.o)
 .comment       0x0000000000000000       0x23 C:/Users/RNG/Desktop/Stuff/Smash-Stuff/SMASH-ULTIMATE-MODS-BABY/50xx-the-mod/acmd-edits/code-mod-framework/lib/libnx_min/nx/lib\libnx_min.a(dynamic.o)
 .text          0x0000000000000000        0x0 C:/Users/RNG/Desktop/Stuff/Smash-Stuff/SMASH-ULTIMATE-MODS-BABY/50xx-the-mod/acmd-edits/code-mod-framework/lib/libnx_min/nx/lib\libnx_min.a(fs_dev.o)
 .data          0x0000000000000000        0x0 C:/Users/RNG/Desktop/Stuff/Smash-Stuff/SMASH-ULTIMATE-MODS-BABY/50xx-the-mod/acmd-edits/code-mod-framework/lib/libnx_min/nx/lib\libnx_min.a(fs_dev.o)
 .bss           0x0000000000000000        0x0 C:/Users/RNG/Desktop/Stuff/Smash-Stuff/SMASH-ULTIMATE-MODS-BABY/50xx-the-mod/acmd-edits/code-mod-framework/lib/libnx_min/nx/lib\libnx_min.a(fs_dev.o)
 .debug_info    0x0000000000000000     0x411e C:/Users/RNG/Desktop/Stuff/Smash-Stuff/SMASH-ULTIMATE-MODS-BABY/50xx-the-mod/acmd-edits/code-mod-framework/lib/libnx_min/nx/lib\libnx_min.a(fs_dev.o)
 .debug_abbrev  0x0000000000000000      0x5b7 C:/Users/RNG/Desktop/Stuff/Smash-Stuff/SMASH-ULTIMATE-MODS-BABY/50xx-the-mod/acmd-edits/code-mod-framework/lib/libnx_min/nx/lib\libnx_min.a(fs_dev.o)
 .debug_loc     0x0000000000000000     0x4332 C:/Users/RNG/Desktop/Stuff/Smash-Stuff/SMASH-ULTIMATE-MODS-BABY/50xx-the-mod/acmd-edits/code-mod-framework/lib/libnx_min/nx/lib\libnx_min.a(fs_dev.o)
 .debug_aranges
                0x0000000000000000      0x2a0 C:/Users/RNG/Desktop/Stuff/Smash-Stuff/SMASH-ULTIMATE-MODS-BABY/50xx-the-mod/acmd-edits/code-mod-framework/lib/libnx_min/nx/lib\libnx_min.a(fs_dev.o)
 .debug_ranges  0x0000000000000000      0x670 C:/Users/RNG/Desktop/Stuff/Smash-Stuff/SMASH-ULTIMATE-MODS-BABY/50xx-the-mod/acmd-edits/code-mod-framework/lib/libnx_min/nx/lib\libnx_min.a(fs_dev.o)
 .debug_line    0x0000000000000000     0x1a73 C:/Users/RNG/Desktop/Stuff/Smash-Stuff/SMASH-ULTIMATE-MODS-BABY/50xx-the-mod/acmd-edits/code-mod-framework/lib/libnx_min/nx/lib\libnx_min.a(fs_dev.o)
 .debug_str     0x0000000000000000     0x1939 C:/Users/RNG/Desktop/Stuff/Smash-Stuff/SMASH-ULTIMATE-MODS-BABY/50xx-the-mod/acmd-edits/code-mod-framework/lib/libnx_min/nx/lib\libnx_min.a(fs_dev.o)
 .comment       0x0000000000000000       0x23 C:/Users/RNG/Desktop/Stuff/Smash-Stuff/SMASH-ULTIMATE-MODS-BABY/50xx-the-mod/acmd-edits/code-mod-framework/lib/libnx_min/nx/lib\libnx_min.a(fs_dev.o)
 .text          0x0000000000000000        0x0 C:/Users/RNG/Desktop/Stuff/Smash-Stuff/SMASH-ULTIMATE-MODS-BABY/50xx-the-mod/acmd-edits/code-mod-framework/lib/libnx_min/nx/lib\libnx_min.a(decode_utf8.o)
 .data          0x0000000000000000        0x0 C:/Users/RNG/Desktop/Stuff/Smash-Stuff/SMASH-ULTIMATE-MODS-BABY/50xx-the-mod/acmd-edits/code-mod-framework/lib/libnx_min/nx/lib\libnx_min.a(decode_utf8.o)
 .bss           0x0000000000000000        0x0 C:/Users/RNG/Desktop/Stuff/Smash-Stuff/SMASH-ULTIMATE-MODS-BABY/50xx-the-mod/acmd-edits/code-mod-framework/lib/libnx_min/nx/lib\libnx_min.a(decode_utf8.o)
 .debug_info    0x0000000000000000      0x170 C:/Users/RNG/Desktop/Stuff/Smash-Stuff/SMASH-ULTIMATE-MODS-BABY/50xx-the-mod/acmd-edits/code-mod-framework/lib/libnx_min/nx/lib\libnx_min.a(decode_utf8.o)
 .debug_abbrev  0x0000000000000000       0x9e C:/Users/RNG/Desktop/Stuff/Smash-Stuff/SMASH-ULTIMATE-MODS-BABY/50xx-the-mod/acmd-edits/code-mod-framework/lib/libnx_min/nx/lib\libnx_min.a(decode_utf8.o)
 .debug_loc     0x0000000000000000      0x334 C:/Users/RNG/Desktop/Stuff/Smash-Stuff/SMASH-ULTIMATE-MODS-BABY/50xx-the-mod/acmd-edits/code-mod-framework/lib/libnx_min/nx/lib\libnx_min.a(decode_utf8.o)
 .debug_aranges
                0x0000000000000000       0x30 C:/Users/RNG/Desktop/Stuff/Smash-Stuff/SMASH-ULTIMATE-MODS-BABY/50xx-the-mod/acmd-edits/code-mod-framework/lib/libnx_min/nx/lib\libnx_min.a(decode_utf8.o)
 .debug_ranges  0x0000000000000000       0x20 C:/Users/RNG/Desktop/Stuff/Smash-Stuff/SMASH-ULTIMATE-MODS-BABY/50xx-the-mod/acmd-edits/code-mod-framework/lib/libnx_min/nx/lib\libnx_min.a(decode_utf8.o)
 .debug_line    0x0000000000000000      0x28a C:/Users/RNG/Desktop/Stuff/Smash-Stuff/SMASH-ULTIMATE-MODS-BABY/50xx-the-mod/acmd-edits/code-mod-framework/lib/libnx_min/nx/lib\libnx_min.a(decode_utf8.o)
 .debug_str     0x0000000000000000      0x259 C:/Users/RNG/Desktop/Stuff/Smash-Stuff/SMASH-ULTIMATE-MODS-BABY/50xx-the-mod/acmd-edits/code-mod-framework/lib/libnx_min/nx/lib\libnx_min.a(decode_utf8.o)
 .comment       0x0000000000000000       0x23 C:/Users/RNG/Desktop/Stuff/Smash-Stuff/SMASH-ULTIMATE-MODS-BABY/50xx-the-mod/acmd-edits/code-mod-framework/lib/libnx_min/nx/lib\libnx_min.a(decode_utf8.o)
 .text          0x0000000000000000        0x0 C:/Users/RNG/Desktop/Stuff/Smash-Stuff/SMASH-ULTIMATE-MODS-BABY/50xx-the-mod/acmd-edits/code-mod-framework/lib/libnx_min/nx/lib\libnx_min.a(svc.o)
 .data          0x0000000000000000        0x0 C:/Users/RNG/Desktop/Stuff/Smash-Stuff/SMASH-ULTIMATE-MODS-BABY/50xx-the-mod/acmd-edits/code-mod-framework/lib/libnx_min/nx/lib\libnx_min.a(svc.o)
 .bss           0x0000000000000000        0x0 C:/Users/RNG/Desktop/Stuff/Smash-Stuff/SMASH-ULTIMATE-MODS-BABY/50xx-the-mod/acmd-edits/code-mod-framework/lib/libnx_min/nx/lib\libnx_min.a(svc.o)
 .debug_line    0x0000000000000000      0x92d C:/Users/RNG/Desktop/Stuff/Smash-Stuff/SMASH-ULTIMATE-MODS-BABY/50xx-the-mod/acmd-edits/code-mod-framework/lib/libnx_min/nx/lib\libnx_min.a(svc.o)
 .debug_info    0x0000000000000000       0x22 C:/Users/RNG/Desktop/Stuff/Smash-Stuff/SMASH-ULTIMATE-MODS-BABY/50xx-the-mod/acmd-edits/code-mod-framework/lib/libnx_min/nx/lib\libnx_min.a(svc.o)
 .debug_abbrev  0x0000000000000000       0x12 C:/Users/RNG/Desktop/Stuff/Smash-Stuff/SMASH-ULTIMATE-MODS-BABY/50xx-the-mod/acmd-edits/code-mod-framework/lib/libnx_min/nx/lib\libnx_min.a(svc.o)
 .debug_aranges
                0x0000000000000000      0x660 C:/Users/RNG/Desktop/Stuff/Smash-Stuff/SMASH-ULTIMATE-MODS-BABY/50xx-the-mod/acmd-edits/code-mod-framework/lib/libnx_min/nx/lib\libnx_min.a(svc.o)
 .debug_str     0x0000000000000000       0xb8 C:/Users/RNG/Desktop/Stuff/Smash-Stuff/SMASH-ULTIMATE-MODS-BABY/50xx-the-mod/acmd-edits/code-mod-framework/lib/libnx_min/nx/lib\libnx_min.a(svc.o)
 .debug_ranges  0x0000000000000000      0x660 C:/Users/RNG/Desktop/Stuff/Smash-Stuff/SMASH-ULTIMATE-MODS-BABY/50xx-the-mod/acmd-edits/code-mod-framework/lib/libnx_min/nx/lib\libnx_min.a(svc.o)
 .text          0x0000000000000000        0x0 C:/Users/RNG/Desktop/Stuff/Smash-Stuff/SMASH-ULTIMATE-MODS-BABY/50xx-the-mod/acmd-edits/code-mod-framework/lib/libnx_min/nx/lib\libnx_min.a(readtp.o)
 .data          0x0000000000000000        0x0 C:/Users/RNG/Desktop/Stuff/Smash-Stuff/SMASH-ULTIMATE-MODS-BABY/50xx-the-mod/acmd-edits/code-mod-framework/lib/libnx_min/nx/lib\libnx_min.a(readtp.o)
 .bss           0x0000000000000000        0x0 C:/Users/RNG/Desktop/Stuff/Smash-Stuff/SMASH-ULTIMATE-MODS-BABY/50xx-the-mod/acmd-edits/code-mod-framework/lib/libnx_min/nx/lib\libnx_min.a(readtp.o)
 .debug_line    0x0000000000000000       0x93 C:/Users/RNG/Desktop/Stuff/Smash-Stuff/SMASH-ULTIMATE-MODS-BABY/50xx-the-mod/acmd-edits/code-mod-framework/lib/libnx_min/nx/lib\libnx_min.a(readtp.o)
 .debug_info    0x0000000000000000       0x2e C:/Users/RNG/Desktop/Stuff/Smash-Stuff/SMASH-ULTIMATE-MODS-BABY/50xx-the-mod/acmd-edits/code-mod-framework/lib/libnx_min/nx/lib\libnx_min.a(readtp.o)
 .debug_abbrev  0x0000000000000000       0x14 C:/Users/RNG/Desktop/Stuff/Smash-Stuff/SMASH-ULTIMATE-MODS-BABY/50xx-the-mod/acmd-edits/code-mod-framework/lib/libnx_min/nx/lib\libnx_min.a(readtp.o)
 .debug_aranges
                0x0000000000000000       0x30 C:/Users/RNG/Desktop/Stuff/Smash-Stuff/SMASH-ULTIMATE-MODS-BABY/50xx-the-mod/acmd-edits/code-mod-framework/lib/libnx_min/nx/lib\libnx_min.a(readtp.o)
 .debug_str     0x0000000000000000       0xbc C:/Users/RNG/Desktop/Stuff/Smash-Stuff/SMASH-ULTIMATE-MODS-BABY/50xx-the-mod/acmd-edits/code-mod-framework/lib/libnx_min/nx/lib\libnx_min.a(readtp.o)
 .text          0x0000000000000000        0x0 C:/Users/RNG/Desktop/Stuff/Smash-Stuff/SMASH-ULTIMATE-MODS-BABY/50xx-the-mod/acmd-edits/code-mod-framework/lib/libnx_min/nx/lib\libnx_min.a(virtmem.o)
 .data          0x0000000000000000        0x0 C:/Users/RNG/Desktop/Stuff/Smash-Stuff/SMASH-ULTIMATE-MODS-BABY/50xx-the-mod/acmd-edits/code-mod-framework/lib/libnx_min/nx/lib\libnx_min.a(virtmem.o)
 .bss           0x0000000000000000        0x0 C:/Users/RNG/Desktop/Stuff/Smash-Stuff/SMASH-ULTIMATE-MODS-BABY/50xx-the-mod/acmd-edits/code-mod-framework/lib/libnx_min/nx/lib\libnx_min.a(virtmem.o)
 .debug_info    0x0000000000000000      0xb52 C:/Users/RNG/Desktop/Stuff/Smash-Stuff/SMASH-ULTIMATE-MODS-BABY/50xx-the-mod/acmd-edits/code-mod-framework/lib/libnx_min/nx/lib\libnx_min.a(virtmem.o)
 .debug_abbrev  0x0000000000000000      0x2cf C:/Users/RNG/Desktop/Stuff/Smash-Stuff/SMASH-ULTIMATE-MODS-BABY/50xx-the-mod/acmd-edits/code-mod-framework/lib/libnx_min/nx/lib\libnx_min.a(virtmem.o)
 .debug_loc     0x0000000000000000      0x668 C:/Users/RNG/Desktop/Stuff/Smash-Stuff/SMASH-ULTIMATE-MODS-BABY/50xx-the-mod/acmd-edits/code-mod-framework/lib/libnx_min/nx/lib\libnx_min.a(virtmem.o)
 .debug_aranges
                0x0000000000000000       0x70 C:/Users/RNG/Desktop/Stuff/Smash-Stuff/SMASH-ULTIMATE-MODS-BABY/50xx-the-mod/acmd-edits/code-mod-framework/lib/libnx_min/nx/lib\libnx_min.a(virtmem.o)
 .debug_ranges  0x0000000000000000      0x170 C:/Users/RNG/Desktop/Stuff/Smash-Stuff/SMASH-ULTIMATE-MODS-BABY/50xx-the-mod/acmd-edits/code-mod-framework/lib/libnx_min/nx/lib\libnx_min.a(virtmem.o)
 .debug_line    0x0000000000000000      0x60f C:/Users/RNG/Desktop/Stuff/Smash-Stuff/SMASH-ULTIMATE-MODS-BABY/50xx-the-mod/acmd-edits/code-mod-framework/lib/libnx_min/nx/lib\libnx_min.a(virtmem.o)
 .debug_str     0x0000000000000000      0xbfa C:/Users/RNG/Desktop/Stuff/Smash-Stuff/SMASH-ULTIMATE-MODS-BABY/50xx-the-mod/acmd-edits/code-mod-framework/lib/libnx_min/nx/lib\libnx_min.a(virtmem.o)
 .comment       0x0000000000000000       0x23 C:/Users/RNG/Desktop/Stuff/Smash-Stuff/SMASH-ULTIMATE-MODS-BABY/50xx-the-mod/acmd-edits/code-mod-framework/lib/libnx_min/nx/lib\libnx_min.a(virtmem.o)
 .text          0x0000000000000000        0x0 C:/Users/RNG/Desktop/Stuff/Smash-Stuff/SMASH-ULTIMATE-MODS-BABY/50xx-the-mod/acmd-edits/code-mod-framework/lib/libnx_min/nx/lib\libnx_min.a(mutex.o)
 .data          0x0000000000000000        0x0 C:/Users/RNG/Desktop/Stuff/Smash-Stuff/SMASH-ULTIMATE-MODS-BABY/50xx-the-mod/acmd-edits/code-mod-framework/lib/libnx_min/nx/lib\libnx_min.a(mutex.o)
 .bss           0x0000000000000000        0x0 C:/Users/RNG/Desktop/Stuff/Smash-Stuff/SMASH-ULTIMATE-MODS-BABY/50xx-the-mod/acmd-edits/code-mod-framework/lib/libnx_min/nx/lib\libnx_min.a(mutex.o)
 .debug_info    0x0000000000000000      0x782 C:/Users/RNG/Desktop/Stuff/Smash-Stuff/SMASH-ULTIMATE-MODS-BABY/50xx-the-mod/acmd-edits/code-mod-framework/lib/libnx_min/nx/lib\libnx_min.a(mutex.o)
 .debug_abbrev  0x0000000000000000      0x1fe C:/Users/RNG/Desktop/Stuff/Smash-Stuff/SMASH-ULTIMATE-MODS-BABY/50xx-the-mod/acmd-edits/code-mod-framework/lib/libnx_min/nx/lib\libnx_min.a(mutex.o)
 .debug_loc     0x0000000000000000      0x3d1 C:/Users/RNG/Desktop/Stuff/Smash-Stuff/SMASH-ULTIMATE-MODS-BABY/50xx-the-mod/acmd-edits/code-mod-framework/lib/libnx_min/nx/lib\libnx_min.a(mutex.o)
 .debug_aranges
                0x0000000000000000       0x80 C:/Users/RNG/Desktop/Stuff/Smash-Stuff/SMASH-ULTIMATE-MODS-BABY/50xx-the-mod/acmd-edits/code-mod-framework/lib/libnx_min/nx/lib\libnx_min.a(mutex.o)
 .debug_ranges  0x0000000000000000      0x470 C:/Users/RNG/Desktop/Stuff/Smash-Stuff/SMASH-ULTIMATE-MODS-BABY/50xx-the-mod/acmd-edits/code-mod-framework/lib/libnx_min/nx/lib\libnx_min.a(mutex.o)
 .debug_line    0x0000000000000000      0x5e6 C:/Users/RNG/Desktop/Stuff/Smash-Stuff/SMASH-ULTIMATE-MODS-BABY/50xx-the-mod/acmd-edits/code-mod-framework/lib/libnx_min/nx/lib\libnx_min.a(mutex.o)
 .debug_str     0x0000000000000000      0x3a4 C:/Users/RNG/Desktop/Stuff/Smash-Stuff/SMASH-ULTIMATE-MODS-BABY/50xx-the-mod/acmd-edits/code-mod-framework/lib/libnx_min/nx/lib\libnx_min.a(mutex.o)
 .comment       0x0000000000000000       0x23 C:/Users/RNG/Desktop/Stuff/Smash-Stuff/SMASH-ULTIMATE-MODS-BABY/50xx-the-mod/acmd-edits/code-mod-framework/lib/libnx_min/nx/lib\libnx_min.a(mutex.o)
 .text          0x0000000000000000        0x0 C:/Users/RNG/Desktop/Stuff/Smash-Stuff/SMASH-ULTIMATE-MODS-BABY/50xx-the-mod/acmd-edits/code-mod-framework/lib/libnx_min/nx/lib\libnx_min.a(fs.o)
 .data          0x0000000000000000        0x0 C:/Users/RNG/Desktop/Stuff/Smash-Stuff/SMASH-ULTIMATE-MODS-BABY/50xx-the-mod/acmd-edits/code-mod-framework/lib/libnx_min/nx/lib\libnx_min.a(fs.o)
 .bss           0x0000000000000000        0x0 C:/Users/RNG/Desktop/Stuff/Smash-Stuff/SMASH-ULTIMATE-MODS-BABY/50xx-the-mod/acmd-edits/code-mod-framework/lib/libnx_min/nx/lib\libnx_min.a(fs.o)
 .debug_info    0x0000000000000000    0x148db C:/Users/RNG/Desktop/Stuff/Smash-Stuff/SMASH-ULTIMATE-MODS-BABY/50xx-the-mod/acmd-edits/code-mod-framework/lib/libnx_min/nx/lib\libnx_min.a(fs.o)
 .debug_abbrev  0x0000000000000000      0x6cd C:/Users/RNG/Desktop/Stuff/Smash-Stuff/SMASH-ULTIMATE-MODS-BABY/50xx-the-mod/acmd-edits/code-mod-framework/lib/libnx_min/nx/lib\libnx_min.a(fs.o)
 .debug_loc     0x0000000000000000    0x23e9b C:/Users/RNG/Desktop/Stuff/Smash-Stuff/SMASH-ULTIMATE-MODS-BABY/50xx-the-mod/acmd-edits/code-mod-framework/lib/libnx_min/nx/lib\libnx_min.a(fs.o)
 .debug_aranges
                0x0000000000000000      0x4a0 C:/Users/RNG/Desktop/Stuff/Smash-Stuff/SMASH-ULTIMATE-MODS-BABY/50xx-the-mod/acmd-edits/code-mod-framework/lib/libnx_min/nx/lib\libnx_min.a(fs.o)
 .debug_ranges  0x0000000000000000     0xb5b0 C:/Users/RNG/Desktop/Stuff/Smash-Stuff/SMASH-ULTIMATE-MODS-BABY/50xx-the-mod/acmd-edits/code-mod-framework/lib/libnx_min/nx/lib\libnx_min.a(fs.o)
 .debug_line    0x0000000000000000     0xb1b2 C:/Users/RNG/Desktop/Stuff/Smash-Stuff/SMASH-ULTIMATE-MODS-BABY/50xx-the-mod/acmd-edits/code-mod-framework/lib/libnx_min/nx/lib\libnx_min.a(fs.o)
 .debug_str     0x0000000000000000     0x23e6 C:/Users/RNG/Desktop/Stuff/Smash-Stuff/SMASH-ULTIMATE-MODS-BABY/50xx-the-mod/acmd-edits/code-mod-framework/lib/libnx_min/nx/lib\libnx_min.a(fs.o)
 .comment       0x0000000000000000       0x23 C:/Users/RNG/Desktop/Stuff/Smash-Stuff/SMASH-ULTIMATE-MODS-BABY/50xx-the-mod/acmd-edits/code-mod-framework/lib/libnx_min/nx/lib\libnx_min.a(fs.o)
 .text          0x0000000000000000        0x0 C:/Users/RNG/Desktop/Stuff/Smash-Stuff/SMASH-ULTIMATE-MODS-BABY/50xx-the-mod/acmd-edits/code-mod-framework/lib/libnx_min/nx/lib\libnx_min.a(set.o)
 .data          0x0000000000000000        0x0 C:/Users/RNG/Desktop/Stuff/Smash-Stuff/SMASH-ULTIMATE-MODS-BABY/50xx-the-mod/acmd-edits/code-mod-framework/lib/libnx_min/nx/lib\libnx_min.a(set.o)
 .bss           0x0000000000000000        0x0 C:/Users/RNG/Desktop/Stuff/Smash-Stuff/SMASH-ULTIMATE-MODS-BABY/50xx-the-mod/acmd-edits/code-mod-framework/lib/libnx_min/nx/lib\libnx_min.a(set.o)
 .debug_info    0x0000000000000000     0x692b C:/Users/RNG/Desktop/Stuff/Smash-Stuff/SMASH-ULTIMATE-MODS-BABY/50xx-the-mod/acmd-edits/code-mod-framework/lib/libnx_min/nx/lib\libnx_min.a(set.o)
 .debug_abbrev  0x0000000000000000      0x5eb C:/Users/RNG/Desktop/Stuff/Smash-Stuff/SMASH-ULTIMATE-MODS-BABY/50xx-the-mod/acmd-edits/code-mod-framework/lib/libnx_min/nx/lib\libnx_min.a(set.o)
 .debug_loc     0x0000000000000000     0xc88f C:/Users/RNG/Desktop/Stuff/Smash-Stuff/SMASH-ULTIMATE-MODS-BABY/50xx-the-mod/acmd-edits/code-mod-framework/lib/libnx_min/nx/lib\libnx_min.a(set.o)
 .debug_aranges
                0x0000000000000000      0x1d0 C:/Users/RNG/Desktop/Stuff/Smash-Stuff/SMASH-ULTIMATE-MODS-BABY/50xx-the-mod/acmd-edits/code-mod-framework/lib/libnx_min/nx/lib\libnx_min.a(set.o)
 .debug_ranges  0x0000000000000000     0x25f0 C:/Users/RNG/Desktop/Stuff/Smash-Stuff/SMASH-ULTIMATE-MODS-BABY/50xx-the-mod/acmd-edits/code-mod-framework/lib/libnx_min/nx/lib\libnx_min.a(set.o)
 .debug_line    0x0000000000000000     0x3101 C:/Users/RNG/Desktop/Stuff/Smash-Stuff/SMASH-ULTIMATE-MODS-BABY/50xx-the-mod/acmd-edits/code-mod-framework/lib/libnx_min/nx/lib\libnx_min.a(set.o)
 .debug_str     0x0000000000000000     0x1b23 C:/Users/RNG/Desktop/Stuff/Smash-Stuff/SMASH-ULTIMATE-MODS-BABY/50xx-the-mod/acmd-edits/code-mod-framework/lib/libnx_min/nx/lib\libnx_min.a(set.o)
 .comment       0x0000000000000000       0x23 C:/Users/RNG/Desktop/Stuff/Smash-Stuff/SMASH-ULTIMATE-MODS-BABY/50xx-the-mod/acmd-edits/code-mod-framework/lib/libnx_min/nx/lib\libnx_min.a(set.o)
 .text          0x0000000000000000        0x0 C:/Users/RNG/Desktop/Stuff/Smash-Stuff/SMASH-ULTIMATE-MODS-BABY/50xx-the-mod/acmd-edits/code-mod-framework/lib/libnx_min/nx/lib\libnx_min.a(fatal.o)
 .data          0x0000000000000000        0x0 C:/Users/RNG/Desktop/Stuff/Smash-Stuff/SMASH-ULTIMATE-MODS-BABY/50xx-the-mod/acmd-edits/code-mod-framework/lib/libnx_min/nx/lib\libnx_min.a(fatal.o)
 .bss           0x0000000000000000        0x0 C:/Users/RNG/Desktop/Stuff/Smash-Stuff/SMASH-ULTIMATE-MODS-BABY/50xx-the-mod/acmd-edits/code-mod-framework/lib/libnx_min/nx/lib\libnx_min.a(fatal.o)
 .debug_info    0x0000000000000000      0xd6e C:/Users/RNG/Desktop/Stuff/Smash-Stuff/SMASH-ULTIMATE-MODS-BABY/50xx-the-mod/acmd-edits/code-mod-framework/lib/libnx_min/nx/lib\libnx_min.a(fatal.o)
 .debug_abbrev  0x0000000000000000      0x393 C:/Users/RNG/Desktop/Stuff/Smash-Stuff/SMASH-ULTIMATE-MODS-BABY/50xx-the-mod/acmd-edits/code-mod-framework/lib/libnx_min/nx/lib\libnx_min.a(fatal.o)
 .debug_loc     0x0000000000000000      0x895 C:/Users/RNG/Desktop/Stuff/Smash-Stuff/SMASH-ULTIMATE-MODS-BABY/50xx-the-mod/acmd-edits/code-mod-framework/lib/libnx_min/nx/lib\libnx_min.a(fatal.o)
 .debug_aranges
                0x0000000000000000       0x60 C:/Users/RNG/Desktop/Stuff/Smash-Stuff/SMASH-ULTIMATE-MODS-BABY/50xx-the-mod/acmd-edits/code-mod-framework/lib/libnx_min/nx/lib\libnx_min.a(fatal.o)
 .debug_ranges  0x0000000000000000      0x240 C:/Users/RNG/Desktop/Stuff/Smash-Stuff/SMASH-ULTIMATE-MODS-BABY/50xx-the-mod/acmd-edits/code-mod-framework/lib/libnx_min/nx/lib\libnx_min.a(fatal.o)
 .debug_line    0x0000000000000000      0x5c9 C:/Users/RNG/Desktop/Stuff/Smash-Stuff/SMASH-ULTIMATE-MODS-BABY/50xx-the-mod/acmd-edits/code-mod-framework/lib/libnx_min/nx/lib\libnx_min.a(fatal.o)
 .debug_str     0x0000000000000000      0x763 C:/Users/RNG/Desktop/Stuff/Smash-Stuff/SMASH-ULTIMATE-MODS-BABY/50xx-the-mod/acmd-edits/code-mod-framework/lib/libnx_min/nx/lib\libnx_min.a(fatal.o)
 .comment       0x0000000000000000       0x23 C:/Users/RNG/Desktop/Stuff/Smash-Stuff/SMASH-ULTIMATE-MODS-BABY/50xx-the-mod/acmd-edits/code-mod-framework/lib/libnx_min/nx/lib\libnx_min.a(fatal.o)
 .text          0x0000000000000000        0x0 C:/Users/RNG/Desktop/Stuff/Smash-Stuff/SMASH-ULTIMATE-MODS-BABY/50xx-the-mod/acmd-edits/code-mod-framework/lib/libnx_min/nx/lib\libnx_min.a(sm.o)
 .data          0x0000000000000000        0x0 C:/Users/RNG/Desktop/Stuff/Smash-Stuff/SMASH-ULTIMATE-MODS-BABY/50xx-the-mod/acmd-edits/code-mod-framework/lib/libnx_min/nx/lib\libnx_min.a(sm.o)
 .bss           0x0000000000000000        0x0 C:/Users/RNG/Desktop/Stuff/Smash-Stuff/SMASH-ULTIMATE-MODS-BABY/50xx-the-mod/acmd-edits/code-mod-framework/lib/libnx_min/nx/lib\libnx_min.a(sm.o)
 .debug_info    0x0000000000000000     0x34eb C:/Users/RNG/Desktop/Stuff/Smash-Stuff/SMASH-ULTIMATE-MODS-BABY/50xx-the-mod/acmd-edits/code-mod-framework/lib/libnx_min/nx/lib\libnx_min.a(sm.o)
 .debug_abbrev  0x0000000000000000      0x4c4 C:/Users/RNG/Desktop/Stuff/Smash-Stuff/SMASH-ULTIMATE-MODS-BABY/50xx-the-mod/acmd-edits/code-mod-framework/lib/libnx_min/nx/lib\libnx_min.a(sm.o)
 .debug_loc     0x0000000000000000     0x5a55 C:/Users/RNG/Desktop/Stuff/Smash-Stuff/SMASH-ULTIMATE-MODS-BABY/50xx-the-mod/acmd-edits/code-mod-framework/lib/libnx_min/nx/lib\libnx_min.a(sm.o)
 .debug_aranges
                0x0000000000000000       0xe0 C:/Users/RNG/Desktop/Stuff/Smash-Stuff/SMASH-ULTIMATE-MODS-BABY/50xx-the-mod/acmd-edits/code-mod-framework/lib/libnx_min/nx/lib\libnx_min.a(sm.o)
 .debug_ranges  0x0000000000000000     0x1160 C:/Users/RNG/Desktop/Stuff/Smash-Stuff/SMASH-ULTIMATE-MODS-BABY/50xx-the-mod/acmd-edits/code-mod-framework/lib/libnx_min/nx/lib\libnx_min.a(sm.o)
 .debug_line    0x0000000000000000     0x175a C:/Users/RNG/Desktop/Stuff/Smash-Stuff/SMASH-ULTIMATE-MODS-BABY/50xx-the-mod/acmd-edits/code-mod-framework/lib/libnx_min/nx/lib\libnx_min.a(sm.o)
 .debug_str     0x0000000000000000     0x150b C:/Users/RNG/Desktop/Stuff/Smash-Stuff/SMASH-ULTIMATE-MODS-BABY/50xx-the-mod/acmd-edits/code-mod-framework/lib/libnx_min/nx/lib\libnx_min.a(sm.o)
 .comment       0x0000000000000000       0x23 C:/Users/RNG/Desktop/Stuff/Smash-Stuff/SMASH-ULTIMATE-MODS-BABY/50xx-the-mod/acmd-edits/code-mod-framework/lib/libnx_min/nx/lib\libnx_min.a(sm.o)
 .text          0x0000000000000000        0x0 C:/Users/RNG/Desktop/Stuff/Smash-Stuff/SMASH-ULTIMATE-MODS-BABY/50xx-the-mod/acmd-edits/code-mod-framework/lib/libnx_min/nx/lib\libnx_min.a(hid.o)
 .data          0x0000000000000000        0x0 C:/Users/RNG/Desktop/Stuff/Smash-Stuff/SMASH-ULTIMATE-MODS-BABY/50xx-the-mod/acmd-edits/code-mod-framework/lib/libnx_min/nx/lib\libnx_min.a(hid.o)
 .bss           0x0000000000000000        0x0 C:/Users/RNG/Desktop/Stuff/Smash-Stuff/SMASH-ULTIMATE-MODS-BABY/50xx-the-mod/acmd-edits/code-mod-framework/lib/libnx_min/nx/lib\libnx_min.a(hid.o)
 .debug_info    0x0000000000000000     0xb19f C:/Users/RNG/Desktop/Stuff/Smash-Stuff/SMASH-ULTIMATE-MODS-BABY/50xx-the-mod/acmd-edits/code-mod-framework/lib/libnx_min/nx/lib\libnx_min.a(hid.o)
 .debug_abbrev  0x0000000000000000      0x743 C:/Users/RNG/Desktop/Stuff/Smash-Stuff/SMASH-ULTIMATE-MODS-BABY/50xx-the-mod/acmd-edits/code-mod-framework/lib/libnx_min/nx/lib\libnx_min.a(hid.o)
 .debug_loc     0x0000000000000000    0x1192e C:/Users/RNG/Desktop/Stuff/Smash-Stuff/SMASH-ULTIMATE-MODS-BABY/50xx-the-mod/acmd-edits/code-mod-framework/lib/libnx_min/nx/lib\libnx_min.a(hid.o)
 .debug_aranges
                0x0000000000000000      0x450 C:/Users/RNG/Desktop/Stuff/Smash-Stuff/SMASH-ULTIMATE-MODS-BABY/50xx-the-mod/acmd-edits/code-mod-framework/lib/libnx_min/nx/lib\libnx_min.a(hid.o)
 .debug_ranges  0x0000000000000000     0x3140 C:/Users/RNG/Desktop/Stuff/Smash-Stuff/SMASH-ULTIMATE-MODS-BABY/50xx-the-mod/acmd-edits/code-mod-framework/lib/libnx_min/nx/lib\libnx_min.a(hid.o)
 .debug_line    0x0000000000000000     0x5037 C:/Users/RNG/Desktop/Stuff/Smash-Stuff/SMASH-ULTIMATE-MODS-BABY/50xx-the-mod/acmd-edits/code-mod-framework/lib/libnx_min/nx/lib\libnx_min.a(hid.o)
 .debug_str     0x0000000000000000     0x338c C:/Users/RNG/Desktop/Stuff/Smash-Stuff/SMASH-ULTIMATE-MODS-BABY/50xx-the-mod/acmd-edits/code-mod-framework/lib/libnx_min/nx/lib\libnx_min.a(hid.o)
 .comment       0x0000000000000000       0x23 C:/Users/RNG/Desktop/Stuff/Smash-Stuff/SMASH-ULTIMATE-MODS-BABY/50xx-the-mod/acmd-edits/code-mod-framework/lib/libnx_min/nx/lib\libnx_min.a(hid.o)
 .text          0x0000000000000000        0x0 C:/Users/RNG/Desktop/Stuff/Smash-Stuff/SMASH-ULTIMATE-MODS-BABY/50xx-the-mod/acmd-edits/code-mod-framework/lib/libnx_min/nx/lib\libnx_min.a(time.o)
 .data          0x0000000000000000        0x0 C:/Users/RNG/Desktop/Stuff/Smash-Stuff/SMASH-ULTIMATE-MODS-BABY/50xx-the-mod/acmd-edits/code-mod-framework/lib/libnx_min/nx/lib\libnx_min.a(time.o)
 .bss           0x0000000000000000        0x0 C:/Users/RNG/Desktop/Stuff/Smash-Stuff/SMASH-ULTIMATE-MODS-BABY/50xx-the-mod/acmd-edits/code-mod-framework/lib/libnx_min/nx/lib\libnx_min.a(time.o)
 .debug_info    0x0000000000000000     0x2f93 C:/Users/RNG/Desktop/Stuff/Smash-Stuff/SMASH-ULTIMATE-MODS-BABY/50xx-the-mod/acmd-edits/code-mod-framework/lib/libnx_min/nx/lib\libnx_min.a(time.o)
 .debug_abbrev  0x0000000000000000      0x544 C:/Users/RNG/Desktop/Stuff/Smash-Stuff/SMASH-ULTIMATE-MODS-BABY/50xx-the-mod/acmd-edits/code-mod-framework/lib/libnx_min/nx/lib\libnx_min.a(time.o)
 .debug_loc     0x0000000000000000     0x36b5 C:/Users/RNG/Desktop/Stuff/Smash-Stuff/SMASH-ULTIMATE-MODS-BABY/50xx-the-mod/acmd-edits/code-mod-framework/lib/libnx_min/nx/lib\libnx_min.a(time.o)
 .debug_aranges
                0x0000000000000000       0xa0 C:/Users/RNG/Desktop/Stuff/Smash-Stuff/SMASH-ULTIMATE-MODS-BABY/50xx-the-mod/acmd-edits/code-mod-framework/lib/libnx_min/nx/lib\libnx_min.a(time.o)
 .debug_ranges  0x0000000000000000      0xa70 C:/Users/RNG/Desktop/Stuff/Smash-Stuff/SMASH-ULTIMATE-MODS-BABY/50xx-the-mod/acmd-edits/code-mod-framework/lib/libnx_min/nx/lib\libnx_min.a(time.o)
 .debug_line    0x0000000000000000     0x10ba C:/Users/RNG/Desktop/Stuff/Smash-Stuff/SMASH-ULTIMATE-MODS-BABY/50xx-the-mod/acmd-edits/code-mod-framework/lib/libnx_min/nx/lib\libnx_min.a(time.o)
 .debug_str     0x0000000000000000     0x151b C:/Users/RNG/Desktop/Stuff/Smash-Stuff/SMASH-ULTIMATE-MODS-BABY/50xx-the-mod/acmd-edits/code-mod-framework/lib/libnx_min/nx/lib\libnx_min.a(time.o)
 .comment       0x0000000000000000       0x23 C:/Users/RNG/Desktop/Stuff/Smash-Stuff/SMASH-ULTIMATE-MODS-BABY/50xx-the-mod/acmd-edits/code-mod-framework/lib/libnx_min/nx/lib\libnx_min.a(time.o)
 .text          0x0000000000000000        0x0 C:/Users/RNG/Desktop/Stuff/Smash-Stuff/SMASH-ULTIMATE-MODS-BABY/50xx-the-mod/acmd-edits/code-mod-framework/lib/libnx_min/nx/lib\libnx_min.a(applet.o)
 .data          0x0000000000000000        0x0 C:/Users/RNG/Desktop/Stuff/Smash-Stuff/SMASH-ULTIMATE-MODS-BABY/50xx-the-mod/acmd-edits/code-mod-framework/lib/libnx_min/nx/lib\libnx_min.a(applet.o)
 .bss           0x0000000000000000        0x0 C:/Users/RNG/Desktop/Stuff/Smash-Stuff/SMASH-ULTIMATE-MODS-BABY/50xx-the-mod/acmd-edits/code-mod-framework/lib/libnx_min/nx/lib\libnx_min.a(applet.o)
 .data.__nx_applet_type
                0x0000000000000000        0x4 C:/Users/RNG/Desktop/Stuff/Smash-Stuff/SMASH-ULTIMATE-MODS-BABY/50xx-the-mod/acmd-edits/code-mod-framework/lib/libnx_min/nx/lib\libnx_min.a(applet.o)
 .debug_info    0x0000000000000000    0x1572b C:/Users/RNG/Desktop/Stuff/Smash-Stuff/SMASH-ULTIMATE-MODS-BABY/50xx-the-mod/acmd-edits/code-mod-framework/lib/libnx_min/nx/lib\libnx_min.a(applet.o)
 .debug_abbrev  0x0000000000000000      0x76e C:/Users/RNG/Desktop/Stuff/Smash-Stuff/SMASH-ULTIMATE-MODS-BABY/50xx-the-mod/acmd-edits/code-mod-framework/lib/libnx_min/nx/lib\libnx_min.a(applet.o)
 .debug_loc     0x0000000000000000    0x20f04 C:/Users/RNG/Desktop/Stuff/Smash-Stuff/SMASH-ULTIMATE-MODS-BABY/50xx-the-mod/acmd-edits/code-mod-framework/lib/libnx_min/nx/lib\libnx_min.a(applet.o)
 .debug_aranges
                0x0000000000000000      0x730 C:/Users/RNG/Desktop/Stuff/Smash-Stuff/SMASH-ULTIMATE-MODS-BABY/50xx-the-mod/acmd-edits/code-mod-framework/lib/libnx_min/nx/lib\libnx_min.a(applet.o)
 .debug_ranges  0x0000000000000000     0x8b40 C:/Users/RNG/Desktop/Stuff/Smash-Stuff/SMASH-ULTIMATE-MODS-BABY/50xx-the-mod/acmd-edits/code-mod-framework/lib/libnx_min/nx/lib\libnx_min.a(applet.o)
 .debug_line    0x0000000000000000     0xadb0 C:/Users/RNG/Desktop/Stuff/Smash-Stuff/SMASH-ULTIMATE-MODS-BABY/50xx-the-mod/acmd-edits/code-mod-framework/lib/libnx_min/nx/lib\libnx_min.a(applet.o)
 .debug_str     0x0000000000000000     0x30c0 C:/Users/RNG/Desktop/Stuff/Smash-Stuff/SMASH-ULTIMATE-MODS-BABY/50xx-the-mod/acmd-edits/code-mod-framework/lib/libnx_min/nx/lib\libnx_min.a(applet.o)
 .comment       0x0000000000000000       0x23 C:/Users/RNG/Desktop/Stuff/Smash-Stuff/SMASH-ULTIMATE-MODS-BABY/50xx-the-mod/acmd-edits/code-mod-framework/lib/libnx_min/nx/lib\libnx_min.a(applet.o)
 .text          0x0000000000000000        0x0 C:/Users/RNG/Desktop/Stuff/Smash-Stuff/SMASH-ULTIMATE-MODS-BABY/50xx-the-mod/acmd-edits/code-mod-framework/lib/libnx_min/nx/lib\libnx_min.a(newlib.o)
 .data          0x0000000000000000        0x0 C:/Users/RNG/Desktop/Stuff/Smash-Stuff/SMASH-ULTIMATE-MODS-BABY/50xx-the-mod/acmd-edits/code-mod-framework/lib/libnx_min/nx/lib\libnx_min.a(newlib.o)
 .bss           0x0000000000000000        0x0 C:/Users/RNG/Desktop/Stuff/Smash-Stuff/SMASH-ULTIMATE-MODS-BABY/50xx-the-mod/acmd-edits/code-mod-framework/lib/libnx_min/nx/lib\libnx_min.a(newlib.o)
 .debug_info    0x0000000000000000     0x2bc2 C:/Users/RNG/Desktop/Stuff/Smash-Stuff/SMASH-ULTIMATE-MODS-BABY/50xx-the-mod/acmd-edits/code-mod-framework/lib/libnx_min/nx/lib\libnx_min.a(newlib.o)
 .debug_abbrev  0x0000000000000000      0x571 C:/Users/RNG/Desktop/Stuff/Smash-Stuff/SMASH-ULTIMATE-MODS-BABY/50xx-the-mod/acmd-edits/code-mod-framework/lib/libnx_min/nx/lib\libnx_min.a(newlib.o)
 .debug_loc     0x0000000000000000     0x192e C:/Users/RNG/Desktop/Stuff/Smash-Stuff/SMASH-ULTIMATE-MODS-BABY/50xx-the-mod/acmd-edits/code-mod-framework/lib/libnx_min/nx/lib\libnx_min.a(newlib.o)
 .debug_aranges
                0x0000000000000000      0x1f0 C:/Users/RNG/Desktop/Stuff/Smash-Stuff/SMASH-ULTIMATE-MODS-BABY/50xx-the-mod/acmd-edits/code-mod-framework/lib/libnx_min/nx/lib\libnx_min.a(newlib.o)
 .debug_ranges  0x0000000000000000      0x4e0 C:/Users/RNG/Desktop/Stuff/Smash-Stuff/SMASH-ULTIMATE-MODS-BABY/50xx-the-mod/acmd-edits/code-mod-framework/lib/libnx_min/nx/lib\libnx_min.a(newlib.o)
 .debug_line    0x0000000000000000     0x10e9 C:/Users/RNG/Desktop/Stuff/Smash-Stuff/SMASH-ULTIMATE-MODS-BABY/50xx-the-mod/acmd-edits/code-mod-framework/lib/libnx_min/nx/lib\libnx_min.a(newlib.o)
 .debug_str     0x0000000000000000     0x18ae C:/Users/RNG/Desktop/Stuff/Smash-Stuff/SMASH-ULTIMATE-MODS-BABY/50xx-the-mod/acmd-edits/code-mod-framework/lib/libnx_min/nx/lib\libnx_min.a(newlib.o)
 .comment       0x0000000000000000       0x23 C:/Users/RNG/Desktop/Stuff/Smash-Stuff/SMASH-ULTIMATE-MODS-BABY/50xx-the-mod/acmd-edits/code-mod-framework/lib/libnx_min/nx/lib\libnx_min.a(newlib.o)
 .text          0x0000000000000000        0x0 C:/Users/RNG/Desktop/Stuff/Smash-Stuff/SMASH-ULTIMATE-MODS-BABY/50xx-the-mod/acmd-edits/code-mod-framework/lib/libnx_min/nx/lib\libnx_min.a(thread.o)
 .data          0x0000000000000000        0x0 C:/Users/RNG/Desktop/Stuff/Smash-Stuff/SMASH-ULTIMATE-MODS-BABY/50xx-the-mod/acmd-edits/code-mod-framework/lib/libnx_min/nx/lib\libnx_min.a(thread.o)
 .bss           0x0000000000000000        0x0 C:/Users/RNG/Desktop/Stuff/Smash-Stuff/SMASH-ULTIMATE-MODS-BABY/50xx-the-mod/acmd-edits/code-mod-framework/lib/libnx_min/nx/lib\libnx_min.a(thread.o)
 .debug_info    0x0000000000000000     0x1a68 C:/Users/RNG/Desktop/Stuff/Smash-Stuff/SMASH-ULTIMATE-MODS-BABY/50xx-the-mod/acmd-edits/code-mod-framework/lib/libnx_min/nx/lib\libnx_min.a(thread.o)
 .debug_abbrev  0x0000000000000000      0x492 C:/Users/RNG/Desktop/Stuff/Smash-Stuff/SMASH-ULTIMATE-MODS-BABY/50xx-the-mod/acmd-edits/code-mod-framework/lib/libnx_min/nx/lib\libnx_min.a(thread.o)
 .debug_loc     0x0000000000000000      0xbd2 C:/Users/RNG/Desktop/Stuff/Smash-Stuff/SMASH-ULTIMATE-MODS-BABY/50xx-the-mod/acmd-edits/code-mod-framework/lib/libnx_min/nx/lib\libnx_min.a(thread.o)
 .debug_aranges
                0x0000000000000000      0x100 C:/Users/RNG/Desktop/Stuff/Smash-Stuff/SMASH-ULTIMATE-MODS-BABY/50xx-the-mod/acmd-edits/code-mod-framework/lib/libnx_min/nx/lib\libnx_min.a(thread.o)
 .debug_ranges  0x0000000000000000      0x320 C:/Users/RNG/Desktop/Stuff/Smash-Stuff/SMASH-ULTIMATE-MODS-BABY/50xx-the-mod/acmd-edits/code-mod-framework/lib/libnx_min/nx/lib\libnx_min.a(thread.o)
 .debug_line    0x0000000000000000      0xa2c C:/Users/RNG/Desktop/Stuff/Smash-Stuff/SMASH-ULTIMATE-MODS-BABY/50xx-the-mod/acmd-edits/code-mod-framework/lib/libnx_min/nx/lib\libnx_min.a(thread.o)
 .debug_str     0x0000000000000000      0xfee C:/Users/RNG/Desktop/Stuff/Smash-Stuff/SMASH-ULTIMATE-MODS-BABY/50xx-the-mod/acmd-edits/code-mod-framework/lib/libnx_min/nx/lib\libnx_min.a(thread.o)
 .comment       0x0000000000000000       0x23 C:/Users/RNG/Desktop/Stuff/Smash-Stuff/SMASH-ULTIMATE-MODS-BABY/50xx-the-mod/acmd-edits/code-mod-framework/lib/libnx_min/nx/lib\libnx_min.a(thread.o)
 .text          0x0000000000000000        0x0 C:/Users/RNG/Desktop/Stuff/Smash-Stuff/SMASH-ULTIMATE-MODS-BABY/50xx-the-mod/acmd-edits/code-mod-framework/lib/libnx_min/nx/lib\libnx_min.a(condvar.o)
 .data          0x0000000000000000        0x0 C:/Users/RNG/Desktop/Stuff/Smash-Stuff/SMASH-ULTIMATE-MODS-BABY/50xx-the-mod/acmd-edits/code-mod-framework/lib/libnx_min/nx/lib\libnx_min.a(condvar.o)
 .bss           0x0000000000000000        0x0 C:/Users/RNG/Desktop/Stuff/Smash-Stuff/SMASH-ULTIMATE-MODS-BABY/50xx-the-mod/acmd-edits/code-mod-framework/lib/libnx_min/nx/lib\libnx_min.a(condvar.o)
 .debug_info    0x0000000000000000      0x396 C:/Users/RNG/Desktop/Stuff/Smash-Stuff/SMASH-ULTIMATE-MODS-BABY/50xx-the-mod/acmd-edits/code-mod-framework/lib/libnx_min/nx/lib\libnx_min.a(condvar.o)
 .debug_abbrev  0x0000000000000000      0x1aa C:/Users/RNG/Desktop/Stuff/Smash-Stuff/SMASH-ULTIMATE-MODS-BABY/50xx-the-mod/acmd-edits/code-mod-framework/lib/libnx_min/nx/lib\libnx_min.a(condvar.o)
 .debug_loc     0x0000000000000000      0x1c1 C:/Users/RNG/Desktop/Stuff/Smash-Stuff/SMASH-ULTIMATE-MODS-BABY/50xx-the-mod/acmd-edits/code-mod-framework/lib/libnx_min/nx/lib\libnx_min.a(condvar.o)
 .debug_aranges
                0x0000000000000000       0x30 C:/Users/RNG/Desktop/Stuff/Smash-Stuff/SMASH-ULTIMATE-MODS-BABY/50xx-the-mod/acmd-edits/code-mod-framework/lib/libnx_min/nx/lib\libnx_min.a(condvar.o)
 .debug_ranges  0x0000000000000000       0x60 C:/Users/RNG/Desktop/Stuff/Smash-Stuff/SMASH-ULTIMATE-MODS-BABY/50xx-the-mod/acmd-edits/code-mod-framework/lib/libnx_min/nx/lib\libnx_min.a(condvar.o)
 .debug_line    0x0000000000000000      0x398 C:/Users/RNG/Desktop/Stuff/Smash-Stuff/SMASH-ULTIMATE-MODS-BABY/50xx-the-mod/acmd-edits/code-mod-framework/lib/libnx_min/nx/lib\libnx_min.a(condvar.o)
 .debug_str     0x0000000000000000      0x350 C:/Users/RNG/Desktop/Stuff/Smash-Stuff/SMASH-ULTIMATE-MODS-BABY/50xx-the-mod/acmd-edits/code-mod-framework/lib/libnx_min/nx/lib\libnx_min.a(condvar.o)
 .comment       0x0000000000000000       0x23 C:/Users/RNG/Desktop/Stuff/Smash-Stuff/SMASH-ULTIMATE-MODS-BABY/50xx-the-mod/acmd-edits/code-mod-framework/lib/libnx_min/nx/lib\libnx_min.a(condvar.o)
 .text          0x0000000000000000        0x0 C:/Users/RNG/Desktop/Stuff/Smash-Stuff/SMASH-ULTIMATE-MODS-BABY/50xx-the-mod/acmd-edits/code-mod-framework/lib/libnx_min/nx/lib\libnx_min.a(event.o)
 .data          0x0000000000000000        0x0 C:/Users/RNG/Desktop/Stuff/Smash-Stuff/SMASH-ULTIMATE-MODS-BABY/50xx-the-mod/acmd-edits/code-mod-framework/lib/libnx_min/nx/lib\libnx_min.a(event.o)
 .bss           0x0000000000000000        0x0 C:/Users/RNG/Desktop/Stuff/Smash-Stuff/SMASH-ULTIMATE-MODS-BABY/50xx-the-mod/acmd-edits/code-mod-framework/lib/libnx_min/nx/lib\libnx_min.a(event.o)
 .debug_info    0x0000000000000000      0x702 C:/Users/RNG/Desktop/Stuff/Smash-Stuff/SMASH-ULTIMATE-MODS-BABY/50xx-the-mod/acmd-edits/code-mod-framework/lib/libnx_min/nx/lib\libnx_min.a(event.o)
 .debug_abbrev  0x0000000000000000      0x28b C:/Users/RNG/Desktop/Stuff/Smash-Stuff/SMASH-ULTIMATE-MODS-BABY/50xx-the-mod/acmd-edits/code-mod-framework/lib/libnx_min/nx/lib\libnx_min.a(event.o)
 .debug_loc     0x0000000000000000      0x2e3 C:/Users/RNG/Desktop/Stuff/Smash-Stuff/SMASH-ULTIMATE-MODS-BABY/50xx-the-mod/acmd-edits/code-mod-framework/lib/libnx_min/nx/lib\libnx_min.a(event.o)
 .debug_aranges
                0x0000000000000000       0x80 C:/Users/RNG/Desktop/Stuff/Smash-Stuff/SMASH-ULTIMATE-MODS-BABY/50xx-the-mod/acmd-edits/code-mod-framework/lib/libnx_min/nx/lib\libnx_min.a(event.o)
 .debug_ranges  0x0000000000000000       0xe0 C:/Users/RNG/Desktop/Stuff/Smash-Stuff/SMASH-ULTIMATE-MODS-BABY/50xx-the-mod/acmd-edits/code-mod-framework/lib/libnx_min/nx/lib\libnx_min.a(event.o)
 .debug_line    0x0000000000000000      0x3a9 C:/Users/RNG/Desktop/Stuff/Smash-Stuff/SMASH-ULTIMATE-MODS-BABY/50xx-the-mod/acmd-edits/code-mod-framework/lib/libnx_min/nx/lib\libnx_min.a(event.o)
 .debug_str     0x0000000000000000      0x950 C:/Users/RNG/Desktop/Stuff/Smash-Stuff/SMASH-ULTIMATE-MODS-BABY/50xx-the-mod/acmd-edits/code-mod-framework/lib/libnx_min/nx/lib\libnx_min.a(event.o)
 .comment       0x0000000000000000       0x23 C:/Users/RNG/Desktop/Stuff/Smash-Stuff/SMASH-ULTIMATE-MODS-BABY/50xx-the-mod/acmd-edits/code-mod-framework/lib/libnx_min/nx/lib\libnx_min.a(event.o)
 .text          0x0000000000000000        0x0 C:/Users/RNG/Desktop/Stuff/Smash-Stuff/SMASH-ULTIMATE-MODS-BABY/50xx-the-mod/acmd-edits/code-mod-framework/lib/libnx_min/nx/lib\libnx_min.a(tmem.o)
 .data          0x0000000000000000        0x0 C:/Users/RNG/Desktop/Stuff/Smash-Stuff/SMASH-ULTIMATE-MODS-BABY/50xx-the-mod/acmd-edits/code-mod-framework/lib/libnx_min/nx/lib\libnx_min.a(tmem.o)
 .bss           0x0000000000000000        0x0 C:/Users/RNG/Desktop/Stuff/Smash-Stuff/SMASH-ULTIMATE-MODS-BABY/50xx-the-mod/acmd-edits/code-mod-framework/lib/libnx_min/nx/lib\libnx_min.a(tmem.o)
 .debug_info    0x0000000000000000     0x100a C:/Users/RNG/Desktop/Stuff/Smash-Stuff/SMASH-ULTIMATE-MODS-BABY/50xx-the-mod/acmd-edits/code-mod-framework/lib/libnx_min/nx/lib\libnx_min.a(tmem.o)
 .debug_abbrev  0x0000000000000000      0x3a2 C:/Users/RNG/Desktop/Stuff/Smash-Stuff/SMASH-ULTIMATE-MODS-BABY/50xx-the-mod/acmd-edits/code-mod-framework/lib/libnx_min/nx/lib\libnx_min.a(tmem.o)
 .debug_loc     0x0000000000000000      0x6e2 C:/Users/RNG/Desktop/Stuff/Smash-Stuff/SMASH-ULTIMATE-MODS-BABY/50xx-the-mod/acmd-edits/code-mod-framework/lib/libnx_min/nx/lib\libnx_min.a(tmem.o)
 .debug_aranges
                0x0000000000000000       0x80 C:/Users/RNG/Desktop/Stuff/Smash-Stuff/SMASH-ULTIMATE-MODS-BABY/50xx-the-mod/acmd-edits/code-mod-framework/lib/libnx_min/nx/lib\libnx_min.a(tmem.o)
 .debug_ranges  0x0000000000000000       0xf0 C:/Users/RNG/Desktop/Stuff/Smash-Stuff/SMASH-ULTIMATE-MODS-BABY/50xx-the-mod/acmd-edits/code-mod-framework/lib/libnx_min/nx/lib\libnx_min.a(tmem.o)
 .debug_line    0x0000000000000000      0x507 C:/Users/RNG/Desktop/Stuff/Smash-Stuff/SMASH-ULTIMATE-MODS-BABY/50xx-the-mod/acmd-edits/code-mod-framework/lib/libnx_min/nx/lib\libnx_min.a(tmem.o)
 .debug_str     0x0000000000000000      0xd4f C:/Users/RNG/Desktop/Stuff/Smash-Stuff/SMASH-ULTIMATE-MODS-BABY/50xx-the-mod/acmd-edits/code-mod-framework/lib/libnx_min/nx/lib\libnx_min.a(tmem.o)
 .comment       0x0000000000000000       0x23 C:/Users/RNG/Desktop/Stuff/Smash-Stuff/SMASH-ULTIMATE-MODS-BABY/50xx-the-mod/acmd-edits/code-mod-framework/lib/libnx_min/nx/lib\libnx_min.a(tmem.o)
 .text          0x0000000000000000        0x0 C:/Users/RNG/Desktop/Stuff/Smash-Stuff/SMASH-ULTIMATE-MODS-BABY/50xx-the-mod/acmd-edits/code-mod-framework/lib/libnx_min/nx/lib\libnx_min.a(rwlock.o)
 .data          0x0000000000000000        0x0 C:/Users/RNG/Desktop/Stuff/Smash-Stuff/SMASH-ULTIMATE-MODS-BABY/50xx-the-mod/acmd-edits/code-mod-framework/lib/libnx_min/nx/lib\libnx_min.a(rwlock.o)
 .bss           0x0000000000000000        0x0 C:/Users/RNG/Desktop/Stuff/Smash-Stuff/SMASH-ULTIMATE-MODS-BABY/50xx-the-mod/acmd-edits/code-mod-framework/lib/libnx_min/nx/lib\libnx_min.a(rwlock.o)
 .debug_info    0x0000000000000000      0x659 C:/Users/RNG/Desktop/Stuff/Smash-Stuff/SMASH-ULTIMATE-MODS-BABY/50xx-the-mod/acmd-edits/code-mod-framework/lib/libnx_min/nx/lib\libnx_min.a(rwlock.o)
 .debug_abbrev  0x0000000000000000      0x1cc C:/Users/RNG/Desktop/Stuff/Smash-Stuff/SMASH-ULTIMATE-MODS-BABY/50xx-the-mod/acmd-edits/code-mod-framework/lib/libnx_min/nx/lib\libnx_min.a(rwlock.o)
 .debug_loc     0x0000000000000000      0x4ab C:/Users/RNG/Desktop/Stuff/Smash-Stuff/SMASH-ULTIMATE-MODS-BABY/50xx-the-mod/acmd-edits/code-mod-framework/lib/libnx_min/nx/lib\libnx_min.a(rwlock.o)
 .debug_aranges
                0x0000000000000000       0x70 C:/Users/RNG/Desktop/Stuff/Smash-Stuff/SMASH-ULTIMATE-MODS-BABY/50xx-the-mod/acmd-edits/code-mod-framework/lib/libnx_min/nx/lib\libnx_min.a(rwlock.o)
 .debug_ranges  0x0000000000000000      0x130 C:/Users/RNG/Desktop/Stuff/Smash-Stuff/SMASH-ULTIMATE-MODS-BABY/50xx-the-mod/acmd-edits/code-mod-framework/lib/libnx_min/nx/lib\libnx_min.a(rwlock.o)
 .debug_line    0x0000000000000000      0x3eb C:/Users/RNG/Desktop/Stuff/Smash-Stuff/SMASH-ULTIMATE-MODS-BABY/50xx-the-mod/acmd-edits/code-mod-framework/lib/libnx_min/nx/lib\libnx_min.a(rwlock.o)
 .debug_str     0x0000000000000000      0x346 C:/Users/RNG/Desktop/Stuff/Smash-Stuff/SMASH-ULTIMATE-MODS-BABY/50xx-the-mod/acmd-edits/code-mod-framework/lib/libnx_min/nx/lib\libnx_min.a(rwlock.o)
 .comment       0x0000000000000000       0x23 C:/Users/RNG/Desktop/Stuff/Smash-Stuff/SMASH-ULTIMATE-MODS-BABY/50xx-the-mod/acmd-edits/code-mod-framework/lib/libnx_min/nx/lib\libnx_min.a(rwlock.o)
 .text          0x0000000000000000        0x0 C:/Users/RNG/Desktop/Stuff/Smash-Stuff/SMASH-ULTIMATE-MODS-BABY/50xx-the-mod/acmd-edits/code-mod-framework/lib/libnx_min/nx/lib\libnx_min.a(wait.o)
 .data          0x0000000000000000        0x0 C:/Users/RNG/Desktop/Stuff/Smash-Stuff/SMASH-ULTIMATE-MODS-BABY/50xx-the-mod/acmd-edits/code-mod-framework/lib/libnx_min/nx/lib\libnx_min.a(wait.o)
 .bss           0x0000000000000000        0x0 C:/Users/RNG/Desktop/Stuff/Smash-Stuff/SMASH-ULTIMATE-MODS-BABY/50xx-the-mod/acmd-edits/code-mod-framework/lib/libnx_min/nx/lib\libnx_min.a(wait.o)
 .debug_info    0x0000000000000000      0xe46 C:/Users/RNG/Desktop/Stuff/Smash-Stuff/SMASH-ULTIMATE-MODS-BABY/50xx-the-mod/acmd-edits/code-mod-framework/lib/libnx_min/nx/lib\libnx_min.a(wait.o)
 .debug_abbrev  0x0000000000000000      0x35d C:/Users/RNG/Desktop/Stuff/Smash-Stuff/SMASH-ULTIMATE-MODS-BABY/50xx-the-mod/acmd-edits/code-mod-framework/lib/libnx_min/nx/lib\libnx_min.a(wait.o)
 .debug_loc     0x0000000000000000      0xeb6 C:/Users/RNG/Desktop/Stuff/Smash-Stuff/SMASH-ULTIMATE-MODS-BABY/50xx-the-mod/acmd-edits/code-mod-framework/lib/libnx_min/nx/lib\libnx_min.a(wait.o)
 .debug_aranges
                0x0000000000000000       0x60 C:/Users/RNG/Desktop/Stuff/Smash-Stuff/SMASH-ULTIMATE-MODS-BABY/50xx-the-mod/acmd-edits/code-mod-framework/lib/libnx_min/nx/lib\libnx_min.a(wait.o)
 .debug_ranges  0x0000000000000000      0x290 C:/Users/RNG/Desktop/Stuff/Smash-Stuff/SMASH-ULTIMATE-MODS-BABY/50xx-the-mod/acmd-edits/code-mod-framework/lib/libnx_min/nx/lib\libnx_min.a(wait.o)
 .debug_line    0x0000000000000000      0x7bb C:/Users/RNG/Desktop/Stuff/Smash-Stuff/SMASH-ULTIMATE-MODS-BABY/50xx-the-mod/acmd-edits/code-mod-framework/lib/libnx_min/nx/lib\libnx_min.a(wait.o)
 .debug_str     0x0000000000000000      0xa07 C:/Users/RNG/Desktop/Stuff/Smash-Stuff/SMASH-ULTIMATE-MODS-BABY/50xx-the-mod/acmd-edits/code-mod-framework/lib/libnx_min/nx/lib\libnx_min.a(wait.o)
 .comment       0x0000000000000000       0x23 C:/Users/RNG/Desktop/Stuff/Smash-Stuff/SMASH-ULTIMATE-MODS-BABY/50xx-the-mod/acmd-edits/code-mod-framework/lib/libnx_min/nx/lib\libnx_min.a(wait.o)
 .text          0x0000000000000000        0x0 C:/Users/RNG/Desktop/Stuff/Smash-Stuff/SMASH-ULTIMATE-MODS-BABY/50xx-the-mod/acmd-edits/code-mod-framework/lib/libnx_min/nx/lib\libnx_min.a(shmem.o)
 .data          0x0000000000000000        0x0 C:/Users/RNG/Desktop/Stuff/Smash-Stuff/SMASH-ULTIMATE-MODS-BABY/50xx-the-mod/acmd-edits/code-mod-framework/lib/libnx_min/nx/lib\libnx_min.a(shmem.o)
 .bss           0x0000000000000000        0x0 C:/Users/RNG/Desktop/Stuff/Smash-Stuff/SMASH-ULTIMATE-MODS-BABY/50xx-the-mod/acmd-edits/code-mod-framework/lib/libnx_min/nx/lib\libnx_min.a(shmem.o)
 .debug_info    0x0000000000000000      0xe91 C:/Users/RNG/Desktop/Stuff/Smash-Stuff/SMASH-ULTIMATE-MODS-BABY/50xx-the-mod/acmd-edits/code-mod-framework/lib/libnx_min/nx/lib\libnx_min.a(shmem.o)
 .debug_abbrev  0x0000000000000000      0x377 C:/Users/RNG/Desktop/Stuff/Smash-Stuff/SMASH-ULTIMATE-MODS-BABY/50xx-the-mod/acmd-edits/code-mod-framework/lib/libnx_min/nx/lib\libnx_min.a(shmem.o)
 .debug_loc     0x0000000000000000      0x442 C:/Users/RNG/Desktop/Stuff/Smash-Stuff/SMASH-ULTIMATE-MODS-BABY/50xx-the-mod/acmd-edits/code-mod-framework/lib/libnx_min/nx/lib\libnx_min.a(shmem.o)
 .debug_aranges
                0x0000000000000000       0x70 C:/Users/RNG/Desktop/Stuff/Smash-Stuff/SMASH-ULTIMATE-MODS-BABY/50xx-the-mod/acmd-edits/code-mod-framework/lib/libnx_min/nx/lib\libnx_min.a(shmem.o)
 .debug_ranges  0x0000000000000000       0xe0 C:/Users/RNG/Desktop/Stuff/Smash-Stuff/SMASH-ULTIMATE-MODS-BABY/50xx-the-mod/acmd-edits/code-mod-framework/lib/libnx_min/nx/lib\libnx_min.a(shmem.o)
 .debug_line    0x0000000000000000      0x401 C:/Users/RNG/Desktop/Stuff/Smash-Stuff/SMASH-ULTIMATE-MODS-BABY/50xx-the-mod/acmd-edits/code-mod-framework/lib/libnx_min/nx/lib\libnx_min.a(shmem.o)
 .debug_str     0x0000000000000000      0xc9a C:/Users/RNG/Desktop/Stuff/Smash-Stuff/SMASH-ULTIMATE-MODS-BABY/50xx-the-mod/acmd-edits/code-mod-framework/lib/libnx_min/nx/lib\libnx_min.a(shmem.o)
 .comment       0x0000000000000000       0x23 C:/Users/RNG/Desktop/Stuff/Smash-Stuff/SMASH-ULTIMATE-MODS-BABY/50xx-the-mod/acmd-edits/code-mod-framework/lib/libnx_min/nx/lib\libnx_min.a(shmem.o)
 .text          0x0000000000000000        0x0 C:/Users/RNG/Desktop/Stuff/Smash-Stuff/SMASH-ULTIMATE-MODS-BABY/50xx-the-mod/acmd-edits/code-mod-framework/lib/libnx_min/nx/lib\libnx_min.a(detect.o)
 .data          0x0000000000000000        0x0 C:/Users/RNG/Desktop/Stuff/Smash-Stuff/SMASH-ULTIMATE-MODS-BABY/50xx-the-mod/acmd-edits/code-mod-framework/lib/libnx_min/nx/lib\libnx_min.a(detect.o)
 .bss           0x0000000000000000        0x0 C:/Users/RNG/Desktop/Stuff/Smash-Stuff/SMASH-ULTIMATE-MODS-BABY/50xx-the-mod/acmd-edits/code-mod-framework/lib/libnx_min/nx/lib\libnx_min.a(detect.o)
 .debug_info    0x0000000000000000     0x103a C:/Users/RNG/Desktop/Stuff/Smash-Stuff/SMASH-ULTIMATE-MODS-BABY/50xx-the-mod/acmd-edits/code-mod-framework/lib/libnx_min/nx/lib\libnx_min.a(detect.o)
 .debug_abbrev  0x0000000000000000      0x31e C:/Users/RNG/Desktop/Stuff/Smash-Stuff/SMASH-ULTIMATE-MODS-BABY/50xx-the-mod/acmd-edits/code-mod-framework/lib/libnx_min/nx/lib\libnx_min.a(detect.o)
 .debug_loc     0x0000000000000000       0xb3 C:/Users/RNG/Desktop/Stuff/Smash-Stuff/SMASH-ULTIMATE-MODS-BABY/50xx-the-mod/acmd-edits/code-mod-framework/lib/libnx_min/nx/lib\libnx_min.a(detect.o)
 .debug_aranges
                0x0000000000000000       0x60 C:/Users/RNG/Desktop/Stuff/Smash-Stuff/SMASH-ULTIMATE-MODS-BABY/50xx-the-mod/acmd-edits/code-mod-framework/lib/libnx_min/nx/lib\libnx_min.a(detect.o)
 .debug_ranges  0x0000000000000000      0x130 C:/Users/RNG/Desktop/Stuff/Smash-Stuff/SMASH-ULTIMATE-MODS-BABY/50xx-the-mod/acmd-edits/code-mod-framework/lib/libnx_min/nx/lib\libnx_min.a(detect.o)
 .debug_line    0x0000000000000000      0x48e C:/Users/RNG/Desktop/Stuff/Smash-Stuff/SMASH-ULTIMATE-MODS-BABY/50xx-the-mod/acmd-edits/code-mod-framework/lib/libnx_min/nx/lib\libnx_min.a(detect.o)
 .debug_str     0x0000000000000000      0xea7 C:/Users/RNG/Desktop/Stuff/Smash-Stuff/SMASH-ULTIMATE-MODS-BABY/50xx-the-mod/acmd-edits/code-mod-framework/lib/libnx_min/nx/lib\libnx_min.a(detect.o)
 .comment       0x0000000000000000       0x23 C:/Users/RNG/Desktop/Stuff/Smash-Stuff/SMASH-ULTIMATE-MODS-BABY/50xx-the-mod/acmd-edits/code-mod-framework/lib/libnx_min/nx/lib\libnx_min.a(detect.o)
 .text          0x0000000000000000        0x0 C:/Users/RNG/Desktop/Stuff/Smash-Stuff/SMASH-ULTIMATE-MODS-BABY/50xx-the-mod/acmd-edits/code-mod-framework/lib/libnx_min/nx/lib\libnx_min.a(apm.o)
 .data          0x0000000000000000        0x0 C:/Users/RNG/Desktop/Stuff/Smash-Stuff/SMASH-ULTIMATE-MODS-BABY/50xx-the-mod/acmd-edits/code-mod-framework/lib/libnx_min/nx/lib\libnx_min.a(apm.o)
 .bss           0x0000000000000000        0x0 C:/Users/RNG/Desktop/Stuff/Smash-Stuff/SMASH-ULTIMATE-MODS-BABY/50xx-the-mod/acmd-edits/code-mod-framework/lib/libnx_min/nx/lib\libnx_min.a(apm.o)
 .debug_info    0x0000000000000000     0x1b13 C:/Users/RNG/Desktop/Stuff/Smash-Stuff/SMASH-ULTIMATE-MODS-BABY/50xx-the-mod/acmd-edits/code-mod-framework/lib/libnx_min/nx/lib\libnx_min.a(apm.o)
 .debug_abbrev  0x0000000000000000      0x442 C:/Users/RNG/Desktop/Stuff/Smash-Stuff/SMASH-ULTIMATE-MODS-BABY/50xx-the-mod/acmd-edits/code-mod-framework/lib/libnx_min/nx/lib\libnx_min.a(apm.o)
 .debug_loc     0x0000000000000000     0x239a C:/Users/RNG/Desktop/Stuff/Smash-Stuff/SMASH-ULTIMATE-MODS-BABY/50xx-the-mod/acmd-edits/code-mod-framework/lib/libnx_min/nx/lib\libnx_min.a(apm.o)
 .debug_aranges
                0x0000000000000000       0x80 C:/Users/RNG/Desktop/Stuff/Smash-Stuff/SMASH-ULTIMATE-MODS-BABY/50xx-the-mod/acmd-edits/code-mod-framework/lib/libnx_min/nx/lib\libnx_min.a(apm.o)
 .debug_ranges  0x0000000000000000      0x630 C:/Users/RNG/Desktop/Stuff/Smash-Stuff/SMASH-ULTIMATE-MODS-BABY/50xx-the-mod/acmd-edits/code-mod-framework/lib/libnx_min/nx/lib\libnx_min.a(apm.o)
 .debug_line    0x0000000000000000      0xbdc C:/Users/RNG/Desktop/Stuff/Smash-Stuff/SMASH-ULTIMATE-MODS-BABY/50xx-the-mod/acmd-edits/code-mod-framework/lib/libnx_min/nx/lib\libnx_min.a(apm.o)
 .debug_str     0x0000000000000000      0xa22 C:/Users/RNG/Desktop/Stuff/Smash-Stuff/SMASH-ULTIMATE-MODS-BABY/50xx-the-mod/acmd-edits/code-mod-framework/lib/libnx_min/nx/lib\libnx_min.a(apm.o)
 .comment       0x0000000000000000       0x23 C:/Users/RNG/Desktop/Stuff/Smash-Stuff/SMASH-ULTIMATE-MODS-BABY/50xx-the-mod/acmd-edits/code-mod-framework/lib/libnx_min/nx/lib\libnx_min.a(apm.o)
 .text          0x0000000000000000        0x0 c:/devkitpro/devkita64/bin/../lib/gcc/aarch64-none-elf/8.3.0/../../../../aarch64-none-elf/lib/pic\libg.a(lib_a-bsearch.o)
 .data          0x0000000000000000        0x0 c:/devkitpro/devkita64/bin/../lib/gcc/aarch64-none-elf/8.3.0/../../../../aarch64-none-elf/lib/pic\libg.a(lib_a-bsearch.o)
 .bss           0x0000000000000000        0x0 c:/devkitpro/devkita64/bin/../lib/gcc/aarch64-none-elf/8.3.0/../../../../aarch64-none-elf/lib/pic\libg.a(lib_a-bsearch.o)
 .comment       0x0000000000000000       0x23 c:/devkitpro/devkita64/bin/../lib/gcc/aarch64-none-elf/8.3.0/../../../../aarch64-none-elf/lib/pic\libg.a(lib_a-bsearch.o)
 .text          0x0000000000000000        0x0 c:/devkitpro/devkita64/bin/../lib/gcc/aarch64-none-elf/8.3.0/../../../../aarch64-none-elf/lib/pic\libg.a(lib_a-ctype_.o)
 .data          0x0000000000000000        0x0 c:/devkitpro/devkita64/bin/../lib/gcc/aarch64-none-elf/8.3.0/../../../../aarch64-none-elf/lib/pic\libg.a(lib_a-ctype_.o)
 .bss           0x0000000000000000        0x0 c:/devkitpro/devkita64/bin/../lib/gcc/aarch64-none-elf/8.3.0/../../../../aarch64-none-elf/lib/pic\libg.a(lib_a-ctype_.o)
 .comment       0x0000000000000000       0x23 c:/devkitpro/devkita64/bin/../lib/gcc/aarch64-none-elf/8.3.0/../../../../aarch64-none-elf/lib/pic\libg.a(lib_a-ctype_.o)
 .text          0x0000000000000000        0x0 c:/devkitpro/devkita64/bin/../lib/gcc/aarch64-none-elf/8.3.0/../../../../aarch64-none-elf/lib/pic\libg.a(lib_a-errno.o)
 .data          0x0000000000000000        0x0 c:/devkitpro/devkita64/bin/../lib/gcc/aarch64-none-elf/8.3.0/../../../../aarch64-none-elf/lib/pic\libg.a(lib_a-errno.o)
 .bss           0x0000000000000000        0x0 c:/devkitpro/devkita64/bin/../lib/gcc/aarch64-none-elf/8.3.0/../../../../aarch64-none-elf/lib/pic\libg.a(lib_a-errno.o)
 .comment       0x0000000000000000       0x23 c:/devkitpro/devkita64/bin/../lib/gcc/aarch64-none-elf/8.3.0/../../../../aarch64-none-elf/lib/pic\libg.a(lib_a-errno.o)
 .text          0x0000000000000000        0x0 c:/devkitpro/devkita64/bin/../lib/gcc/aarch64-none-elf/8.3.0/../../../../aarch64-none-elf/lib/pic\libg.a(lib_a-exit.o)
 .data          0x0000000000000000        0x0 c:/devkitpro/devkita64/bin/../lib/gcc/aarch64-none-elf/8.3.0/../../../../aarch64-none-elf/lib/pic\libg.a(lib_a-exit.o)
 .bss           0x0000000000000000        0x0 c:/devkitpro/devkita64/bin/../lib/gcc/aarch64-none-elf/8.3.0/../../../../aarch64-none-elf/lib/pic\libg.a(lib_a-exit.o)
 .comment       0x0000000000000000       0x23 c:/devkitpro/devkita64/bin/../lib/gcc/aarch64-none-elf/8.3.0/../../../../aarch64-none-elf/lib/pic\libg.a(lib_a-exit.o)
 .text          0x0000000000000000        0x0 c:/devkitpro/devkita64/bin/../lib/gcc/aarch64-none-elf/8.3.0/../../../../aarch64-none-elf/lib/pic\libg.a(lib_a-fini.o)
 .data          0x0000000000000000        0x0 c:/devkitpro/devkita64/bin/../lib/gcc/aarch64-none-elf/8.3.0/../../../../aarch64-none-elf/lib/pic\libg.a(lib_a-fini.o)
 .bss           0x0000000000000000        0x0 c:/devkitpro/devkita64/bin/../lib/gcc/aarch64-none-elf/8.3.0/../../../../aarch64-none-elf/lib/pic\libg.a(lib_a-fini.o)
 .comment       0x0000000000000000       0x23 c:/devkitpro/devkita64/bin/../lib/gcc/aarch64-none-elf/8.3.0/../../../../aarch64-none-elf/lib/pic\libg.a(lib_a-fini.o)
 .text          0x0000000000000000        0x0 c:/devkitpro/devkita64/bin/../lib/gcc/aarch64-none-elf/8.3.0/../../../../aarch64-none-elf/lib/pic\libg.a(lib_a-impure.o)
 .data          0x0000000000000000        0x0 c:/devkitpro/devkita64/bin/../lib/gcc/aarch64-none-elf/8.3.0/../../../../aarch64-none-elf/lib/pic\libg.a(lib_a-impure.o)
 .bss           0x0000000000000000        0x0 c:/devkitpro/devkita64/bin/../lib/gcc/aarch64-none-elf/8.3.0/../../../../aarch64-none-elf/lib/pic\libg.a(lib_a-impure.o)
 .comment       0x0000000000000000       0x23 c:/devkitpro/devkita64/bin/../lib/gcc/aarch64-none-elf/8.3.0/../../../../aarch64-none-elf/lib/pic\libg.a(lib_a-impure.o)
 .text          0x0000000000000000        0x0 c:/devkitpro/devkita64/bin/../lib/gcc/aarch64-none-elf/8.3.0/../../../../aarch64-none-elf/lib/pic\libg.a(lib_a-init.o)
 .data          0x0000000000000000        0x0 c:/devkitpro/devkita64/bin/../lib/gcc/aarch64-none-elf/8.3.0/../../../../aarch64-none-elf/lib/pic\libg.a(lib_a-init.o)
 .bss           0x0000000000000000        0x0 c:/devkitpro/devkita64/bin/../lib/gcc/aarch64-none-elf/8.3.0/../../../../aarch64-none-elf/lib/pic\libg.a(lib_a-init.o)
 .comment       0x0000000000000000       0x23 c:/devkitpro/devkita64/bin/../lib/gcc/aarch64-none-elf/8.3.0/../../../../aarch64-none-elf/lib/pic\libg.a(lib_a-init.o)
 .text          0x0000000000000000        0x0 c:/devkitpro/devkita64/bin/../lib/gcc/aarch64-none-elf/8.3.0/../../../../aarch64-none-elf/lib/pic\libg.a(lib_a-malign.o)
 .data          0x0000000000000000        0x0 c:/devkitpro/devkita64/bin/../lib/gcc/aarch64-none-elf/8.3.0/../../../../aarch64-none-elf/lib/pic\libg.a(lib_a-malign.o)
 .bss           0x0000000000000000        0x0 c:/devkitpro/devkita64/bin/../lib/gcc/aarch64-none-elf/8.3.0/../../../../aarch64-none-elf/lib/pic\libg.a(lib_a-malign.o)
 .comment       0x0000000000000000       0x23 c:/devkitpro/devkita64/bin/../lib/gcc/aarch64-none-elf/8.3.0/../../../../aarch64-none-elf/lib/pic\libg.a(lib_a-malign.o)
 .text          0x0000000000000000        0x0 c:/devkitpro/devkita64/bin/../lib/gcc/aarch64-none-elf/8.3.0/../../../../aarch64-none-elf/lib/pic\libg.a(lib_a-malignr.o)
 .data          0x0000000000000000        0x0 c:/devkitpro/devkita64/bin/../lib/gcc/aarch64-none-elf/8.3.0/../../../../aarch64-none-elf/lib/pic\libg.a(lib_a-malignr.o)
 .bss           0x0000000000000000        0x0 c:/devkitpro/devkita64/bin/../lib/gcc/aarch64-none-elf/8.3.0/../../../../aarch64-none-elf/lib/pic\libg.a(lib_a-malignr.o)
 .comment       0x0000000000000000       0x23 c:/devkitpro/devkita64/bin/../lib/gcc/aarch64-none-elf/8.3.0/../../../../aarch64-none-elf/lib/pic\libg.a(lib_a-malignr.o)
 .text          0x0000000000000000        0x0 c:/devkitpro/devkita64/bin/../lib/gcc/aarch64-none-elf/8.3.0/../../../../aarch64-none-elf/lib/pic\libg.a(lib_a-malloc.o)
 .data          0x0000000000000000        0x0 c:/devkitpro/devkita64/bin/../lib/gcc/aarch64-none-elf/8.3.0/../../../../aarch64-none-elf/lib/pic\libg.a(lib_a-malloc.o)
 .bss           0x0000000000000000        0x0 c:/devkitpro/devkita64/bin/../lib/gcc/aarch64-none-elf/8.3.0/../../../../aarch64-none-elf/lib/pic\libg.a(lib_a-malloc.o)
 .comment       0x0000000000000000       0x23 c:/devkitpro/devkita64/bin/../lib/gcc/aarch64-none-elf/8.3.0/../../../../aarch64-none-elf/lib/pic\libg.a(lib_a-malloc.o)
 .text          0x0000000000000000        0x0 c:/devkitpro/devkita64/bin/../lib/gcc/aarch64-none-elf/8.3.0/../../../../aarch64-none-elf/lib/pic\libg.a(lib_a-mallocr.o)
 .data          0x0000000000000000        0x0 c:/devkitpro/devkita64/bin/../lib/gcc/aarch64-none-elf/8.3.0/../../../../aarch64-none-elf/lib/pic\libg.a(lib_a-mallocr.o)
 .bss           0x0000000000000000        0x0 c:/devkitpro/devkita64/bin/../lib/gcc/aarch64-none-elf/8.3.0/../../../../aarch64-none-elf/lib/pic\libg.a(lib_a-mallocr.o)
 .comment       0x0000000000000000       0x23 c:/devkitpro/devkita64/bin/../lib/gcc/aarch64-none-elf/8.3.0/../../../../aarch64-none-elf/lib/pic\libg.a(lib_a-mallocr.o)
 .data          0x0000000000000000        0x0 c:/devkitpro/devkita64/bin/../lib/gcc/aarch64-none-elf/8.3.0/../../../../aarch64-none-elf/lib/pic\libg.a(lib_a-memcpy.o)
 .bss           0x0000000000000000        0x0 c:/devkitpro/devkita64/bin/../lib/gcc/aarch64-none-elf/8.3.0/../../../../aarch64-none-elf/lib/pic\libg.a(lib_a-memcpy.o)
 .data          0x0000000000000000        0x0 c:/devkitpro/devkita64/bin/../lib/gcc/aarch64-none-elf/8.3.0/../../../../aarch64-none-elf/lib/pic\libg.a(lib_a-memset.o)
 .bss           0x0000000000000000        0x0 c:/devkitpro/devkita64/bin/../lib/gcc/aarch64-none-elf/8.3.0/../../../../aarch64-none-elf/lib/pic\libg.a(lib_a-memset.o)
 .text          0x0000000000000000        0x0 c:/devkitpro/devkita64/bin/../lib/gcc/aarch64-none-elf/8.3.0/../../../../aarch64-none-elf/lib/pic\libg.a(lib_a-mlock.o)
 .data          0x0000000000000000        0x0 c:/devkitpro/devkita64/bin/../lib/gcc/aarch64-none-elf/8.3.0/../../../../aarch64-none-elf/lib/pic\libg.a(lib_a-mlock.o)
 .bss           0x0000000000000000        0x0 c:/devkitpro/devkita64/bin/../lib/gcc/aarch64-none-elf/8.3.0/../../../../aarch64-none-elf/lib/pic\libg.a(lib_a-mlock.o)
 .comment       0x0000000000000000       0x23 c:/devkitpro/devkita64/bin/../lib/gcc/aarch64-none-elf/8.3.0/../../../../aarch64-none-elf/lib/pic\libg.a(lib_a-mlock.o)
 .text          0x0000000000000000        0x0 c:/devkitpro/devkita64/bin/../lib/gcc/aarch64-none-elf/8.3.0/../../../../aarch64-none-elf/lib/pic\libg.a(lib_a-setenv.o)
 .data          0x0000000000000000        0x0 c:/devkitpro/devkita64/bin/../lib/gcc/aarch64-none-elf/8.3.0/../../../../aarch64-none-elf/lib/pic\libg.a(lib_a-setenv.o)
 .bss           0x0000000000000000        0x0 c:/devkitpro/devkita64/bin/../lib/gcc/aarch64-none-elf/8.3.0/../../../../aarch64-none-elf/lib/pic\libg.a(lib_a-setenv.o)
 .comment       0x0000000000000000       0x23 c:/devkitpro/devkita64/bin/../lib/gcc/aarch64-none-elf/8.3.0/../../../../aarch64-none-elf/lib/pic\libg.a(lib_a-setenv.o)
 .text          0x0000000000000000        0x0 c:/devkitpro/devkita64/bin/../lib/gcc/aarch64-none-elf/8.3.0/../../../../aarch64-none-elf/lib/pic\libg.a(lib_a-setenv_r.o)
 .data          0x0000000000000000        0x0 c:/devkitpro/devkita64/bin/../lib/gcc/aarch64-none-elf/8.3.0/../../../../aarch64-none-elf/lib/pic\libg.a(lib_a-setenv_r.o)
 .bss           0x0000000000000000        0x0 c:/devkitpro/devkita64/bin/../lib/gcc/aarch64-none-elf/8.3.0/../../../../aarch64-none-elf/lib/pic\libg.a(lib_a-setenv_r.o)
 .comment       0x0000000000000000       0x23 c:/devkitpro/devkita64/bin/../lib/gcc/aarch64-none-elf/8.3.0/../../../../aarch64-none-elf/lib/pic\libg.a(lib_a-setenv_r.o)
 .data          0x0000000000000000        0x0 c:/devkitpro/devkita64/bin/../lib/gcc/aarch64-none-elf/8.3.0/../../../../aarch64-none-elf/lib/pic\libg.a(lib_a-strchr.o)
 .bss           0x0000000000000000        0x0 c:/devkitpro/devkita64/bin/../lib/gcc/aarch64-none-elf/8.3.0/../../../../aarch64-none-elf/lib/pic\libg.a(lib_a-strchr.o)
 .data          0x0000000000000000        0x0 c:/devkitpro/devkita64/bin/../lib/gcc/aarch64-none-elf/8.3.0/../../../../aarch64-none-elf/lib/pic\libg.a(lib_a-strcmp.o)
 .bss           0x0000000000000000        0x0 c:/devkitpro/devkita64/bin/../lib/gcc/aarch64-none-elf/8.3.0/../../../../aarch64-none-elf/lib/pic\libg.a(lib_a-strcmp.o)
 .data          0x0000000000000000        0x0 c:/devkitpro/devkita64/bin/../lib/gcc/aarch64-none-elf/8.3.0/../../../../aarch64-none-elf/lib/pic\libg.a(lib_a-strcpy.o)
 .bss           0x0000000000000000        0x0 c:/devkitpro/devkita64/bin/../lib/gcc/aarch64-none-elf/8.3.0/../../../../aarch64-none-elf/lib/pic\libg.a(lib_a-strcpy.o)
 .data          0x0000000000000000        0x0 c:/devkitpro/devkita64/bin/../lib/gcc/aarch64-none-elf/8.3.0/../../../../aarch64-none-elf/lib/pic\libg.a(lib_a-strlen.o)
 .bss           0x0000000000000000        0x0 c:/devkitpro/devkita64/bin/../lib/gcc/aarch64-none-elf/8.3.0/../../../../aarch64-none-elf/lib/pic\libg.a(lib_a-strlen.o)
 .text          0x0000000000000000        0x0 c:/devkitpro/devkita64/bin/../lib/gcc/aarch64-none-elf/8.3.0/../../../../aarch64-none-elf/lib/pic\libg.a(lib_a-strncat.o)
 .data          0x0000000000000000        0x0 c:/devkitpro/devkita64/bin/../lib/gcc/aarch64-none-elf/8.3.0/../../../../aarch64-none-elf/lib/pic\libg.a(lib_a-strncat.o)
 .bss           0x0000000000000000        0x0 c:/devkitpro/devkita64/bin/../lib/gcc/aarch64-none-elf/8.3.0/../../../../aarch64-none-elf/lib/pic\libg.a(lib_a-strncat.o)
 .comment       0x0000000000000000       0x23 c:/devkitpro/devkita64/bin/../lib/gcc/aarch64-none-elf/8.3.0/../../../../aarch64-none-elf/lib/pic\libg.a(lib_a-strncat.o)
 .data          0x0000000000000000        0x0 c:/devkitpro/devkita64/bin/../lib/gcc/aarch64-none-elf/8.3.0/../../../../aarch64-none-elf/lib/pic\libg.a(lib_a-strncmp.o)
 .bss           0x0000000000000000        0x0 c:/devkitpro/devkita64/bin/../lib/gcc/aarch64-none-elf/8.3.0/../../../../aarch64-none-elf/lib/pic\libg.a(lib_a-strncmp.o)
 .text          0x0000000000000000        0x0 c:/devkitpro/devkita64/bin/../lib/gcc/aarch64-none-elf/8.3.0/../../../../aarch64-none-elf/lib/pic\libg.a(lib_a-strncpy.o)
 .data          0x0000000000000000        0x0 c:/devkitpro/devkita64/bin/../lib/gcc/aarch64-none-elf/8.3.0/../../../../aarch64-none-elf/lib/pic\libg.a(lib_a-strncpy.o)
 .bss           0x0000000000000000        0x0 c:/devkitpro/devkita64/bin/../lib/gcc/aarch64-none-elf/8.3.0/../../../../aarch64-none-elf/lib/pic\libg.a(lib_a-strncpy.o)
 .comment       0x0000000000000000       0x23 c:/devkitpro/devkita64/bin/../lib/gcc/aarch64-none-elf/8.3.0/../../../../aarch64-none-elf/lib/pic\libg.a(lib_a-strncpy.o)
 .data          0x0000000000000000        0x0 c:/devkitpro/devkita64/bin/../lib/gcc/aarch64-none-elf/8.3.0/../../../../aarch64-none-elf/lib/pic\libg.a(lib_a-strnlen.o)
 .bss           0x0000000000000000        0x0 c:/devkitpro/devkita64/bin/../lib/gcc/aarch64-none-elf/8.3.0/../../../../aarch64-none-elf/lib/pic\libg.a(lib_a-strnlen.o)
 .text          0x0000000000000000        0x0 c:/devkitpro/devkita64/bin/../lib/gcc/aarch64-none-elf/8.3.0/../../../../aarch64-none-elf/lib/pic\libg.a(lib_a-toupper.o)
 .data          0x0000000000000000        0x0 c:/devkitpro/devkita64/bin/../lib/gcc/aarch64-none-elf/8.3.0/../../../../aarch64-none-elf/lib/pic\libg.a(lib_a-toupper.o)
 .bss           0x0000000000000000        0x0 c:/devkitpro/devkita64/bin/../lib/gcc/aarch64-none-elf/8.3.0/../../../../aarch64-none-elf/lib/pic\libg.a(lib_a-toupper.o)
 .comment       0x0000000000000000       0x23 c:/devkitpro/devkita64/bin/../lib/gcc/aarch64-none-elf/8.3.0/../../../../aarch64-none-elf/lib/pic\libg.a(lib_a-toupper.o)
 .text          0x0000000000000000        0x0 c:/devkitpro/devkita64/bin/../lib/gcc/aarch64-none-elf/8.3.0/../../../../aarch64-none-elf/lib/pic\libg.a(lib_a-vsnprintf.o)
 .data          0x0000000000000000        0x0 c:/devkitpro/devkita64/bin/../lib/gcc/aarch64-none-elf/8.3.0/../../../../aarch64-none-elf/lib/pic\libg.a(lib_a-vsnprintf.o)
 .bss           0x0000000000000000        0x0 c:/devkitpro/devkita64/bin/../lib/gcc/aarch64-none-elf/8.3.0/../../../../aarch64-none-elf/lib/pic\libg.a(lib_a-vsnprintf.o)
 .comment       0x0000000000000000       0x23 c:/devkitpro/devkita64/bin/../lib/gcc/aarch64-none-elf/8.3.0/../../../../aarch64-none-elf/lib/pic\libg.a(lib_a-vsnprintf.o)
 .text          0x0000000000000000        0x0 c:/devkitpro/devkita64/bin/../lib/gcc/aarch64-none-elf/8.3.0/../../../../aarch64-none-elf/lib/pic\libg.a(lib_a-__call_atexit.o)
 .data          0x0000000000000000        0x0 c:/devkitpro/devkita64/bin/../lib/gcc/aarch64-none-elf/8.3.0/../../../../aarch64-none-elf/lib/pic\libg.a(lib_a-__call_atexit.o)
 .bss           0x0000000000000000        0x0 c:/devkitpro/devkita64/bin/../lib/gcc/aarch64-none-elf/8.3.0/../../../../aarch64-none-elf/lib/pic\libg.a(lib_a-__call_atexit.o)
 .comment       0x0000000000000000       0x23 c:/devkitpro/devkita64/bin/../lib/gcc/aarch64-none-elf/8.3.0/../../../../aarch64-none-elf/lib/pic\libg.a(lib_a-__call_atexit.o)
 .text          0x0000000000000000        0x0 c:/devkitpro/devkita64/bin/../lib/gcc/aarch64-none-elf/8.3.0/../../../../aarch64-none-elf/lib/pic\libg.a(lib_a-environ.o)
 .data          0x0000000000000000        0x0 c:/devkitpro/devkita64/bin/../lib/gcc/aarch64-none-elf/8.3.0/../../../../aarch64-none-elf/lib/pic\libg.a(lib_a-environ.o)
 .bss           0x0000000000000000        0x0 c:/devkitpro/devkita64/bin/../lib/gcc/aarch64-none-elf/8.3.0/../../../../aarch64-none-elf/lib/pic\libg.a(lib_a-environ.o)
 .comment       0x0000000000000000       0x23 c:/devkitpro/devkita64/bin/../lib/gcc/aarch64-none-elf/8.3.0/../../../../aarch64-none-elf/lib/pic\libg.a(lib_a-environ.o)
 .text          0x0000000000000000        0x0 c:/devkitpro/devkita64/bin/../lib/gcc/aarch64-none-elf/8.3.0/../../../../aarch64-none-elf/lib/pic\libg.a(lib_a-envlock.o)
 .data          0x0000000000000000        0x0 c:/devkitpro/devkita64/bin/../lib/gcc/aarch64-none-elf/8.3.0/../../../../aarch64-none-elf/lib/pic\libg.a(lib_a-envlock.o)
 .bss           0x0000000000000000        0x0 c:/devkitpro/devkita64/bin/../lib/gcc/aarch64-none-elf/8.3.0/../../../../aarch64-none-elf/lib/pic\libg.a(lib_a-envlock.o)
 .comment       0x0000000000000000       0x23 c:/devkitpro/devkita64/bin/../lib/gcc/aarch64-none-elf/8.3.0/../../../../aarch64-none-elf/lib/pic\libg.a(lib_a-envlock.o)
 .text          0x0000000000000000        0x0 c:/devkitpro/devkita64/bin/../lib/gcc/aarch64-none-elf/8.3.0/../../../../aarch64-none-elf/lib/pic\libg.a(lib_a-freer.o)
 .data          0x0000000000000000        0x0 c:/devkitpro/devkita64/bin/../lib/gcc/aarch64-none-elf/8.3.0/../../../../aarch64-none-elf/lib/pic\libg.a(lib_a-freer.o)
 .bss           0x0000000000000000        0x0 c:/devkitpro/devkita64/bin/../lib/gcc/aarch64-none-elf/8.3.0/../../../../aarch64-none-elf/lib/pic\libg.a(lib_a-freer.o)
 .comment       0x0000000000000000       0x23 c:/devkitpro/devkita64/bin/../lib/gcc/aarch64-none-elf/8.3.0/../../../../aarch64-none-elf/lib/pic\libg.a(lib_a-freer.o)
 .text          0x0000000000000000        0x0 c:/devkitpro/devkita64/bin/../lib/gcc/aarch64-none-elf/8.3.0/../../../../aarch64-none-elf/lib/pic\libg.a(lib_a-getenv_r.o)
 .data          0x0000000000000000        0x0 c:/devkitpro/devkita64/bin/../lib/gcc/aarch64-none-elf/8.3.0/../../../../aarch64-none-elf/lib/pic\libg.a(lib_a-getenv_r.o)
 .bss           0x0000000000000000        0x0 c:/devkitpro/devkita64/bin/../lib/gcc/aarch64-none-elf/8.3.0/../../../../aarch64-none-elf/lib/pic\libg.a(lib_a-getenv_r.o)
 .comment       0x0000000000000000       0x23 c:/devkitpro/devkita64/bin/../lib/gcc/aarch64-none-elf/8.3.0/../../../../aarch64-none-elf/lib/pic\libg.a(lib_a-getenv_r.o)
 .text          0x0000000000000000        0x0 c:/devkitpro/devkita64/bin/../lib/gcc/aarch64-none-elf/8.3.0/../../../../aarch64-none-elf/lib/pic\libg.a(lib_a-reallocr.o)
 .data          0x0000000000000000        0x0 c:/devkitpro/devkita64/bin/../lib/gcc/aarch64-none-elf/8.3.0/../../../../aarch64-none-elf/lib/pic\libg.a(lib_a-reallocr.o)
 .bss           0x0000000000000000        0x0 c:/devkitpro/devkita64/bin/../lib/gcc/aarch64-none-elf/8.3.0/../../../../aarch64-none-elf/lib/pic\libg.a(lib_a-reallocr.o)
 .comment       0x0000000000000000       0x23 c:/devkitpro/devkita64/bin/../lib/gcc/aarch64-none-elf/8.3.0/../../../../aarch64-none-elf/lib/pic\libg.a(lib_a-reallocr.o)
 .text          0x0000000000000000        0x0 c:/devkitpro/devkita64/bin/../lib/gcc/aarch64-none-elf/8.3.0/../../../../aarch64-none-elf/lib/pic\libg.a(lib_a-svfprintf.o)
 .data          0x0000000000000000        0x0 c:/devkitpro/devkita64/bin/../lib/gcc/aarch64-none-elf/8.3.0/../../../../aarch64-none-elf/lib/pic\libg.a(lib_a-svfprintf.o)
 .bss           0x0000000000000000        0x0 c:/devkitpro/devkita64/bin/../lib/gcc/aarch64-none-elf/8.3.0/../../../../aarch64-none-elf/lib/pic\libg.a(lib_a-svfprintf.o)
 .comment       0x0000000000000000       0x23 c:/devkitpro/devkita64/bin/../lib/gcc/aarch64-none-elf/8.3.0/../../../../aarch64-none-elf/lib/pic\libg.a(lib_a-svfprintf.o)
 .text          0x0000000000000000        0x0 c:/devkitpro/devkita64/bin/../lib/gcc/aarch64-none-elf/8.3.0/../../../../aarch64-none-elf/lib/pic\libg.a(lib_a-wcrtomb.o)
 .data          0x0000000000000000        0x0 c:/devkitpro/devkita64/bin/../lib/gcc/aarch64-none-elf/8.3.0/../../../../aarch64-none-elf/lib/pic\libg.a(lib_a-wcrtomb.o)
 .bss           0x0000000000000000        0x0 c:/devkitpro/devkita64/bin/../lib/gcc/aarch64-none-elf/8.3.0/../../../../aarch64-none-elf/lib/pic\libg.a(lib_a-wcrtomb.o)
 .comment       0x0000000000000000       0x23 c:/devkitpro/devkita64/bin/../lib/gcc/aarch64-none-elf/8.3.0/../../../../aarch64-none-elf/lib/pic\libg.a(lib_a-wcrtomb.o)
 .text          0x0000000000000000        0x0 c:/devkitpro/devkita64/bin/../lib/gcc/aarch64-none-elf/8.3.0/../../../../aarch64-none-elf/lib/pic\libg.a(lib_a-wcsrtombs.o)
 .data          0x0000000000000000        0x0 c:/devkitpro/devkita64/bin/../lib/gcc/aarch64-none-elf/8.3.0/../../../../aarch64-none-elf/lib/pic\libg.a(lib_a-wcsrtombs.o)
 .bss           0x0000000000000000        0x0 c:/devkitpro/devkita64/bin/../lib/gcc/aarch64-none-elf/8.3.0/../../../../aarch64-none-elf/lib/pic\libg.a(lib_a-wcsrtombs.o)
 .comment       0x0000000000000000       0x23 c:/devkitpro/devkita64/bin/../lib/gcc/aarch64-none-elf/8.3.0/../../../../aarch64-none-elf/lib/pic\libg.a(lib_a-wcsrtombs.o)
 .text          0x0000000000000000        0x0 c:/devkitpro/devkita64/bin/../lib/gcc/aarch64-none-elf/8.3.0/../../../../aarch64-none-elf/lib/pic\libg.a(lib_a-dtoa.o)
 .data          0x0000000000000000        0x0 c:/devkitpro/devkita64/bin/../lib/gcc/aarch64-none-elf/8.3.0/../../../../aarch64-none-elf/lib/pic\libg.a(lib_a-dtoa.o)
 .bss           0x0000000000000000        0x0 c:/devkitpro/devkita64/bin/../lib/gcc/aarch64-none-elf/8.3.0/../../../../aarch64-none-elf/lib/pic\libg.a(lib_a-dtoa.o)
 .comment       0x0000000000000000       0x23 c:/devkitpro/devkita64/bin/../lib/gcc/aarch64-none-elf/8.3.0/../../../../aarch64-none-elf/lib/pic\libg.a(lib_a-dtoa.o)
 .text          0x0000000000000000        0x0 c:/devkitpro/devkita64/bin/../lib/gcc/aarch64-none-elf/8.3.0/../../../../aarch64-none-elf/lib/pic\libg.a(lib_a-localeconv.o)
 .data          0x0000000000000000        0x0 c:/devkitpro/devkita64/bin/../lib/gcc/aarch64-none-elf/8.3.0/../../../../aarch64-none-elf/lib/pic\libg.a(lib_a-localeconv.o)
 .bss           0x0000000000000000        0x0 c:/devkitpro/devkita64/bin/../lib/gcc/aarch64-none-elf/8.3.0/../../../../aarch64-none-elf/lib/pic\libg.a(lib_a-localeconv.o)
 .comment       0x0000000000000000       0x23 c:/devkitpro/devkita64/bin/../lib/gcc/aarch64-none-elf/8.3.0/../../../../aarch64-none-elf/lib/pic\libg.a(lib_a-localeconv.o)
 .text          0x0000000000000000        0x0 c:/devkitpro/devkita64/bin/../lib/gcc/aarch64-none-elf/8.3.0/../../../../aarch64-none-elf/lib/pic\libg.a(lib_a-locale.o)
 .data          0x0000000000000000        0x0 c:/devkitpro/devkita64/bin/../lib/gcc/aarch64-none-elf/8.3.0/../../../../aarch64-none-elf/lib/pic\libg.a(lib_a-locale.o)
 .bss           0x0000000000000000        0x0 c:/devkitpro/devkita64/bin/../lib/gcc/aarch64-none-elf/8.3.0/../../../../aarch64-none-elf/lib/pic\libg.a(lib_a-locale.o)
 .comment       0x0000000000000000       0x23 c:/devkitpro/devkita64/bin/../lib/gcc/aarch64-none-elf/8.3.0/../../../../aarch64-none-elf/lib/pic\libg.a(lib_a-locale.o)
 .text          0x0000000000000000        0x0 c:/devkitpro/devkita64/bin/../lib/gcc/aarch64-none-elf/8.3.0/../../../../aarch64-none-elf/lib/pic\libg.a(lib_a-mbtowc_r.o)
 .data          0x0000000000000000        0x0 c:/devkitpro/devkita64/bin/../lib/gcc/aarch64-none-elf/8.3.0/../../../../aarch64-none-elf/lib/pic\libg.a(lib_a-mbtowc_r.o)
 .bss           0x0000000000000000        0x0 c:/devkitpro/devkita64/bin/../lib/gcc/aarch64-none-elf/8.3.0/../../../../aarch64-none-elf/lib/pic\libg.a(lib_a-mbtowc_r.o)
 .comment       0x0000000000000000       0x23 c:/devkitpro/devkita64/bin/../lib/gcc/aarch64-none-elf/8.3.0/../../../../aarch64-none-elf/lib/pic\libg.a(lib_a-mbtowc_r.o)
 .data          0x0000000000000000        0x0 c:/devkitpro/devkita64/bin/../lib/gcc/aarch64-none-elf/8.3.0/../../../../aarch64-none-elf/lib/pic\libg.a(lib_a-memchr.o)
 .bss           0x0000000000000000        0x0 c:/devkitpro/devkita64/bin/../lib/gcc/aarch64-none-elf/8.3.0/../../../../aarch64-none-elf/lib/pic\libg.a(lib_a-memchr.o)
 .data          0x0000000000000000        0x0 c:/devkitpro/devkita64/bin/../lib/gcc/aarch64-none-elf/8.3.0/../../../../aarch64-none-elf/lib/pic\libg.a(lib_a-memmove.o)
 .bss           0x0000000000000000        0x0 c:/devkitpro/devkita64/bin/../lib/gcc/aarch64-none-elf/8.3.0/../../../../aarch64-none-elf/lib/pic\libg.a(lib_a-memmove.o)
 .text          0x0000000000000000        0x0 c:/devkitpro/devkita64/bin/../lib/gcc/aarch64-none-elf/8.3.0/../../../../aarch64-none-elf/lib/pic\libg.a(lib_a-mprec.o)
 .data          0x0000000000000000        0x0 c:/devkitpro/devkita64/bin/../lib/gcc/aarch64-none-elf/8.3.0/../../../../aarch64-none-elf/lib/pic\libg.a(lib_a-mprec.o)
 .bss           0x0000000000000000        0x0 c:/devkitpro/devkita64/bin/../lib/gcc/aarch64-none-elf/8.3.0/../../../../aarch64-none-elf/lib/pic\libg.a(lib_a-mprec.o)
 .comment       0x0000000000000000       0x23 c:/devkitpro/devkita64/bin/../lib/gcc/aarch64-none-elf/8.3.0/../../../../aarch64-none-elf/lib/pic\libg.a(lib_a-mprec.o)
 .text          0x0000000000000000        0x0 c:/devkitpro/devkita64/bin/../lib/gcc/aarch64-none-elf/8.3.0/../../../../aarch64-none-elf/lib/pic\libg.a(lib_a-s_frexp.o)
 .data          0x0000000000000000        0x0 c:/devkitpro/devkita64/bin/../lib/gcc/aarch64-none-elf/8.3.0/../../../../aarch64-none-elf/lib/pic\libg.a(lib_a-s_frexp.o)
 .bss           0x0000000000000000        0x0 c:/devkitpro/devkita64/bin/../lib/gcc/aarch64-none-elf/8.3.0/../../../../aarch64-none-elf/lib/pic\libg.a(lib_a-s_frexp.o)
 .comment       0x0000000000000000       0x23 c:/devkitpro/devkita64/bin/../lib/gcc/aarch64-none-elf/8.3.0/../../../../aarch64-none-elf/lib/pic\libg.a(lib_a-s_frexp.o)
 .text          0x0000000000000000        0x0 c:/devkitpro/devkita64/bin/../lib/gcc/aarch64-none-elf/8.3.0/../../../../aarch64-none-elf/lib/pic\libg.a(lib_a-strcasecmp.o)
 .data          0x0000000000000000        0x0 c:/devkitpro/devkita64/bin/../lib/gcc/aarch64-none-elf/8.3.0/../../../../aarch64-none-elf/lib/pic\libg.a(lib_a-strcasecmp.o)
 .bss           0x0000000000000000        0x0 c:/devkitpro/devkita64/bin/../lib/gcc/aarch64-none-elf/8.3.0/../../../../aarch64-none-elf/lib/pic\libg.a(lib_a-strcasecmp.o)
 .comment       0x0000000000000000       0x23 c:/devkitpro/devkita64/bin/../lib/gcc/aarch64-none-elf/8.3.0/../../../../aarch64-none-elf/lib/pic\libg.a(lib_a-strcasecmp.o)
 .text          0x0000000000000000        0x0 c:/devkitpro/devkita64/bin/../lib/gcc/aarch64-none-elf/8.3.0/../../../../aarch64-none-elf/lib/pic\libg.a(lib_a-strcat.o)
 .data          0x0000000000000000        0x0 c:/devkitpro/devkita64/bin/../lib/gcc/aarch64-none-elf/8.3.0/../../../../aarch64-none-elf/lib/pic\libg.a(lib_a-strcat.o)
 .bss           0x0000000000000000        0x0 c:/devkitpro/devkita64/bin/../lib/gcc/aarch64-none-elf/8.3.0/../../../../aarch64-none-elf/lib/pic\libg.a(lib_a-strcat.o)
 .comment       0x0000000000000000       0x23 c:/devkitpro/devkita64/bin/../lib/gcc/aarch64-none-elf/8.3.0/../../../../aarch64-none-elf/lib/pic\libg.a(lib_a-strcat.o)
 .text          0x0000000000000000        0x0 c:/devkitpro/devkita64/bin/../lib/gcc/aarch64-none-elf/8.3.0/../../../../aarch64-none-elf/lib/pic\libg.a(lib_a-strlcpy.o)
 .data          0x0000000000000000        0x0 c:/devkitpro/devkita64/bin/../lib/gcc/aarch64-none-elf/8.3.0/../../../../aarch64-none-elf/lib/pic\libg.a(lib_a-strlcpy.o)
 .bss           0x0000000000000000        0x0 c:/devkitpro/devkita64/bin/../lib/gcc/aarch64-none-elf/8.3.0/../../../../aarch64-none-elf/lib/pic\libg.a(lib_a-strlcpy.o)
 .comment       0x0000000000000000       0x23 c:/devkitpro/devkita64/bin/../lib/gcc/aarch64-none-elf/8.3.0/../../../../aarch64-none-elf/lib/pic\libg.a(lib_a-strlcpy.o)
 .text          0x0000000000000000        0x0 c:/devkitpro/devkita64/bin/../lib/gcc/aarch64-none-elf/8.3.0/../../../../aarch64-none-elf/lib/pic\libg.a(lib_a-strncasecmp.o)
 .data          0x0000000000000000        0x0 c:/devkitpro/devkita64/bin/../lib/gcc/aarch64-none-elf/8.3.0/../../../../aarch64-none-elf/lib/pic\libg.a(lib_a-strncasecmp.o)
 .bss           0x0000000000000000        0x0 c:/devkitpro/devkita64/bin/../lib/gcc/aarch64-none-elf/8.3.0/../../../../aarch64-none-elf/lib/pic\libg.a(lib_a-strncasecmp.o)
 .comment       0x0000000000000000       0x23 c:/devkitpro/devkita64/bin/../lib/gcc/aarch64-none-elf/8.3.0/../../../../aarch64-none-elf/lib/pic\libg.a(lib_a-strncasecmp.o)
 .text          0x0000000000000000        0x0 c:/devkitpro/devkita64/bin/../lib/gcc/aarch64-none-elf/8.3.0/../../../../aarch64-none-elf/lib/pic\libg.a(lib_a-strtol.o)
 .data          0x0000000000000000        0x0 c:/devkitpro/devkita64/bin/../lib/gcc/aarch64-none-elf/8.3.0/../../../../aarch64-none-elf/lib/pic\libg.a(lib_a-strtol.o)
 .bss           0x0000000000000000        0x0 c:/devkitpro/devkita64/bin/../lib/gcc/aarch64-none-elf/8.3.0/../../../../aarch64-none-elf/lib/pic\libg.a(lib_a-strtol.o)
 .comment       0x0000000000000000       0x23 c:/devkitpro/devkita64/bin/../lib/gcc/aarch64-none-elf/8.3.0/../../../../aarch64-none-elf/lib/pic\libg.a(lib_a-strtol.o)
 .text          0x0000000000000000        0x0 c:/devkitpro/devkita64/bin/../lib/gcc/aarch64-none-elf/8.3.0/../../../../aarch64-none-elf/lib/pic\libg.a(lib_a-svfiprintf.o)
 .data          0x0000000000000000        0x0 c:/devkitpro/devkita64/bin/../lib/gcc/aarch64-none-elf/8.3.0/../../../../aarch64-none-elf/lib/pic\libg.a(lib_a-svfiprintf.o)
 .bss           0x0000000000000000        0x0 c:/devkitpro/devkita64/bin/../lib/gcc/aarch64-none-elf/8.3.0/../../../../aarch64-none-elf/lib/pic\libg.a(lib_a-svfiprintf.o)
 .comment       0x0000000000000000       0x23 c:/devkitpro/devkita64/bin/../lib/gcc/aarch64-none-elf/8.3.0/../../../../aarch64-none-elf/lib/pic\libg.a(lib_a-svfiprintf.o)
 .text          0x0000000000000000        0x0 c:/devkitpro/devkita64/bin/../lib/gcc/aarch64-none-elf/8.3.0/../../../../aarch64-none-elf/lib/pic\libg.a(lib_a-wcsnrtombs.o)
 .data          0x0000000000000000        0x0 c:/devkitpro/devkita64/bin/../lib/gcc/aarch64-none-elf/8.3.0/../../../../aarch64-none-elf/lib/pic\libg.a(lib_a-wcsnrtombs.o)
 .bss           0x0000000000000000        0x0 c:/devkitpro/devkita64/bin/../lib/gcc/aarch64-none-elf/8.3.0/../../../../aarch64-none-elf/lib/pic\libg.a(lib_a-wcsnrtombs.o)
 .comment       0x0000000000000000       0x23 c:/devkitpro/devkita64/bin/../lib/gcc/aarch64-none-elf/8.3.0/../../../../aarch64-none-elf/lib/pic\libg.a(lib_a-wcsnrtombs.o)
 .text          0x0000000000000000        0x0 c:/devkitpro/devkita64/bin/../lib/gcc/aarch64-none-elf/8.3.0/../../../../aarch64-none-elf/lib/pic\libg.a(lib_a-wctomb_r.o)
 .data          0x0000000000000000        0x0 c:/devkitpro/devkita64/bin/../lib/gcc/aarch64-none-elf/8.3.0/../../../../aarch64-none-elf/lib/pic\libg.a(lib_a-wctomb_r.o)
 .bss           0x0000000000000000        0x0 c:/devkitpro/devkita64/bin/../lib/gcc/aarch64-none-elf/8.3.0/../../../../aarch64-none-elf/lib/pic\libg.a(lib_a-wctomb_r.o)
 .comment       0x0000000000000000       0x23 c:/devkitpro/devkita64/bin/../lib/gcc/aarch64-none-elf/8.3.0/../../../../aarch64-none-elf/lib/pic\libg.a(lib_a-wctomb_r.o)
 .text          0x0000000000000000        0x0 c:/devkitpro/devkita64/bin/../lib/gcc/aarch64-none-elf/8.3.0/../../../../aarch64-none-elf/lib/pic\libg.a(lib_a-callocr.o)
 .data          0x0000000000000000        0x0 c:/devkitpro/devkita64/bin/../lib/gcc/aarch64-none-elf/8.3.0/../../../../aarch64-none-elf/lib/pic\libg.a(lib_a-callocr.o)
 .bss           0x0000000000000000        0x0 c:/devkitpro/devkita64/bin/../lib/gcc/aarch64-none-elf/8.3.0/../../../../aarch64-none-elf/lib/pic\libg.a(lib_a-callocr.o)
 .comment       0x0000000000000000       0x23 c:/devkitpro/devkita64/bin/../lib/gcc/aarch64-none-elf/8.3.0/../../../../aarch64-none-elf/lib/pic\libg.a(lib_a-callocr.o)
 .text          0x0000000000000000        0x0 c:/devkitpro/devkita64/bin/../lib/gcc/aarch64-none-elf/8.3.0/../../../../aarch64-none-elf/lib/pic\libsysbase.a(iosupport.o)
 .data          0x0000000000000000        0x0 c:/devkitpro/devkita64/bin/../lib/gcc/aarch64-none-elf/8.3.0/../../../../aarch64-none-elf/lib/pic\libsysbase.a(iosupport.o)
 .bss           0x0000000000000000        0x0 c:/devkitpro/devkita64/bin/../lib/gcc/aarch64-none-elf/8.3.0/../../../../aarch64-none-elf/lib/pic\libsysbase.a(iosupport.o)
 .comment       0x0000000000000000       0x23 c:/devkitpro/devkita64/bin/../lib/gcc/aarch64-none-elf/8.3.0/../../../../aarch64-none-elf/lib/pic\libsysbase.a(iosupport.o)
 .text          0x0000000000000000        0x0 c:/devkitpro/devkita64/bin/../lib/gcc/aarch64-none-elf/8.3.0/../../../../aarch64-none-elf/lib/pic\libsysbase.a(sbrk.o)
 .data          0x0000000000000000        0x0 c:/devkitpro/devkita64/bin/../lib/gcc/aarch64-none-elf/8.3.0/../../../../aarch64-none-elf/lib/pic\libsysbase.a(sbrk.o)
 .bss           0x0000000000000000        0x0 c:/devkitpro/devkita64/bin/../lib/gcc/aarch64-none-elf/8.3.0/../../../../aarch64-none-elf/lib/pic\libsysbase.a(sbrk.o)
 .comment       0x0000000000000000       0x23 c:/devkitpro/devkita64/bin/../lib/gcc/aarch64-none-elf/8.3.0/../../../../aarch64-none-elf/lib/pic\libsysbase.a(sbrk.o)
 .text          0x0000000000000000        0x0 c:/devkitpro/devkita64/bin/../lib/gcc/aarch64-none-elf/8.3.0/../../../../aarch64-none-elf/lib/pic\libsysbase.a(_exit.o)
 .data          0x0000000000000000        0x0 c:/devkitpro/devkita64/bin/../lib/gcc/aarch64-none-elf/8.3.0/../../../../aarch64-none-elf/lib/pic\libsysbase.a(_exit.o)
 .bss           0x0000000000000000        0x0 c:/devkitpro/devkita64/bin/../lib/gcc/aarch64-none-elf/8.3.0/../../../../aarch64-none-elf/lib/pic\libsysbase.a(_exit.o)
 .comment       0x0000000000000000       0x23 c:/devkitpro/devkita64/bin/../lib/gcc/aarch64-none-elf/8.3.0/../../../../aarch64-none-elf/lib/pic\libsysbase.a(_exit.o)
 .text          0x0000000000000000        0x0 c:/devkitpro/devkita64/bin/../lib/gcc/aarch64-none-elf/8.3.0/../../../../aarch64-none-elf/lib/pic\libsysbase.a(malloc_vars.o)
 .data          0x0000000000000000        0x0 c:/devkitpro/devkita64/bin/../lib/gcc/aarch64-none-elf/8.3.0/../../../../aarch64-none-elf/lib/pic\libsysbase.a(malloc_vars.o)
 .bss           0x0000000000000000        0x0 c:/devkitpro/devkita64/bin/../lib/gcc/aarch64-none-elf/8.3.0/../../../../aarch64-none-elf/lib/pic\libsysbase.a(malloc_vars.o)
 .comment       0x0000000000000000       0x23 c:/devkitpro/devkita64/bin/../lib/gcc/aarch64-none-elf/8.3.0/../../../../aarch64-none-elf/lib/pic\libsysbase.a(malloc_vars.o)
 .text          0x0000000000000000        0x0 c:/devkitpro/devkita64/bin/../lib/gcc/aarch64-none-elf/8.3.0/../../../../aarch64-none-elf/lib/pic\libsysbase.a(chdir.o)
 .data          0x0000000000000000        0x0 c:/devkitpro/devkita64/bin/../lib/gcc/aarch64-none-elf/8.3.0/../../../../aarch64-none-elf/lib/pic\libsysbase.a(chdir.o)
 .bss           0x0000000000000000        0x0 c:/devkitpro/devkita64/bin/../lib/gcc/aarch64-none-elf/8.3.0/../../../../aarch64-none-elf/lib/pic\libsysbase.a(chdir.o)
 .comment       0x0000000000000000       0x23 c:/devkitpro/devkita64/bin/../lib/gcc/aarch64-none-elf/8.3.0/../../../../aarch64-none-elf/lib/pic\libsysbase.a(chdir.o)
 .text          0x0000000000000000        0x0 c:/devkitpro/devkita64/bin/../lib/gcc/aarch64-none-elf/8.3.0/../../../../aarch64-none-elf/lib/pic\libsysbase.a(locks.o)
 .data          0x0000000000000000        0x0 c:/devkitpro/devkita64/bin/../lib/gcc/aarch64-none-elf/8.3.0/../../../../aarch64-none-elf/lib/pic\libsysbase.a(locks.o)
 .bss           0x0000000000000000        0x0 c:/devkitpro/devkita64/bin/../lib/gcc/aarch64-none-elf/8.3.0/../../../../aarch64-none-elf/lib/pic\libsysbase.a(locks.o)
 .comment       0x0000000000000000       0x23 c:/devkitpro/devkita64/bin/../lib/gcc/aarch64-none-elf/8.3.0/../../../../aarch64-none-elf/lib/pic\libsysbase.a(locks.o)
 .text          0x0000000000000000        0x0 c:/devkitpro/devkita64/bin/../lib/gcc/aarch64-none-elf/8.3.0/../../../../aarch64-none-elf/lib/pic\libsysbase.a(getreent.o)
 .data          0x0000000000000000        0x0 c:/devkitpro/devkita64/bin/../lib/gcc/aarch64-none-elf/8.3.0/../../../../aarch64-none-elf/lib/pic\libsysbase.a(getreent.o)
 .bss           0x0000000000000000        0x0 c:/devkitpro/devkita64/bin/../lib/gcc/aarch64-none-elf/8.3.0/../../../../aarch64-none-elf/lib/pic\libsysbase.a(getreent.o)
 .comment       0x0000000000000000       0x23 c:/devkitpro/devkita64/bin/../lib/gcc/aarch64-none-elf/8.3.0/../../../../aarch64-none-elf/lib/pic\libsysbase.a(getreent.o)
 .text          0x0000000000000000        0x0 c:/devkitpro/devkita64/bin/../lib/gcc/aarch64-none-elf/8.3.0/../../../../aarch64-none-elf/lib/pic\libsysbase.a(clocks.o)
 .data          0x0000000000000000        0x0 c:/devkitpro/devkita64/bin/../lib/gcc/aarch64-none-elf/8.3.0/../../../../aarch64-none-elf/lib/pic\libsysbase.a(clocks.o)
 .bss           0x0000000000000000        0x0 c:/devkitpro/devkita64/bin/../lib/gcc/aarch64-none-elf/8.3.0/../../../../aarch64-none-elf/lib/pic\libsysbase.a(clocks.o)
 .comment       0x0000000000000000       0x23 c:/devkitpro/devkita64/bin/../lib/gcc/aarch64-none-elf/8.3.0/../../../../aarch64-none-elf/lib/pic\libsysbase.a(clocks.o)
 .text          0x0000000000000000        0x0 c:/devkitpro/devkita64/bin/../lib/gcc/aarch64-none-elf/8.3.0/pic\libgcc.a(trunctfdf2.o)
 .data          0x0000000000000000        0x0 c:/devkitpro/devkita64/bin/../lib/gcc/aarch64-none-elf/8.3.0/pic\libgcc.a(trunctfdf2.o)
 .bss           0x0000000000000000        0x0 c:/devkitpro/devkita64/bin/../lib/gcc/aarch64-none-elf/8.3.0/pic\libgcc.a(trunctfdf2.o)
 .comment       0x0000000000000000       0x23 c:/devkitpro/devkita64/bin/../lib/gcc/aarch64-none-elf/8.3.0/pic\libgcc.a(trunctfdf2.o)
 .text          0x0000000000000000        0x0 c:/devkitpro/devkita64/bin/../lib/gcc/aarch64-none-elf/8.3.0/pic\libgcc.a(sfp-exceptions.o)
 .data          0x0000000000000000        0x0 c:/devkitpro/devkita64/bin/../lib/gcc/aarch64-none-elf/8.3.0/pic\libgcc.a(sfp-exceptions.o)
 .bss           0x0000000000000000        0x0 c:/devkitpro/devkita64/bin/../lib/gcc/aarch64-none-elf/8.3.0/pic\libgcc.a(sfp-exceptions.o)
 .comment       0x0000000000000000       0x23 c:/devkitpro/devkita64/bin/../lib/gcc/aarch64-none-elf/8.3.0/pic\libgcc.a(sfp-exceptions.o)
 .data          0x0000000000000000        0x0 c:/devkitpro/devkita64/bin/../lib/gcc/aarch64-none-elf/8.3.0/../../../../aarch64-none-elf/lib/pic\libg.a(lib_a-strrchr.o)
 .bss           0x0000000000000000        0x0 c:/devkitpro/devkita64/bin/../lib/gcc/aarch64-none-elf/8.3.0/../../../../aarch64-none-elf/lib/pic\libg.a(lib_a-strrchr.o)
 .text          0x0000000000000000        0x0 c:/devkitpro/devkita64/bin/../lib/gcc/aarch64-none-elf/8.3.0/pic/crtend.o
 .data          0x0000000000000000        0x0 c:/devkitpro/devkita64/bin/../lib/gcc/aarch64-none-elf/8.3.0/pic/crtend.o
 .bss           0x0000000000000000        0x0 c:/devkitpro/devkita64/bin/../lib/gcc/aarch64-none-elf/8.3.0/pic/crtend.o
 .comment       0x0000000000000000       0x23 c:/devkitpro/devkita64/bin/../lib/gcc/aarch64-none-elf/8.3.0/pic/crtend.o
 .text          0x0000000000000000        0x0 c:/devkitpro/devkita64/bin/../lib/gcc/aarch64-none-elf/8.3.0/pic/crtn.o
 .data          0x0000000000000000        0x0 c:/devkitpro/devkita64/bin/../lib/gcc/aarch64-none-elf/8.3.0/pic/crtn.o
 .bss           0x0000000000000000        0x0 c:/devkitpro/devkita64/bin/../lib/gcc/aarch64-none-elf/8.3.0/pic/crtn.o

Memory Configuration

Name             Origin             Length             Attributes
*default*        0x0000000000000000 0xffffffffffffffff

Linker script and memory map

                0x0000000000000000                PROVIDE (__start__ = 0x0)
                0x0000000000000000                . = __start__

.crt0           0x0000000000000000      0x158
 *(.crt0)
 .crt0          0x0000000000000000      0x158 C:/Users/RNG/Desktop/Stuff/Smash-Stuff/SMASH-ULTIMATE-MODS-BABY/50xx-the-mod/acmd-edits/code-mod-framework/lib/libnx_min/nx/lib\libnx_min.a(switch_crt0.o)
                0x0000000000000000                _start
                0x0000000000000120                __nx_exit
                0x0000000000000130                __nx_mod0
                0x0000000000000158                . = ALIGN (0x8)

.init           0x0000000000000158       0x38
 *(.init)
 .init          0x0000000000000158       0x18 c:/devkitpro/devkita64/bin/../lib/gcc/aarch64-none-elf/8.3.0/pic/crti.o
                0x0000000000000158                _init
 .init          0x0000000000000170       0x1c c:/devkitpro/devkita64/bin/../lib/gcc/aarch64-none-elf/8.3.0/pic/crtn.o
                0x0000000000000190                . = ALIGN (0x8)
 *fill*         0x000000000000018c        0x4 

.plt            0x0000000000000190       0xa0
 *(.plt)
 .plt           0x0000000000000190       0xa0 c:/devkitpro/devkita64/bin/../lib/gcc/aarch64-none-elf/8.3.0/pic/crti.o
 *(.iplt)
                0x0000000000000230                . = ALIGN (0x8)

.text           0x0000000000000240    0x37fc0
 *(.text.unlikely .text.*_unlikely .text.unlikely.*)
 *(.text.exit .text.exit.*)
 .text.exit     0x0000000000000240       0x38 c:/devkitpro/devkita64/bin/../lib/gcc/aarch64-none-elf/8.3.0/../../../../aarch64-none-elf/lib/pic\libg.a(lib_a-exit.o)
                0x0000000000000240                exit
 *(.text.startup .text.startup.*)
 *fill*         0x0000000000000278        0x8 
 .text.startup  0x0000000000000280      0x53c main.o
                0x0000000000000280                main
 *(.text.hot .text.hot.*)
 *(.text .stub .text.* .gnu.linkonce.t.*)
 *fill*         0x00000000000007bc        0x4 
 .text.deregister_tm_clones
                0x00000000000007c0       0x2c c:/devkitpro/devkita64/bin/../lib/gcc/aarch64-none-elf/8.3.0/pic/crtbegin.o
 *fill*         0x00000000000007ec        0x4 
 .text.register_tm_clones
                0x00000000000007f0       0x38 c:/devkitpro/devkita64/bin/../lib/gcc/aarch64-none-elf/8.3.0/pic/crtbegin.o
 .text.__do_global_dtors_aux
                0x0000000000000828       0x48 c:/devkitpro/devkita64/bin/../lib/gcc/aarch64-none-elf/8.3.0/pic/crtbegin.o
 .text.frame_dummy
                0x0000000000000870       0x34 c:/devkitpro/devkita64/bin/../lib/gcc/aarch64-none-elf/8.3.0/pic/crtbegin.o
 *fill*         0x00000000000008a4        0xc 
 .text          0x00000000000008b0     0xe880 main.o
                0x00000000000008c0                get_command_flag_cat_replace(unsigned long, int)
                0x0000000000000a90                clear_lua_stack_replace(lib::L2CAgent*)
                0x000000000000ef50                replace_scripts(lib::L2CAgent*, unsigned char, int)
                0x000000000000efa0                sv_get_status_func(unsigned long, int, unsigned long)
                0x000000000000eff0                sv_replace_status_func(unsigned long, int, unsigned long, void*)
                0x000000000000f030                script_replacement()
                0x000000000000f090                __libnx_init
                0x000000000000f0e0                __libnx_exit
 .text._ZN6Hash40C2EPKc
                0x000000000000f130       0x90 main.o
                0x000000000000f130                Hash40::Hash40(char const*)
                0x000000000000f130                Hash40::Hash40(char const*)
 .text          0x000000000000f1c0      0xbb8 acmd_wrapper.o
                0x000000000000f1c0                is_before_frame(unsigned long, float)
                0x000000000000f1f0                null_acmd_func(lib::L2CAgent*, void*)
                0x000000000000f200                load_module(unsigned long, unsigned long)
                0x000000000000f210                load_module_impl(unsigned long, unsigned long)
                0x000000000000f220                ACMD::ACMD()
                0x000000000000f220                ACMD::ACMD()
                0x000000000000f230                ACMD::ACMD(char const*, char const*, char const*, char const*, void (*)(ACMD*))
                0x000000000000f230                ACMD::ACMD(char const*, char const*, char const*, char const*, void (*)(ACMD*))
                0x000000000000f250                ACMD::match()
                0x000000000000f2d0                ACMD::nullify_original(lib::L2CAgent*)
                0x000000000000f3a0                ACMD::run(lib::L2CAgent*)
                0x000000000000f490                ACMD::frame(float)
                0x000000000000f4b0                ACMD::wait(float)
                0x000000000000f4c0                ACMD::is_excute()
                0x000000000000f540                ACMD::_frame(float)
                0x000000000000f5d0                ACMD::_frame_reimpl(float)
                0x000000000000f6c0                ACMD::_wait(float)
                0x000000000000f750                ACMD::_is_excute()
                0x000000000000f7f0                ACMD::wrap(void (*)(unsigned long), std::initializer_list<lib::L2CValue>)
                0x000000000000f890                ACMD::ATTACK(unsigned long, unsigned long, unsigned long, float, unsigned long, unsigned long, unsigned long, unsigned long, float, float, float, float, float, float, unsigned long, unsigned long, unsigned long, unsigned long, float, unsigned long, unsigned long, unsigned long, unsigned long, unsigned long, unsigned long, unsigned long, unsigned long, unsigned long, unsigned long, unsigned long, unsigned long, unsigned long, unsigned long)
                0x000000000000fb10                ACMD::ATTACK(unsigned long, unsigned long, unsigned long, float, unsigned long, unsigned long, unsigned long, unsigned long, float, float, float, float, float, float, float, float, float, unsigned long, unsigned long, unsigned long, unsigned long, float, unsigned long, unsigned long, unsigned long, unsigned long, unsigned long, unsigned long, unsigned long, unsigned long, unsigned long, unsigned long, unsigned long, unsigned long, unsigned long, unsigned long)
 *fill*         0x000000000000fd78        0x8 
 .text          0x000000000000fd80      0x124 saltysd_helper.o
                0x000000000000fd80                SaltySD_function_replace(unsigned long, unsigned long)
                0x000000000000fdf0                SaltySD_function_replace_sym(char*, unsigned long)
                0x000000000000fe20                SaltySD_function_replace_sym_check_prev(char*, unsigned long, unsigned long&)
 *fill*         0x000000000000fea4        0xc 
 .text          0x000000000000feb0      0x128 l2c_imports.o
                0x000000000000feb0                lib::lua_const(char const*)
                0x000000000000fef0                lib::L2CValue::L2CValue()
                0x000000000000fef0                lib::L2CValue::L2CValue()
                0x000000000000ff00                lib::L2CValue::L2CValue(bool)
                0x000000000000ff00                lib::L2CValue::L2CValue(bool)
                0x000000000000ff20                lib::L2CValue::L2CValue(int)
                0x000000000000ff20                lib::L2CValue::L2CValue(int)
                0x000000000000ff40                lib::L2CValue::L2CValue(unsigned long)
                0x000000000000ff40                lib::L2CValue::L2CValue(unsigned long)
                0x000000000000ff50                lib::L2CValue::L2CValue(float)
                0x000000000000ff50                lib::L2CValue::L2CValue(float)
                0x000000000000ff60                lib::L2CValue::L2CValue(double)
                0x000000000000ff60                lib::L2CValue::L2CValue(double)
                0x000000000000ff80                lib::L2CValue::L2CValue(char const*)
                0x000000000000ff80                lib::L2CValue::L2CValue(char const*)
                0x000000000000ff90                lib::L2CAgent::get_lua_stack(int, lib::L2CValue*)
                0x000000000000ffa0                lib::L2CAgent::_clear_lua_stack()
 *fill*         0x000000000000ffd8        0x8 
 .text          0x000000000000ffe0      0x350 lua_bind_hash.o
                0x000000000000ffe0                lua_bind_hash(void const*, unsigned long)
                0x0000000000010300                lua_bind_hash_str(char const*)
 .text          0x0000000000010330      0x500 raygun_printer.o
                0x0000000000010330                show_segment(unsigned long, float, float, float, float, float)
                0x0000000000010400                alphabet_index(char)
                0x0000000000010470                print_char(unsigned long, char, int, float, float)
                0x00000000000105d0                print_string(unsigned long, char const*, ...)
 .text.__libnx_exception_entry
                0x0000000000010830      0x1c0 C:/Users/RNG/Desktop/Stuff/Smash-Stuff/SMASH-ULTIMATE-MODS-BABY/50xx-the-mod/acmd-edits/code-mod-framework/lib/libnx_min/nx/lib\libnx_min.a(exception.o)
                0x0000000000010830                __libnx_exception_entry
 .text.__libnx_exception_returnentry
                0x00000000000109f0       0x18 C:/Users/RNG/Desktop/Stuff/Smash-Stuff/SMASH-ULTIMATE-MODS-BABY/50xx-the-mod/acmd-edits/code-mod-framework/lib/libnx_min/nx/lib\libnx_min.a(exception.o)
                0x00000000000109f0                __libnx_exception_returnentry
 *fill*         0x0000000000010a08        0x8 
 .text.argvSetup
                0x0000000000010a10      0x318 C:/Users/RNG/Desktop/Stuff/Smash-Stuff/SMASH-ULTIMATE-MODS-BABY/50xx-the-mod/acmd-edits/code-mod-framework/lib/libnx_min/nx/lib\libnx_min.a(argv.o)
                0x0000000000010a10                argvSetup
 *fill*         0x0000000000010d28        0x8 
 .text.envSetup
                0x0000000000010d30      0x208 C:/Users/RNG/Desktop/Stuff/Smash-Stuff/SMASH-ULTIMATE-MODS-BABY/50xx-the-mod/acmd-edits/code-mod-framework/lib/libnx_min/nx/lib\libnx_min.a(env.o)
                0x0000000000010d30                envSetup
 *fill*         0x0000000000010f38        0x8 
 .text.envGetMainThreadHandle
                0x0000000000010f40       0x20 C:/Users/RNG/Desktop/Stuff/Smash-Stuff/SMASH-ULTIMATE-MODS-BABY/50xx-the-mod/acmd-edits/code-mod-framework/lib/libnx_min/nx/lib\libnx_min.a(env.o)
                0x0000000000010f40                envGetMainThreadHandle
 .text.envIsNso
                0x0000000000010f60        0xc C:/Users/RNG/Desktop/Stuff/Smash-Stuff/SMASH-ULTIMATE-MODS-BABY/50xx-the-mod/acmd-edits/code-mod-framework/lib/libnx_min/nx/lib\libnx_min.a(env.o)
                0x0000000000010f60                envIsNso
 *fill*         0x0000000000010f6c        0x4 
 .text.envHasHeapOverride
                0x0000000000010f70       0x14 C:/Users/RNG/Desktop/Stuff/Smash-Stuff/SMASH-ULTIMATE-MODS-BABY/50xx-the-mod/acmd-edits/code-mod-framework/lib/libnx_min/nx/lib\libnx_min.a(env.o)
                0x0000000000010f70                envHasHeapOverride
 *fill*         0x0000000000010f84        0xc 
 .text.envGetHeapOverrideAddr
                0x0000000000010f90        0xc C:/Users/RNG/Desktop/Stuff/Smash-Stuff/SMASH-ULTIMATE-MODS-BABY/50xx-the-mod/acmd-edits/code-mod-framework/lib/libnx_min/nx/lib\libnx_min.a(env.o)
                0x0000000000010f90                envGetHeapOverrideAddr
 *fill*         0x0000000000010f9c        0x4 
 .text.envGetHeapOverrideSize
                0x0000000000010fa0        0xc C:/Users/RNG/Desktop/Stuff/Smash-Stuff/SMASH-ULTIMATE-MODS-BABY/50xx-the-mod/acmd-edits/code-mod-framework/lib/libnx_min/nx/lib\libnx_min.a(env.o)
                0x0000000000010fa0                envGetHeapOverrideSize
 *fill*         0x0000000000010fac        0x4 
 .text.envHasArgv
                0x0000000000010fb0       0x14 C:/Users/RNG/Desktop/Stuff/Smash-Stuff/SMASH-ULTIMATE-MODS-BABY/50xx-the-mod/acmd-edits/code-mod-framework/lib/libnx_min/nx/lib\libnx_min.a(env.o)
                0x0000000000010fb0                envHasArgv
 *fill*         0x0000000000010fc4        0xc 
 .text.envGetArgv
                0x0000000000010fd0        0xc C:/Users/RNG/Desktop/Stuff/Smash-Stuff/SMASH-ULTIMATE-MODS-BABY/50xx-the-mod/acmd-edits/code-mod-framework/lib/libnx_min/nx/lib\libnx_min.a(env.o)
                0x0000000000010fd0                envGetArgv
 *fill*         0x0000000000010fdc        0x4 
 .text.envIsSyscallHinted
                0x0000000000010fe0       0x20 C:/Users/RNG/Desktop/Stuff/Smash-Stuff/SMASH-ULTIMATE-MODS-BABY/50xx-the-mod/acmd-edits/code-mod-framework/lib/libnx_min/nx/lib\libnx_min.a(env.o)
                0x0000000000010fe0                envIsSyscallHinted
 .text.envGetOwnProcessHandle
                0x0000000000011000        0xc C:/Users/RNG/Desktop/Stuff/Smash-Stuff/SMASH-ULTIMATE-MODS-BABY/50xx-the-mod/acmd-edits/code-mod-framework/lib/libnx_min/nx/lib\libnx_min.a(env.o)
                0x0000000000011000                envGetOwnProcessHandle
 *fill*         0x000000000001100c        0x4 
 .text.envGetExitFuncPtr
                0x0000000000011010        0xc C:/Users/RNG/Desktop/Stuff/Smash-Stuff/SMASH-ULTIMATE-MODS-BABY/50xx-the-mod/acmd-edits/code-mod-framework/lib/libnx_min/nx/lib\libnx_min.a(env.o)
                0x0000000000011010                envGetExitFuncPtr
 *fill*         0x000000000001101c        0x4 
 .text.envSetExitFuncPtr
                0x0000000000011020        0xc C:/Users/RNG/Desktop/Stuff/Smash-Stuff/SMASH-ULTIMATE-MODS-BABY/50xx-the-mod/acmd-edits/code-mod-framework/lib/libnx_min/nx/lib\libnx_min.a(env.o)
                0x0000000000011020                envSetExitFuncPtr
 *fill*         0x000000000001102c        0x4 
 .text.envSetNextLoad
                0x0000000000011030       0x7c C:/Users/RNG/Desktop/Stuff/Smash-Stuff/SMASH-ULTIMATE-MODS-BABY/50xx-the-mod/acmd-edits/code-mod-framework/lib/libnx_min/nx/lib\libnx_min.a(env.o)
                0x0000000000011030                envSetNextLoad
 *fill*         0x00000000000110ac        0x4 
 .text.envHasNextLoad
                0x00000000000110b0       0x14 C:/Users/RNG/Desktop/Stuff/Smash-Stuff/SMASH-ULTIMATE-MODS-BABY/50xx-the-mod/acmd-edits/code-mod-framework/lib/libnx_min/nx/lib\libnx_min.a(env.o)
                0x00000000000110b0                envHasNextLoad
 *fill*         0x00000000000110c4        0xc 
 .text.envGetLastLoadResult
                0x00000000000110d0        0xc C:/Users/RNG/Desktop/Stuff/Smash-Stuff/SMASH-ULTIMATE-MODS-BABY/50xx-the-mod/acmd-edits/code-mod-framework/lib/libnx_min/nx/lib\libnx_min.a(env.o)
                0x00000000000110d0                envGetLastLoadResult
 *fill*         0x00000000000110dc        0x4 
 .text.envHasRandomSeed
                0x00000000000110e0        0xc C:/Users/RNG/Desktop/Stuff/Smash-Stuff/SMASH-ULTIMATE-MODS-BABY/50xx-the-mod/acmd-edits/code-mod-framework/lib/libnx_min/nx/lib\libnx_min.a(env.o)
                0x00000000000110e0                envHasRandomSeed
 *fill*         0x00000000000110ec        0x4 
 .text.envGetRandomSeed
                0x00000000000110f0       0x18 C:/Users/RNG/Desktop/Stuff/Smash-Stuff/SMASH-ULTIMATE-MODS-BABY/50xx-the-mod/acmd-edits/code-mod-framework/lib/libnx_min/nx/lib\libnx_min.a(env.o)
                0x00000000000110f0                envGetRandomSeed
 *fill*         0x0000000000011108        0x8 
 .text.__libnx_initheap
                0x0000000000011110       0xd8 C:/Users/RNG/Desktop/Stuff/Smash-Stuff/SMASH-ULTIMATE-MODS-BABY/50xx-the-mod/acmd-edits/code-mod-framework/lib/libnx_min/nx/lib\libnx_min.a(init.o)
                0x0000000000011110                __libnx_initheap
 *fill*         0x00000000000111e8        0x8 
 .text.__appInit
                0x00000000000111f0       0xdc C:/Users/RNG/Desktop/Stuff/Smash-Stuff/SMASH-ULTIMATE-MODS-BABY/50xx-the-mod/acmd-edits/code-mod-framework/lib/libnx_min/nx/lib\libnx_min.a(init.o)
                0x00000000000111f0                __appInit
 *fill*         0x00000000000112cc        0x4 
 .text.__appExit
                0x00000000000112d0       0x44 C:/Users/RNG/Desktop/Stuff/Smash-Stuff/SMASH-ULTIMATE-MODS-BABY/50xx-the-mod/acmd-edits/code-mod-framework/lib/libnx_min/nx/lib\libnx_min.a(init.o)
                0x00000000000112d0                __appExit
 *fill*         0x0000000000011314        0xc 
 .text.hosversionGet
                0x0000000000011320       0x10 C:/Users/RNG/Desktop/Stuff/Smash-Stuff/SMASH-ULTIMATE-MODS-BABY/50xx-the-mod/acmd-edits/code-mod-framework/lib/libnx_min/nx/lib\libnx_min.a(hosversion.o)
                0x0000000000011320                hosversionGet
 .text.hosversionSet
                0x0000000000011330       0x10 C:/Users/RNG/Desktop/Stuff/Smash-Stuff/SMASH-ULTIMATE-MODS-BABY/50xx-the-mod/acmd-edits/code-mod-framework/lib/libnx_min/nx/lib\libnx_min.a(hosversion.o)
                0x0000000000011330                hosversionSet
 .text.__nx_dynamic
                0x0000000000011340       0xa0 C:/Users/RNG/Desktop/Stuff/Smash-Stuff/SMASH-ULTIMATE-MODS-BABY/50xx-the-mod/acmd-edits/code-mod-framework/lib/libnx_min/nx/lib\libnx_min.a(dynamic.o)
                0x0000000000011340                __nx_dynamic
 .text.fsdev_link
                0x00000000000113e0       0x10 C:/Users/RNG/Desktop/Stuff/Smash-Stuff/SMASH-ULTIMATE-MODS-BABY/50xx-the-mod/acmd-edits/code-mod-framework/lib/libnx_min/nx/lib\libnx_min.a(fs_dev.o)
 .text.fsdev_dirreset
                0x00000000000113f0       0x10 C:/Users/RNG/Desktop/Stuff/Smash-Stuff/SMASH-ULTIMATE-MODS-BABY/50xx-the-mod/acmd-edits/code-mod-framework/lib/libnx_min/nx/lib\libnx_min.a(fs_dev.o)
 .text.fsdev_chmod
                0x0000000000011400       0x10 C:/Users/RNG/Desktop/Stuff/Smash-Stuff/SMASH-ULTIMATE-MODS-BABY/50xx-the-mod/acmd-edits/code-mod-framework/lib/libnx_min/nx/lib\libnx_min.a(fs_dev.o)
 .text.error_cmp
                0x0000000000011410       0x1c C:/Users/RNG/Desktop/Stuff/Smash-Stuff/SMASH-ULTIMATE-MODS-BABY/50xx-the-mod/acmd-edits/code-mod-framework/lib/libnx_min/nx/lib\libnx_min.a(fs_dev.o)
 *fill*         0x000000000001142c        0x4 
 .text.fsdev_translate_error
                0x0000000000011430       0x5c C:/Users/RNG/Desktop/Stuff/Smash-Stuff/SMASH-ULTIMATE-MODS-BABY/50xx-the-mod/acmd-edits/code-mod-framework/lib/libnx_min/nx/lib\libnx_min.a(fs_dev.o)
 *fill*         0x000000000001148c        0x4 
 .text.fsdev_fsync
                0x0000000000011490       0x40 C:/Users/RNG/Desktop/Stuff/Smash-Stuff/SMASH-ULTIMATE-MODS-BABY/50xx-the-mod/acmd-edits/code-mod-framework/lib/libnx_min/nx/lib\libnx_min.a(fs_dev.o)
 .text.fsdev_ftruncate
                0x00000000000114d0       0x60 C:/Users/RNG/Desktop/Stuff/Smash-Stuff/SMASH-ULTIMATE-MODS-BABY/50xx-the-mod/acmd-edits/code-mod-framework/lib/libnx_min/nx/lib\libnx_min.a(fs_dev.o)
 .text.fsdev_dirclose
                0x0000000000011530       0x20 C:/Users/RNG/Desktop/Stuff/Smash-Stuff/SMASH-ULTIMATE-MODS-BABY/50xx-the-mod/acmd-edits/code-mod-framework/lib/libnx_min/nx/lib\libnx_min.a(fs_dev.o)
 .text.fsdev_dirnext
                0x0000000000011550      0x16c C:/Users/RNG/Desktop/Stuff/Smash-Stuff/SMASH-ULTIMATE-MODS-BABY/50xx-the-mod/acmd-edits/code-mod-framework/lib/libnx_min/nx/lib\libnx_min.a(fs_dev.o)
 *fill*         0x00000000000116bc        0x4 
 .text.fsdev_close
                0x00000000000116c0       0x1c C:/Users/RNG/Desktop/Stuff/Smash-Stuff/SMASH-ULTIMATE-MODS-BABY/50xx-the-mod/acmd-edits/code-mod-framework/lib/libnx_min/nx/lib\libnx_min.a(fs_dev.o)
 *fill*         0x00000000000116dc        0x4 
 .text.fsdev_fstat
                0x00000000000116e0       0xa4 C:/Users/RNG/Desktop/Stuff/Smash-Stuff/SMASH-ULTIMATE-MODS-BABY/50xx-the-mod/acmd-edits/code-mod-framework/lib/libnx_min/nx/lib\libnx_min.a(fs_dev.o)
 *fill*         0x0000000000011784        0xc 
 .text.fsdev_seek
                0x0000000000011790       0xb0 C:/Users/RNG/Desktop/Stuff/Smash-Stuff/SMASH-ULTIMATE-MODS-BABY/50xx-the-mod/acmd-edits/code-mod-framework/lib/libnx_min/nx/lib\libnx_min.a(fs_dev.o)
 .text.fsdev_read
                0x0000000000011840      0x1a0 C:/Users/RNG/Desktop/Stuff/Smash-Stuff/SMASH-ULTIMATE-MODS-BABY/50xx-the-mod/acmd-edits/code-mod-framework/lib/libnx_min/nx/lib\libnx_min.a(fs_dev.o)
 .text.fsdev_write
                0x00000000000119e0      0x1a8 C:/Users/RNG/Desktop/Stuff/Smash-Stuff/SMASH-ULTIMATE-MODS-BABY/50xx-the-mod/acmd-edits/code-mod-framework/lib/libnx_min/nx/lib\libnx_min.a(fs_dev.o)
 *fill*         0x0000000000011b88        0x8 
 .text.fsdevFindDevice
                0x0000000000011b90      0x120 C:/Users/RNG/Desktop/Stuff/Smash-Stuff/SMASH-ULTIMATE-MODS-BABY/50xx-the-mod/acmd-edits/code-mod-framework/lib/libnx_min/nx/lib\libnx_min.a(fs_dev.o)
 .text._fsdevMountDevice
                0x0000000000011cb0      0x140 C:/Users/RNG/Desktop/Stuff/Smash-Stuff/SMASH-ULTIMATE-MODS-BABY/50xx-the-mod/acmd-edits/code-mod-framework/lib/libnx_min/nx/lib\libnx_min.a(fs_dev.o)
 .text.fsdev_getfspath
                0x0000000000011df0      0x1fc C:/Users/RNG/Desktop/Stuff/Smash-Stuff/SMASH-ULTIMATE-MODS-BABY/50xx-the-mod/acmd-edits/code-mod-framework/lib/libnx_min/nx/lib\libnx_min.a(fs_dev.o)
 *fill*         0x0000000000011fec        0x4 
 .text.fsdev_rmdir
                0x0000000000011ff0       0x70 C:/Users/RNG/Desktop/Stuff/Smash-Stuff/SMASH-ULTIMATE-MODS-BABY/50xx-the-mod/acmd-edits/code-mod-framework/lib/libnx_min/nx/lib\libnx_min.a(fs_dev.o)
 .text.fsdev_statvfs
                0x0000000000012060       0xd4 C:/Users/RNG/Desktop/Stuff/Smash-Stuff/SMASH-ULTIMATE-MODS-BABY/50xx-the-mod/acmd-edits/code-mod-framework/lib/libnx_min/nx/lib\libnx_min.a(fs_dev.o)
 *fill*         0x0000000000012134        0xc 
 .text.fsdev_diropen
                0x0000000000012140       0xec C:/Users/RNG/Desktop/Stuff/Smash-Stuff/SMASH-ULTIMATE-MODS-BABY/50xx-the-mod/acmd-edits/code-mod-framework/lib/libnx_min/nx/lib\libnx_min.a(fs_dev.o)
 *fill*         0x000000000001222c        0x4 
 .text.fsdev_mkdir
                0x0000000000012230       0x70 C:/Users/RNG/Desktop/Stuff/Smash-Stuff/SMASH-ULTIMATE-MODS-BABY/50xx-the-mod/acmd-edits/code-mod-framework/lib/libnx_min/nx/lib\libnx_min.a(fs_dev.o)
 .text.fsdev_rename
                0x00000000000122a0      0x114 C:/Users/RNG/Desktop/Stuff/Smash-Stuff/SMASH-ULTIMATE-MODS-BABY/50xx-the-mod/acmd-edits/code-mod-framework/lib/libnx_min/nx/lib\libnx_min.a(fs_dev.o)
 *fill*         0x00000000000123b4        0xc 
 .text.fsdev_chdir
                0x00000000000123c0       0xe8 C:/Users/RNG/Desktop/Stuff/Smash-Stuff/SMASH-ULTIMATE-MODS-BABY/50xx-the-mod/acmd-edits/code-mod-framework/lib/libnx_min/nx/lib\libnx_min.a(fs_dev.o)
 *fill*         0x00000000000124a8        0x8 
 .text.fsdev_unlink
                0x00000000000124b0       0x70 C:/Users/RNG/Desktop/Stuff/Smash-Stuff/SMASH-ULTIMATE-MODS-BABY/50xx-the-mod/acmd-edits/code-mod-framework/lib/libnx_min/nx/lib\libnx_min.a(fs_dev.o)
 .text.fsdev_stat
                0x0000000000012520      0x1bc C:/Users/RNG/Desktop/Stuff/Smash-Stuff/SMASH-ULTIMATE-MODS-BABY/50xx-the-mod/acmd-edits/code-mod-framework/lib/libnx_min/nx/lib\libnx_min.a(fs_dev.o)
 *fill*         0x00000000000126dc        0x4 
 .text.fsdev_open
                0x00000000000126e0      0x19c C:/Users/RNG/Desktop/Stuff/Smash-Stuff/SMASH-ULTIMATE-MODS-BABY/50xx-the-mod/acmd-edits/code-mod-framework/lib/libnx_min/nx/lib\libnx_min.a(fs_dev.o)
 *fill*         0x000000000001287c        0x4 
 .text._fsdevUnmountDeviceStruct.part.4
                0x0000000000012880       0xb8 C:/Users/RNG/Desktop/Stuff/Smash-Stuff/SMASH-ULTIMATE-MODS-BABY/50xx-the-mod/acmd-edits/code-mod-framework/lib/libnx_min/nx/lib\libnx_min.a(fs_dev.o)
 *fill*         0x0000000000012938        0x8 
 .text.fsdev_fchmod
                0x0000000000012940       0x10 C:/Users/RNG/Desktop/Stuff/Smash-Stuff/SMASH-ULTIMATE-MODS-BABY/50xx-the-mod/acmd-edits/code-mod-framework/lib/libnx_min/nx/lib\libnx_min.a(fs_dev.o)
 .text.fsdevMountDevice
                0x0000000000012950       0x14 C:/Users/RNG/Desktop/Stuff/Smash-Stuff/SMASH-ULTIMATE-MODS-BABY/50xx-the-mod/acmd-edits/code-mod-framework/lib/libnx_min/nx/lib\libnx_min.a(fs_dev.o)
                0x0000000000012950                fsdevMountDevice
 *fill*         0x0000000000012964        0xc 
 .text.fsdevUnmountDevice
                0x0000000000012970       0x3c C:/Users/RNG/Desktop/Stuff/Smash-Stuff/SMASH-ULTIMATE-MODS-BABY/50xx-the-mod/acmd-edits/code-mod-framework/lib/libnx_min/nx/lib\libnx_min.a(fs_dev.o)
                0x0000000000012970                fsdevUnmountDevice
 *fill*         0x00000000000129ac        0x4 
 .text.fsdevCommitDevice
                0x00000000000129b0       0x28 C:/Users/RNG/Desktop/Stuff/Smash-Stuff/SMASH-ULTIMATE-MODS-BABY/50xx-the-mod/acmd-edits/code-mod-framework/lib/libnx_min/nx/lib\libnx_min.a(fs_dev.o)
                0x00000000000129b0                fsdevCommitDevice
 *fill*         0x00000000000129d8        0x8 
 .text.fsdevSetArchiveBit
                0x00000000000129e0       0x68 C:/Users/RNG/Desktop/Stuff/Smash-Stuff/SMASH-ULTIMATE-MODS-BABY/50xx-the-mod/acmd-edits/code-mod-framework/lib/libnx_min/nx/lib\libnx_min.a(fs_dev.o)
                0x00000000000129e0                fsdevSetArchiveBit
 *fill*         0x0000000000012a48        0x8 
 .text.fsdevCreateFile
                0x0000000000012a50       0x88 C:/Users/RNG/Desktop/Stuff/Smash-Stuff/SMASH-ULTIMATE-MODS-BABY/50xx-the-mod/acmd-edits/code-mod-framework/lib/libnx_min/nx/lib\libnx_min.a(fs_dev.o)
                0x0000000000012a50                fsdevCreateFile
 *fill*         0x0000000000012ad8        0x8 
 .text.fsdevDeleteDirectoryRecursively
                0x0000000000012ae0       0x68 C:/Users/RNG/Desktop/Stuff/Smash-Stuff/SMASH-ULTIMATE-MODS-BABY/50xx-the-mod/acmd-edits/code-mod-framework/lib/libnx_min/nx/lib\libnx_min.a(fs_dev.o)
                0x0000000000012ae0                fsdevDeleteDirectoryRecursively
 *fill*         0x0000000000012b48        0x8 
 .text.fsdevMountSdmc
                0x0000000000012b50      0x170 C:/Users/RNG/Desktop/Stuff/Smash-Stuff/SMASH-ULTIMATE-MODS-BABY/50xx-the-mod/acmd-edits/code-mod-framework/lib/libnx_min/nx/lib\libnx_min.a(fs_dev.o)
                0x0000000000012b50                fsdevMountSdmc
 .text.fsdevUnmountAll
                0x0000000000012cc0       0x64 C:/Users/RNG/Desktop/Stuff/Smash-Stuff/SMASH-ULTIMATE-MODS-BABY/50xx-the-mod/acmd-edits/code-mod-framework/lib/libnx_min/nx/lib\libnx_min.a(fs_dev.o)
                0x0000000000012cc0                fsdevUnmountAll
 *fill*         0x0000000000012d24        0xc 
 .text.fsdevGetDeviceFileSystem
                0x0000000000012d30       0x20 C:/Users/RNG/Desktop/Stuff/Smash-Stuff/SMASH-ULTIMATE-MODS-BABY/50xx-the-mod/acmd-edits/code-mod-framework/lib/libnx_min/nx/lib\libnx_min.a(fs_dev.o)
                0x0000000000012d30                fsdevGetDeviceFileSystem
 .text.fsdevGetDefaultFileSystem
                0x0000000000012d50       0x40 C:/Users/RNG/Desktop/Stuff/Smash-Stuff/SMASH-ULTIMATE-MODS-BABY/50xx-the-mod/acmd-edits/code-mod-framework/lib/libnx_min/nx/lib\libnx_min.a(fs_dev.o)
                0x0000000000012d50                fsdevGetDefaultFileSystem
 .text.fsdevTranslatePath
                0x0000000000012d90       0x58 C:/Users/RNG/Desktop/Stuff/Smash-Stuff/SMASH-ULTIMATE-MODS-BABY/50xx-the-mod/acmd-edits/code-mod-framework/lib/libnx_min/nx/lib\libnx_min.a(fs_dev.o)
                0x0000000000012d90                fsdevTranslatePath
 *fill*         0x0000000000012de8        0x8 
 .text.fsdev_getmtime
                0x0000000000012df0       0x20 C:/Users/RNG/Desktop/Stuff/Smash-Stuff/SMASH-ULTIMATE-MODS-BABY/50xx-the-mod/acmd-edits/code-mod-framework/lib/libnx_min/nx/lib\libnx_min.a(fs_dev.o)
                0x0000000000012df0                fsdev_getmtime
 .text.fsdevGetLastResult
                0x0000000000012e10       0x20 C:/Users/RNG/Desktop/Stuff/Smash-Stuff/SMASH-ULTIMATE-MODS-BABY/50xx-the-mod/acmd-edits/code-mod-framework/lib/libnx_min/nx/lib\libnx_min.a(fs_dev.o)
                0x0000000000012e10                fsdevGetLastResult
 .text.decode_utf8
                0x0000000000012e30      0x12c C:/Users/RNG/Desktop/Stuff/Smash-Stuff/SMASH-ULTIMATE-MODS-BABY/50xx-the-mod/acmd-edits/code-mod-framework/lib/libnx_min/nx/lib\libnx_min.a(decode_utf8.o)
                0x0000000000012e30                decode_utf8
 .text.svcSetHeapSize
                0x0000000000012f5c       0x14 C:/Users/RNG/Desktop/Stuff/Smash-Stuff/SMASH-ULTIMATE-MODS-BABY/50xx-the-mod/acmd-edits/code-mod-framework/lib/libnx_min/nx/lib\libnx_min.a(svc.o)
                0x0000000000012f5c                svcSetHeapSize
 .text.svcSetMemoryPermission
                0x0000000000012f70        0x8 C:/Users/RNG/Desktop/Stuff/Smash-Stuff/SMASH-ULTIMATE-MODS-BABY/50xx-the-mod/acmd-edits/code-mod-framework/lib/libnx_min/nx/lib\libnx_min.a(svc.o)
                0x0000000000012f70                svcSetMemoryPermission
 .text.svcSetMemoryAttribute
                0x0000000000012f78        0x8 C:/Users/RNG/Desktop/Stuff/Smash-Stuff/SMASH-ULTIMATE-MODS-BABY/50xx-the-mod/acmd-edits/code-mod-framework/lib/libnx_min/nx/lib\libnx_min.a(svc.o)
                0x0000000000012f78                svcSetMemoryAttribute
 .text.svcMapMemory
                0x0000000000012f80        0x8 C:/Users/RNG/Desktop/Stuff/Smash-Stuff/SMASH-ULTIMATE-MODS-BABY/50xx-the-mod/acmd-edits/code-mod-framework/lib/libnx_min/nx/lib\libnx_min.a(svc.o)
                0x0000000000012f80                svcMapMemory
 .text.svcUnmapMemory
                0x0000000000012f88        0x8 C:/Users/RNG/Desktop/Stuff/Smash-Stuff/SMASH-ULTIMATE-MODS-BABY/50xx-the-mod/acmd-edits/code-mod-framework/lib/libnx_min/nx/lib\libnx_min.a(svc.o)
                0x0000000000012f88                svcUnmapMemory
 .text.svcQueryMemory
                0x0000000000012f90       0x14 C:/Users/RNG/Desktop/Stuff/Smash-Stuff/SMASH-ULTIMATE-MODS-BABY/50xx-the-mod/acmd-edits/code-mod-framework/lib/libnx_min/nx/lib\libnx_min.a(svc.o)
                0x0000000000012f90                svcQueryMemory
 .text.svcExitProcess
                0x0000000000012fa4        0x8 C:/Users/RNG/Desktop/Stuff/Smash-Stuff/SMASH-ULTIMATE-MODS-BABY/50xx-the-mod/acmd-edits/code-mod-framework/lib/libnx_min/nx/lib\libnx_min.a(svc.o)
                0x0000000000012fa4                svcExitProcess
 .text.svcCreateThread
                0x0000000000012fac       0x14 C:/Users/RNG/Desktop/Stuff/Smash-Stuff/SMASH-ULTIMATE-MODS-BABY/50xx-the-mod/acmd-edits/code-mod-framework/lib/libnx_min/nx/lib\libnx_min.a(svc.o)
                0x0000000000012fac                svcCreateThread
 .text.svcStartThread
                0x0000000000012fc0        0x8 C:/Users/RNG/Desktop/Stuff/Smash-Stuff/SMASH-ULTIMATE-MODS-BABY/50xx-the-mod/acmd-edits/code-mod-framework/lib/libnx_min/nx/lib\libnx_min.a(svc.o)
                0x0000000000012fc0                svcStartThread
 .text.svcExitThread
                0x0000000000012fc8        0x8 C:/Users/RNG/Desktop/Stuff/Smash-Stuff/SMASH-ULTIMATE-MODS-BABY/50xx-the-mod/acmd-edits/code-mod-framework/lib/libnx_min/nx/lib\libnx_min.a(svc.o)
                0x0000000000012fc8                svcExitThread
 .text.svcSleepThread
                0x0000000000012fd0        0x8 C:/Users/RNG/Desktop/Stuff/Smash-Stuff/SMASH-ULTIMATE-MODS-BABY/50xx-the-mod/acmd-edits/code-mod-framework/lib/libnx_min/nx/lib\libnx_min.a(svc.o)
                0x0000000000012fd0                svcSleepThread
 .text.svcGetThreadPriority
                0x0000000000012fd8       0x14 C:/Users/RNG/Desktop/Stuff/Smash-Stuff/SMASH-ULTIMATE-MODS-BABY/50xx-the-mod/acmd-edits/code-mod-framework/lib/libnx_min/nx/lib\libnx_min.a(svc.o)
                0x0000000000012fd8                svcGetThreadPriority
 .text.svcSetThreadPriority
                0x0000000000012fec        0x8 C:/Users/RNG/Desktop/Stuff/Smash-Stuff/SMASH-ULTIMATE-MODS-BABY/50xx-the-mod/acmd-edits/code-mod-framework/lib/libnx_min/nx/lib\libnx_min.a(svc.o)
                0x0000000000012fec                svcSetThreadPriority
 .text.svcGetThreadCoreMask
                0x0000000000012ff4       0x18 C:/Users/RNG/Desktop/Stuff/Smash-Stuff/SMASH-ULTIMATE-MODS-BABY/50xx-the-mod/acmd-edits/code-mod-framework/lib/libnx_min/nx/lib\libnx_min.a(svc.o)
                0x0000000000012ff4                svcGetThreadCoreMask
 .text.svcSetThreadCoreMask
                0x000000000001300c        0x8 C:/Users/RNG/Desktop/Stuff/Smash-Stuff/SMASH-ULTIMATE-MODS-BABY/50xx-the-mod/acmd-edits/code-mod-framework/lib/libnx_min/nx/lib\libnx_min.a(svc.o)
                0x000000000001300c                svcSetThreadCoreMask
 .text.svcGetCurrentProcessorNumber
                0x0000000000013014        0x8 C:/Users/RNG/Desktop/Stuff/Smash-Stuff/SMASH-ULTIMATE-MODS-BABY/50xx-the-mod/acmd-edits/code-mod-framework/lib/libnx_min/nx/lib\libnx_min.a(svc.o)
                0x0000000000013014                svcGetCurrentProcessorNumber
 .text.svcSignalEvent
                0x000000000001301c        0x8 C:/Users/RNG/Desktop/Stuff/Smash-Stuff/SMASH-ULTIMATE-MODS-BABY/50xx-the-mod/acmd-edits/code-mod-framework/lib/libnx_min/nx/lib\libnx_min.a(svc.o)
                0x000000000001301c                svcSignalEvent
 .text.svcClearEvent
                0x0000000000013024        0x8 C:/Users/RNG/Desktop/Stuff/Smash-Stuff/SMASH-ULTIMATE-MODS-BABY/50xx-the-mod/acmd-edits/code-mod-framework/lib/libnx_min/nx/lib\libnx_min.a(svc.o)
                0x0000000000013024                svcClearEvent
 .text.svcMapSharedMemory
                0x000000000001302c        0x8 C:/Users/RNG/Desktop/Stuff/Smash-Stuff/SMASH-ULTIMATE-MODS-BABY/50xx-the-mod/acmd-edits/code-mod-framework/lib/libnx_min/nx/lib\libnx_min.a(svc.o)
                0x000000000001302c                svcMapSharedMemory
 .text.svcUnmapSharedMemory
                0x0000000000013034        0x8 C:/Users/RNG/Desktop/Stuff/Smash-Stuff/SMASH-ULTIMATE-MODS-BABY/50xx-the-mod/acmd-edits/code-mod-framework/lib/libnx_min/nx/lib\libnx_min.a(svc.o)
                0x0000000000013034                svcUnmapSharedMemory
 .text.svcCreateTransferMemory
                0x000000000001303c       0x14 C:/Users/RNG/Desktop/Stuff/Smash-Stuff/SMASH-ULTIMATE-MODS-BABY/50xx-the-mod/acmd-edits/code-mod-framework/lib/libnx_min/nx/lib\libnx_min.a(svc.o)
                0x000000000001303c                svcCreateTransferMemory
 .text.svcCloseHandle
                0x0000000000013050        0x8 C:/Users/RNG/Desktop/Stuff/Smash-Stuff/SMASH-ULTIMATE-MODS-BABY/50xx-the-mod/acmd-edits/code-mod-framework/lib/libnx_min/nx/lib\libnx_min.a(svc.o)
                0x0000000000013050                svcCloseHandle
 .text.svcResetSignal
                0x0000000000013058        0x8 C:/Users/RNG/Desktop/Stuff/Smash-Stuff/SMASH-ULTIMATE-MODS-BABY/50xx-the-mod/acmd-edits/code-mod-framework/lib/libnx_min/nx/lib\libnx_min.a(svc.o)
                0x0000000000013058                svcResetSignal
 .text.svcWaitSynchronization
                0x0000000000013060       0x14 C:/Users/RNG/Desktop/Stuff/Smash-Stuff/SMASH-ULTIMATE-MODS-BABY/50xx-the-mod/acmd-edits/code-mod-framework/lib/libnx_min/nx/lib\libnx_min.a(svc.o)
                0x0000000000013060                svcWaitSynchronization
 .text.svcCancelSynchronization
                0x0000000000013074        0x8 C:/Users/RNG/Desktop/Stuff/Smash-Stuff/SMASH-ULTIMATE-MODS-BABY/50xx-the-mod/acmd-edits/code-mod-framework/lib/libnx_min/nx/lib\libnx_min.a(svc.o)
                0x0000000000013074                svcCancelSynchronization
 .text.svcArbitrateLock
                0x000000000001307c        0x8 C:/Users/RNG/Desktop/Stuff/Smash-Stuff/SMASH-ULTIMATE-MODS-BABY/50xx-the-mod/acmd-edits/code-mod-framework/lib/libnx_min/nx/lib\libnx_min.a(svc.o)
                0x000000000001307c                svcArbitrateLock
 .text.svcArbitrateUnlock
                0x0000000000013084        0x8 C:/Users/RNG/Desktop/Stuff/Smash-Stuff/SMASH-ULTIMATE-MODS-BABY/50xx-the-mod/acmd-edits/code-mod-framework/lib/libnx_min/nx/lib\libnx_min.a(svc.o)
                0x0000000000013084                svcArbitrateUnlock
 .text.svcWaitProcessWideKeyAtomic
                0x000000000001308c        0x8 C:/Users/RNG/Desktop/Stuff/Smash-Stuff/SMASH-ULTIMATE-MODS-BABY/50xx-the-mod/acmd-edits/code-mod-framework/lib/libnx_min/nx/lib\libnx_min.a(svc.o)
                0x000000000001308c                svcWaitProcessWideKeyAtomic
 .text.svcSignalProcessWideKey
                0x0000000000013094        0x8 C:/Users/RNG/Desktop/Stuff/Smash-Stuff/SMASH-ULTIMATE-MODS-BABY/50xx-the-mod/acmd-edits/code-mod-framework/lib/libnx_min/nx/lib\libnx_min.a(svc.o)
                0x0000000000013094                svcSignalProcessWideKey
 .text.svcGetSystemTick
                0x000000000001309c        0x8 C:/Users/RNG/Desktop/Stuff/Smash-Stuff/SMASH-ULTIMATE-MODS-BABY/50xx-the-mod/acmd-edits/code-mod-framework/lib/libnx_min/nx/lib\libnx_min.a(svc.o)
                0x000000000001309c                svcGetSystemTick
 .text.svcConnectToNamedPort
                0x00000000000130a4       0x14 C:/Users/RNG/Desktop/Stuff/Smash-Stuff/SMASH-ULTIMATE-MODS-BABY/50xx-the-mod/acmd-edits/code-mod-framework/lib/libnx_min/nx/lib\libnx_min.a(svc.o)
                0x00000000000130a4                svcConnectToNamedPort
 .text.svcSendSyncRequest
                0x00000000000130b8        0x8 C:/Users/RNG/Desktop/Stuff/Smash-Stuff/SMASH-ULTIMATE-MODS-BABY/50xx-the-mod/acmd-edits/code-mod-framework/lib/libnx_min/nx/lib\libnx_min.a(svc.o)
                0x00000000000130b8                svcSendSyncRequest
 .text.svcSendSyncRequestWithUserBuffer
                0x00000000000130c0        0x8 C:/Users/RNG/Desktop/Stuff/Smash-Stuff/SMASH-ULTIMATE-MODS-BABY/50xx-the-mod/acmd-edits/code-mod-framework/lib/libnx_min/nx/lib\libnx_min.a(svc.o)
                0x00000000000130c0                svcSendSyncRequestWithUserBuffer
 .text.svcSendAsyncRequestWithUserBuffer
                0x00000000000130c8       0x14 C:/Users/RNG/Desktop/Stuff/Smash-Stuff/SMASH-ULTIMATE-MODS-BABY/50xx-the-mod/acmd-edits/code-mod-framework/lib/libnx_min/nx/lib\libnx_min.a(svc.o)
                0x00000000000130c8                svcSendAsyncRequestWithUserBuffer
 .text.svcGetProcessId
                0x00000000000130dc       0x14 C:/Users/RNG/Desktop/Stuff/Smash-Stuff/SMASH-ULTIMATE-MODS-BABY/50xx-the-mod/acmd-edits/code-mod-framework/lib/libnx_min/nx/lib\libnx_min.a(svc.o)
                0x00000000000130dc                svcGetProcessId
 .text.svcGetThreadId
                0x00000000000130f0       0x14 C:/Users/RNG/Desktop/Stuff/Smash-Stuff/SMASH-ULTIMATE-MODS-BABY/50xx-the-mod/acmd-edits/code-mod-framework/lib/libnx_min/nx/lib\libnx_min.a(svc.o)
                0x00000000000130f0                svcGetThreadId
 .text.svcBreak
                0x0000000000013104        0x8 C:/Users/RNG/Desktop/Stuff/Smash-Stuff/SMASH-ULTIMATE-MODS-BABY/50xx-the-mod/acmd-edits/code-mod-framework/lib/libnx_min/nx/lib\libnx_min.a(svc.o)
                0x0000000000013104                svcBreak
 .text.svcOutputDebugString
                0x000000000001310c        0x8 C:/Users/RNG/Desktop/Stuff/Smash-Stuff/SMASH-ULTIMATE-MODS-BABY/50xx-the-mod/acmd-edits/code-mod-framework/lib/libnx_min/nx/lib\libnx_min.a(svc.o)
                0x000000000001310c                svcOutputDebugString
 .text.svcReturnFromException
                0x0000000000013114        0x8 C:/Users/RNG/Desktop/Stuff/Smash-Stuff/SMASH-ULTIMATE-MODS-BABY/50xx-the-mod/acmd-edits/code-mod-framework/lib/libnx_min/nx/lib\libnx_min.a(svc.o)
                0x0000000000013114                svcReturnFromException
 .text.svcGetInfo
                0x000000000001311c       0x14 C:/Users/RNG/Desktop/Stuff/Smash-Stuff/SMASH-ULTIMATE-MODS-BABY/50xx-the-mod/acmd-edits/code-mod-framework/lib/libnx_min/nx/lib\libnx_min.a(svc.o)
                0x000000000001311c                svcGetInfo
 .text.svcMapPhysicalMemory
                0x0000000000013130        0x8 C:/Users/RNG/Desktop/Stuff/Smash-Stuff/SMASH-ULTIMATE-MODS-BABY/50xx-the-mod/acmd-edits/code-mod-framework/lib/libnx_min/nx/lib\libnx_min.a(svc.o)
                0x0000000000013130                svcMapPhysicalMemory
 .text.svcUnmapPhysicalMemory
                0x0000000000013138        0x8 C:/Users/RNG/Desktop/Stuff/Smash-Stuff/SMASH-ULTIMATE-MODS-BABY/50xx-the-mod/acmd-edits/code-mod-framework/lib/libnx_min/nx/lib\libnx_min.a(svc.o)
                0x0000000000013138                svcUnmapPhysicalMemory
 .text.svcGetResourceLimitLimitValue
                0x0000000000013140       0x14 C:/Users/RNG/Desktop/Stuff/Smash-Stuff/SMASH-ULTIMATE-MODS-BABY/50xx-the-mod/acmd-edits/code-mod-framework/lib/libnx_min/nx/lib\libnx_min.a(svc.o)
                0x0000000000013140                svcGetResourceLimitLimitValue
 .text.svcGetResourceLimitCurrentValue
                0x0000000000013154       0x14 C:/Users/RNG/Desktop/Stuff/Smash-Stuff/SMASH-ULTIMATE-MODS-BABY/50xx-the-mod/acmd-edits/code-mod-framework/lib/libnx_min/nx/lib\libnx_min.a(svc.o)
                0x0000000000013154                svcGetResourceLimitCurrentValue
 .text.svcSetThreadActivity
                0x0000000000013168        0x8 C:/Users/RNG/Desktop/Stuff/Smash-Stuff/SMASH-ULTIMATE-MODS-BABY/50xx-the-mod/acmd-edits/code-mod-framework/lib/libnx_min/nx/lib\libnx_min.a(svc.o)
                0x0000000000013168                svcSetThreadActivity
 .text.svcGetThreadContext3
                0x0000000000013170        0x8 C:/Users/RNG/Desktop/Stuff/Smash-Stuff/SMASH-ULTIMATE-MODS-BABY/50xx-the-mod/acmd-edits/code-mod-framework/lib/libnx_min/nx/lib\libnx_min.a(svc.o)
                0x0000000000013170                svcGetThreadContext3
 .text.svcCreateSession
                0x0000000000013178       0x18 C:/Users/RNG/Desktop/Stuff/Smash-Stuff/SMASH-ULTIMATE-MODS-BABY/50xx-the-mod/acmd-edits/code-mod-framework/lib/libnx_min/nx/lib\libnx_min.a(svc.o)
                0x0000000000013178                svcCreateSession
 .text.svcAcceptSession
                0x0000000000013190       0x14 C:/Users/RNG/Desktop/Stuff/Smash-Stuff/SMASH-ULTIMATE-MODS-BABY/50xx-the-mod/acmd-edits/code-mod-framework/lib/libnx_min/nx/lib\libnx_min.a(svc.o)
                0x0000000000013190                svcAcceptSession
 .text.svcReplyAndReceive
                0x00000000000131a4       0x14 C:/Users/RNG/Desktop/Stuff/Smash-Stuff/SMASH-ULTIMATE-MODS-BABY/50xx-the-mod/acmd-edits/code-mod-framework/lib/libnx_min/nx/lib\libnx_min.a(svc.o)
                0x00000000000131a4                svcReplyAndReceive
 .text.svcReplyAndReceiveWithUserBuffer
                0x00000000000131b8       0x14 C:/Users/RNG/Desktop/Stuff/Smash-Stuff/SMASH-ULTIMATE-MODS-BABY/50xx-the-mod/acmd-edits/code-mod-framework/lib/libnx_min/nx/lib\libnx_min.a(svc.o)
                0x00000000000131b8                svcReplyAndReceiveWithUserBuffer
 .text.svcCreateEvent
                0x00000000000131cc       0x18 C:/Users/RNG/Desktop/Stuff/Smash-Stuff/SMASH-ULTIMATE-MODS-BABY/50xx-the-mod/acmd-edits/code-mod-framework/lib/libnx_min/nx/lib\libnx_min.a(svc.o)
                0x00000000000131cc                svcCreateEvent
 .text.svcMapPhysicalMemoryUnsafe
                0x00000000000131e4        0x8 C:/Users/RNG/Desktop/Stuff/Smash-Stuff/SMASH-ULTIMATE-MODS-BABY/50xx-the-mod/acmd-edits/code-mod-framework/lib/libnx_min/nx/lib\libnx_min.a(svc.o)
                0x00000000000131e4                svcMapPhysicalMemoryUnsafe
 .text.svcUnmapPhysicalMemoryUnsafe
                0x00000000000131ec        0x8 C:/Users/RNG/Desktop/Stuff/Smash-Stuff/SMASH-ULTIMATE-MODS-BABY/50xx-the-mod/acmd-edits/code-mod-framework/lib/libnx_min/nx/lib\libnx_min.a(svc.o)
                0x00000000000131ec                svcUnmapPhysicalMemoryUnsafe
 .text.svcSetUnsafeLimit
                0x00000000000131f4        0x8 C:/Users/RNG/Desktop/Stuff/Smash-Stuff/SMASH-ULTIMATE-MODS-BABY/50xx-the-mod/acmd-edits/code-mod-framework/lib/libnx_min/nx/lib\libnx_min.a(svc.o)
                0x00000000000131f4                svcSetUnsafeLimit
 .text.svcCreateCodeMemory
                0x00000000000131fc       0x14 C:/Users/RNG/Desktop/Stuff/Smash-Stuff/SMASH-ULTIMATE-MODS-BABY/50xx-the-mod/acmd-edits/code-mod-framework/lib/libnx_min/nx/lib\libnx_min.a(svc.o)
                0x00000000000131fc                svcCreateCodeMemory
 .text.svcControlCodeMemory
                0x0000000000013210        0x8 C:/Users/RNG/Desktop/Stuff/Smash-Stuff/SMASH-ULTIMATE-MODS-BABY/50xx-the-mod/acmd-edits/code-mod-framework/lib/libnx_min/nx/lib\libnx_min.a(svc.o)
                0x0000000000013210                svcControlCodeMemory
 .text.svcReadWriteRegister
                0x0000000000013218       0x14 C:/Users/RNG/Desktop/Stuff/Smash-Stuff/SMASH-ULTIMATE-MODS-BABY/50xx-the-mod/acmd-edits/code-mod-framework/lib/libnx_min/nx/lib\libnx_min.a(svc.o)
                0x0000000000013218                svcReadWriteRegister
 .text.svcCreateSharedMemory
                0x000000000001322c       0x14 C:/Users/RNG/Desktop/Stuff/Smash-Stuff/SMASH-ULTIMATE-MODS-BABY/50xx-the-mod/acmd-edits/code-mod-framework/lib/libnx_min/nx/lib\libnx_min.a(svc.o)
                0x000000000001322c                svcCreateSharedMemory
 .text.svcMapTransferMemory
                0x0000000000013240        0x8 C:/Users/RNG/Desktop/Stuff/Smash-Stuff/SMASH-ULTIMATE-MODS-BABY/50xx-the-mod/acmd-edits/code-mod-framework/lib/libnx_min/nx/lib\libnx_min.a(svc.o)
                0x0000000000013240                svcMapTransferMemory
 .text.svcUnmapTransferMemory
                0x0000000000013248        0x8 C:/Users/RNG/Desktop/Stuff/Smash-Stuff/SMASH-ULTIMATE-MODS-BABY/50xx-the-mod/acmd-edits/code-mod-framework/lib/libnx_min/nx/lib\libnx_min.a(svc.o)
                0x0000000000013248                svcUnmapTransferMemory
 .text.svcCreateInterruptEvent
                0x0000000000013250       0x14 C:/Users/RNG/Desktop/Stuff/Smash-Stuff/SMASH-ULTIMATE-MODS-BABY/50xx-the-mod/acmd-edits/code-mod-framework/lib/libnx_min/nx/lib\libnx_min.a(svc.o)
                0x0000000000013250                svcCreateInterruptEvent
 .text.svcQueryPhysicalAddress
                0x0000000000013264       0x18 C:/Users/RNG/Desktop/Stuff/Smash-Stuff/SMASH-ULTIMATE-MODS-BABY/50xx-the-mod/acmd-edits/code-mod-framework/lib/libnx_min/nx/lib\libnx_min.a(svc.o)
                0x0000000000013264                svcQueryPhysicalAddress
 .text.svcQueryIoMapping
                0x000000000001327c       0x14 C:/Users/RNG/Desktop/Stuff/Smash-Stuff/SMASH-ULTIMATE-MODS-BABY/50xx-the-mod/acmd-edits/code-mod-framework/lib/libnx_min/nx/lib\libnx_min.a(svc.o)
                0x000000000001327c                svcQueryIoMapping
 .text.svcCreateDeviceAddressSpace
                0x0000000000013290       0x14 C:/Users/RNG/Desktop/Stuff/Smash-Stuff/SMASH-ULTIMATE-MODS-BABY/50xx-the-mod/acmd-edits/code-mod-framework/lib/libnx_min/nx/lib\libnx_min.a(svc.o)
                0x0000000000013290                svcCreateDeviceAddressSpace
 .text.svcAttachDeviceAddressSpace
                0x00000000000132a4        0x8 C:/Users/RNG/Desktop/Stuff/Smash-Stuff/SMASH-ULTIMATE-MODS-BABY/50xx-the-mod/acmd-edits/code-mod-framework/lib/libnx_min/nx/lib\libnx_min.a(svc.o)
                0x00000000000132a4                svcAttachDeviceAddressSpace
 .text.svcDetachDeviceAddressSpace
                0x00000000000132ac        0x8 C:/Users/RNG/Desktop/Stuff/Smash-Stuff/SMASH-ULTIMATE-MODS-BABY/50xx-the-mod/acmd-edits/code-mod-framework/lib/libnx_min/nx/lib\libnx_min.a(svc.o)
                0x00000000000132ac                svcDetachDeviceAddressSpace
 .text.svcMapDeviceAddressSpaceByForce
                0x00000000000132b4        0x8 C:/Users/RNG/Desktop/Stuff/Smash-Stuff/SMASH-ULTIMATE-MODS-BABY/50xx-the-mod/acmd-edits/code-mod-framework/lib/libnx_min/nx/lib\libnx_min.a(svc.o)
                0x00000000000132b4                svcMapDeviceAddressSpaceByForce
 .text.svcMapDeviceAddressSpaceAligned
                0x00000000000132bc        0x8 C:/Users/RNG/Desktop/Stuff/Smash-Stuff/SMASH-ULTIMATE-MODS-BABY/50xx-the-mod/acmd-edits/code-mod-framework/lib/libnx_min/nx/lib\libnx_min.a(svc.o)
                0x00000000000132bc                svcMapDeviceAddressSpaceAligned
 .text.svcUnmapDeviceAddressSpace
                0x00000000000132c4        0x8 C:/Users/RNG/Desktop/Stuff/Smash-Stuff/SMASH-ULTIMATE-MODS-BABY/50xx-the-mod/acmd-edits/code-mod-framework/lib/libnx_min/nx/lib\libnx_min.a(svc.o)
                0x00000000000132c4                svcUnmapDeviceAddressSpace
 .text.svcDebugActiveProcess
                0x00000000000132cc       0x14 C:/Users/RNG/Desktop/Stuff/Smash-Stuff/SMASH-ULTIMATE-MODS-BABY/50xx-the-mod/acmd-edits/code-mod-framework/lib/libnx_min/nx/lib\libnx_min.a(svc.o)
                0x00000000000132cc                svcDebugActiveProcess
 .text.svcBreakDebugProcess
                0x00000000000132e0        0x8 C:/Users/RNG/Desktop/Stuff/Smash-Stuff/SMASH-ULTIMATE-MODS-BABY/50xx-the-mod/acmd-edits/code-mod-framework/lib/libnx_min/nx/lib\libnx_min.a(svc.o)
                0x00000000000132e0                svcBreakDebugProcess
 .text.svcTerminateDebugProcess
                0x00000000000132e8        0x8 C:/Users/RNG/Desktop/Stuff/Smash-Stuff/SMASH-ULTIMATE-MODS-BABY/50xx-the-mod/acmd-edits/code-mod-framework/lib/libnx_min/nx/lib\libnx_min.a(svc.o)
                0x00000000000132e8                svcTerminateDebugProcess
 .text.svcGetDebugEvent
                0x00000000000132f0        0x8 C:/Users/RNG/Desktop/Stuff/Smash-Stuff/SMASH-ULTIMATE-MODS-BABY/50xx-the-mod/acmd-edits/code-mod-framework/lib/libnx_min/nx/lib\libnx_min.a(svc.o)
                0x00000000000132f0                svcGetDebugEvent
 .text.svcLegacyContinueDebugEvent
                0x00000000000132f8        0x8 C:/Users/RNG/Desktop/Stuff/Smash-Stuff/SMASH-ULTIMATE-MODS-BABY/50xx-the-mod/acmd-edits/code-mod-framework/lib/libnx_min/nx/lib\libnx_min.a(svc.o)
                0x00000000000132f8                svcLegacyContinueDebugEvent
 .text.svcContinueDebugEvent
                0x0000000000013300        0x8 C:/Users/RNG/Desktop/Stuff/Smash-Stuff/SMASH-ULTIMATE-MODS-BABY/50xx-the-mod/acmd-edits/code-mod-framework/lib/libnx_min/nx/lib\libnx_min.a(svc.o)
                0x0000000000013300                svcContinueDebugEvent
 .text.svcGetProcessList
                0x0000000000013308       0x14 C:/Users/RNG/Desktop/Stuff/Smash-Stuff/SMASH-ULTIMATE-MODS-BABY/50xx-the-mod/acmd-edits/code-mod-framework/lib/libnx_min/nx/lib\libnx_min.a(svc.o)
                0x0000000000013308                svcGetProcessList
 .text.svcGetThreadList
                0x000000000001331c       0x14 C:/Users/RNG/Desktop/Stuff/Smash-Stuff/SMASH-ULTIMATE-MODS-BABY/50xx-the-mod/acmd-edits/code-mod-framework/lib/libnx_min/nx/lib\libnx_min.a(svc.o)
                0x000000000001331c                svcGetThreadList
 .text.svcGetDebugThreadContext
                0x0000000000013330        0x8 C:/Users/RNG/Desktop/Stuff/Smash-Stuff/SMASH-ULTIMATE-MODS-BABY/50xx-the-mod/acmd-edits/code-mod-framework/lib/libnx_min/nx/lib\libnx_min.a(svc.o)
                0x0000000000013330                svcGetDebugThreadContext
 .text.svcSetDebugThreadContext
                0x0000000000013338        0x8 C:/Users/RNG/Desktop/Stuff/Smash-Stuff/SMASH-ULTIMATE-MODS-BABY/50xx-the-mod/acmd-edits/code-mod-framework/lib/libnx_min/nx/lib\libnx_min.a(svc.o)
                0x0000000000013338                svcSetDebugThreadContext
 .text.svcQueryDebugProcessMemory
                0x0000000000013340       0x14 C:/Users/RNG/Desktop/Stuff/Smash-Stuff/SMASH-ULTIMATE-MODS-BABY/50xx-the-mod/acmd-edits/code-mod-framework/lib/libnx_min/nx/lib\libnx_min.a(svc.o)
                0x0000000000013340                svcQueryDebugProcessMemory
 .text.svcReadDebugProcessMemory
                0x0000000000013354        0x8 C:/Users/RNG/Desktop/Stuff/Smash-Stuff/SMASH-ULTIMATE-MODS-BABY/50xx-the-mod/acmd-edits/code-mod-framework/lib/libnx_min/nx/lib\libnx_min.a(svc.o)
                0x0000000000013354                svcReadDebugProcessMemory
 .text.svcWriteDebugProcessMemory
                0x000000000001335c        0x8 C:/Users/RNG/Desktop/Stuff/Smash-Stuff/SMASH-ULTIMATE-MODS-BABY/50xx-the-mod/acmd-edits/code-mod-framework/lib/libnx_min/nx/lib\libnx_min.a(svc.o)
                0x000000000001335c                svcWriteDebugProcessMemory
 .text.svcGetDebugThreadParam
                0x0000000000013364       0x18 C:/Users/RNG/Desktop/Stuff/Smash-Stuff/SMASH-ULTIMATE-MODS-BABY/50xx-the-mod/acmd-edits/code-mod-framework/lib/libnx_min/nx/lib\libnx_min.a(svc.o)
                0x0000000000013364                svcGetDebugThreadParam
 .text.svcGetSystemInfo
                0x000000000001337c       0x14 C:/Users/RNG/Desktop/Stuff/Smash-Stuff/SMASH-ULTIMATE-MODS-BABY/50xx-the-mod/acmd-edits/code-mod-framework/lib/libnx_min/nx/lib\libnx_min.a(svc.o)
                0x000000000001337c                svcGetSystemInfo
 .text.svcCreatePort
                0x0000000000013390       0x18 C:/Users/RNG/Desktop/Stuff/Smash-Stuff/SMASH-ULTIMATE-MODS-BABY/50xx-the-mod/acmd-edits/code-mod-framework/lib/libnx_min/nx/lib\libnx_min.a(svc.o)
                0x0000000000013390                svcCreatePort
 .text.svcManageNamedPort
                0x00000000000133a8       0x14 C:/Users/RNG/Desktop/Stuff/Smash-Stuff/SMASH-ULTIMATE-MODS-BABY/50xx-the-mod/acmd-edits/code-mod-framework/lib/libnx_min/nx/lib\libnx_min.a(svc.o)
                0x00000000000133a8                svcManageNamedPort
 .text.svcConnectToPort
                0x00000000000133bc       0x14 C:/Users/RNG/Desktop/Stuff/Smash-Stuff/SMASH-ULTIMATE-MODS-BABY/50xx-the-mod/acmd-edits/code-mod-framework/lib/libnx_min/nx/lib\libnx_min.a(svc.o)
                0x00000000000133bc                svcConnectToPort
 .text.svcSetProcessMemoryPermission
                0x00000000000133d0        0x8 C:/Users/RNG/Desktop/Stuff/Smash-Stuff/SMASH-ULTIMATE-MODS-BABY/50xx-the-mod/acmd-edits/code-mod-framework/lib/libnx_min/nx/lib\libnx_min.a(svc.o)
                0x00000000000133d0                svcSetProcessMemoryPermission
 .text.svcMapProcessMemory
                0x00000000000133d8        0x8 C:/Users/RNG/Desktop/Stuff/Smash-Stuff/SMASH-ULTIMATE-MODS-BABY/50xx-the-mod/acmd-edits/code-mod-framework/lib/libnx_min/nx/lib\libnx_min.a(svc.o)
                0x00000000000133d8                svcMapProcessMemory
 .text.svcUnmapProcessMemory
                0x00000000000133e0        0x8 C:/Users/RNG/Desktop/Stuff/Smash-Stuff/SMASH-ULTIMATE-MODS-BABY/50xx-the-mod/acmd-edits/code-mod-framework/lib/libnx_min/nx/lib\libnx_min.a(svc.o)
                0x00000000000133e0                svcUnmapProcessMemory
 .text.svcQueryProcessMemory
                0x00000000000133e8       0x14 C:/Users/RNG/Desktop/Stuff/Smash-Stuff/SMASH-ULTIMATE-MODS-BABY/50xx-the-mod/acmd-edits/code-mod-framework/lib/libnx_min/nx/lib\libnx_min.a(svc.o)
                0x00000000000133e8                svcQueryProcessMemory
 .text.svcMapProcessCodeMemory
                0x00000000000133fc        0x8 C:/Users/RNG/Desktop/Stuff/Smash-Stuff/SMASH-ULTIMATE-MODS-BABY/50xx-the-mod/acmd-edits/code-mod-framework/lib/libnx_min/nx/lib\libnx_min.a(svc.o)
                0x00000000000133fc                svcMapProcessCodeMemory
 .text.svcUnmapProcessCodeMemory
                0x0000000000013404        0x8 C:/Users/RNG/Desktop/Stuff/Smash-Stuff/SMASH-ULTIMATE-MODS-BABY/50xx-the-mod/acmd-edits/code-mod-framework/lib/libnx_min/nx/lib\libnx_min.a(svc.o)
                0x0000000000013404                svcUnmapProcessCodeMemory
 .text.svcCreateProcess
                0x000000000001340c       0x14 C:/Users/RNG/Desktop/Stuff/Smash-Stuff/SMASH-ULTIMATE-MODS-BABY/50xx-the-mod/acmd-edits/code-mod-framework/lib/libnx_min/nx/lib\libnx_min.a(svc.o)
                0x000000000001340c                svcCreateProcess
 .text.svcStartProcess
                0x0000000000013420        0x8 C:/Users/RNG/Desktop/Stuff/Smash-Stuff/SMASH-ULTIMATE-MODS-BABY/50xx-the-mod/acmd-edits/code-mod-framework/lib/libnx_min/nx/lib\libnx_min.a(svc.o)
                0x0000000000013420                svcStartProcess
 .text.svcTerminateProcess
                0x0000000000013428        0x8 C:/Users/RNG/Desktop/Stuff/Smash-Stuff/SMASH-ULTIMATE-MODS-BABY/50xx-the-mod/acmd-edits/code-mod-framework/lib/libnx_min/nx/lib\libnx_min.a(svc.o)
                0x0000000000013428                svcTerminateProcess
 .text.svcGetProcessInfo
                0x0000000000013430       0x14 C:/Users/RNG/Desktop/Stuff/Smash-Stuff/SMASH-ULTIMATE-MODS-BABY/50xx-the-mod/acmd-edits/code-mod-framework/lib/libnx_min/nx/lib\libnx_min.a(svc.o)
                0x0000000000013430                svcGetProcessInfo
 .text.svcCreateResourceLimit
                0x0000000000013444       0x14 C:/Users/RNG/Desktop/Stuff/Smash-Stuff/SMASH-ULTIMATE-MODS-BABY/50xx-the-mod/acmd-edits/code-mod-framework/lib/libnx_min/nx/lib\libnx_min.a(svc.o)
                0x0000000000013444                svcCreateResourceLimit
 .text.svcSetResourceLimitLimitValue
                0x0000000000013458        0x8 C:/Users/RNG/Desktop/Stuff/Smash-Stuff/SMASH-ULTIMATE-MODS-BABY/50xx-the-mod/acmd-edits/code-mod-framework/lib/libnx_min/nx/lib\libnx_min.a(svc.o)
                0x0000000000013458                svcSetResourceLimitLimitValue
 .text.svcCallSecureMonitor
                0x0000000000013460       0x34 C:/Users/RNG/Desktop/Stuff/Smash-Stuff/SMASH-ULTIMATE-MODS-BABY/50xx-the-mod/acmd-edits/code-mod-framework/lib/libnx_min/nx/lib\libnx_min.a(svc.o)
                0x0000000000013460                svcCallSecureMonitor
 .text.__aarch64_read_tp
                0x0000000000013494        0xc C:/Users/RNG/Desktop/Stuff/Smash-Stuff/SMASH-ULTIMATE-MODS-BABY/50xx-the-mod/acmd-edits/code-mod-framework/lib/libnx_min/nx/lib\libnx_min.a(readtp.o)
                0x0000000000013494                __aarch64_read_tp
 .text._GetRegionFromInfo.isra.1
                0x00000000000134a0       0x7c C:/Users/RNG/Desktop/Stuff/Smash-Stuff/SMASH-ULTIMATE-MODS-BABY/50xx-the-mod/acmd-edits/code-mod-framework/lib/libnx_min/nx/lib\libnx_min.a(virtmem.o)
 *fill*         0x000000000001351c        0x4 
 .text.virtmemSetup
                0x0000000000013520      0x114 C:/Users/RNG/Desktop/Stuff/Smash-Stuff/SMASH-ULTIMATE-MODS-BABY/50xx-the-mod/acmd-edits/code-mod-framework/lib/libnx_min/nx/lib\libnx_min.a(virtmem.o)
                0x0000000000013520                virtmemSetup
 *fill*         0x0000000000013634        0xc 
 .text.virtmemReserve
                0x0000000000013640      0x13c C:/Users/RNG/Desktop/Stuff/Smash-Stuff/SMASH-ULTIMATE-MODS-BABY/50xx-the-mod/acmd-edits/code-mod-framework/lib/libnx_min/nx/lib\libnx_min.a(virtmem.o)
                0x0000000000013640                virtmemReserve
 *fill*         0x000000000001377c        0x4 
 .text.virtmemFree
                0x0000000000013780        0x4 C:/Users/RNG/Desktop/Stuff/Smash-Stuff/SMASH-ULTIMATE-MODS-BABY/50xx-the-mod/acmd-edits/code-mod-framework/lib/libnx_min/nx/lib\libnx_min.a(virtmem.o)
                0x0000000000013780                virtmemFree
 *fill*         0x0000000000013784        0xc 
 .text.virtmemReserveStack
                0x0000000000013790       0xc8 C:/Users/RNG/Desktop/Stuff/Smash-Stuff/SMASH-ULTIMATE-MODS-BABY/50xx-the-mod/acmd-edits/code-mod-framework/lib/libnx_min/nx/lib\libnx_min.a(virtmem.o)
                0x0000000000013790                virtmemReserveStack
 *fill*         0x0000000000013858        0x8 
 .text.virtmemFreeStack
                0x0000000000013860        0x4 C:/Users/RNG/Desktop/Stuff/Smash-Stuff/SMASH-ULTIMATE-MODS-BABY/50xx-the-mod/acmd-edits/code-mod-framework/lib/libnx_min/nx/lib\libnx_min.a(virtmem.o)
                0x0000000000013860                virtmemFreeStack
 *fill*         0x0000000000013864        0xc 
 .text.mutexLock
                0x0000000000013870       0x8c C:/Users/RNG/Desktop/Stuff/Smash-Stuff/SMASH-ULTIMATE-MODS-BABY/50xx-the-mod/acmd-edits/code-mod-framework/lib/libnx_min/nx/lib\libnx_min.a(mutex.o)
                0x0000000000013870                mutexLock
 *fill*         0x00000000000138fc        0x4 
 .text.mutexTryLock
                0x0000000000013900       0x34 C:/Users/RNG/Desktop/Stuff/Smash-Stuff/SMASH-ULTIMATE-MODS-BABY/50xx-the-mod/acmd-edits/code-mod-framework/lib/libnx_min/nx/lib\libnx_min.a(mutex.o)
                0x0000000000013900                mutexTryLock
 *fill*         0x0000000000013934        0xc 
 .text.mutexUnlock
                0x0000000000013940       0x30 C:/Users/RNG/Desktop/Stuff/Smash-Stuff/SMASH-ULTIMATE-MODS-BABY/50xx-the-mod/acmd-edits/code-mod-framework/lib/libnx_min/nx/lib\libnx_min.a(mutex.o)
                0x0000000000013940                mutexUnlock
 .text.rmutexLock
                0x0000000000013970       0x4c C:/Users/RNG/Desktop/Stuff/Smash-Stuff/SMASH-ULTIMATE-MODS-BABY/50xx-the-mod/acmd-edits/code-mod-framework/lib/libnx_min/nx/lib\libnx_min.a(mutex.o)
                0x0000000000013970                rmutexLock
 *fill*         0x00000000000139bc        0x4 
 .text.rmutexTryLock
                0x00000000000139c0       0x5c C:/Users/RNG/Desktop/Stuff/Smash-Stuff/SMASH-ULTIMATE-MODS-BABY/50xx-the-mod/acmd-edits/code-mod-framework/lib/libnx_min/nx/lib\libnx_min.a(mutex.o)
                0x00000000000139c0                rmutexTryLock
 *fill*         0x0000000000013a1c        0x4 
 .text.rmutexUnlock
                0x0000000000013a20       0x1c C:/Users/RNG/Desktop/Stuff/Smash-Stuff/SMASH-ULTIMATE-MODS-BABY/50xx-the-mod/acmd-edits/code-mod-framework/lib/libnx_min/nx/lib\libnx_min.a(mutex.o)
                0x0000000000013a20                rmutexUnlock
 *fill*         0x0000000000013a3c        0x4 
 .text.ipcPrepareHeader
                0x0000000000013a40      0x220 C:/Users/RNG/Desktop/Stuff/Smash-Stuff/SMASH-ULTIMATE-MODS-BABY/50xx-the-mod/acmd-edits/code-mod-framework/lib/libnx_min/nx/lib\libnx_min.a(fs.o)
 .text.ipcParse
                0x0000000000013c60      0x22c C:/Users/RNG/Desktop/Stuff/Smash-Stuff/SMASH-ULTIMATE-MODS-BABY/50xx-the-mod/acmd-edits/code-mod-framework/lib/libnx_min/nx/lib\libnx_min.a(fs.o)
 *fill*         0x0000000000013e8c        0x4 
 .text.serviceIpcParse
                0x0000000000013e90       0xb0 C:/Users/RNG/Desktop/Stuff/Smash-Stuff/SMASH-ULTIMATE-MODS-BABY/50xx-the-mod/acmd-edits/code-mod-framework/lib/libnx_min/nx/lib\libnx_min.a(fs.o)
 .text.ipcCloseObjectById
                0x0000000000013f40       0x34 C:/Users/RNG/Desktop/Stuff/Smash-Stuff/SMASH-ULTIMATE-MODS-BABY/50xx-the-mod/acmd-edits/code-mod-framework/lib/libnx_min/nx/lib\libnx_min.a(fs.o)
 *fill*         0x0000000000013f74        0xc 
 .text._fsDeviceOperatorCheckInserted
                0x0000000000013f80      0x19c C:/Users/RNG/Desktop/Stuff/Smash-Stuff/SMASH-ULTIMATE-MODS-BABY/50xx-the-mod/acmd-edits/code-mod-framework/lib/libnx_min/nx/lib\libnx_min.a(fs.o)
 *fill*         0x000000000001411c        0x4 
 .text.fsFsQueryEntry.part.12
                0x0000000000014120      0x274 C:/Users/RNG/Desktop/Stuff/Smash-Stuff/SMASH-ULTIMATE-MODS-BABY/50xx-the-mod/acmd-edits/code-mod-framework/lib/libnx_min/nx/lib\libnx_min.a(fs.o)
 *fill*         0x0000000000014394        0xc 
 .text.fsInitialize
                0x00000000000143a0      0x200 C:/Users/RNG/Desktop/Stuff/Smash-Stuff/SMASH-ULTIMATE-MODS-BABY/50xx-the-mod/acmd-edits/code-mod-framework/lib/libnx_min/nx/lib\libnx_min.a(fs.o)
                0x00000000000143a0                fsInitialize
 .text.fsExit   0x00000000000145a0       0x9c C:/Users/RNG/Desktop/Stuff/Smash-Stuff/SMASH-ULTIMATE-MODS-BABY/50xx-the-mod/acmd-edits/code-mod-framework/lib/libnx_min/nx/lib\libnx_min.a(fs.o)
                0x00000000000145a0                fsExit
 *fill*         0x000000000001463c        0x4 
 .text.fsGetServiceSession
                0x0000000000014640        0xc C:/Users/RNG/Desktop/Stuff/Smash-Stuff/SMASH-ULTIMATE-MODS-BABY/50xx-the-mod/acmd-edits/code-mod-framework/lib/libnx_min/nx/lib\libnx_min.a(fs.o)
                0x0000000000014640                fsGetServiceSession
 *fill*         0x000000000001464c        0x4 
 .text.fsOpenBisStorage
                0x0000000000014650      0x1ec C:/Users/RNG/Desktop/Stuff/Smash-Stuff/SMASH-ULTIMATE-MODS-BABY/50xx-the-mod/acmd-edits/code-mod-framework/lib/libnx_min/nx/lib\libnx_min.a(fs.o)
                0x0000000000014650                fsOpenBisStorage
 *fill*         0x000000000001483c        0x4 
 .text.fsOpenBisFileSystem
                0x0000000000014840      0x170 C:/Users/RNG/Desktop/Stuff/Smash-Stuff/SMASH-ULTIMATE-MODS-BABY/50xx-the-mod/acmd-edits/code-mod-framework/lib/libnx_min/nx/lib\libnx_min.a(fs.o)
                0x0000000000014840                fsOpenBisFileSystem
 .text.fsMountSdcard
                0x00000000000149b0      0x1cc C:/Users/RNG/Desktop/Stuff/Smash-Stuff/SMASH-ULTIMATE-MODS-BABY/50xx-the-mod/acmd-edits/code-mod-framework/lib/libnx_min/nx/lib\libnx_min.a(fs.o)
                0x00000000000149b0                fsMountSdcard
 *fill*         0x0000000000014b7c        0x4 
 .text.fsMountSaveData
                0x0000000000014b80      0x208 C:/Users/RNG/Desktop/Stuff/Smash-Stuff/SMASH-ULTIMATE-MODS-BABY/50xx-the-mod/acmd-edits/code-mod-framework/lib/libnx_min/nx/lib\libnx_min.a(fs.o)
                0x0000000000014b80                fsMountSaveData
 *fill*         0x0000000000014d88        0x8 
 .text.fsMountSystemSaveData
                0x0000000000014d90      0x208 C:/Users/RNG/Desktop/Stuff/Smash-Stuff/SMASH-ULTIMATE-MODS-BABY/50xx-the-mod/acmd-edits/code-mod-framework/lib/libnx_min/nx/lib\libnx_min.a(fs.o)
                0x0000000000014d90                fsMountSystemSaveData
 *fill*         0x0000000000014f98        0x8 
 .text.fsOpenSaveDataIterator
                0x0000000000014fa0      0x1e0 C:/Users/RNG/Desktop/Stuff/Smash-Stuff/SMASH-ULTIMATE-MODS-BABY/50xx-the-mod/acmd-edits/code-mod-framework/lib/libnx_min/nx/lib\libnx_min.a(fs.o)
                0x0000000000014fa0                fsOpenSaveDataIterator
 .text.fsOpenContentStorageFileSystem
                0x0000000000015180      0x1d4 C:/Users/RNG/Desktop/Stuff/Smash-Stuff/SMASH-ULTIMATE-MODS-BABY/50xx-the-mod/acmd-edits/code-mod-framework/lib/libnx_min/nx/lib\libnx_min.a(fs.o)
                0x0000000000015180                fsOpenContentStorageFileSystem
 *fill*         0x0000000000015354        0xc 
 .text.fsOpenDataStorageByCurrentProcess
                0x0000000000015360      0x1cc C:/Users/RNG/Desktop/Stuff/Smash-Stuff/SMASH-ULTIMATE-MODS-BABY/50xx-the-mod/acmd-edits/code-mod-framework/lib/libnx_min/nx/lib\libnx_min.a(fs.o)
                0x0000000000015360                fsOpenDataStorageByCurrentProcess
 *fill*         0x000000000001552c        0x4 
 .text.fsOpenDataStorageByDataId
                0x0000000000015530      0x200 C:/Users/RNG/Desktop/Stuff/Smash-Stuff/SMASH-ULTIMATE-MODS-BABY/50xx-the-mod/acmd-edits/code-mod-framework/lib/libnx_min/nx/lib\libnx_min.a(fs.o)
                0x0000000000015530                fsOpenDataStorageByDataId
 .text.fsOpenDeviceOperator
                0x0000000000015730      0x1cc C:/Users/RNG/Desktop/Stuff/Smash-Stuff/SMASH-ULTIMATE-MODS-BABY/50xx-the-mod/acmd-edits/code-mod-framework/lib/libnx_min/nx/lib\libnx_min.a(fs.o)
                0x0000000000015730                fsOpenDeviceOperator
 *fill*         0x00000000000158fc        0x4 
 .text.fsOpenSdCardDetectionEventNotifier
                0x0000000000015900      0x1cc C:/Users/RNG/Desktop/Stuff/Smash-Stuff/SMASH-ULTIMATE-MODS-BABY/50xx-the-mod/acmd-edits/code-mod-framework/lib/libnx_min/nx/lib\libnx_min.a(fs.o)
                0x0000000000015900                fsOpenSdCardDetectionEventNotifier
 *fill*         0x0000000000015acc        0x4 
 .text.fsGetRightsIdByPath
                0x0000000000015ad0      0x174 C:/Users/RNG/Desktop/Stuff/Smash-Stuff/SMASH-ULTIMATE-MODS-BABY/50xx-the-mod/acmd-edits/code-mod-framework/lib/libnx_min/nx/lib\libnx_min.a(fs.o)
                0x0000000000015ad0                fsGetRightsIdByPath
 *fill*         0x0000000000015c44        0xc 
 .text.fsGetRightsIdAndKeyGenerationByPath
                0x0000000000015c50      0x184 C:/Users/RNG/Desktop/Stuff/Smash-Stuff/SMASH-ULTIMATE-MODS-BABY/50xx-the-mod/acmd-edits/code-mod-framework/lib/libnx_min/nx/lib\libnx_min.a(fs.o)
                0x0000000000015c50                fsGetRightsIdAndKeyGenerationByPath
 *fill*         0x0000000000015dd4        0xc 
 .text.fsIsExFatSupported
                0x0000000000015de0      0x138 C:/Users/RNG/Desktop/Stuff/Smash-Stuff/SMASH-ULTIMATE-MODS-BABY/50xx-the-mod/acmd-edits/code-mod-framework/lib/libnx_min/nx/lib\libnx_min.a(fs.o)
                0x0000000000015de0                fsIsExFatSupported
 *fill*         0x0000000000015f18        0x8 
 .text.fsMount_SaveData
                0x0000000000015f20       0x3c C:/Users/RNG/Desktop/Stuff/Smash-Stuff/SMASH-ULTIMATE-MODS-BABY/50xx-the-mod/acmd-edits/code-mod-framework/lib/libnx_min/nx/lib\libnx_min.a(fs.o)
                0x0000000000015f20                fsMount_SaveData
 *fill*         0x0000000000015f5c        0x4 
 .text.fsMount_SystemSaveData
                0x0000000000015f60       0x30 C:/Users/RNG/Desktop/Stuff/Smash-Stuff/SMASH-ULTIMATE-MODS-BABY/50xx-the-mod/acmd-edits/code-mod-framework/lib/libnx_min/nx/lib\libnx_min.a(fs.o)
                0x0000000000015f60                fsMount_SystemSaveData
 .text.fsOpenFileSystemWithId
                0x0000000000015f90      0x248 C:/Users/RNG/Desktop/Stuff/Smash-Stuff/SMASH-ULTIMATE-MODS-BABY/50xx-the-mod/acmd-edits/code-mod-framework/lib/libnx_min/nx/lib\libnx_min.a(fs.o)
                0x0000000000015f90                fsOpenFileSystemWithId
 *fill*         0x00000000000161d8        0x8 
 .text.fsOpenFileSystem
                0x00000000000161e0       0x10 C:/Users/RNG/Desktop/Stuff/Smash-Stuff/SMASH-ULTIMATE-MODS-BABY/50xx-the-mod/acmd-edits/code-mod-framework/lib/libnx_min/nx/lib\libnx_min.a(fs.o)
                0x00000000000161e0                fsOpenFileSystem
 .text.fsOpenFileSystemWithPatch
                0x00000000000161f0      0x184 C:/Users/RNG/Desktop/Stuff/Smash-Stuff/SMASH-ULTIMATE-MODS-BABY/50xx-the-mod/acmd-edits/code-mod-framework/lib/libnx_min/nx/lib\libnx_min.a(fs.o)
                0x00000000000161f0                fsOpenFileSystemWithPatch
 *fill*         0x0000000000016374        0xc 
 .text.fsFsCreateFile
                0x0000000000016380      0x1a4 C:/Users/RNG/Desktop/Stuff/Smash-Stuff/SMASH-ULTIMATE-MODS-BABY/50xx-the-mod/acmd-edits/code-mod-framework/lib/libnx_min/nx/lib\libnx_min.a(fs.o)
                0x0000000000016380                fsFsCreateFile
 *fill*         0x0000000000016524        0xc 
 .text.fsFsDeleteFile
                0x0000000000016530      0x19c C:/Users/RNG/Desktop/Stuff/Smash-Stuff/SMASH-ULTIMATE-MODS-BABY/50xx-the-mod/acmd-edits/code-mod-framework/lib/libnx_min/nx/lib\libnx_min.a(fs.o)
                0x0000000000016530                fsFsDeleteFile
 *fill*         0x00000000000166cc        0x4 
 .text.fsFsCreateDirectory
                0x00000000000166d0      0x19c C:/Users/RNG/Desktop/Stuff/Smash-Stuff/SMASH-ULTIMATE-MODS-BABY/50xx-the-mod/acmd-edits/code-mod-framework/lib/libnx_min/nx/lib\libnx_min.a(fs.o)
                0x00000000000166d0                fsFsCreateDirectory
 *fill*         0x000000000001686c        0x4 
 .text.fsFsDeleteDirectory
                0x0000000000016870      0x19c C:/Users/RNG/Desktop/Stuff/Smash-Stuff/SMASH-ULTIMATE-MODS-BABY/50xx-the-mod/acmd-edits/code-mod-framework/lib/libnx_min/nx/lib\libnx_min.a(fs.o)
                0x0000000000016870                fsFsDeleteDirectory
 *fill*         0x0000000000016a0c        0x4 
 .text.fsFsDeleteDirectoryRecursively
                0x0000000000016a10      0x19c C:/Users/RNG/Desktop/Stuff/Smash-Stuff/SMASH-ULTIMATE-MODS-BABY/50xx-the-mod/acmd-edits/code-mod-framework/lib/libnx_min/nx/lib\libnx_min.a(fs.o)
                0x0000000000016a10                fsFsDeleteDirectoryRecursively
 *fill*         0x0000000000016bac        0x4 
 .text.fsFsRenameFile
                0x0000000000016bb0      0x214 C:/Users/RNG/Desktop/Stuff/Smash-Stuff/SMASH-ULTIMATE-MODS-BABY/50xx-the-mod/acmd-edits/code-mod-framework/lib/libnx_min/nx/lib\libnx_min.a(fs.o)
                0x0000000000016bb0                fsFsRenameFile
 *fill*         0x0000000000016dc4        0xc 
 .text.fsFsRenameDirectory
                0x0000000000016dd0      0x214 C:/Users/RNG/Desktop/Stuff/Smash-Stuff/SMASH-ULTIMATE-MODS-BABY/50xx-the-mod/acmd-edits/code-mod-framework/lib/libnx_min/nx/lib\libnx_min.a(fs.o)
                0x0000000000016dd0                fsFsRenameDirectory
 *fill*         0x0000000000016fe4        0xc 
 .text.fsFsGetEntryType
                0x0000000000016ff0      0x1b0 C:/Users/RNG/Desktop/Stuff/Smash-Stuff/SMASH-ULTIMATE-MODS-BABY/50xx-the-mod/acmd-edits/code-mod-framework/lib/libnx_min/nx/lib\libnx_min.a(fs.o)
                0x0000000000016ff0                fsFsGetEntryType
 .text.fsFsOpenFile
                0x00000000000171a0      0x1e4 C:/Users/RNG/Desktop/Stuff/Smash-Stuff/SMASH-ULTIMATE-MODS-BABY/50xx-the-mod/acmd-edits/code-mod-framework/lib/libnx_min/nx/lib\libnx_min.a(fs.o)
                0x00000000000171a0                fsFsOpenFile
 *fill*         0x0000000000017384        0xc 
 .text.fsFsOpenDirectory
                0x0000000000017390      0x1f8 C:/Users/RNG/Desktop/Stuff/Smash-Stuff/SMASH-ULTIMATE-MODS-BABY/50xx-the-mod/acmd-edits/code-mod-framework/lib/libnx_min/nx/lib\libnx_min.a(fs.o)
                0x0000000000017390                fsFsOpenDirectory
 *fill*         0x0000000000017588        0x8 
 .text.fsFsCommit
                0x0000000000017590      0x17c C:/Users/RNG/Desktop/Stuff/Smash-Stuff/SMASH-ULTIMATE-MODS-BABY/50xx-the-mod/acmd-edits/code-mod-framework/lib/libnx_min/nx/lib\libnx_min.a(fs.o)
                0x0000000000017590                fsFsCommit
 *fill*         0x000000000001770c        0x4 
 .text.fsFsGetFreeSpace
                0x0000000000017710      0x1b0 C:/Users/RNG/Desktop/Stuff/Smash-Stuff/SMASH-ULTIMATE-MODS-BABY/50xx-the-mod/acmd-edits/code-mod-framework/lib/libnx_min/nx/lib\libnx_min.a(fs.o)
                0x0000000000017710                fsFsGetFreeSpace
 .text.fsFsGetTotalSpace
                0x00000000000178c0      0x1b0 C:/Users/RNG/Desktop/Stuff/Smash-Stuff/SMASH-ULTIMATE-MODS-BABY/50xx-the-mod/acmd-edits/code-mod-framework/lib/libnx_min/nx/lib\libnx_min.a(fs.o)
                0x00000000000178c0                fsFsGetTotalSpace
 .text.fsFsCleanDirectoryRecursively
                0x0000000000017a70      0x140 C:/Users/RNG/Desktop/Stuff/Smash-Stuff/SMASH-ULTIMATE-MODS-BABY/50xx-the-mod/acmd-edits/code-mod-framework/lib/libnx_min/nx/lib\libnx_min.a(fs.o)
                0x0000000000017a70                fsFsCleanDirectoryRecursively
 .text.fsFsGetFileTimeStampRaw
                0x0000000000017bb0      0x194 C:/Users/RNG/Desktop/Stuff/Smash-Stuff/SMASH-ULTIMATE-MODS-BABY/50xx-the-mod/acmd-edits/code-mod-framework/lib/libnx_min/nx/lib\libnx_min.a(fs.o)
                0x0000000000017bb0                fsFsGetFileTimeStampRaw
 *fill*         0x0000000000017d44        0xc 
 .text.fsFsQueryEntry
                0x0000000000017d50       0x60 C:/Users/RNG/Desktop/Stuff/Smash-Stuff/SMASH-ULTIMATE-MODS-BABY/50xx-the-mod/acmd-edits/code-mod-framework/lib/libnx_min/nx/lib\libnx_min.a(fs.o)
                0x0000000000017d50                fsFsQueryEntry
 .text.fsFsSetArchiveBit
                0x0000000000017db0       0x1c C:/Users/RNG/Desktop/Stuff/Smash-Stuff/SMASH-ULTIMATE-MODS-BABY/50xx-the-mod/acmd-edits/code-mod-framework/lib/libnx_min/nx/lib\libnx_min.a(fs.o)
                0x0000000000017db0                fsFsSetArchiveBit
 *fill*         0x0000000000017dcc        0x4 
 .text.fsFsClose
                0x0000000000017dd0       0x6c C:/Users/RNG/Desktop/Stuff/Smash-Stuff/SMASH-ULTIMATE-MODS-BABY/50xx-the-mod/acmd-edits/code-mod-framework/lib/libnx_min/nx/lib\libnx_min.a(fs.o)
                0x0000000000017dd0                fsFsClose
 *fill*         0x0000000000017e3c        0x4 
 .text.fsFileRead
                0x0000000000017e40      0x1f8 C:/Users/RNG/Desktop/Stuff/Smash-Stuff/SMASH-ULTIMATE-MODS-BABY/50xx-the-mod/acmd-edits/code-mod-framework/lib/libnx_min/nx/lib\libnx_min.a(fs.o)
                0x0000000000017e40                fsFileRead
 *fill*         0x0000000000018038        0x8 
 .text.fsFileWrite
                0x0000000000018040      0x1cc C:/Users/RNG/Desktop/Stuff/Smash-Stuff/SMASH-ULTIMATE-MODS-BABY/50xx-the-mod/acmd-edits/code-mod-framework/lib/libnx_min/nx/lib\libnx_min.a(fs.o)
                0x0000000000018040                fsFileWrite
 *fill*         0x000000000001820c        0x4 
 .text.fsFileFlush
                0x0000000000018210      0x17c C:/Users/RNG/Desktop/Stuff/Smash-Stuff/SMASH-ULTIMATE-MODS-BABY/50xx-the-mod/acmd-edits/code-mod-framework/lib/libnx_min/nx/lib\libnx_min.a(fs.o)
                0x0000000000018210                fsFileFlush
 *fill*         0x000000000001838c        0x4 
 .text.fsFileSetSize
                0x0000000000018390      0x18c C:/Users/RNG/Desktop/Stuff/Smash-Stuff/SMASH-ULTIMATE-MODS-BABY/50xx-the-mod/acmd-edits/code-mod-framework/lib/libnx_min/nx/lib\libnx_min.a(fs.o)
                0x0000000000018390                fsFileSetSize
 *fill*         0x000000000001851c        0x4 
 .text.fsFileGetSize
                0x0000000000018520      0x194 C:/Users/RNG/Desktop/Stuff/Smash-Stuff/SMASH-ULTIMATE-MODS-BABY/50xx-the-mod/acmd-edits/code-mod-framework/lib/libnx_min/nx/lib\libnx_min.a(fs.o)
                0x0000000000018520                fsFileGetSize
 *fill*         0x00000000000186b4        0xc 
 .text.fsFileOperateRange
                0x00000000000186c0      0x180 C:/Users/RNG/Desktop/Stuff/Smash-Stuff/SMASH-ULTIMATE-MODS-BABY/50xx-the-mod/acmd-edits/code-mod-framework/lib/libnx_min/nx/lib\libnx_min.a(fs.o)
                0x00000000000186c0                fsFileOperateRange
 .text.fsFileClose
                0x0000000000018840       0x6c C:/Users/RNG/Desktop/Stuff/Smash-Stuff/SMASH-ULTIMATE-MODS-BABY/50xx-the-mod/acmd-edits/code-mod-framework/lib/libnx_min/nx/lib\libnx_min.a(fs.o)
                0x0000000000018840                fsFileClose
 *fill*         0x00000000000188ac        0x4 
 .text.fsDirClose
                0x00000000000188b0       0x6c C:/Users/RNG/Desktop/Stuff/Smash-Stuff/SMASH-ULTIMATE-MODS-BABY/50xx-the-mod/acmd-edits/code-mod-framework/lib/libnx_min/nx/lib\libnx_min.a(fs.o)
                0x00000000000188b0                fsDirClose
 *fill*         0x000000000001891c        0x4 
 .text.fsDirRead
                0x0000000000018920      0x1ec C:/Users/RNG/Desktop/Stuff/Smash-Stuff/SMASH-ULTIMATE-MODS-BABY/50xx-the-mod/acmd-edits/code-mod-framework/lib/libnx_min/nx/lib\libnx_min.a(fs.o)
                0x0000000000018920                fsDirRead
 *fill*         0x0000000000018b0c        0x4 
 .text.fsDirGetEntryCount
                0x0000000000018b10      0x198 C:/Users/RNG/Desktop/Stuff/Smash-Stuff/SMASH-ULTIMATE-MODS-BABY/50xx-the-mod/acmd-edits/code-mod-framework/lib/libnx_min/nx/lib\libnx_min.a(fs.o)
                0x0000000000018b10                fsDirGetEntryCount
 *fill*         0x0000000000018ca8        0x8 
 .text.fsStorageRead
                0x0000000000018cb0      0x1d0 C:/Users/RNG/Desktop/Stuff/Smash-Stuff/SMASH-ULTIMATE-MODS-BABY/50xx-the-mod/acmd-edits/code-mod-framework/lib/libnx_min/nx/lib\libnx_min.a(fs.o)
                0x0000000000018cb0                fsStorageRead
 .text.fsStorageWrite
                0x0000000000018e80      0x1d0 C:/Users/RNG/Desktop/Stuff/Smash-Stuff/SMASH-ULTIMATE-MODS-BABY/50xx-the-mod/acmd-edits/code-mod-framework/lib/libnx_min/nx/lib\libnx_min.a(fs.o)
                0x0000000000018e80                fsStorageWrite
 .text.fsStorageFlush
                0x0000000000019050      0x17c C:/Users/RNG/Desktop/Stuff/Smash-Stuff/SMASH-ULTIMATE-MODS-BABY/50xx-the-mod/acmd-edits/code-mod-framework/lib/libnx_min/nx/lib\libnx_min.a(fs.o)
                0x0000000000019050                fsStorageFlush
 *fill*         0x00000000000191cc        0x4 
 .text.fsStorageSetSize
                0x00000000000191d0      0x18c C:/Users/RNG/Desktop/Stuff/Smash-Stuff/SMASH-ULTIMATE-MODS-BABY/50xx-the-mod/acmd-edits/code-mod-framework/lib/libnx_min/nx/lib\libnx_min.a(fs.o)
                0x00000000000191d0                fsStorageSetSize
 *fill*         0x000000000001935c        0x4 
 .text.fsStorageGetSize
                0x0000000000019360      0x194 C:/Users/RNG/Desktop/Stuff/Smash-Stuff/SMASH-ULTIMATE-MODS-BABY/50xx-the-mod/acmd-edits/code-mod-framework/lib/libnx_min/nx/lib\libnx_min.a(fs.o)
                0x0000000000019360                fsStorageGetSize
 *fill*         0x00000000000194f4        0xc 
 .text.fsStorageOperateRange
                0x0000000000019500      0x180 C:/Users/RNG/Desktop/Stuff/Smash-Stuff/SMASH-ULTIMATE-MODS-BABY/50xx-the-mod/acmd-edits/code-mod-framework/lib/libnx_min/nx/lib\libnx_min.a(fs.o)
                0x0000000000019500                fsStorageOperateRange
 .text.fsStorageClose
                0x0000000000019680       0x6c C:/Users/RNG/Desktop/Stuff/Smash-Stuff/SMASH-ULTIMATE-MODS-BABY/50xx-the-mod/acmd-edits/code-mod-framework/lib/libnx_min/nx/lib\libnx_min.a(fs.o)
                0x0000000000019680                fsStorageClose
 *fill*         0x00000000000196ec        0x4 
 .text.fsSaveDataIteratorRead
                0x00000000000196f0      0x1d0 C:/Users/RNG/Desktop/Stuff/Smash-Stuff/SMASH-ULTIMATE-MODS-BABY/50xx-the-mod/acmd-edits/code-mod-framework/lib/libnx_min/nx/lib\libnx_min.a(fs.o)
                0x00000000000196f0                fsSaveDataIteratorRead
 .text.fsSaveDataIteratorClose
                0x00000000000198c0       0x6c C:/Users/RNG/Desktop/Stuff/Smash-Stuff/SMASH-ULTIMATE-MODS-BABY/50xx-the-mod/acmd-edits/code-mod-framework/lib/libnx_min/nx/lib\libnx_min.a(fs.o)
                0x00000000000198c0                fsSaveDataIteratorClose
 *fill*         0x000000000001992c        0x4 
 .text.fsEventNotifierGetEventHandle
                0x0000000000019930      0x188 C:/Users/RNG/Desktop/Stuff/Smash-Stuff/SMASH-ULTIMATE-MODS-BABY/50xx-the-mod/acmd-edits/code-mod-framework/lib/libnx_min/nx/lib\libnx_min.a(fs.o)
                0x0000000000019930                fsEventNotifierGetEventHandle
 *fill*         0x0000000000019ab8        0x8 
 .text.fsEventNotifierClose
                0x0000000000019ac0       0x6c C:/Users/RNG/Desktop/Stuff/Smash-Stuff/SMASH-ULTIMATE-MODS-BABY/50xx-the-mod/acmd-edits/code-mod-framework/lib/libnx_min/nx/lib\libnx_min.a(fs.o)
                0x0000000000019ac0                fsEventNotifierClose
 *fill*         0x0000000000019b2c        0x4 
 .text.fsDeviceOperatorIsSdCardInserted
                0x0000000000019b30        0xc C:/Users/RNG/Desktop/Stuff/Smash-Stuff/SMASH-ULTIMATE-MODS-BABY/50xx-the-mod/acmd-edits/code-mod-framework/lib/libnx_min/nx/lib\libnx_min.a(fs.o)
                0x0000000000019b30                fsDeviceOperatorIsSdCardInserted
 *fill*         0x0000000000019b3c        0x4 
 .text.fsDeviceOperatorIsGameCardInserted
                0x0000000000019b40        0xc C:/Users/RNG/Desktop/Stuff/Smash-Stuff/SMASH-ULTIMATE-MODS-BABY/50xx-the-mod/acmd-edits/code-mod-framework/lib/libnx_min/nx/lib\libnx_min.a(fs.o)
                0x0000000000019b40                fsDeviceOperatorIsGameCardInserted
 *fill*         0x0000000000019b4c        0x4 
 .text.fsDeviceOperatorGetGameCardHandle
                0x0000000000019b50      0x190 C:/Users/RNG/Desktop/Stuff/Smash-Stuff/SMASH-ULTIMATE-MODS-BABY/50xx-the-mod/acmd-edits/code-mod-framework/lib/libnx_min/nx/lib\libnx_min.a(fs.o)
                0x0000000000019b50                fsDeviceOperatorGetGameCardHandle
 .text.fsDeviceOperatorGetGameCardAttribute
                0x0000000000019ce0      0x18c C:/Users/RNG/Desktop/Stuff/Smash-Stuff/SMASH-ULTIMATE-MODS-BABY/50xx-the-mod/acmd-edits/code-mod-framework/lib/libnx_min/nx/lib\libnx_min.a(fs.o)
                0x0000000000019ce0                fsDeviceOperatorGetGameCardAttribute
 *fill*         0x0000000000019e6c        0x4 
 .text.fsDeviceOperatorClose
                0x0000000000019e70       0x6c C:/Users/RNG/Desktop/Stuff/Smash-Stuff/SMASH-ULTIMATE-MODS-BABY/50xx-the-mod/acmd-edits/code-mod-framework/lib/libnx_min/nx/lib\libnx_min.a(fs.o)
                0x0000000000019e70                fsDeviceOperatorClose
 *fill*         0x0000000000019edc        0x4 
 .text.ipcCloseObjectById
                0x0000000000019ee0       0x34 C:/Users/RNG/Desktop/Stuff/Smash-Stuff/SMASH-ULTIMATE-MODS-BABY/50xx-the-mod/acmd-edits/code-mod-framework/lib/libnx_min/nx/lib\libnx_min.a(set.o)
 *fill*         0x0000000000019f14        0xc 
 .text._setMakeLanguageCode
                0x0000000000019f20       0xf4 C:/Users/RNG/Desktop/Stuff/Smash-Stuff/SMASH-ULTIMATE-MODS-BABY/50xx-the-mod/acmd-edits/code-mod-framework/lib/libnx_min/nx/lib\libnx_min.a(set.o)
 *fill*         0x000000000001a014        0xc 
 .text._setsysGetFirmwareVersionImpl
                0x000000000001a020      0x1d4 C:/Users/RNG/Desktop/Stuff/Smash-Stuff/SMASH-ULTIMATE-MODS-BABY/50xx-the-mod/acmd-edits/code-mod-framework/lib/libnx_min/nx/lib\libnx_min.a(set.o)
 *fill*         0x000000000001a1f4        0xc 
 .text.setInitialize
                0x000000000001a200       0x44 C:/Users/RNG/Desktop/Stuff/Smash-Stuff/SMASH-ULTIMATE-MODS-BABY/50xx-the-mod/acmd-edits/code-mod-framework/lib/libnx_min/nx/lib\libnx_min.a(set.o)
                0x000000000001a200                setInitialize
 *fill*         0x000000000001a244        0xc 
 .text.setExit  0x000000000001a250       0x9c C:/Users/RNG/Desktop/Stuff/Smash-Stuff/SMASH-ULTIMATE-MODS-BABY/50xx-the-mod/acmd-edits/code-mod-framework/lib/libnx_min/nx/lib\libnx_min.a(set.o)
                0x000000000001a250                setExit
 *fill*         0x000000000001a2ec        0x4 
 .text.setsysInitialize
                0x000000000001a2f0       0x3c C:/Users/RNG/Desktop/Stuff/Smash-Stuff/SMASH-ULTIMATE-MODS-BABY/50xx-the-mod/acmd-edits/code-mod-framework/lib/libnx_min/nx/lib\libnx_min.a(set.o)
                0x000000000001a2f0                setsysInitialize
 *fill*         0x000000000001a32c        0x4 
 .text.setsysExit
                0x000000000001a330       0x9c C:/Users/RNG/Desktop/Stuff/Smash-Stuff/SMASH-ULTIMATE-MODS-BABY/50xx-the-mod/acmd-edits/code-mod-framework/lib/libnx_min/nx/lib\libnx_min.a(set.o)
                0x000000000001a330                setsysExit
 *fill*         0x000000000001a3cc        0x4 
 .text.setGetLanguageCode
                0x000000000001a3d0       0xec C:/Users/RNG/Desktop/Stuff/Smash-Stuff/SMASH-ULTIMATE-MODS-BABY/50xx-the-mod/acmd-edits/code-mod-framework/lib/libnx_min/nx/lib\libnx_min.a(set.o)
                0x000000000001a3d0                setGetLanguageCode
 *fill*         0x000000000001a4bc        0x4 
 .text.setGetSystemLanguage
                0x000000000001a4c0        0x4 C:/Users/RNG/Desktop/Stuff/Smash-Stuff/SMASH-ULTIMATE-MODS-BABY/50xx-the-mod/acmd-edits/code-mod-framework/lib/libnx_min/nx/lib\libnx_min.a(set.o)
                0x000000000001a4c0                setGetSystemLanguage
 *fill*         0x000000000001a4c4        0xc 
 .text.setGetAvailableLanguageCodeCount
                0x000000000001a4d0      0x10c C:/Users/RNG/Desktop/Stuff/Smash-Stuff/SMASH-ULTIMATE-MODS-BABY/50xx-the-mod/acmd-edits/code-mod-framework/lib/libnx_min/nx/lib\libnx_min.a(set.o)
                0x000000000001a4d0                setGetAvailableLanguageCodeCount
 *fill*         0x000000000001a5dc        0x4 
 .text.setGetAvailableLanguageCodes
                0x000000000001a5e0      0x1b4 C:/Users/RNG/Desktop/Stuff/Smash-Stuff/SMASH-ULTIMATE-MODS-BABY/50xx-the-mod/acmd-edits/code-mod-framework/lib/libnx_min/nx/lib\libnx_min.a(set.o)
                0x000000000001a5e0                setGetAvailableLanguageCodes
 *fill*         0x000000000001a794        0xc 
 .text.setInitializeLanguageCodesCache
                0x000000000001a7a0       0x70 C:/Users/RNG/Desktop/Stuff/Smash-Stuff/SMASH-ULTIMATE-MODS-BABY/50xx-the-mod/acmd-edits/code-mod-framework/lib/libnx_min/nx/lib\libnx_min.a(set.o)
 .text.setMakeLanguage
                0x000000000001a810       0x8c C:/Users/RNG/Desktop/Stuff/Smash-Stuff/SMASH-ULTIMATE-MODS-BABY/50xx-the-mod/acmd-edits/code-mod-framework/lib/libnx_min/nx/lib\libnx_min.a(set.o)
                0x000000000001a810                setMakeLanguage
 *fill*         0x000000000001a89c        0x4 
 .text.setMakeLanguageCode
                0x000000000001a8a0       0x80 C:/Users/RNG/Desktop/Stuff/Smash-Stuff/SMASH-ULTIMATE-MODS-BABY/50xx-the-mod/acmd-edits/code-mod-framework/lib/libnx_min/nx/lib\libnx_min.a(set.o)
                0x000000000001a8a0                setMakeLanguageCode
 .text.setGetRegionCode
                0x000000000001a920       0xf0 C:/Users/RNG/Desktop/Stuff/Smash-Stuff/SMASH-ULTIMATE-MODS-BABY/50xx-the-mod/acmd-edits/code-mod-framework/lib/libnx_min/nx/lib\libnx_min.a(set.o)
                0x000000000001a920                setGetRegionCode
 .text.setsysGetColorSetId
                0x000000000001aa10       0xe4 C:/Users/RNG/Desktop/Stuff/Smash-Stuff/SMASH-ULTIMATE-MODS-BABY/50xx-the-mod/acmd-edits/code-mod-framework/lib/libnx_min/nx/lib\libnx_min.a(set.o)
                0x000000000001aa10                setsysGetColorSetId
 *fill*         0x000000000001aaf4        0xc 
 .text.setsysSetColorSetId
                0x000000000001ab00       0xd0 C:/Users/RNG/Desktop/Stuff/Smash-Stuff/SMASH-ULTIMATE-MODS-BABY/50xx-the-mod/acmd-edits/code-mod-framework/lib/libnx_min/nx/lib\libnx_min.a(set.o)
                0x000000000001ab00                setsysSetColorSetId
 .text.setsysGetSettingsItemValue
                0x000000000001abd0      0x19c C:/Users/RNG/Desktop/Stuff/Smash-Stuff/SMASH-ULTIMATE-MODS-BABY/50xx-the-mod/acmd-edits/code-mod-framework/lib/libnx_min/nx/lib\libnx_min.a(set.o)
                0x000000000001abd0                setsysGetSettingsItemValue
 *fill*         0x000000000001ad6c        0x4 
 .text.setsysGetSettingsItemValueSize
                0x000000000001ad70      0x198 C:/Users/RNG/Desktop/Stuff/Smash-Stuff/SMASH-ULTIMATE-MODS-BABY/50xx-the-mod/acmd-edits/code-mod-framework/lib/libnx_min/nx/lib\libnx_min.a(set.o)
                0x000000000001ad70                setsysGetSettingsItemValueSize
 *fill*         0x000000000001af08        0x8 
 .text.setsysGetSerialNumber
                0x000000000001af10      0x108 C:/Users/RNG/Desktop/Stuff/Smash-Stuff/SMASH-ULTIMATE-MODS-BABY/50xx-the-mod/acmd-edits/code-mod-framework/lib/libnx_min/nx/lib\libnx_min.a(set.o)
                0x000000000001af10                setsysGetSerialNumber
 *fill*         0x000000000001b018        0x8 
 .text.setsysGetFlag
                0x000000000001b020       0xec C:/Users/RNG/Desktop/Stuff/Smash-Stuff/SMASH-ULTIMATE-MODS-BABY/50xx-the-mod/acmd-edits/code-mod-framework/lib/libnx_min/nx/lib\libnx_min.a(set.o)
                0x000000000001b020                setsysGetFlag
 *fill*         0x000000000001b10c        0x4 
 .text.setsysSetFlag
                0x000000000001b110       0xd0 C:/Users/RNG/Desktop/Stuff/Smash-Stuff/SMASH-ULTIMATE-MODS-BABY/50xx-the-mod/acmd-edits/code-mod-framework/lib/libnx_min/nx/lib\libnx_min.a(set.o)
                0x000000000001b110                setsysSetFlag
 .text.setsysGetFirmwareVersion
                0x000000000001b1e0       0x44 C:/Users/RNG/Desktop/Stuff/Smash-Stuff/SMASH-ULTIMATE-MODS-BABY/50xx-the-mod/acmd-edits/code-mod-framework/lib/libnx_min/nx/lib\libnx_min.a(set.o)
                0x000000000001b1e0                setsysGetFirmwareVersion
 *fill*         0x000000000001b224        0xc 
 .text.setsysBindFatalDirtyFlagEvent
                0x000000000001b230      0x13c C:/Users/RNG/Desktop/Stuff/Smash-Stuff/SMASH-ULTIMATE-MODS-BABY/50xx-the-mod/acmd-edits/code-mod-framework/lib/libnx_min/nx/lib\libnx_min.a(set.o)
                0x000000000001b230                setsysBindFatalDirtyFlagEvent
 *fill*         0x000000000001b36c        0x4 
 .text.setsysGetFatalDirtyFlags
                0x000000000001b370       0xf8 C:/Users/RNG/Desktop/Stuff/Smash-Stuff/SMASH-ULTIMATE-MODS-BABY/50xx-the-mod/acmd-edits/code-mod-framework/lib/libnx_min/nx/lib\libnx_min.a(set.o)
                0x000000000001b370                setsysGetFatalDirtyFlags
 *fill*         0x000000000001b468        0x8 
 .text.setsysGetDeviceNickname
                0x000000000001b470       0xf8 C:/Users/RNG/Desktop/Stuff/Smash-Stuff/SMASH-ULTIMATE-MODS-BABY/50xx-the-mod/acmd-edits/code-mod-framework/lib/libnx_min/nx/lib\libnx_min.a(set.o)
                0x000000000001b470                setsysGetDeviceNickname
 *fill*         0x000000000001b568        0x8 
 .text.setsysSetDeviceNickname
                0x000000000001b570      0x134 C:/Users/RNG/Desktop/Stuff/Smash-Stuff/SMASH-ULTIMATE-MODS-BABY/50xx-the-mod/acmd-edits/code-mod-framework/lib/libnx_min/nx/lib\libnx_min.a(set.o)
                0x000000000001b570                setsysSetDeviceNickname
 *fill*         0x000000000001b6a4        0xc 
 .text._fatalImpl
                0x000000000001b6b0      0x140 C:/Users/RNG/Desktop/Stuff/Smash-Stuff/SMASH-ULTIMATE-MODS-BABY/50xx-the-mod/acmd-edits/code-mod-framework/lib/libnx_min/nx/lib\libnx_min.a(fatal.o)
 .text.fatalWithType
                0x000000000001b7f0       0x14 C:/Users/RNG/Desktop/Stuff/Smash-Stuff/SMASH-ULTIMATE-MODS-BABY/50xx-the-mod/acmd-edits/code-mod-framework/lib/libnx_min/nx/lib\libnx_min.a(fatal.o)
                0x000000000001b7f0                fatalWithType
 *fill*         0x000000000001b804        0xc 
 .text.fatalSimple
                0x000000000001b810       0x14 C:/Users/RNG/Desktop/Stuff/Smash-Stuff/SMASH-ULTIMATE-MODS-BABY/50xx-the-mod/acmd-edits/code-mod-framework/lib/libnx_min/nx/lib\libnx_min.a(fatal.o)
                0x000000000001b810                fatalSimple
 *fill*         0x000000000001b824        0xc 
 .text.fatalWithContext
                0x000000000001b830       0x14 C:/Users/RNG/Desktop/Stuff/Smash-Stuff/SMASH-ULTIMATE-MODS-BABY/50xx-the-mod/acmd-edits/code-mod-framework/lib/libnx_min/nx/lib\libnx_min.a(fatal.o)
                0x000000000001b830                fatalWithContext
 *fill*         0x000000000001b844        0xc 
 .text.ipcCloseObjectById
                0x000000000001b850       0x34 C:/Users/RNG/Desktop/Stuff/Smash-Stuff/SMASH-ULTIMATE-MODS-BABY/50xx-the-mod/acmd-edits/code-mod-framework/lib/libnx_min/nx/lib\libnx_min.a(sm.o)
 *fill*         0x000000000001b884        0xc 
 .text.smAddOverrideHandle
                0x000000000001b890       0x44 C:/Users/RNG/Desktop/Stuff/Smash-Stuff/SMASH-ULTIMATE-MODS-BABY/50xx-the-mod/acmd-edits/code-mod-framework/lib/libnx_min/nx/lib\libnx_min.a(sm.o)
                0x000000000001b890                smAddOverrideHandle
 *fill*         0x000000000001b8d4        0xc 
 .text.smGetServiceOverride
                0x000000000001b8e0       0x60 C:/Users/RNG/Desktop/Stuff/Smash-Stuff/SMASH-ULTIMATE-MODS-BABY/50xx-the-mod/acmd-edits/code-mod-framework/lib/libnx_min/nx/lib\libnx_min.a(sm.o)
                0x000000000001b8e0                smGetServiceOverride
 .text.smHasInitialized
                0x000000000001b940       0x14 C:/Users/RNG/Desktop/Stuff/Smash-Stuff/SMASH-ULTIMATE-MODS-BABY/50xx-the-mod/acmd-edits/code-mod-framework/lib/libnx_min/nx/lib\libnx_min.a(sm.o)
                0x000000000001b940                smHasInitialized
 *fill*         0x000000000001b954        0xc 
 .text.smExit   0x000000000001b960       0x9c C:/Users/RNG/Desktop/Stuff/Smash-Stuff/SMASH-ULTIMATE-MODS-BABY/50xx-the-mod/acmd-edits/code-mod-framework/lib/libnx_min/nx/lib\libnx_min.a(sm.o)
                0x000000000001b960                smExit
 *fill*         0x000000000001b9fc        0x4 
 .text.smGetServiceSession
                0x000000000001ba00        0xc C:/Users/RNG/Desktop/Stuff/Smash-Stuff/SMASH-ULTIMATE-MODS-BABY/50xx-the-mod/acmd-edits/code-mod-framework/lib/libnx_min/nx/lib\libnx_min.a(sm.o)
                0x000000000001ba00                smGetServiceSession
 *fill*         0x000000000001ba0c        0x4 
 .text.smEncodeName
                0x000000000001ba10       0x38 C:/Users/RNG/Desktop/Stuff/Smash-Stuff/SMASH-ULTIMATE-MODS-BABY/50xx-the-mod/acmd-edits/code-mod-framework/lib/libnx_min/nx/lib\libnx_min.a(sm.o)
                0x000000000001ba10                smEncodeName
 *fill*         0x000000000001ba48        0x8 
 .text.smGetServiceOriginal
                0x000000000001ba50      0x22c C:/Users/RNG/Desktop/Stuff/Smash-Stuff/SMASH-ULTIMATE-MODS-BABY/50xx-the-mod/acmd-edits/code-mod-framework/lib/libnx_min/nx/lib\libnx_min.a(sm.o)
                0x000000000001ba50                smGetServiceOriginal
 *fill*         0x000000000001bc7c        0x4 
 .text.smInitialize
                0x000000000001bc80      0x27c C:/Users/RNG/Desktop/Stuff/Smash-Stuff/SMASH-ULTIMATE-MODS-BABY/50xx-the-mod/acmd-edits/code-mod-framework/lib/libnx_min/nx/lib\libnx_min.a(sm.o)
                0x000000000001bc80                smInitialize
 *fill*         0x000000000001befc        0x4 
 .text.smGetService
                0x000000000001bf00       0x74 C:/Users/RNG/Desktop/Stuff/Smash-Stuff/SMASH-ULTIMATE-MODS-BABY/50xx-the-mod/acmd-edits/code-mod-framework/lib/libnx_min/nx/lib\libnx_min.a(sm.o)
                0x000000000001bf00                smGetService
 *fill*         0x000000000001bf74        0xc 
 .text.smRegisterService
                0x000000000001bf80      0x25c C:/Users/RNG/Desktop/Stuff/Smash-Stuff/SMASH-ULTIMATE-MODS-BABY/50xx-the-mod/acmd-edits/code-mod-framework/lib/libnx_min/nx/lib\libnx_min.a(sm.o)
                0x000000000001bf80                smRegisterService
 *fill*         0x000000000001c1dc        0x4 
 .text.smUnregisterService
                0x000000000001c1e0      0x1ac C:/Users/RNG/Desktop/Stuff/Smash-Stuff/SMASH-ULTIMATE-MODS-BABY/50xx-the-mod/acmd-edits/code-mod-framework/lib/libnx_min/nx/lib\libnx_min.a(sm.o)
                0x000000000001c1e0                smUnregisterService
 *fill*         0x000000000001c38c        0x4 
 .text._hidGetDeviceHandles.part.7
                0x000000000001c390       0xec C:/Users/RNG/Desktop/Stuff/Smash-Stuff/SMASH-ULTIMATE-MODS-BABY/50xx-the-mod/acmd-edits/code-mod-framework/lib/libnx_min/nx/lib\libnx_min.a(hid.o)
 *fill*         0x000000000001c47c        0x4 
 .text.ipcCloseObjectById
                0x000000000001c480       0x34 C:/Users/RNG/Desktop/Stuff/Smash-Stuff/SMASH-ULTIMATE-MODS-BABY/50xx-the-mod/acmd-edits/code-mod-framework/lib/libnx_min/nx/lib\libnx_min.a(hid.o)
 *fill*         0x000000000001c4b4        0xc 
 .text._hidActivateVibrationDevice
                0x000000000001c4c0       0xc8 C:/Users/RNG/Desktop/Stuff/Smash-Stuff/SMASH-ULTIMATE-MODS-BABY/50xx-the-mod/acmd-edits/code-mod-framework/lib/libnx_min/nx/lib\libnx_min.a(hid.o)
 *fill*         0x000000000001c588        0x8 
 .text._hidGetSharedMemoryHandle.constprop.17
                0x000000000001c590      0x124 C:/Users/RNG/Desktop/Stuff/Smash-Stuff/SMASH-ULTIMATE-MODS-BABY/50xx-the-mod/acmd-edits/code-mod-framework/lib/libnx_min/nx/lib\libnx_min.a(hid.o)
 *fill*         0x000000000001c6b4        0xc 
 .text._hidCreateActiveVibrationDeviceList
                0x000000000001c6c0      0x134 C:/Users/RNG/Desktop/Stuff/Smash-Stuff/SMASH-ULTIMATE-MODS-BABY/50xx-the-mod/acmd-edits/code-mod-framework/lib/libnx_min/nx/lib\libnx_min.a(hid.o)
 *fill*         0x000000000001c7f4        0xc 
 .text._hidCmdWithNoInput
                0x000000000001c800      0x100 C:/Users/RNG/Desktop/Stuff/Smash-Stuff/SMASH-ULTIMATE-MODS-BABY/50xx-the-mod/acmd-edits/code-mod-framework/lib/libnx_min/nx/lib\libnx_min.a(hid.o)
 .text._hidCreateAppletResource.constprop.16
                0x000000000001c900      0x134 C:/Users/RNG/Desktop/Stuff/Smash-Stuff/SMASH-ULTIMATE-MODS-BABY/50xx-the-mod/acmd-edits/code-mod-framework/lib/libnx_min/nx/lib\libnx_min.a(hid.o)
 *fill*         0x000000000001ca34        0xc 
 .text._hidCmdWithInputU32
                0x000000000001ca40      0x10c C:/Users/RNG/Desktop/Stuff/Smash-Stuff/SMASH-ULTIMATE-MODS-BABY/50xx-the-mod/acmd-edits/code-mod-framework/lib/libnx_min/nx/lib\libnx_min.a(hid.o)
 *fill*         0x000000000001cb4c        0x4 
 .text._hidCmdWithInputU64.constprop.18
                0x000000000001cb50      0x108 C:/Users/RNG/Desktop/Stuff/Smash-Stuff/SMASH-ULTIMATE-MODS-BABY/50xx-the-mod/acmd-edits/code-mod-framework/lib/libnx_min/nx/lib\libnx_min.a(hid.o)
 *fill*         0x000000000001cc58        0x8 
 .text._hidInitializeSevenSixAxisSensor.isra.11.constprop.19
                0x000000000001cc60      0x1f8 C:/Users/RNG/Desktop/Stuff/Smash-Stuff/SMASH-ULTIMATE-MODS-BABY/50xx-the-mod/acmd-edits/code-mod-framework/lib/libnx_min/nx/lib\libnx_min.a(hid.o)
 *fill*         0x000000000001ce58        0x8 
 .text.hidReset
                0x000000000001ce60      0x1f8 C:/Users/RNG/Desktop/Stuff/Smash-Stuff/SMASH-ULTIMATE-MODS-BABY/50xx-the-mod/acmd-edits/code-mod-framework/lib/libnx_min/nx/lib\libnx_min.a(hid.o)
                0x000000000001ce60                hidReset
 *fill*         0x000000000001d058        0x8 
 .text.hidGetSessionService
                0x000000000001d060        0xc C:/Users/RNG/Desktop/Stuff/Smash-Stuff/SMASH-ULTIMATE-MODS-BABY/50xx-the-mod/acmd-edits/code-mod-framework/lib/libnx_min/nx/lib\libnx_min.a(hid.o)
                0x000000000001d060                hidGetSessionService
 *fill*         0x000000000001d06c        0x4 
 .text.hidGetSharedmemAddr
                0x000000000001d070        0xc C:/Users/RNG/Desktop/Stuff/Smash-Stuff/SMASH-ULTIMATE-MODS-BABY/50xx-the-mod/acmd-edits/code-mod-framework/lib/libnx_min/nx/lib\libnx_min.a(hid.o)
                0x000000000001d070                hidGetSharedmemAddr
 *fill*         0x000000000001d07c        0x4 
 .text.hidSetControllerLayout
                0x000000000001d080       0x54 C:/Users/RNG/Desktop/Stuff/Smash-Stuff/SMASH-ULTIMATE-MODS-BABY/50xx-the-mod/acmd-edits/code-mod-framework/lib/libnx_min/nx/lib\libnx_min.a(hid.o)
                0x000000000001d080                hidSetControllerLayout
 *fill*         0x000000000001d0d4        0xc 
 .text.hidGetControllerLayout
                0x000000000001d0e0       0x50 C:/Users/RNG/Desktop/Stuff/Smash-Stuff/SMASH-ULTIMATE-MODS-BABY/50xx-the-mod/acmd-edits/code-mod-framework/lib/libnx_min/nx/lib\libnx_min.a(hid.o)
                0x000000000001d0e0                hidGetControllerLayout
 .text.hidGetControllerType
                0x000000000001d130       0x78 C:/Users/RNG/Desktop/Stuff/Smash-Stuff/SMASH-ULTIMATE-MODS-BABY/50xx-the-mod/acmd-edits/code-mod-framework/lib/libnx_min/nx/lib\libnx_min.a(hid.o)
                0x000000000001d130                hidGetControllerType
 *fill*         0x000000000001d1a8        0x8 
 .text.hidGetControllerColors
                0x000000000001d1b0       0xd4 C:/Users/RNG/Desktop/Stuff/Smash-Stuff/SMASH-ULTIMATE-MODS-BABY/50xx-the-mod/acmd-edits/code-mod-framework/lib/libnx_min/nx/lib\libnx_min.a(hid.o)
                0x000000000001d1b0                hidGetControllerColors
 *fill*         0x000000000001d284        0xc 
 .text.hidIsControllerConnected
                0x000000000001d290       0x7c C:/Users/RNG/Desktop/Stuff/Smash-Stuff/SMASH-ULTIMATE-MODS-BABY/50xx-the-mod/acmd-edits/code-mod-framework/lib/libnx_min/nx/lib\libnx_min.a(hid.o)
                0x000000000001d290                hidIsControllerConnected
 *fill*         0x000000000001d30c        0x4 
 .text.hidGetControllerDeviceType
                0x000000000001d310       0x70 C:/Users/RNG/Desktop/Stuff/Smash-Stuff/SMASH-ULTIMATE-MODS-BABY/50xx-the-mod/acmd-edits/code-mod-framework/lib/libnx_min/nx/lib\libnx_min.a(hid.o)
                0x000000000001d310                hidGetControllerDeviceType
 .text.hidGetControllerFlags
                0x000000000001d380       0x90 C:/Users/RNG/Desktop/Stuff/Smash-Stuff/SMASH-ULTIMATE-MODS-BABY/50xx-the-mod/acmd-edits/code-mod-framework/lib/libnx_min/nx/lib\libnx_min.a(hid.o)
                0x000000000001d380                hidGetControllerFlags
 .text.hidGetControllerPowerInfo
                0x000000000001d410      0x114 C:/Users/RNG/Desktop/Stuff/Smash-Stuff/SMASH-ULTIMATE-MODS-BABY/50xx-the-mod/acmd-edits/code-mod-framework/lib/libnx_min/nx/lib\libnx_min.a(hid.o)
                0x000000000001d410                hidGetControllerPowerInfo
 *fill*         0x000000000001d524        0xc 
 .text.hidKeysHeld
                0x000000000001d530       0x6c C:/Users/RNG/Desktop/Stuff/Smash-Stuff/SMASH-ULTIMATE-MODS-BABY/50xx-the-mod/acmd-edits/code-mod-framework/lib/libnx_min/nx/lib\libnx_min.a(hid.o)
                0x000000000001d530                hidKeysHeld
 *fill*         0x000000000001d59c        0x4 
 .text.hidKeysDown
                0x000000000001d5a0       0x6c C:/Users/RNG/Desktop/Stuff/Smash-Stuff/SMASH-ULTIMATE-MODS-BABY/50xx-the-mod/acmd-edits/code-mod-framework/lib/libnx_min/nx/lib\libnx_min.a(hid.o)
                0x000000000001d5a0                hidKeysDown
 *fill*         0x000000000001d60c        0x4 
 .text.hidKeysUp
                0x000000000001d610       0x6c C:/Users/RNG/Desktop/Stuff/Smash-Stuff/SMASH-ULTIMATE-MODS-BABY/50xx-the-mod/acmd-edits/code-mod-framework/lib/libnx_min/nx/lib\libnx_min.a(hid.o)
                0x000000000001d610                hidKeysUp
 *fill*         0x000000000001d67c        0x4 
 .text.hidMouseButtonsHeld
                0x000000000001d680       0x3c C:/Users/RNG/Desktop/Stuff/Smash-Stuff/SMASH-ULTIMATE-MODS-BABY/50xx-the-mod/acmd-edits/code-mod-framework/lib/libnx_min/nx/lib\libnx_min.a(hid.o)
                0x000000000001d680                hidMouseButtonsHeld
 *fill*         0x000000000001d6bc        0x4 
 .text.hidMouseButtonsDown
                0x000000000001d6c0       0x3c C:/Users/RNG/Desktop/Stuff/Smash-Stuff/SMASH-ULTIMATE-MODS-BABY/50xx-the-mod/acmd-edits/code-mod-framework/lib/libnx_min/nx/lib\libnx_min.a(hid.o)
                0x000000000001d6c0                hidMouseButtonsDown
 *fill*         0x000000000001d6fc        0x4 
 .text.hidMouseButtonsUp
                0x000000000001d700       0x3c C:/Users/RNG/Desktop/Stuff/Smash-Stuff/SMASH-ULTIMATE-MODS-BABY/50xx-the-mod/acmd-edits/code-mod-framework/lib/libnx_min/nx/lib\libnx_min.a(hid.o)
                0x000000000001d700                hidMouseButtonsUp
 *fill*         0x000000000001d73c        0x4 
 .text.hidMouseRead
                0x000000000001d740       0x48 C:/Users/RNG/Desktop/Stuff/Smash-Stuff/SMASH-ULTIMATE-MODS-BABY/50xx-the-mod/acmd-edits/code-mod-framework/lib/libnx_min/nx/lib\libnx_min.a(hid.o)
                0x000000000001d740                hidMouseRead
 *fill*         0x000000000001d788        0x8 
 .text.hidMouseMultiRead
                0x000000000001d790      0x150 C:/Users/RNG/Desktop/Stuff/Smash-Stuff/SMASH-ULTIMATE-MODS-BABY/50xx-the-mod/acmd-edits/code-mod-framework/lib/libnx_min/nx/lib\libnx_min.a(hid.o)
                0x000000000001d790                hidMouseMultiRead
 .text.hidKeyboardModifierHeld
                0x000000000001d8e0       0x48 C:/Users/RNG/Desktop/Stuff/Smash-Stuff/SMASH-ULTIMATE-MODS-BABY/50xx-the-mod/acmd-edits/code-mod-framework/lib/libnx_min/nx/lib\libnx_min.a(hid.o)
                0x000000000001d8e0                hidKeyboardModifierHeld
 *fill*         0x000000000001d928        0x8 
 .text.hidKeyboardModifierDown
                0x000000000001d930       0x48 C:/Users/RNG/Desktop/Stuff/Smash-Stuff/SMASH-ULTIMATE-MODS-BABY/50xx-the-mod/acmd-edits/code-mod-framework/lib/libnx_min/nx/lib\libnx_min.a(hid.o)
                0x000000000001d930                hidKeyboardModifierDown
 *fill*         0x000000000001d978        0x8 
 .text.hidKeyboardModifierUp
                0x000000000001d980       0x48 C:/Users/RNG/Desktop/Stuff/Smash-Stuff/SMASH-ULTIMATE-MODS-BABY/50xx-the-mod/acmd-edits/code-mod-framework/lib/libnx_min/nx/lib\libnx_min.a(hid.o)
                0x000000000001d980                hidKeyboardModifierUp
 *fill*         0x000000000001d9c8        0x8 
 .text.hidKeyboardHeld
                0x000000000001d9d0       0x60 C:/Users/RNG/Desktop/Stuff/Smash-Stuff/SMASH-ULTIMATE-MODS-BABY/50xx-the-mod/acmd-edits/code-mod-framework/lib/libnx_min/nx/lib\libnx_min.a(hid.o)
                0x000000000001d9d0                hidKeyboardHeld
 .text.hidKeyboardDown
                0x000000000001da30       0x60 C:/Users/RNG/Desktop/Stuff/Smash-Stuff/SMASH-ULTIMATE-MODS-BABY/50xx-the-mod/acmd-edits/code-mod-framework/lib/libnx_min/nx/lib\libnx_min.a(hid.o)
                0x000000000001da30                hidKeyboardDown
 .text.hidKeyboardUp
                0x000000000001da90       0x60 C:/Users/RNG/Desktop/Stuff/Smash-Stuff/SMASH-ULTIMATE-MODS-BABY/50xx-the-mod/acmd-edits/code-mod-framework/lib/libnx_min/nx/lib\libnx_min.a(hid.o)
                0x000000000001da90                hidKeyboardUp
 .text.hidTouchCount
                0x000000000001daf0        0xc C:/Users/RNG/Desktop/Stuff/Smash-Stuff/SMASH-ULTIMATE-MODS-BABY/50xx-the-mod/acmd-edits/code-mod-framework/lib/libnx_min/nx/lib\libnx_min.a(hid.o)
                0x000000000001daf0                hidTouchCount
 *fill*         0x000000000001dafc        0x4 
 .text.hidScanInput
                0x000000000001db00      0x598 C:/Users/RNG/Desktop/Stuff/Smash-Stuff/SMASH-ULTIMATE-MODS-BABY/50xx-the-mod/acmd-edits/code-mod-framework/lib/libnx_min/nx/lib\libnx_min.a(hid.o)
                0x000000000001db00                hidScanInput
 *fill*         0x000000000001e098        0x8 
 .text.hidTouchRead
                0x000000000001e0a0       0x54 C:/Users/RNG/Desktop/Stuff/Smash-Stuff/SMASH-ULTIMATE-MODS-BABY/50xx-the-mod/acmd-edits/code-mod-framework/lib/libnx_min/nx/lib\libnx_min.a(hid.o)
                0x000000000001e0a0                hidTouchRead
 *fill*         0x000000000001e0f4        0xc 
 .text.hidJoystickRead
                0x000000000001e100       0xac C:/Users/RNG/Desktop/Stuff/Smash-Stuff/SMASH-ULTIMATE-MODS-BABY/50xx-the-mod/acmd-edits/code-mod-framework/lib/libnx_min/nx/lib\libnx_min.a(hid.o)
                0x000000000001e100                hidJoystickRead
 *fill*         0x000000000001e1ac        0x4 
 .text.hidSixAxisSensorValuesRead
                0x000000000001e1b0      0x214 C:/Users/RNG/Desktop/Stuff/Smash-Stuff/SMASH-ULTIMATE-MODS-BABY/50xx-the-mod/acmd-edits/code-mod-framework/lib/libnx_min/nx/lib\libnx_min.a(hid.o)
                0x000000000001e1b0                hidSixAxisSensorValuesRead
 *fill*         0x000000000001e3c4        0xc 
 .text.hidGetHandheldMode
                0x000000000001e3d0       0x14 C:/Users/RNG/Desktop/Stuff/Smash-Stuff/SMASH-ULTIMATE-MODS-BABY/50xx-the-mod/acmd-edits/code-mod-framework/lib/libnx_min/nx/lib\libnx_min.a(hid.o)
                0x000000000001e3d0                hidGetHandheldMode
 *fill*         0x000000000001e3e4        0xc 
 .text.hidSetSupportedNpadIdType
                0x000000000001e3f0      0x198 C:/Users/RNG/Desktop/Stuff/Smash-Stuff/SMASH-ULTIMATE-MODS-BABY/50xx-the-mod/acmd-edits/code-mod-framework/lib/libnx_min/nx/lib\libnx_min.a(hid.o)
                0x000000000001e3f0                hidSetSupportedNpadIdType
 *fill*         0x000000000001e588        0x8 
 .text.hidSetSupportedNpadStyleSet
                0x000000000001e590        0xc C:/Users/RNG/Desktop/Stuff/Smash-Stuff/SMASH-ULTIMATE-MODS-BABY/50xx-the-mod/acmd-edits/code-mod-framework/lib/libnx_min/nx/lib\libnx_min.a(hid.o)
                0x000000000001e590                hidSetSupportedNpadStyleSet
 *fill*         0x000000000001e59c        0x4 
 .text.hidAcquireNpadStyleSetUpdateEventHandle
                0x000000000001e5a0      0x194 C:/Users/RNG/Desktop/Stuff/Smash-Stuff/SMASH-ULTIMATE-MODS-BABY/50xx-the-mod/acmd-edits/code-mod-framework/lib/libnx_min/nx/lib\libnx_min.a(hid.o)
                0x000000000001e5a0                hidAcquireNpadStyleSetUpdateEventHandle
 *fill*         0x000000000001e734        0xc 
 .text.hidSetNpadJoyHoldType
                0x000000000001e740        0x8 C:/Users/RNG/Desktop/Stuff/Smash-Stuff/SMASH-ULTIMATE-MODS-BABY/50xx-the-mod/acmd-edits/code-mod-framework/lib/libnx_min/nx/lib\libnx_min.a(hid.o)
                0x000000000001e740                hidSetNpadJoyHoldType
 *fill*         0x000000000001e748        0x8 
 .text.hidSetNpadJoyAssignmentModeSingleByDefault
                0x000000000001e750        0xc C:/Users/RNG/Desktop/Stuff/Smash-Stuff/SMASH-ULTIMATE-MODS-BABY/50xx-the-mod/acmd-edits/code-mod-framework/lib/libnx_min/nx/lib\libnx_min.a(hid.o)
                0x000000000001e750                hidSetNpadJoyAssignmentModeSingleByDefault
 *fill*         0x000000000001e75c        0x4 
 .text.hidSetNpadJoyAssignmentModeDual
                0x000000000001e760        0xc C:/Users/RNG/Desktop/Stuff/Smash-Stuff/SMASH-ULTIMATE-MODS-BABY/50xx-the-mod/acmd-edits/code-mod-framework/lib/libnx_min/nx/lib\libnx_min.a(hid.o)
                0x000000000001e760                hidSetNpadJoyAssignmentModeDual
 *fill*         0x000000000001e76c        0x4 
 .text.hidMergeSingleJoyAsDualJoy
                0x000000000001e770      0x110 C:/Users/RNG/Desktop/Stuff/Smash-Stuff/SMASH-ULTIMATE-MODS-BABY/50xx-the-mod/acmd-edits/code-mod-framework/lib/libnx_min/nx/lib\libnx_min.a(hid.o)
                0x000000000001e770                hidMergeSingleJoyAsDualJoy
 .text.hidGetVibrationDeviceInfo
                0x000000000001e880       0xf8 C:/Users/RNG/Desktop/Stuff/Smash-Stuff/SMASH-ULTIMATE-MODS-BABY/50xx-the-mod/acmd-edits/code-mod-framework/lib/libnx_min/nx/lib\libnx_min.a(hid.o)
                0x000000000001e880                hidGetVibrationDeviceInfo
 *fill*         0x000000000001e978        0x8 
 .text.hidSendVibrationValue
                0x000000000001e980      0x120 C:/Users/RNG/Desktop/Stuff/Smash-Stuff/SMASH-ULTIMATE-MODS-BABY/50xx-the-mod/acmd-edits/code-mod-framework/lib/libnx_min/nx/lib\libnx_min.a(hid.o)
                0x000000000001e980                hidSendVibrationValue
 .text.hidGetActualVibrationValue
                0x000000000001eaa0      0x128 C:/Users/RNG/Desktop/Stuff/Smash-Stuff/SMASH-ULTIMATE-MODS-BABY/50xx-the-mod/acmd-edits/code-mod-framework/lib/libnx_min/nx/lib\libnx_min.a(hid.o)
                0x000000000001eaa0                hidGetActualVibrationValue
 *fill*         0x000000000001ebc8        0x8 
 .text.hidPermitVibration
                0x000000000001ebd0       0xd0 C:/Users/RNG/Desktop/Stuff/Smash-Stuff/SMASH-ULTIMATE-MODS-BABY/50xx-the-mod/acmd-edits/code-mod-framework/lib/libnx_min/nx/lib\libnx_min.a(hid.o)
                0x000000000001ebd0                hidPermitVibration
 .text.hidIsVibrationPermitted
                0x000000000001eca0       0xf4 C:/Users/RNG/Desktop/Stuff/Smash-Stuff/SMASH-ULTIMATE-MODS-BABY/50xx-the-mod/acmd-edits/code-mod-framework/lib/libnx_min/nx/lib\libnx_min.a(hid.o)
                0x000000000001eca0                hidIsVibrationPermitted
 *fill*         0x000000000001ed94        0xc 
 .text.hidSendVibrationValues
                0x000000000001eda0      0x144 C:/Users/RNG/Desktop/Stuff/Smash-Stuff/SMASH-ULTIMATE-MODS-BABY/50xx-the-mod/acmd-edits/code-mod-framework/lib/libnx_min/nx/lib\libnx_min.a(hid.o)
                0x000000000001eda0                hidSendVibrationValues
 *fill*         0x000000000001eee4        0xc 
 .text.hidInitializeVibrationDevices
                0x000000000001eef0      0x114 C:/Users/RNG/Desktop/Stuff/Smash-Stuff/SMASH-ULTIMATE-MODS-BABY/50xx-the-mod/acmd-edits/code-mod-framework/lib/libnx_min/nx/lib\libnx_min.a(hid.o)
                0x000000000001eef0                hidInitializeVibrationDevices
 *fill*         0x000000000001f004        0xc 
 .text.hidGetSixAxisSensorHandles
                0x000000000001f010       0x2c C:/Users/RNG/Desktop/Stuff/Smash-Stuff/SMASH-ULTIMATE-MODS-BABY/50xx-the-mod/acmd-edits/code-mod-framework/lib/libnx_min/nx/lib\libnx_min.a(hid.o)
                0x000000000001f010                hidGetSixAxisSensorHandles
 *fill*         0x000000000001f03c        0x4 
 .text.hidStartSixAxisSensor
                0x000000000001f040       0x84 C:/Users/RNG/Desktop/Stuff/Smash-Stuff/SMASH-ULTIMATE-MODS-BABY/50xx-the-mod/acmd-edits/code-mod-framework/lib/libnx_min/nx/lib\libnx_min.a(hid.o)
                0x000000000001f040                hidStartSixAxisSensor
 *fill*         0x000000000001f0c4        0xc 
 .text.hidStopSixAxisSensor
                0x000000000001f0d0       0x80 C:/Users/RNG/Desktop/Stuff/Smash-Stuff/SMASH-ULTIMATE-MODS-BABY/50xx-the-mod/acmd-edits/code-mod-framework/lib/libnx_min/nx/lib\libnx_min.a(hid.o)
                0x000000000001f0d0                hidStopSixAxisSensor
 .text.hidStartSevenSixAxisSensor
                0x000000000001f150       0x30 C:/Users/RNG/Desktop/Stuff/Smash-Stuff/SMASH-ULTIMATE-MODS-BABY/50xx-the-mod/acmd-edits/code-mod-framework/lib/libnx_min/nx/lib\libnx_min.a(hid.o)
                0x000000000001f150                hidStartSevenSixAxisSensor
 .text.hidStopSevenSixAxisSensor
                0x000000000001f180       0x30 C:/Users/RNG/Desktop/Stuff/Smash-Stuff/SMASH-ULTIMATE-MODS-BABY/50xx-the-mod/acmd-edits/code-mod-framework/lib/libnx_min/nx/lib\libnx_min.a(hid.o)
                0x000000000001f180                hidStopSevenSixAxisSensor
 .text.hidFinalizeSevenSixAxisSensor
                0x000000000001f1b0       0x80 C:/Users/RNG/Desktop/Stuff/Smash-Stuff/SMASH-ULTIMATE-MODS-BABY/50xx-the-mod/acmd-edits/code-mod-framework/lib/libnx_min/nx/lib\libnx_min.a(hid.o)
                0x000000000001f1b0                hidFinalizeSevenSixAxisSensor
 .text.hidExit  0x000000000001f230      0x134 C:/Users/RNG/Desktop/Stuff/Smash-Stuff/SMASH-ULTIMATE-MODS-BABY/50xx-the-mod/acmd-edits/code-mod-framework/lib/libnx_min/nx/lib\libnx_min.a(hid.o)
                0x000000000001f230                hidExit
 *fill*         0x000000000001f364        0xc 
 .text.hidInitialize
                0x000000000001f370      0x168 C:/Users/RNG/Desktop/Stuff/Smash-Stuff/SMASH-ULTIMATE-MODS-BABY/50xx-the-mod/acmd-edits/code-mod-framework/lib/libnx_min/nx/lib\libnx_min.a(hid.o)
                0x000000000001f370                hidInitialize
 *fill*         0x000000000001f4d8        0x8 
 .text.hidInitializeSevenSixAxisSensor
                0x000000000001f4e0      0x130 C:/Users/RNG/Desktop/Stuff/Smash-Stuff/SMASH-ULTIMATE-MODS-BABY/50xx-the-mod/acmd-edits/code-mod-framework/lib/libnx_min/nx/lib\libnx_min.a(hid.o)
                0x000000000001f4e0                hidInitializeSevenSixAxisSensor
 .text.hidSetSevenSixAxisSensorFusionStrength
                0x000000000001f610      0x1f8 C:/Users/RNG/Desktop/Stuff/Smash-Stuff/SMASH-ULTIMATE-MODS-BABY/50xx-the-mod/acmd-edits/code-mod-framework/lib/libnx_min/nx/lib\libnx_min.a(hid.o)
                0x000000000001f610                hidSetSevenSixAxisSensorFusionStrength
 *fill*         0x000000000001f808        0x8 
 .text.hidGetSevenSixAxisSensorFusionStrength
                0x000000000001f810      0x1fc C:/Users/RNG/Desktop/Stuff/Smash-Stuff/SMASH-ULTIMATE-MODS-BABY/50xx-the-mod/acmd-edits/code-mod-framework/lib/libnx_min/nx/lib\libnx_min.a(hid.o)
                0x000000000001f810                hidGetSevenSixAxisSensorFusionStrength
 *fill*         0x000000000001fa0c        0x4 
 .text.hidResetSevenSixAxisSensorTimestamp
                0x000000000001fa10       0x30 C:/Users/RNG/Desktop/Stuff/Smash-Stuff/SMASH-ULTIMATE-MODS-BABY/50xx-the-mod/acmd-edits/code-mod-framework/lib/libnx_min/nx/lib\libnx_min.a(hid.o)
                0x000000000001fa10                hidResetSevenSixAxisSensorTimestamp
 .text.ipcCloseObjectById
                0x000000000001fa40       0x34 C:/Users/RNG/Desktop/Stuff/Smash-Stuff/SMASH-ULTIMATE-MODS-BABY/50xx-the-mod/acmd-edits/code-mod-framework/lib/libnx_min/nx/lib\libnx_min.a(time.o)
 *fill*         0x000000000001fa74        0xc 
 .text._timeGetSession
                0x000000000001fa80      0x12c C:/Users/RNG/Desktop/Stuff/Smash-Stuff/SMASH-ULTIMATE-MODS-BABY/50xx-the-mod/acmd-edits/code-mod-framework/lib/libnx_min/nx/lib\libnx_min.a(time.o)
 *fill*         0x000000000001fbac        0x4 
 .text.timeExit
                0x000000000001fbb0      0x1ec C:/Users/RNG/Desktop/Stuff/Smash-Stuff/SMASH-ULTIMATE-MODS-BABY/50xx-the-mod/acmd-edits/code-mod-framework/lib/libnx_min/nx/lib\libnx_min.a(time.o)
                0x000000000001fbb0                timeExit
 *fill*         0x000000000001fd9c        0x4 
 .text.timeInitialize
                0x000000000001fda0       0xd8 C:/Users/RNG/Desktop/Stuff/Smash-Stuff/SMASH-ULTIMATE-MODS-BABY/50xx-the-mod/acmd-edits/code-mod-framework/lib/libnx_min/nx/lib\libnx_min.a(time.o)
                0x000000000001fda0                timeInitialize
 *fill*         0x000000000001fe78        0x8 
 .text.timeGetSessionService
                0x000000000001fe80        0xc C:/Users/RNG/Desktop/Stuff/Smash-Stuff/SMASH-ULTIMATE-MODS-BABY/50xx-the-mod/acmd-edits/code-mod-framework/lib/libnx_min/nx/lib\libnx_min.a(time.o)
                0x000000000001fe80                timeGetSessionService
 *fill*         0x000000000001fe8c        0x4 
 .text.timeGetCurrentTime
                0x000000000001fe90      0x124 C:/Users/RNG/Desktop/Stuff/Smash-Stuff/SMASH-ULTIMATE-MODS-BABY/50xx-the-mod/acmd-edits/code-mod-framework/lib/libnx_min/nx/lib\libnx_min.a(time.o)
                0x000000000001fe90                timeGetCurrentTime
 *fill*         0x000000000001ffb4        0xc 
 .text.timeSetCurrentTime
                0x000000000001ffc0      0x104 C:/Users/RNG/Desktop/Stuff/Smash-Stuff/SMASH-ULTIMATE-MODS-BABY/50xx-the-mod/acmd-edits/code-mod-framework/lib/libnx_min/nx/lib\libnx_min.a(time.o)
                0x000000000001ffc0                timeSetCurrentTime
 *fill*         0x00000000000200c4        0xc 
 .text.timeToCalendarTimeWithMyRule
                0x00000000000200d0      0x118 C:/Users/RNG/Desktop/Stuff/Smash-Stuff/SMASH-ULTIMATE-MODS-BABY/50xx-the-mod/acmd-edits/code-mod-framework/lib/libnx_min/nx/lib\libnx_min.a(time.o)
                0x00000000000200d0                timeToCalendarTimeWithMyRule
 *fill*         0x00000000000201e8        0x8 
 .text.ipcPrepareHeader
                0x00000000000201f0      0x220 C:/Users/RNG/Desktop/Stuff/Smash-Stuff/SMASH-ULTIMATE-MODS-BABY/50xx-the-mod/acmd-edits/code-mod-framework/lib/libnx_min/nx/lib\libnx_min.a(applet.o)
 .text.ipcParse
                0x0000000000020410      0x22c C:/Users/RNG/Desktop/Stuff/Smash-Stuff/SMASH-ULTIMATE-MODS-BABY/50xx-the-mod/acmd-edits/code-mod-framework/lib/libnx_min/nx/lib\libnx_min.a(applet.o)
 *fill*         0x000000000002063c        0x4 
 .text.serviceIpcParse
                0x0000000000020640       0xb0 C:/Users/RNG/Desktop/Stuff/Smash-Stuff/SMASH-ULTIMATE-MODS-BABY/50xx-the-mod/acmd-edits/code-mod-framework/lib/libnx_min/nx/lib\libnx_min.a(applet.o)
 .text.ipcConvertSessionToDomain
                0x00000000000206f0       0x78 C:/Users/RNG/Desktop/Stuff/Smash-Stuff/SMASH-ULTIMATE-MODS-BABY/50xx-the-mod/acmd-edits/code-mod-framework/lib/libnx_min/nx/lib\libnx_min.a(applet.o)
 *fill*         0x0000000000020768        0x8 
 .text.ipcQueryPointerBufferSize
                0x0000000000020770       0x7c C:/Users/RNG/Desktop/Stuff/Smash-Stuff/SMASH-ULTIMATE-MODS-BABY/50xx-the-mod/acmd-edits/code-mod-framework/lib/libnx_min/nx/lib\libnx_min.a(applet.o)
 *fill*         0x00000000000207ec        0x4 
 .text.ipcCloneSession.constprop.52
                0x00000000000207f0       0x84 C:/Users/RNG/Desktop/Stuff/Smash-Stuff/SMASH-ULTIMATE-MODS-BABY/50xx-the-mod/acmd-edits/code-mod-framework/lib/libnx_min/nx/lib\libnx_min.a(applet.o)
 *fill*         0x0000000000020874        0xc 
 .text.ipcCloseObjectById
                0x0000000000020880       0x34 C:/Users/RNG/Desktop/Stuff/Smash-Stuff/SMASH-ULTIMATE-MODS-BABY/50xx-the-mod/acmd-edits/code-mod-framework/lib/libnx_min/nx/lib\libnx_min.a(applet.o)
 *fill*         0x00000000000208b4        0xc 
 .text.serviceClose
                0x00000000000208c0       0x6c C:/Users/RNG/Desktop/Stuff/Smash-Stuff/SMASH-ULTIMATE-MODS-BABY/50xx-the-mod/acmd-edits/code-mod-framework/lib/libnx_min/nx/lib\libnx_min.a(applet.o)
 *fill*         0x000000000002092c        0x4 
 .text._appletCmdInHandle64
                0x0000000000020930      0x204 C:/Users/RNG/Desktop/Stuff/Smash-Stuff/SMASH-ULTIMATE-MODS-BABY/50xx-the-mod/acmd-edits/code-mod-framework/lib/libnx_min/nx/lib\libnx_min.a(applet.o)
 *fill*         0x0000000000020b34        0xc 
 .text._appletReceiveMessage
                0x0000000000020b40      0x19c C:/Users/RNG/Desktop/Stuff/Smash-Stuff/SMASH-ULTIMATE-MODS-BABY/50xx-the-mod/acmd-edits/code-mod-framework/lib/libnx_min/nx/lib\libnx_min.a(applet.o)
 *fill*         0x0000000000020cdc        0x4 
 .text._appletCmdNoIO
                0x0000000000020ce0      0x164 C:/Users/RNG/Desktop/Stuff/Smash-Stuff/SMASH-ULTIMATE-MODS-BABY/50xx-the-mod/acmd-edits/code-mod-framework/lib/libnx_min/nx/lib\libnx_min.a(applet.o)
 *fill*         0x0000000000020e44        0xc 
 .text._appletGetOperationMode.constprop.43
                0x0000000000020e50      0x18c C:/Users/RNG/Desktop/Stuff/Smash-Stuff/SMASH-ULTIMATE-MODS-BABY/50xx-the-mod/acmd-edits/code-mod-framework/lib/libnx_min/nx/lib\libnx_min.a(applet.o)
 *fill*         0x0000000000020fdc        0x4 
 .text._appletGetCurrentFocusState.constprop.45
                0x0000000000020fe0      0x18c C:/Users/RNG/Desktop/Stuff/Smash-Stuff/SMASH-ULTIMATE-MODS-BABY/50xx-the-mod/acmd-edits/code-mod-framework/lib/libnx_min/nx/lib\libnx_min.a(applet.o)
 *fill*         0x000000000002116c        0x4 
 .text._appletGetPerformanceMode.constprop.44
                0x0000000000021170      0x18c C:/Users/RNG/Desktop/Stuff/Smash-Stuff/SMASH-ULTIMATE-MODS-BABY/50xx-the-mod/acmd-edits/code-mod-framework/lib/libnx_min/nx/lib\libnx_min.a(applet.o)
 *fill*         0x00000000000212fc        0x4 
 .text._appletCmdNoInOutBool
                0x0000000000021300      0x184 C:/Users/RNG/Desktop/Stuff/Smash-Stuff/SMASH-ULTIMATE-MODS-BABY/50xx-the-mod/acmd-edits/code-mod-framework/lib/libnx_min/nx/lib\libnx_min.a(applet.o)
 *fill*         0x0000000000021484        0xc 
 .text._appletGetSession
                0x0000000000021490      0x1d8 C:/Users/RNG/Desktop/Stuff/Smash-Stuff/SMASH-ULTIMATE-MODS-BABY/50xx-the-mod/acmd-edits/code-mod-framework/lib/libnx_min/nx/lib\libnx_min.a(applet.o)
 *fill*         0x0000000000021668        0x8 
 .text._appletCmdNoInOut64
                0x0000000000021670      0x17c C:/Users/RNG/Desktop/Stuff/Smash-Stuff/SMASH-ULTIMATE-MODS-BABY/50xx-the-mod/acmd-edits/code-mod-framework/lib/libnx_min/nx/lib\libnx_min.a(applet.o)
 *fill*         0x00000000000217ec        0x4 
 .text._appletSetOperationModeChangedNotification.constprop.46
                0x00000000000217f0      0x164 C:/Users/RNG/Desktop/Stuff/Smash-Stuff/SMASH-ULTIMATE-MODS-BABY/50xx-the-mod/acmd-edits/code-mod-framework/lib/libnx_min/nx/lib\libnx_min.a(applet.o)
 *fill*         0x0000000000021954        0xc 
 .text._appletCmdInU8
                0x0000000000021960      0x17c C:/Users/RNG/Desktop/Stuff/Smash-Stuff/SMASH-ULTIMATE-MODS-BABY/50xx-the-mod/acmd-edits/code-mod-framework/lib/libnx_min/nx/lib\libnx_min.a(applet.o)
 *fill*         0x0000000000021adc        0x4 
 .text._appletSetOutOfFocusSuspendingEnabled
                0x0000000000021ae0      0x16c C:/Users/RNG/Desktop/Stuff/Smash-Stuff/SMASH-ULTIMATE-MODS-BABY/50xx-the-mod/acmd-edits/code-mod-framework/lib/libnx_min/nx/lib\libnx_min.a(applet.o)
 *fill*         0x0000000000021c4c        0x4 
 .text._appletSetPerformanceModeChangedNotification.constprop.47
                0x0000000000021c50      0x164 C:/Users/RNG/Desktop/Stuff/Smash-Stuff/SMASH-ULTIMATE-MODS-BABY/50xx-the-mod/acmd-edits/code-mod-framework/lib/libnx_min/nx/lib\libnx_min.a(applet.o)
 *fill*         0x0000000000021db4        0xc 
 .text._appletCmdInU64.constprop.37
                0x0000000000021dc0      0x16c C:/Users/RNG/Desktop/Stuff/Smash-Stuff/SMASH-ULTIMATE-MODS-BABY/50xx-the-mod/acmd-edits/code-mod-framework/lib/libnx_min/nx/lib\libnx_min.a(applet.o)
 *fill*         0x0000000000021f2c        0x4 
 .text._appletCmdInU32.constprop.48
                0x0000000000021f30      0x16c C:/Users/RNG/Desktop/Stuff/Smash-Stuff/SMASH-ULTIMATE-MODS-BABY/50xx-the-mod/acmd-edits/code-mod-framework/lib/libnx_min/nx/lib\libnx_min.a(applet.o)
 *fill*         0x000000000002209c        0x4 
 .text._appletSetFocusHandlingMode
                0x00000000000220a0      0x17c C:/Users/RNG/Desktop/Stuff/Smash-Stuff/SMASH-ULTIMATE-MODS-BABY/50xx-the-mod/acmd-edits/code-mod-framework/lib/libnx_min/nx/lib\libnx_min.a(applet.o)
 *fill*         0x000000000002221c        0x4 
 .text._appletGetHandle.constprop.42
                0x0000000000022220      0x178 C:/Users/RNG/Desktop/Stuff/Smash-Stuff/SMASH-ULTIMATE-MODS-BABY/50xx-the-mod/acmd-edits/code-mod-framework/lib/libnx_min/nx/lib\libnx_min.a(applet.o)
 *fill*         0x0000000000022398        0x8 
 .text._appletGetEvent.constprop.41
                0x00000000000223a0       0x54 C:/Users/RNG/Desktop/Stuff/Smash-Stuff/SMASH-ULTIMATE-MODS-BABY/50xx-the-mod/acmd-edits/code-mod-framework/lib/libnx_min/nx/lib\libnx_min.a(applet.o)
 *fill*         0x00000000000223f4        0xc 
 .text._appletWaitLibraryAppletLaunchableEvent
                0x0000000000022400       0x50 C:/Users/RNG/Desktop/Stuff/Smash-Stuff/SMASH-ULTIMATE-MODS-BABY/50xx-the-mod/acmd-edits/code-mod-framework/lib/libnx_min/nx/lib\libnx_min.a(applet.o)
 .text._appletCreateApplicationAndRequestToStartForQuest.isra.20
                0x0000000000022450      0x17c C:/Users/RNG/Desktop/Stuff/Smash-Stuff/SMASH-ULTIMATE-MODS-BABY/50xx-the-mod/acmd-edits/code-mod-framework/lib/libnx_min/nx/lib\libnx_min.a(applet.o)
 *fill*         0x00000000000225cc        0x4 
 .text._appletCreateApplicationAndPushAndRequestToStart
                0x00000000000225d0      0x1e0 C:/Users/RNG/Desktop/Stuff/Smash-Stuff/SMASH-ULTIMATE-MODS-BABY/50xx-the-mod/acmd-edits/code-mod-framework/lib/libnx_min/nx/lib\libnx_min.a(applet.o)
 .text._appletCmdNoInOut32.constprop.38
                0x00000000000227b0      0x194 C:/Users/RNG/Desktop/Stuff/Smash-Stuff/SMASH-ULTIMATE-MODS-BABY/50xx-the-mod/acmd-edits/code-mod-framework/lib/libnx_min/nx/lib\libnx_min.a(applet.o)
 *fill*         0x0000000000022944        0xc 
 .text._appletCmdInSession
                0x0000000000022950      0x1d8 C:/Users/RNG/Desktop/Stuff/Smash-Stuff/SMASH-ULTIMATE-MODS-BABY/50xx-the-mod/acmd-edits/code-mod-framework/lib/libnx_min/nx/lib\libnx_min.a(applet.o)
 *fill*         0x0000000000022b28        0x8 
 .text._appletStorageGetHandle
                0x0000000000022b30      0x19c C:/Users/RNG/Desktop/Stuff/Smash-Stuff/SMASH-ULTIMATE-MODS-BABY/50xx-the-mod/acmd-edits/code-mod-framework/lib/libnx_min/nx/lib\libnx_min.a(applet.o)
 *fill*         0x0000000000022ccc        0x4 
 .text._appletCreateApplicationAndPushAndRequestToStartForQuest.isra.21
                0x0000000000022cd0      0x1e8 C:/Users/RNG/Desktop/Stuff/Smash-Stuff/SMASH-ULTIMATE-MODS-BABY/50xx-the-mod/acmd-edits/code-mod-framework/lib/libnx_min/nx/lib\libnx_min.a(applet.o)
 *fill*         0x0000000000022eb8        0x8 
 .text._appletCreateTransferMemoryStorage.isra.25
                0x0000000000022ec0      0x1e4 C:/Users/RNG/Desktop/Stuff/Smash-Stuff/SMASH-ULTIMATE-MODS-BABY/50xx-the-mod/acmd-edits/code-mod-framework/lib/libnx_min/nx/lib\libnx_min.a(applet.o)
 *fill*         0x00000000000230a4        0xc 
 .text._appletGetSessionIn64.constprop.39
                0x00000000000230b0      0x1c4 C:/Users/RNG/Desktop/Stuff/Smash-Stuff/SMASH-ULTIMATE-MODS-BABY/50xx-the-mod/acmd-edits/code-mod-framework/lib/libnx_min/nx/lib\libnx_min.a(applet.o)
 *fill*         0x0000000000023274        0xc 
 .text._appletStorageAccessorRW
                0x0000000000023280      0x314 C:/Users/RNG/Desktop/Stuff/Smash-Stuff/SMASH-ULTIMATE-MODS-BABY/50xx-the-mod/acmd-edits/code-mod-framework/lib/libnx_min/nx/lib\libnx_min.a(applet.o)
 *fill*         0x0000000000023594        0xc 
 .text._appletStorageRW
                0x00000000000235a0      0x108 C:/Users/RNG/Desktop/Stuff/Smash-Stuff/SMASH-ULTIMATE-MODS-BABY/50xx-the-mod/acmd-edits/code-mod-framework/lib/libnx_min/nx/lib\libnx_min.a(applet.o)
 *fill*         0x00000000000236a8        0x8 
 .text._appletCreateLibraryApplet
                0x00000000000236b0      0x1c4 C:/Users/RNG/Desktop/Stuff/Smash-Stuff/SMASH-ULTIMATE-MODS-BABY/50xx-the-mod/acmd-edits/code-mod-framework/lib/libnx_min/nx/lib\libnx_min.a(applet.o)
 *fill*         0x0000000000023874        0xc 
 .text._appletGetSessionProxy.constprop.40
                0x0000000000023880      0x1f0 C:/Users/RNG/Desktop/Stuff/Smash-Stuff/SMASH-ULTIMATE-MODS-BABY/50xx-the-mod/acmd-edits/code-mod-framework/lib/libnx_min/nx/lib\libnx_min.a(applet.o)
 .text.appletGetAppletType
                0x0000000000023a70       0x10 C:/Users/RNG/Desktop/Stuff/Smash-Stuff/SMASH-ULTIMATE-MODS-BABY/50xx-the-mod/acmd-edits/code-mod-framework/lib/libnx_min/nx/lib\libnx_min.a(applet.o)
                0x0000000000023a70                appletGetAppletType
 .text.appletHook
                0x0000000000023a80       0x28 C:/Users/RNG/Desktop/Stuff/Smash-Stuff/SMASH-ULTIMATE-MODS-BABY/50xx-the-mod/acmd-edits/code-mod-framework/lib/libnx_min/nx/lib\libnx_min.a(applet.o)
                0x0000000000023a80                appletHook
 *fill*         0x0000000000023aa8        0x8 
 .text.appletUnhook
                0x0000000000023ab0       0x34 C:/Users/RNG/Desktop/Stuff/Smash-Stuff/SMASH-ULTIMATE-MODS-BABY/50xx-the-mod/acmd-edits/code-mod-framework/lib/libnx_min/nx/lib\libnx_min.a(applet.o)
                0x0000000000023ab0                appletUnhook
 *fill*         0x0000000000023ae4        0xc 
 .text.appletSetThemeColorType
                0x0000000000023af0        0xc C:/Users/RNG/Desktop/Stuff/Smash-Stuff/SMASH-ULTIMATE-MODS-BABY/50xx-the-mod/acmd-edits/code-mod-framework/lib/libnx_min/nx/lib\libnx_min.a(applet.o)
                0x0000000000023af0                appletSetThemeColorType
 *fill*         0x0000000000023afc        0x4 
 .text.appletGetThemeColorType
                0x0000000000023b00        0xc C:/Users/RNG/Desktop/Stuff/Smash-Stuff/SMASH-ULTIMATE-MODS-BABY/50xx-the-mod/acmd-edits/code-mod-framework/lib/libnx_min/nx/lib\libnx_min.a(applet.o)
                0x0000000000023b00                appletGetThemeColorType
 *fill*         0x0000000000023b0c        0x4 
 .text.appletSetFocusHandlingMode
                0x0000000000023b10       0xf0 C:/Users/RNG/Desktop/Stuff/Smash-Stuff/SMASH-ULTIMATE-MODS-BABY/50xx-the-mod/acmd-edits/code-mod-framework/lib/libnx_min/nx/lib\libnx_min.a(applet.o)
                0x0000000000023b10                appletSetFocusHandlingMode
 .text.appletGetAppletResourceUserId
                0x0000000000023c00       0x28 C:/Users/RNG/Desktop/Stuff/Smash-Stuff/SMASH-ULTIMATE-MODS-BABY/50xx-the-mod/acmd-edits/code-mod-framework/lib/libnx_min/nx/lib\libnx_min.a(applet.o)
                0x0000000000023c00                appletGetAppletResourceUserId
 *fill*         0x0000000000023c28        0x8 
 .text._appletGetIndirectLayerConsumerHandle
                0x0000000000023c30      0x12c C:/Users/RNG/Desktop/Stuff/Smash-Stuff/SMASH-ULTIMATE-MODS-BABY/50xx-the-mod/acmd-edits/code-mod-framework/lib/libnx_min/nx/lib\libnx_min.a(applet.o)
 *fill*         0x0000000000023d5c        0x4 
 .text._appletHolderCreate
                0x0000000000023d60       0xc0 C:/Users/RNG/Desktop/Stuff/Smash-Stuff/SMASH-ULTIMATE-MODS-BABY/50xx-the-mod/acmd-edits/code-mod-framework/lib/libnx_min/nx/lib\libnx_min.a(applet.o)
 .text.appletPopLaunchParameter
                0x0000000000023e20      0x194 C:/Users/RNG/Desktop/Stuff/Smash-Stuff/SMASH-ULTIMATE-MODS-BABY/50xx-the-mod/acmd-edits/code-mod-framework/lib/libnx_min/nx/lib\libnx_min.a(applet.o)
                0x0000000000023e20                appletPopLaunchParameter
 *fill*         0x0000000000023fb4        0xc 
 .text.appletGetDesiredLanguage
                0x0000000000023fc0       0x3c C:/Users/RNG/Desktop/Stuff/Smash-Stuff/SMASH-ULTIMATE-MODS-BABY/50xx-the-mod/acmd-edits/code-mod-framework/lib/libnx_min/nx/lib\libnx_min.a(applet.o)
                0x0000000000023fc0                appletGetDesiredLanguage
 *fill*         0x0000000000023ffc        0x4 
 .text.appletSetTerminateResult
                0x0000000000024000      0x14c C:/Users/RNG/Desktop/Stuff/Smash-Stuff/SMASH-ULTIMATE-MODS-BABY/50xx-the-mod/acmd-edits/code-mod-framework/lib/libnx_min/nx/lib\libnx_min.a(applet.o)
                0x0000000000024000                appletSetTerminateResult
 *fill*         0x000000000002414c        0x4 
 .text.appletSetMediaPlaybackState
                0x0000000000024150       0x4c C:/Users/RNG/Desktop/Stuff/Smash-Stuff/SMASH-ULTIMATE-MODS-BABY/50xx-the-mod/acmd-edits/code-mod-framework/lib/libnx_min/nx/lib\libnx_min.a(applet.o)
                0x0000000000024150                appletSetMediaPlaybackState
 *fill*         0x000000000002419c        0x4 
 .text.appletBeginBlockingHomeButton
                0x00000000000241a0      0x14c C:/Users/RNG/Desktop/Stuff/Smash-Stuff/SMASH-ULTIMATE-MODS-BABY/50xx-the-mod/acmd-edits/code-mod-framework/lib/libnx_min/nx/lib\libnx_min.a(applet.o)
                0x00000000000241a0                appletBeginBlockingHomeButton
 *fill*         0x00000000000242ec        0x4 
 .text.appletEndBlockingHomeButton
                0x00000000000242f0       0x38 C:/Users/RNG/Desktop/Stuff/Smash-Stuff/SMASH-ULTIMATE-MODS-BABY/50xx-the-mod/acmd-edits/code-mod-framework/lib/libnx_min/nx/lib\libnx_min.a(applet.o)
                0x00000000000242f0                appletEndBlockingHomeButton
 *fill*         0x0000000000024328        0x8 
 .text.appletNotifyRunning
                0x0000000000024330      0x174 C:/Users/RNG/Desktop/Stuff/Smash-Stuff/SMASH-ULTIMATE-MODS-BABY/50xx-the-mod/acmd-edits/code-mod-framework/lib/libnx_min/nx/lib\libnx_min.a(applet.o)
                0x0000000000024330                appletNotifyRunning
 *fill*         0x00000000000244a4        0xc 
 .text.appletIsGamePlayRecordingSupported
                0x00000000000244b0      0x168 C:/Users/RNG/Desktop/Stuff/Smash-Stuff/SMASH-ULTIMATE-MODS-BABY/50xx-the-mod/acmd-edits/code-mod-framework/lib/libnx_min/nx/lib\libnx_min.a(applet.o)
                0x00000000000244b0                appletIsGamePlayRecordingSupported
 *fill*         0x0000000000024618        0x8 
 .text.appletSetGamePlayRecordingState
                0x0000000000024620      0x158 C:/Users/RNG/Desktop/Stuff/Smash-Stuff/SMASH-ULTIMATE-MODS-BABY/50xx-the-mod/acmd-edits/code-mod-framework/lib/libnx_min/nx/lib\libnx_min.a(applet.o)
                0x0000000000024620                appletSetGamePlayRecordingState
 *fill*         0x0000000000024778        0x8 
 .text.appletInitializeGamePlayRecording
                0x0000000000024780      0x138 C:/Users/RNG/Desktop/Stuff/Smash-Stuff/SMASH-ULTIMATE-MODS-BABY/50xx-the-mod/acmd-edits/code-mod-framework/lib/libnx_min/nx/lib\libnx_min.a(applet.o)
                0x0000000000024780                appletInitializeGamePlayRecording
 *fill*         0x00000000000248b8        0x8 
 .text.appletQueryApplicationPlayStatistics
                0x00000000000248c0      0x1c0 C:/Users/RNG/Desktop/Stuff/Smash-Stuff/SMASH-ULTIMATE-MODS-BABY/50xx-the-mod/acmd-edits/code-mod-framework/lib/libnx_min/nx/lib\libnx_min.a(applet.o)
                0x00000000000248c0                appletQueryApplicationPlayStatistics
 .text.appletBeginToWatchShortHomeButtonMessage
                0x0000000000024a80       0x2c C:/Users/RNG/Desktop/Stuff/Smash-Stuff/SMASH-ULTIMATE-MODS-BABY/50xx-the-mod/acmd-edits/code-mod-framework/lib/libnx_min/nx/lib\libnx_min.a(applet.o)
                0x0000000000024a80                appletBeginToWatchShortHomeButtonMessage
 *fill*         0x0000000000024aac        0x4 
 .text.appletEndToWatchShortHomeButtonMessage
                0x0000000000024ab0       0x2c C:/Users/RNG/Desktop/Stuff/Smash-Stuff/SMASH-ULTIMATE-MODS-BABY/50xx-the-mod/acmd-edits/code-mod-framework/lib/libnx_min/nx/lib\libnx_min.a(applet.o)
                0x0000000000024ab0                appletEndToWatchShortHomeButtonMessage
 *fill*         0x0000000000024adc        0x4 
 .text.appletHomeButtonReaderLockAccessorGetEvent
                0x0000000000024ae0       0xc8 C:/Users/RNG/Desktop/Stuff/Smash-Stuff/SMASH-ULTIMATE-MODS-BABY/50xx-the-mod/acmd-edits/code-mod-framework/lib/libnx_min/nx/lib\libnx_min.a(applet.o)
                0x0000000000024ae0                appletHomeButtonReaderLockAccessorGetEvent
 *fill*         0x0000000000024ba8        0x8 
 .text.appletIsVrModeEnabled
                0x0000000000024bb0       0x4c C:/Users/RNG/Desktop/Stuff/Smash-Stuff/SMASH-ULTIMATE-MODS-BABY/50xx-the-mod/acmd-edits/code-mod-framework/lib/libnx_min/nx/lib\libnx_min.a(applet.o)
                0x0000000000024bb0                appletIsVrModeEnabled
 *fill*         0x0000000000024bfc        0x4 
 .text.appletSetVrModeEnabled
                0x0000000000024c00       0x78 C:/Users/RNG/Desktop/Stuff/Smash-Stuff/SMASH-ULTIMATE-MODS-BABY/50xx-the-mod/acmd-edits/code-mod-framework/lib/libnx_min/nx/lib\libnx_min.a(applet.o)
                0x0000000000024c00                appletSetVrModeEnabled
 *fill*         0x0000000000024c78        0x8 
 .text.appletSetCpuBoostMode
                0x0000000000024c80       0x50 C:/Users/RNG/Desktop/Stuff/Smash-Stuff/SMASH-ULTIMATE-MODS-BABY/50xx-the-mod/acmd-edits/code-mod-framework/lib/libnx_min/nx/lib\libnx_min.a(applet.o)
                0x0000000000024c80                appletSetCpuBoostMode
 .text.appletExit
                0x0000000000024cd0      0x5dc C:/Users/RNG/Desktop/Stuff/Smash-Stuff/SMASH-ULTIMATE-MODS-BABY/50xx-the-mod/acmd-edits/code-mod-framework/lib/libnx_min/nx/lib\libnx_min.a(applet.o)
                0x0000000000024cd0                appletExit
 *fill*         0x00000000000252ac        0x4 
 .text.appletInitialize
                0x00000000000252b0      0x4f0 C:/Users/RNG/Desktop/Stuff/Smash-Stuff/SMASH-ULTIMATE-MODS-BABY/50xx-the-mod/acmd-edits/code-mod-framework/lib/libnx_min/nx/lib\libnx_min.a(applet.o)
                0x00000000000252b0                appletInitialize
 .text._appletExitProcess
                0x00000000000257a0       0x10 C:/Users/RNG/Desktop/Stuff/Smash-Stuff/SMASH-ULTIMATE-MODS-BABY/50xx-the-mod/acmd-edits/code-mod-framework/lib/libnx_min/nx/lib\libnx_min.a(applet.o)
 .text.appletGetCurrentPerformanceConfiguration
                0x00000000000257b0       0x40 C:/Users/RNG/Desktop/Stuff/Smash-Stuff/SMASH-ULTIMATE-MODS-BABY/50xx-the-mod/acmd-edits/code-mod-framework/lib/libnx_min/nx/lib\libnx_min.a(applet.o)
                0x00000000000257b0                appletGetCurrentPerformanceConfiguration
 .text.appletLockExit
                0x00000000000257f0       0x10 C:/Users/RNG/Desktop/Stuff/Smash-Stuff/SMASH-ULTIMATE-MODS-BABY/50xx-the-mod/acmd-edits/code-mod-framework/lib/libnx_min/nx/lib\libnx_min.a(applet.o)
                0x00000000000257f0                appletLockExit
 .text.appletUnlockExit
                0x0000000000025800       0x10 C:/Users/RNG/Desktop/Stuff/Smash-Stuff/SMASH-ULTIMATE-MODS-BABY/50xx-the-mod/acmd-edits/code-mod-framework/lib/libnx_min/nx/lib\libnx_min.a(applet.o)
                0x0000000000025800                appletUnlockExit
 .text.appletSetScreenShotPermission
                0x0000000000025810      0x16c C:/Users/RNG/Desktop/Stuff/Smash-Stuff/SMASH-ULTIMATE-MODS-BABY/50xx-the-mod/acmd-edits/code-mod-framework/lib/libnx_min/nx/lib\libnx_min.a(applet.o)
                0x0000000000025810                appletSetScreenShotPermission
 *fill*         0x000000000002597c        0x4 
 .text.appletSetScreenShotImageOrientation
                0x0000000000025980      0x1c4 C:/Users/RNG/Desktop/Stuff/Smash-Stuff/SMASH-ULTIMATE-MODS-BABY/50xx-the-mod/acmd-edits/code-mod-framework/lib/libnx_min/nx/lib\libnx_min.a(applet.o)
                0x0000000000025980                appletSetScreenShotImageOrientation
 *fill*         0x0000000000025b44        0xc 
 .text.appletCreateManagedDisplayLayer
                0x0000000000025b50       0x14 C:/Users/RNG/Desktop/Stuff/Smash-Stuff/SMASH-ULTIMATE-MODS-BABY/50xx-the-mod/acmd-edits/code-mod-framework/lib/libnx_min/nx/lib\libnx_min.a(applet.o)
                0x0000000000025b50                appletCreateManagedDisplayLayer
 *fill*         0x0000000000025b64        0xc 
 .text.appletGetCurrentIlluminance
                0x0000000000025b70      0x168 C:/Users/RNG/Desktop/Stuff/Smash-Stuff/SMASH-ULTIMATE-MODS-BABY/50xx-the-mod/acmd-edits/code-mod-framework/lib/libnx_min/nx/lib\libnx_min.a(applet.o)
                0x0000000000025b70                appletGetCurrentIlluminance
 *fill*         0x0000000000025cd8        0x8 
 .text.appletIsIlluminanceAvailable
                0x0000000000025ce0       0x4c C:/Users/RNG/Desktop/Stuff/Smash-Stuff/SMASH-ULTIMATE-MODS-BABY/50xx-the-mod/acmd-edits/code-mod-framework/lib/libnx_min/nx/lib\libnx_min.a(applet.o)
                0x0000000000025ce0                appletIsIlluminanceAvailable
 *fill*         0x0000000000025d2c        0x4 
 .text.appletGetCurrentIlluminanceEx
                0x0000000000025d30      0x19c C:/Users/RNG/Desktop/Stuff/Smash-Stuff/SMASH-ULTIMATE-MODS-BABY/50xx-the-mod/acmd-edits/code-mod-framework/lib/libnx_min/nx/lib\libnx_min.a(applet.o)
                0x0000000000025d30                appletGetCurrentIlluminanceEx
 *fill*         0x0000000000025ecc        0x4 
 .text.appletCreateLibraryApplet
                0x0000000000025ed0        0x8 C:/Users/RNG/Desktop/Stuff/Smash-Stuff/SMASH-ULTIMATE-MODS-BABY/50xx-the-mod/acmd-edits/code-mod-framework/lib/libnx_min/nx/lib\libnx_min.a(applet.o)
                0x0000000000025ed0                appletCreateLibraryApplet
 *fill*         0x0000000000025ed8        0x8 
 .text.appletCreateLibraryAppletSelf
                0x0000000000025ee0        0x8 C:/Users/RNG/Desktop/Stuff/Smash-Stuff/SMASH-ULTIMATE-MODS-BABY/50xx-the-mod/acmd-edits/code-mod-framework/lib/libnx_min/nx/lib\libnx_min.a(applet.o)
                0x0000000000025ee0                appletCreateLibraryAppletSelf
 *fill*         0x0000000000025ee8        0x8 
 .text.appletHolderClose
                0x0000000000025ef0       0x94 C:/Users/RNG/Desktop/Stuff/Smash-Stuff/SMASH-ULTIMATE-MODS-BABY/50xx-the-mod/acmd-edits/code-mod-framework/lib/libnx_min/nx/lib\libnx_min.a(applet.o)
                0x0000000000025ef0                appletHolderClose
 *fill*         0x0000000000025f84        0xc 
 .text.appletHolderActive
                0x0000000000025f90       0x10 C:/Users/RNG/Desktop/Stuff/Smash-Stuff/SMASH-ULTIMATE-MODS-BABY/50xx-the-mod/acmd-edits/code-mod-framework/lib/libnx_min/nx/lib\libnx_min.a(applet.o)
                0x0000000000025f90                appletHolderActive
 .text.appletHolderGetIndirectLayerConsumerHandle
                0x0000000000025fa0       0x74 C:/Users/RNG/Desktop/Stuff/Smash-Stuff/SMASH-ULTIMATE-MODS-BABY/50xx-the-mod/acmd-edits/code-mod-framework/lib/libnx_min/nx/lib\libnx_min.a(applet.o)
                0x0000000000025fa0                appletHolderGetIndirectLayerConsumerHandle
 *fill*         0x0000000000026014        0xc 
 .text.appletHolderStart
                0x0000000000026020       0x50 C:/Users/RNG/Desktop/Stuff/Smash-Stuff/SMASH-ULTIMATE-MODS-BABY/50xx-the-mod/acmd-edits/code-mod-framework/lib/libnx_min/nx/lib\libnx_min.a(applet.o)
                0x0000000000026020                appletHolderStart
 .text.appletHolderJoin
                0x0000000000026070       0x80 C:/Users/RNG/Desktop/Stuff/Smash-Stuff/SMASH-ULTIMATE-MODS-BABY/50xx-the-mod/acmd-edits/code-mod-framework/lib/libnx_min/nx/lib\libnx_min.a(applet.o)
                0x0000000000026070                appletHolderJoin
 .text.appletHolderCheckFinished
                0x00000000000260f0       0x24 C:/Users/RNG/Desktop/Stuff/Smash-Stuff/SMASH-ULTIMATE-MODS-BABY/50xx-the-mod/acmd-edits/code-mod-framework/lib/libnx_min/nx/lib\libnx_min.a(applet.o)
                0x00000000000260f0                appletHolderCheckFinished
 *fill*         0x0000000000026114        0xc 
 .text.appletHolderRequestExit
                0x0000000000026120       0x50 C:/Users/RNG/Desktop/Stuff/Smash-Stuff/SMASH-ULTIMATE-MODS-BABY/50xx-the-mod/acmd-edits/code-mod-framework/lib/libnx_min/nx/lib\libnx_min.a(applet.o)
                0x0000000000026120                appletHolderRequestExit
 .text.appletHolderGetExitReason
                0x0000000000026170        0x8 C:/Users/RNG/Desktop/Stuff/Smash-Stuff/SMASH-ULTIMATE-MODS-BABY/50xx-the-mod/acmd-edits/code-mod-framework/lib/libnx_min/nx/lib\libnx_min.a(applet.o)
                0x0000000000026170                appletHolderGetExitReason
 *fill*         0x0000000000026178        0x8 
 .text.appletHolderWaitInteractiveOut
                0x0000000000026180       0x88 C:/Users/RNG/Desktop/Stuff/Smash-Stuff/SMASH-ULTIMATE-MODS-BABY/50xx-the-mod/acmd-edits/code-mod-framework/lib/libnx_min/nx/lib\libnx_min.a(applet.o)
                0x0000000000026180                appletHolderWaitInteractiveOut
 *fill*         0x0000000000026208        0x8 
 .text.appletHolderPopOutData
                0x0000000000026210       0x18 C:/Users/RNG/Desktop/Stuff/Smash-Stuff/SMASH-ULTIMATE-MODS-BABY/50xx-the-mod/acmd-edits/code-mod-framework/lib/libnx_min/nx/lib\libnx_min.a(applet.o)
                0x0000000000026210                appletHolderPopOutData
 *fill*         0x0000000000026228        0x8 
 .text.appletHolderPopInteractiveOutData
                0x0000000000026230       0x18 C:/Users/RNG/Desktop/Stuff/Smash-Stuff/SMASH-ULTIMATE-MODS-BABY/50xx-the-mod/acmd-edits/code-mod-framework/lib/libnx_min/nx/lib\libnx_min.a(applet.o)
                0x0000000000026230                appletHolderPopInteractiveOutData
 *fill*         0x0000000000026248        0x8 
 .text.appletCreateStorage
                0x0000000000026250       0x14 C:/Users/RNG/Desktop/Stuff/Smash-Stuff/SMASH-ULTIMATE-MODS-BABY/50xx-the-mod/acmd-edits/code-mod-framework/lib/libnx_min/nx/lib\libnx_min.a(applet.o)
                0x0000000000026250                appletCreateStorage
 *fill*         0x0000000000026264        0xc 
 .text.appletCreateTransferMemoryStorage
                0x0000000000026270       0xa8 C:/Users/RNG/Desktop/Stuff/Smash-Stuff/SMASH-ULTIMATE-MODS-BABY/50xx-the-mod/acmd-edits/code-mod-framework/lib/libnx_min/nx/lib\libnx_min.a(applet.o)
                0x0000000000026270                appletCreateTransferMemoryStorage
 *fill*         0x0000000000026318        0x8 
 .text.appletCreateHandleStorage
                0x0000000000026320       0x64 C:/Users/RNG/Desktop/Stuff/Smash-Stuff/SMASH-ULTIMATE-MODS-BABY/50xx-the-mod/acmd-edits/code-mod-framework/lib/libnx_min/nx/lib\libnx_min.a(applet.o)
                0x0000000000026320                appletCreateHandleStorage
 *fill*         0x0000000000026384        0xc 
 .text.appletCreateHandleStorageTmem
                0x0000000000026390       0xa0 C:/Users/RNG/Desktop/Stuff/Smash-Stuff/SMASH-ULTIMATE-MODS-BABY/50xx-the-mod/acmd-edits/code-mod-framework/lib/libnx_min/nx/lib\libnx_min.a(applet.o)
                0x0000000000026390                appletCreateHandleStorageTmem
 .text.appletStorageClose
                0x0000000000026430       0x6c C:/Users/RNG/Desktop/Stuff/Smash-Stuff/SMASH-ULTIMATE-MODS-BABY/50xx-the-mod/acmd-edits/code-mod-framework/lib/libnx_min/nx/lib\libnx_min.a(applet.o)
                0x0000000000026430                appletStorageClose
 *fill*         0x000000000002649c        0x4 
 .text.appletRequestLaunchApplication
                0x00000000000264a0      0x188 C:/Users/RNG/Desktop/Stuff/Smash-Stuff/SMASH-ULTIMATE-MODS-BABY/50xx-the-mod/acmd-edits/code-mod-framework/lib/libnx_min/nx/lib\libnx_min.a(applet.o)
                0x00000000000264a0                appletRequestLaunchApplication
 *fill*         0x0000000000026628        0x8 
 .text.appletRequestLaunchApplicationForQuest
                0x0000000000026630      0x168 C:/Users/RNG/Desktop/Stuff/Smash-Stuff/SMASH-ULTIMATE-MODS-BABY/50xx-the-mod/acmd-edits/code-mod-framework/lib/libnx_min/nx/lib\libnx_min.a(applet.o)
                0x0000000000026630                appletRequestLaunchApplicationForQuest
 *fill*         0x0000000000026798        0x8 
 .text.appletHolderPushInteractiveInData
                0x00000000000267a0       0x40 C:/Users/RNG/Desktop/Stuff/Smash-Stuff/SMASH-ULTIMATE-MODS-BABY/50xx-the-mod/acmd-edits/code-mod-framework/lib/libnx_min/nx/lib\libnx_min.a(applet.o)
                0x00000000000267a0                appletHolderPushInteractiveInData
 .text.appletPushToGeneralChannel
                0x00000000000267e0       0x4c C:/Users/RNG/Desktop/Stuff/Smash-Stuff/SMASH-ULTIMATE-MODS-BABY/50xx-the-mod/acmd-edits/code-mod-framework/lib/libnx_min/nx/lib\libnx_min.a(applet.o)
                0x00000000000267e0                appletPushToGeneralChannel
 *fill*         0x000000000002682c        0x4 
 .text.appletHolderPushInData
                0x0000000000026830       0x40 C:/Users/RNG/Desktop/Stuff/Smash-Stuff/SMASH-ULTIMATE-MODS-BABY/50xx-the-mod/acmd-edits/code-mod-framework/lib/libnx_min/nx/lib\libnx_min.a(applet.o)
                0x0000000000026830                appletHolderPushInData
 .text.appletHolderPushExtraStorage
                0x0000000000026870       0x40 C:/Users/RNG/Desktop/Stuff/Smash-Stuff/SMASH-ULTIMATE-MODS-BABY/50xx-the-mod/acmd-edits/code-mod-framework/lib/libnx_min/nx/lib\libnx_min.a(applet.o)
                0x0000000000026870                appletHolderPushExtraStorage
 .text.appletStorageCloseTmem
                0x00000000000268b0        0x8 C:/Users/RNG/Desktop/Stuff/Smash-Stuff/SMASH-ULTIMATE-MODS-BABY/50xx-the-mod/acmd-edits/code-mod-framework/lib/libnx_min/nx/lib\libnx_min.a(applet.o)
                0x00000000000268b0                appletStorageCloseTmem
 *fill*         0x00000000000268b8        0x8 
 .text.appletStorageGetSize
                0x00000000000268c0       0xc4 C:/Users/RNG/Desktop/Stuff/Smash-Stuff/SMASH-ULTIMATE-MODS-BABY/50xx-the-mod/acmd-edits/code-mod-framework/lib/libnx_min/nx/lib\libnx_min.a(applet.o)
                0x00000000000268c0                appletStorageGetSize
 *fill*         0x0000000000026984        0xc 
 .text.appletStorageWrite
                0x0000000000026990        0x8 C:/Users/RNG/Desktop/Stuff/Smash-Stuff/SMASH-ULTIMATE-MODS-BABY/50xx-the-mod/acmd-edits/code-mod-framework/lib/libnx_min/nx/lib\libnx_min.a(applet.o)
                0x0000000000026990                appletStorageWrite
 *fill*         0x0000000000026998        0x8 
 .text.appletStorageRead
                0x00000000000269a0        0x8 C:/Users/RNG/Desktop/Stuff/Smash-Stuff/SMASH-ULTIMATE-MODS-BABY/50xx-the-mod/acmd-edits/code-mod-framework/lib/libnx_min/nx/lib\libnx_min.a(applet.o)
                0x00000000000269a0                appletStorageRead
 *fill*         0x00000000000269a8        0x8 
 .text.appletStorageGetHandle
                0x00000000000269b0       0xfc C:/Users/RNG/Desktop/Stuff/Smash-Stuff/SMASH-ULTIMATE-MODS-BABY/50xx-the-mod/acmd-edits/code-mod-framework/lib/libnx_min/nx/lib\libnx_min.a(applet.o)
                0x00000000000269b0                appletStorageGetHandle
 *fill*         0x0000000000026aac        0x4 
 .text.appletStorageMap
                0x0000000000026ab0       0xcc C:/Users/RNG/Desktop/Stuff/Smash-Stuff/SMASH-ULTIMATE-MODS-BABY/50xx-the-mod/acmd-edits/code-mod-framework/lib/libnx_min/nx/lib\libnx_min.a(applet.o)
                0x0000000000026ab0                appletStorageMap
 *fill*         0x0000000000026b7c        0x4 
 .text.appletGetOperationMode
                0x0000000000026b80        0xc C:/Users/RNG/Desktop/Stuff/Smash-Stuff/SMASH-ULTIMATE-MODS-BABY/50xx-the-mod/acmd-edits/code-mod-framework/lib/libnx_min/nx/lib\libnx_min.a(applet.o)
                0x0000000000026b80                appletGetOperationMode
 *fill*         0x0000000000026b8c        0x4 
 .text.appletGetPerformanceMode
                0x0000000000026b90        0xc C:/Users/RNG/Desktop/Stuff/Smash-Stuff/SMASH-ULTIMATE-MODS-BABY/50xx-the-mod/acmd-edits/code-mod-framework/lib/libnx_min/nx/lib\libnx_min.a(applet.o)
                0x0000000000026b90                appletGetPerformanceMode
 *fill*         0x0000000000026b9c        0x4 
 .text.appletGetFocusState
                0x0000000000026ba0        0xc C:/Users/RNG/Desktop/Stuff/Smash-Stuff/SMASH-ULTIMATE-MODS-BABY/50xx-the-mod/acmd-edits/code-mod-framework/lib/libnx_min/nx/lib\libnx_min.a(applet.o)
                0x0000000000026ba0                appletGetFocusState
 *fill*         0x0000000000026bac        0x4 
 .text.appletGetMessage
                0x0000000000026bb0       0x5c C:/Users/RNG/Desktop/Stuff/Smash-Stuff/SMASH-ULTIMATE-MODS-BABY/50xx-the-mod/acmd-edits/code-mod-framework/lib/libnx_min/nx/lib\libnx_min.a(applet.o)
                0x0000000000026bb0                appletGetMessage
 *fill*         0x0000000000026c0c        0x4 
 .text.appletProcessMessage
                0x0000000000026c10      0x118 C:/Users/RNG/Desktop/Stuff/Smash-Stuff/SMASH-ULTIMATE-MODS-BABY/50xx-the-mod/acmd-edits/code-mod-framework/lib/libnx_min/nx/lib\libnx_min.a(applet.o)
                0x0000000000026c10                appletProcessMessage
 *fill*         0x0000000000026d28        0x8 
 .text.appletMainLoop
                0x0000000000026d30       0x34 C:/Users/RNG/Desktop/Stuff/Smash-Stuff/SMASH-ULTIMATE-MODS-BABY/50xx-the-mod/acmd-edits/code-mod-framework/lib/libnx_min/nx/lib\libnx_min.a(applet.o)
                0x0000000000026d30                appletMainLoop
 *fill*         0x0000000000026d64        0xc 
 .text.__syscall_exit
                0x0000000000026d70       0x1c C:/Users/RNG/Desktop/Stuff/Smash-Stuff/SMASH-ULTIMATE-MODS-BABY/50xx-the-mod/acmd-edits/code-mod-framework/lib/libnx_min/nx/lib\libnx_min.a(newlib.o)
                0x0000000000026d70                __syscall_exit
 *fill*         0x0000000000026d8c        0x4 
 .text.__syscall_getreent
                0x0000000000026d90       0x10 C:/Users/RNG/Desktop/Stuff/Smash-Stuff/SMASH-ULTIMATE-MODS-BABY/50xx-the-mod/acmd-edits/code-mod-framework/lib/libnx_min/nx/lib\libnx_min.a(newlib.o)
                0x0000000000026d90                __syscall_getreent
 .text.__syscall_lock_acquire
                0x0000000000026da0        0x4 C:/Users/RNG/Desktop/Stuff/Smash-Stuff/SMASH-ULTIMATE-MODS-BABY/50xx-the-mod/acmd-edits/code-mod-framework/lib/libnx_min/nx/lib\libnx_min.a(newlib.o)
                0x0000000000026da0                __syscall_lock_acquire
 *fill*         0x0000000000026da4        0xc 
 .text.__syscall_lock_try_acquire
                0x0000000000026db0       0x1c C:/Users/RNG/Desktop/Stuff/Smash-Stuff/SMASH-ULTIMATE-MODS-BABY/50xx-the-mod/acmd-edits/code-mod-framework/lib/libnx_min/nx/lib\libnx_min.a(newlib.o)
                0x0000000000026db0                __syscall_lock_try_acquire
 *fill*         0x0000000000026dcc        0x4 
 .text.__syscall_lock_release
                0x0000000000026dd0        0x4 C:/Users/RNG/Desktop/Stuff/Smash-Stuff/SMASH-ULTIMATE-MODS-BABY/50xx-the-mod/acmd-edits/code-mod-framework/lib/libnx_min/nx/lib\libnx_min.a(newlib.o)
                0x0000000000026dd0                __syscall_lock_release
 *fill*         0x0000000000026dd4        0xc 
 .text.__syscall_lock_acquire_recursive
                0x0000000000026de0        0x4 C:/Users/RNG/Desktop/Stuff/Smash-Stuff/SMASH-ULTIMATE-MODS-BABY/50xx-the-mod/acmd-edits/code-mod-framework/lib/libnx_min/nx/lib\libnx_min.a(newlib.o)
                0x0000000000026de0                __syscall_lock_acquire_recursive
 *fill*         0x0000000000026de4        0xc 
 .text.__syscall_lock_try_acquire_recursive
                0x0000000000026df0       0x1c C:/Users/RNG/Desktop/Stuff/Smash-Stuff/SMASH-ULTIMATE-MODS-BABY/50xx-the-mod/acmd-edits/code-mod-framework/lib/libnx_min/nx/lib\libnx_min.a(newlib.o)
                0x0000000000026df0                __syscall_lock_try_acquire_recursive
 *fill*         0x0000000000026e0c        0x4 
 .text.__syscall_lock_release_recursive
                0x0000000000026e10        0x4 C:/Users/RNG/Desktop/Stuff/Smash-Stuff/SMASH-ULTIMATE-MODS-BABY/50xx-the-mod/acmd-edits/code-mod-framework/lib/libnx_min/nx/lib\libnx_min.a(newlib.o)
                0x0000000000026e10                __syscall_lock_release_recursive
 *fill*         0x0000000000026e14        0xc 
 .text.__syscall_cond_signal
                0x0000000000026e20       0x40 C:/Users/RNG/Desktop/Stuff/Smash-Stuff/SMASH-ULTIMATE-MODS-BABY/50xx-the-mod/acmd-edits/code-mod-framework/lib/libnx_min/nx/lib\libnx_min.a(newlib.o)
                0x0000000000026e20                __syscall_cond_signal
 .text.__syscall_cond_broadcast
                0x0000000000026e60       0x40 C:/Users/RNG/Desktop/Stuff/Smash-Stuff/SMASH-ULTIMATE-MODS-BABY/50xx-the-mod/acmd-edits/code-mod-framework/lib/libnx_min/nx/lib\libnx_min.a(newlib.o)
                0x0000000000026e60                __syscall_cond_broadcast
 .text.__syscall_cond_wait
                0x0000000000026ea0       0x3c C:/Users/RNG/Desktop/Stuff/Smash-Stuff/SMASH-ULTIMATE-MODS-BABY/50xx-the-mod/acmd-edits/code-mod-framework/lib/libnx_min/nx/lib\libnx_min.a(newlib.o)
                0x0000000000026ea0                __syscall_cond_wait
 *fill*         0x0000000000026edc        0x4 
 .text.__syscall_cond_wait_recursive
                0x0000000000026ee0       0x64 C:/Users/RNG/Desktop/Stuff/Smash-Stuff/SMASH-ULTIMATE-MODS-BABY/50xx-the-mod/acmd-edits/code-mod-framework/lib/libnx_min/nx/lib\libnx_min.a(newlib.o)
                0x0000000000026ee0                __syscall_cond_wait_recursive
 *fill*         0x0000000000026f44        0xc 
 .text.__syscall_thread_self
                0x0000000000026f50       0x14 C:/Users/RNG/Desktop/Stuff/Smash-Stuff/SMASH-ULTIMATE-MODS-BABY/50xx-the-mod/acmd-edits/code-mod-framework/lib/libnx_min/nx/lib\libnx_min.a(newlib.o)
                0x0000000000026f50                __syscall_thread_self
 *fill*         0x0000000000026f64        0xc 
 .text.__syscall_thread_exit
                0x0000000000026f70       0x2c C:/Users/RNG/Desktop/Stuff/Smash-Stuff/SMASH-ULTIMATE-MODS-BABY/50xx-the-mod/acmd-edits/code-mod-framework/lib/libnx_min/nx/lib\libnx_min.a(newlib.o)
                0x0000000000026f70                __syscall_thread_exit
 *fill*         0x0000000000026f9c        0x4 
 .text.__thread_entry
                0x0000000000026fa0       0x58 C:/Users/RNG/Desktop/Stuff/Smash-Stuff/SMASH-ULTIMATE-MODS-BABY/50xx-the-mod/acmd-edits/code-mod-framework/lib/libnx_min/nx/lib\libnx_min.a(newlib.o)
 *fill*         0x0000000000026ff8        0x8 
 .text.__syscall_thread_create
                0x0000000000027000      0x15c C:/Users/RNG/Desktop/Stuff/Smash-Stuff/SMASH-ULTIMATE-MODS-BABY/50xx-the-mod/acmd-edits/code-mod-framework/lib/libnx_min/nx/lib\libnx_min.a(newlib.o)
                0x0000000000027000                __syscall_thread_create
 *fill*         0x000000000002715c        0x4 
 .text.__syscall_thread_join
                0x0000000000027160       0x58 C:/Users/RNG/Desktop/Stuff/Smash-Stuff/SMASH-ULTIMATE-MODS-BABY/50xx-the-mod/acmd-edits/code-mod-framework/lib/libnx_min/nx/lib\libnx_min.a(newlib.o)
                0x0000000000027160                __syscall_thread_join
 *fill*         0x00000000000271b8        0x8 
 .text.__syscall_tls_create
                0x00000000000271c0       0x44 C:/Users/RNG/Desktop/Stuff/Smash-Stuff/SMASH-ULTIMATE-MODS-BABY/50xx-the-mod/acmd-edits/code-mod-framework/lib/libnx_min/nx/lib\libnx_min.a(newlib.o)
                0x00000000000271c0                __syscall_tls_create
 *fill*         0x0000000000027204        0xc 
 .text.__syscall_tls_set
                0x0000000000027210       0x18 C:/Users/RNG/Desktop/Stuff/Smash-Stuff/SMASH-ULTIMATE-MODS-BABY/50xx-the-mod/acmd-edits/code-mod-framework/lib/libnx_min/nx/lib\libnx_min.a(newlib.o)
                0x0000000000027210                __syscall_tls_set
 *fill*         0x0000000000027228        0x8 
 .text.__syscall_tls_get
                0x0000000000027230        0x4 C:/Users/RNG/Desktop/Stuff/Smash-Stuff/SMASH-ULTIMATE-MODS-BABY/50xx-the-mod/acmd-edits/code-mod-framework/lib/libnx_min/nx/lib\libnx_min.a(newlib.o)
                0x0000000000027230                __syscall_tls_get
 *fill*         0x0000000000027234        0xc 
 .text.__syscall_tls_delete
                0x0000000000027240       0x18 C:/Users/RNG/Desktop/Stuff/Smash-Stuff/SMASH-ULTIMATE-MODS-BABY/50xx-the-mod/acmd-edits/code-mod-framework/lib/libnx_min/nx/lib\libnx_min.a(newlib.o)
                0x0000000000027240                __syscall_tls_delete
 *fill*         0x0000000000027258        0x8 
 .text.sched_yield
                0x0000000000027260       0x1c C:/Users/RNG/Desktop/Stuff/Smash-Stuff/SMASH-ULTIMATE-MODS-BABY/50xx-the-mod/acmd-edits/code-mod-framework/lib/libnx_min/nx/lib\libnx_min.a(newlib.o)
                0x0000000000027260                sched_yield
 *fill*         0x000000000002727c        0x4 
 .text.sched_getcpu
                0x0000000000027280        0x4 C:/Users/RNG/Desktop/Stuff/Smash-Stuff/SMASH-ULTIMATE-MODS-BABY/50xx-the-mod/acmd-edits/code-mod-framework/lib/libnx_min/nx/lib\libnx_min.a(newlib.o)
                0x0000000000027280                sched_getcpu
 *fill*         0x0000000000027284        0xc 
 .text.__libnx_init_time
                0x0000000000027290      0x27c C:/Users/RNG/Desktop/Stuff/Smash-Stuff/SMASH-ULTIMATE-MODS-BABY/50xx-the-mod/acmd-edits/code-mod-framework/lib/libnx_min/nx/lib\libnx_min.a(newlib.o)
                0x0000000000027290                __libnx_init_time
 *fill*         0x000000000002750c        0x4 
 .text.__syscall_clock_getres
                0x0000000000027510       0x58 C:/Users/RNG/Desktop/Stuff/Smash-Stuff/SMASH-ULTIMATE-MODS-BABY/50xx-the-mod/acmd-edits/code-mod-framework/lib/libnx_min/nx/lib\libnx_min.a(newlib.o)
                0x0000000000027510                __syscall_clock_getres
 *fill*         0x0000000000027568        0x8 
 .text.__syscall_clock_gettime
                0x0000000000027570       0xf8 C:/Users/RNG/Desktop/Stuff/Smash-Stuff/SMASH-ULTIMATE-MODS-BABY/50xx-the-mod/acmd-edits/code-mod-framework/lib/libnx_min/nx/lib\libnx_min.a(newlib.o)
                0x0000000000027570                __syscall_clock_gettime
 *fill*         0x0000000000027668        0x8 
 .text.__syscall_gettod_r
                0x0000000000027670       0x8c C:/Users/RNG/Desktop/Stuff/Smash-Stuff/SMASH-ULTIMATE-MODS-BABY/50xx-the-mod/acmd-edits/code-mod-framework/lib/libnx_min/nx/lib\libnx_min.a(newlib.o)
                0x0000000000027670                __syscall_gettod_r
 *fill*         0x00000000000276fc        0x4 
 .text.__syscall_nanosleep
                0x0000000000027700       0x5c C:/Users/RNG/Desktop/Stuff/Smash-Stuff/SMASH-ULTIMATE-MODS-BABY/50xx-the-mod/acmd-edits/code-mod-framework/lib/libnx_min/nx/lib\libnx_min.a(newlib.o)
                0x0000000000027700                __syscall_nanosleep
 *fill*         0x000000000002775c        0x4 
 .text.newlibSetup
                0x0000000000027760       0x74 C:/Users/RNG/Desktop/Stuff/Smash-Stuff/SMASH-ULTIMATE-MODS-BABY/50xx-the-mod/acmd-edits/code-mod-framework/lib/libnx_min/nx/lib\libnx_min.a(newlib.o)
                0x0000000000027760                newlibSetup
 *fill*         0x00000000000277d4        0xc 
 .text.threadCreate
                0x00000000000277e0      0x1fc C:/Users/RNG/Desktop/Stuff/Smash-Stuff/SMASH-ULTIMATE-MODS-BABY/50xx-the-mod/acmd-edits/code-mod-framework/lib/libnx_min/nx/lib\libnx_min.a(thread.o)
                0x00000000000277e0                threadCreate
 *fill*         0x00000000000279dc        0x4 
 .text.threadExit
                0x00000000000279e0       0xb0 C:/Users/RNG/Desktop/Stuff/Smash-Stuff/SMASH-ULTIMATE-MODS-BABY/50xx-the-mod/acmd-edits/code-mod-framework/lib/libnx_min/nx/lib\libnx_min.a(thread.o)
                0x00000000000279e0                threadExit
 .text._EntryWrap
                0x0000000000027a90       0x90 C:/Users/RNG/Desktop/Stuff/Smash-Stuff/SMASH-ULTIMATE-MODS-BABY/50xx-the-mod/acmd-edits/code-mod-framework/lib/libnx_min/nx/lib\libnx_min.a(thread.o)
 .text.threadStart
                0x0000000000027b20        0x8 C:/Users/RNG/Desktop/Stuff/Smash-Stuff/SMASH-ULTIMATE-MODS-BABY/50xx-the-mod/acmd-edits/code-mod-framework/lib/libnx_min/nx/lib\libnx_min.a(thread.o)
                0x0000000000027b20                threadStart
 *fill*         0x0000000000027b28        0x8 
 .text.threadWaitForExit
                0x0000000000027b30       0x2c C:/Users/RNG/Desktop/Stuff/Smash-Stuff/SMASH-ULTIMATE-MODS-BABY/50xx-the-mod/acmd-edits/code-mod-framework/lib/libnx_min/nx/lib\libnx_min.a(thread.o)
                0x0000000000027b30                threadWaitForExit
 *fill*         0x0000000000027b5c        0x4 
 .text.threadClose
                0x0000000000027b60       0x54 C:/Users/RNG/Desktop/Stuff/Smash-Stuff/SMASH-ULTIMATE-MODS-BABY/50xx-the-mod/acmd-edits/code-mod-framework/lib/libnx_min/nx/lib\libnx_min.a(thread.o)
                0x0000000000027b60                threadClose
 *fill*         0x0000000000027bb4        0xc 
 .text.threadPause
                0x0000000000027bc0        0xc C:/Users/RNG/Desktop/Stuff/Smash-Stuff/SMASH-ULTIMATE-MODS-BABY/50xx-the-mod/acmd-edits/code-mod-framework/lib/libnx_min/nx/lib\libnx_min.a(thread.o)
                0x0000000000027bc0                threadPause
 *fill*         0x0000000000027bcc        0x4 
 .text.threadResume
                0x0000000000027bd0        0xc C:/Users/RNG/Desktop/Stuff/Smash-Stuff/SMASH-ULTIMATE-MODS-BABY/50xx-the-mod/acmd-edits/code-mod-framework/lib/libnx_min/nx/lib\libnx_min.a(thread.o)
                0x0000000000027bd0                threadResume
 *fill*         0x0000000000027bdc        0x4 
 .text.threadDumpContext
                0x0000000000027be0        0x8 C:/Users/RNG/Desktop/Stuff/Smash-Stuff/SMASH-ULTIMATE-MODS-BABY/50xx-the-mod/acmd-edits/code-mod-framework/lib/libnx_min/nx/lib\libnx_min.a(thread.o)
                0x0000000000027be0                threadDumpContext
 *fill*         0x0000000000027be8        0x8 
 .text.threadGetCurHandle
                0x0000000000027bf0        0xc C:/Users/RNG/Desktop/Stuff/Smash-Stuff/SMASH-ULTIMATE-MODS-BABY/50xx-the-mod/acmd-edits/code-mod-framework/lib/libnx_min/nx/lib\libnx_min.a(thread.o)
                0x0000000000027bf0                threadGetCurHandle
 *fill*         0x0000000000027bfc        0x4 
 .text.threadTlsGet
                0x0000000000027c00       0x10 C:/Users/RNG/Desktop/Stuff/Smash-Stuff/SMASH-ULTIMATE-MODS-BABY/50xx-the-mod/acmd-edits/code-mod-framework/lib/libnx_min/nx/lib\libnx_min.a(thread.o)
                0x0000000000027c00                threadTlsGet
 .text.threadTlsSet
                0x0000000000027c10       0x10 C:/Users/RNG/Desktop/Stuff/Smash-Stuff/SMASH-ULTIMATE-MODS-BABY/50xx-the-mod/acmd-edits/code-mod-framework/lib/libnx_min/nx/lib\libnx_min.a(thread.o)
                0x0000000000027c10                threadTlsSet
 .text.threadTlsAlloc
                0x0000000000027c20       0xd8 C:/Users/RNG/Desktop/Stuff/Smash-Stuff/SMASH-ULTIMATE-MODS-BABY/50xx-the-mod/acmd-edits/code-mod-framework/lib/libnx_min/nx/lib\libnx_min.a(thread.o)
                0x0000000000027c20                threadTlsAlloc
 *fill*         0x0000000000027cf8        0x8 
 .text.threadTlsFree
                0x0000000000027d00       0x48 C:/Users/RNG/Desktop/Stuff/Smash-Stuff/SMASH-ULTIMATE-MODS-BABY/50xx-the-mod/acmd-edits/code-mod-framework/lib/libnx_min/nx/lib\libnx_min.a(thread.o)
                0x0000000000027d00                threadTlsFree
 *fill*         0x0000000000027d48        0x8 
 .text.condvarWaitTimeout
                0x0000000000027d50       0x60 C:/Users/RNG/Desktop/Stuff/Smash-Stuff/SMASH-ULTIMATE-MODS-BABY/50xx-the-mod/acmd-edits/code-mod-framework/lib/libnx_min/nx/lib\libnx_min.a(condvar.o)
                0x0000000000027d50                condvarWaitTimeout
 .text.eventCreate
                0x0000000000027db0       0x38 C:/Users/RNG/Desktop/Stuff/Smash-Stuff/SMASH-ULTIMATE-MODS-BABY/50xx-the-mod/acmd-edits/code-mod-framework/lib/libnx_min/nx/lib\libnx_min.a(event.o)
                0x0000000000027db0                eventCreate
 *fill*         0x0000000000027de8        0x8 
 .text.eventLoadRemote
                0x0000000000027df0        0xc C:/Users/RNG/Desktop/Stuff/Smash-Stuff/SMASH-ULTIMATE-MODS-BABY/50xx-the-mod/acmd-edits/code-mod-framework/lib/libnx_min/nx/lib\libnx_min.a(event.o)
                0x0000000000027df0                eventLoadRemote
 *fill*         0x0000000000027dfc        0x4 
 .text.eventWait
                0x0000000000027e00       0x38 C:/Users/RNG/Desktop/Stuff/Smash-Stuff/SMASH-ULTIMATE-MODS-BABY/50xx-the-mod/acmd-edits/code-mod-framework/lib/libnx_min/nx/lib\libnx_min.a(event.o)
                0x0000000000027e00                eventWait
 *fill*         0x0000000000027e38        0x8 
 .text.eventFire
                0x0000000000027e40       0x14 C:/Users/RNG/Desktop/Stuff/Smash-Stuff/SMASH-ULTIMATE-MODS-BABY/50xx-the-mod/acmd-edits/code-mod-framework/lib/libnx_min/nx/lib\libnx_min.a(event.o)
                0x0000000000027e40                eventFire
 *fill*         0x0000000000027e54        0xc 
 .text.eventClear
                0x0000000000027e60       0x24 C:/Users/RNG/Desktop/Stuff/Smash-Stuff/SMASH-ULTIMATE-MODS-BABY/50xx-the-mod/acmd-edits/code-mod-framework/lib/libnx_min/nx/lib\libnx_min.a(event.o)
                0x0000000000027e60                eventClear
 *fill*         0x0000000000027e84        0xc 
 .text.eventClose
                0x0000000000027e90       0x50 C:/Users/RNG/Desktop/Stuff/Smash-Stuff/SMASH-ULTIMATE-MODS-BABY/50xx-the-mod/acmd-edits/code-mod-framework/lib/libnx_min/nx/lib\libnx_min.a(event.o)
                0x0000000000027e90                eventClose
 .text.tmemCreate
                0x0000000000027ee0       0xa8 C:/Users/RNG/Desktop/Stuff/Smash-Stuff/SMASH-ULTIMATE-MODS-BABY/50xx-the-mod/acmd-edits/code-mod-framework/lib/libnx_min/nx/lib\libnx_min.a(tmem.o)
                0x0000000000027ee0                tmemCreate
 *fill*         0x0000000000027f88        0x8 
 .text.tmemCreateFromMemory
                0x0000000000027f90       0x2c C:/Users/RNG/Desktop/Stuff/Smash-Stuff/SMASH-ULTIMATE-MODS-BABY/50xx-the-mod/acmd-edits/code-mod-framework/lib/libnx_min/nx/lib\libnx_min.a(tmem.o)
                0x0000000000027f90                tmemCreateFromMemory
 *fill*         0x0000000000027fbc        0x4 
 .text.tmemLoadRemote
                0x0000000000027fc0       0x14 C:/Users/RNG/Desktop/Stuff/Smash-Stuff/SMASH-ULTIMATE-MODS-BABY/50xx-the-mod/acmd-edits/code-mod-framework/lib/libnx_min/nx/lib\libnx_min.a(tmem.o)
                0x0000000000027fc0                tmemLoadRemote
 *fill*         0x0000000000027fd4        0xc 
 .text.tmemMap  0x0000000000027fe0       0x84 C:/Users/RNG/Desktop/Stuff/Smash-Stuff/SMASH-ULTIMATE-MODS-BABY/50xx-the-mod/acmd-edits/code-mod-framework/lib/libnx_min/nx/lib\libnx_min.a(tmem.o)
                0x0000000000027fe0                tmemMap
 *fill*         0x0000000000028064        0xc 
 .text.tmemUnmap
                0x0000000000028070       0x58 C:/Users/RNG/Desktop/Stuff/Smash-Stuff/SMASH-ULTIMATE-MODS-BABY/50xx-the-mod/acmd-edits/code-mod-framework/lib/libnx_min/nx/lib\libnx_min.a(tmem.o)
                0x0000000000028070                tmemUnmap
 *fill*         0x00000000000280c8        0x8 
 .text.tmemClose
                0x00000000000280d0       0x68 C:/Users/RNG/Desktop/Stuff/Smash-Stuff/SMASH-ULTIMATE-MODS-BABY/50xx-the-mod/acmd-edits/code-mod-framework/lib/libnx_min/nx/lib\libnx_min.a(tmem.o)
                0x00000000000280d0                tmemClose
 *fill*         0x0000000000028138        0x8 
 .text.rwlockInit
                0x0000000000028140        0x8 C:/Users/RNG/Desktop/Stuff/Smash-Stuff/SMASH-ULTIMATE-MODS-BABY/50xx-the-mod/acmd-edits/code-mod-framework/lib/libnx_min/nx/lib\libnx_min.a(rwlock.o)
                0x0000000000028140                rwlockInit
 *fill*         0x0000000000028148        0x8 
 .text.rwlockReadLock
                0x0000000000028150       0x58 C:/Users/RNG/Desktop/Stuff/Smash-Stuff/SMASH-ULTIMATE-MODS-BABY/50xx-the-mod/acmd-edits/code-mod-framework/lib/libnx_min/nx/lib\libnx_min.a(rwlock.o)
                0x0000000000028150                rwlockReadLock
 *fill*         0x00000000000281a8        0x8 
 .text.rwlockReadUnlock
                0x00000000000281b0       0x5c C:/Users/RNG/Desktop/Stuff/Smash-Stuff/SMASH-ULTIMATE-MODS-BABY/50xx-the-mod/acmd-edits/code-mod-framework/lib/libnx_min/nx/lib\libnx_min.a(rwlock.o)
                0x00000000000281b0                rwlockReadUnlock
 *fill*         0x000000000002820c        0x4 
 .text.rwlockWriteLock
                0x0000000000028210       0x84 C:/Users/RNG/Desktop/Stuff/Smash-Stuff/SMASH-ULTIMATE-MODS-BABY/50xx-the-mod/acmd-edits/code-mod-framework/lib/libnx_min/nx/lib\libnx_min.a(rwlock.o)
                0x0000000000028210                rwlockWriteLock
 *fill*         0x0000000000028294        0xc 
 .text.rwlockWriteUnlock
                0x00000000000282a0       0x3c C:/Users/RNG/Desktop/Stuff/Smash-Stuff/SMASH-ULTIMATE-MODS-BABY/50xx-the-mod/acmd-edits/code-mod-framework/lib/libnx_min/nx/lib\libnx_min.a(rwlock.o)
                0x00000000000282a0                rwlockWriteUnlock
 *fill*         0x00000000000282dc        0x4 
 .text._waitLoop
                0x00000000000282e0      0x104 C:/Users/RNG/Desktop/Stuff/Smash-Stuff/SMASH-ULTIMATE-MODS-BABY/50xx-the-mod/acmd-edits/code-mod-framework/lib/libnx_min/nx/lib\libnx_min.a(wait.o)
 *fill*         0x00000000000283e4        0xc 
 .text._waitObjectsImpl
                0x00000000000283f0      0x338 C:/Users/RNG/Desktop/Stuff/Smash-Stuff/SMASH-ULTIMATE-MODS-BABY/50xx-the-mod/acmd-edits/code-mod-framework/lib/libnx_min/nx/lib\libnx_min.a(wait.o)
 *fill*         0x0000000000028728        0x8 
 .text.waitObjects
                0x0000000000028730        0xc C:/Users/RNG/Desktop/Stuff/Smash-Stuff/SMASH-ULTIMATE-MODS-BABY/50xx-the-mod/acmd-edits/code-mod-framework/lib/libnx_min/nx/lib\libnx_min.a(wait.o)
                0x0000000000028730                waitObjects
 *fill*         0x000000000002873c        0x4 
 .text.waitHandles
                0x0000000000028740        0xc C:/Users/RNG/Desktop/Stuff/Smash-Stuff/SMASH-ULTIMATE-MODS-BABY/50xx-the-mod/acmd-edits/code-mod-framework/lib/libnx_min/nx/lib\libnx_min.a(wait.o)
                0x0000000000028740                waitHandles
 *fill*         0x000000000002874c        0x4 
 .text.shmemCreate
                0x0000000000028750       0x14 C:/Users/RNG/Desktop/Stuff/Smash-Stuff/SMASH-ULTIMATE-MODS-BABY/50xx-the-mod/acmd-edits/code-mod-framework/lib/libnx_min/nx/lib\libnx_min.a(shmem.o)
                0x0000000000028750                shmemCreate
 *fill*         0x0000000000028764        0xc 
 .text.shmemLoadRemote
                0x0000000000028770       0x14 C:/Users/RNG/Desktop/Stuff/Smash-Stuff/SMASH-ULTIMATE-MODS-BABY/50xx-the-mod/acmd-edits/code-mod-framework/lib/libnx_min/nx/lib\libnx_min.a(shmem.o)
                0x0000000000028770                shmemLoadRemote
 *fill*         0x0000000000028784        0xc 
 .text.shmemMap
                0x0000000000028790       0x84 C:/Users/RNG/Desktop/Stuff/Smash-Stuff/SMASH-ULTIMATE-MODS-BABY/50xx-the-mod/acmd-edits/code-mod-framework/lib/libnx_min/nx/lib\libnx_min.a(shmem.o)
                0x0000000000028790                shmemMap
 *fill*         0x0000000000028814        0xc 
 .text.shmemUnmap
                0x0000000000028820       0x58 C:/Users/RNG/Desktop/Stuff/Smash-Stuff/SMASH-ULTIMATE-MODS-BABY/50xx-the-mod/acmd-edits/code-mod-framework/lib/libnx_min/nx/lib\libnx_min.a(shmem.o)
                0x0000000000028820                shmemUnmap
 *fill*         0x0000000000028878        0x8 
 .text.shmemClose
                0x0000000000028880       0x44 C:/Users/RNG/Desktop/Stuff/Smash-Stuff/SMASH-ULTIMATE-MODS-BABY/50xx-the-mod/acmd-edits/code-mod-framework/lib/libnx_min/nx/lib\libnx_min.a(shmem.o)
                0x0000000000028880                shmemClose
 *fill*         0x00000000000288c4        0xc 
 .text.detectKernelVersion
                0x00000000000288d0      0x17c C:/Users/RNG/Desktop/Stuff/Smash-Stuff/SMASH-ULTIMATE-MODS-BABY/50xx-the-mod/acmd-edits/code-mod-framework/lib/libnx_min/nx/lib\libnx_min.a(detect.o)
                0x00000000000288d0                detectKernelVersion
 *fill*         0x0000000000028a4c        0x4 
 .text.detectDebugger
                0x0000000000028a50       0x30 C:/Users/RNG/Desktop/Stuff/Smash-Stuff/SMASH-ULTIMATE-MODS-BABY/50xx-the-mod/acmd-edits/code-mod-framework/lib/libnx_min/nx/lib\libnx_min.a(detect.o)
                0x0000000000028a50                detectDebugger
 .text.detectJitKernelPatch
                0x0000000000028a80       0xdc C:/Users/RNG/Desktop/Stuff/Smash-Stuff/SMASH-ULTIMATE-MODS-BABY/50xx-the-mod/acmd-edits/code-mod-framework/lib/libnx_min/nx/lib\libnx_min.a(detect.o)
                0x0000000000028a80                detectJitKernelPatch
 *fill*         0x0000000000028b5c        0x4 
 .text.detectIgnoreJitKernelPatch
                0x0000000000028b60       0x44 C:/Users/RNG/Desktop/Stuff/Smash-Stuff/SMASH-ULTIMATE-MODS-BABY/50xx-the-mod/acmd-edits/code-mod-framework/lib/libnx_min/nx/lib\libnx_min.a(detect.o)
                0x0000000000028b60                detectIgnoreJitKernelPatch
 *fill*         0x0000000000028ba4        0xc 
 .text.ipcCloseObjectById
                0x0000000000028bb0       0x34 C:/Users/RNG/Desktop/Stuff/Smash-Stuff/SMASH-ULTIMATE-MODS-BABY/50xx-the-mod/acmd-edits/code-mod-framework/lib/libnx_min/nx/lib\libnx_min.a(apm.o)
 *fill*         0x0000000000028be4        0xc 
 .text._apmGetSession.constprop.4
                0x0000000000028bf0      0x124 C:/Users/RNG/Desktop/Stuff/Smash-Stuff/SMASH-ULTIMATE-MODS-BABY/50xx-the-mod/acmd-edits/code-mod-framework/lib/libnx_min/nx/lib\libnx_min.a(apm.o)
 *fill*         0x0000000000028d14        0xc 
 .text.apmExit  0x0000000000028d20       0xf0 C:/Users/RNG/Desktop/Stuff/Smash-Stuff/SMASH-ULTIMATE-MODS-BABY/50xx-the-mod/acmd-edits/code-mod-framework/lib/libnx_min/nx/lib\libnx_min.a(apm.o)
                0x0000000000028d20                apmExit
 .text.apmInitialize
                0x0000000000028e10       0x70 C:/Users/RNG/Desktop/Stuff/Smash-Stuff/SMASH-ULTIMATE-MODS-BABY/50xx-the-mod/acmd-edits/code-mod-framework/lib/libnx_min/nx/lib\libnx_min.a(apm.o)
                0x0000000000028e10                apmInitialize
 .text.apmSetPerformanceConfiguration
                0x0000000000028e80       0xcc C:/Users/RNG/Desktop/Stuff/Smash-Stuff/SMASH-ULTIMATE-MODS-BABY/50xx-the-mod/acmd-edits/code-mod-framework/lib/libnx_min/nx/lib\libnx_min.a(apm.o)
                0x0000000000028e80                apmSetPerformanceConfiguration
 *fill*         0x0000000000028f4c        0x4 
 .text.apmGetPerformanceConfiguration
                0x0000000000028f50       0xf4 C:/Users/RNG/Desktop/Stuff/Smash-Stuff/SMASH-ULTIMATE-MODS-BABY/50xx-the-mod/acmd-edits/code-mod-framework/lib/libnx_min/nx/lib\libnx_min.a(apm.o)
                0x0000000000028f50                apmGetPerformanceConfiguration
 *fill*         0x0000000000029044        0x4 
 .text.bsearch  0x0000000000029048       0xb8 c:/devkitpro/devkita64/bin/../lib/gcc/aarch64-none-elf/8.3.0/../../../../aarch64-none-elf/lib/pic\libg.a(lib_a-bsearch.o)
                0x0000000000029048                bsearch
 .text.__set_ctype
                0x0000000000029100       0x10 c:/devkitpro/devkita64/bin/../lib/gcc/aarch64-none-elf/8.3.0/../../../../aarch64-none-elf/lib/pic\libg.a(lib_a-ctype_.o)
                0x0000000000029100                __set_ctype
 .text.__errno  0x0000000000029110       0x14 c:/devkitpro/devkita64/bin/../lib/gcc/aarch64-none-elf/8.3.0/../../../../aarch64-none-elf/lib/pic\libg.a(lib_a-errno.o)
                0x0000000000029110                __errno
 *fill*         0x0000000000029124        0x4 
 .text.__libc_fini_array
                0x0000000000029128       0x44 c:/devkitpro/devkita64/bin/../lib/gcc/aarch64-none-elf/8.3.0/../../../../aarch64-none-elf/lib/pic\libg.a(lib_a-fini.o)
                0x0000000000029128                __libc_fini_array
 *fill*         0x000000000002916c        0x4 
 .text.__libc_init_array
                0x0000000000029170       0x8c c:/devkitpro/devkita64/bin/../lib/gcc/aarch64-none-elf/8.3.0/../../../../aarch64-none-elf/lib/pic\libg.a(lib_a-init.o)
                0x0000000000029170                __libc_init_array
 *fill*         0x00000000000291fc        0x4 
 .text.memalign
                0x0000000000029200       0x30 c:/devkitpro/devkita64/bin/../lib/gcc/aarch64-none-elf/8.3.0/../../../../aarch64-none-elf/lib/pic\libg.a(lib_a-malign.o)
                0x0000000000029200                memalign
 .text._memalign_r
                0x0000000000029230      0x198 c:/devkitpro/devkita64/bin/../lib/gcc/aarch64-none-elf/8.3.0/../../../../aarch64-none-elf/lib/pic\libg.a(lib_a-malignr.o)
                0x0000000000029230                _memalign_r
 .text.malloc   0x00000000000293c8       0x1c c:/devkitpro/devkita64/bin/../lib/gcc/aarch64-none-elf/8.3.0/../../../../aarch64-none-elf/lib/pic\libg.a(lib_a-malloc.o)
                0x00000000000293c8                malloc
 *fill*         0x00000000000293e4        0x4 
 .text.free     0x00000000000293e8       0x1c c:/devkitpro/devkita64/bin/../lib/gcc/aarch64-none-elf/8.3.0/../../../../aarch64-none-elf/lib/pic\libg.a(lib_a-malloc.o)
                0x00000000000293e8                free
 *fill*         0x0000000000029404        0x4 
 .text._malloc_r
                0x0000000000029408      0x87c c:/devkitpro/devkita64/bin/../lib/gcc/aarch64-none-elf/8.3.0/../../../../aarch64-none-elf/lib/pic\libg.a(lib_a-mallocr.o)
                0x0000000000029408                _malloc_r
 *fill*         0x0000000000029c84       0x3c 
 .text          0x0000000000029cc0      0x16c c:/devkitpro/devkita64/bin/../lib/gcc/aarch64-none-elf/8.3.0/../../../../aarch64-none-elf/lib/pic\libg.a(lib_a-memcpy.o)
                0x0000000000029cc0                memcpy
 *fill*         0x0000000000029e2c       0x14 
 .text          0x0000000000029e40      0x1dc c:/devkitpro/devkita64/bin/../lib/gcc/aarch64-none-elf/8.3.0/../../../../aarch64-none-elf/lib/pic\libg.a(lib_a-memset.o)
                0x0000000000029e40                memset
 *fill*         0x000000000002a01c        0x4 
 .text.__malloc_lock
                0x000000000002a020        0xc c:/devkitpro/devkita64/bin/../lib/gcc/aarch64-none-elf/8.3.0/../../../../aarch64-none-elf/lib/pic\libg.a(lib_a-mlock.o)
                0x000000000002a020                __malloc_lock
 *fill*         0x000000000002a02c        0x4 
 .text.__malloc_unlock
                0x000000000002a030        0xc c:/devkitpro/devkita64/bin/../lib/gcc/aarch64-none-elf/8.3.0/../../../../aarch64-none-elf/lib/pic\libg.a(lib_a-mlock.o)
                0x000000000002a030                __malloc_unlock
 *fill*         0x000000000002a03c        0x4 
 .text.setenv   0x000000000002a040       0x3c c:/devkitpro/devkita64/bin/../lib/gcc/aarch64-none-elf/8.3.0/../../../../aarch64-none-elf/lib/pic\libg.a(lib_a-setenv.o)
                0x000000000002a040                setenv
 *fill*         0x000000000002a07c        0x4 
 .text.unsetenv
                0x000000000002a080       0x1c c:/devkitpro/devkita64/bin/../lib/gcc/aarch64-none-elf/8.3.0/../../../../aarch64-none-elf/lib/pic\libg.a(lib_a-setenv.o)
                0x000000000002a080                unsetenv
 *fill*         0x000000000002a09c        0x4 
 .text._setenv_r
                0x000000000002a0a0      0x264 c:/devkitpro/devkita64/bin/../lib/gcc/aarch64-none-elf/8.3.0/../../../../aarch64-none-elf/lib/pic\libg.a(lib_a-setenv_r.o)
                0x000000000002a0a0                _setenv_r
 *fill*         0x000000000002a304        0x4 
 .text._unsetenv_r
                0x000000000002a308       0xd4 c:/devkitpro/devkita64/bin/../lib/gcc/aarch64-none-elf/8.3.0/../../../../aarch64-none-elf/lib/pic\libg.a(lib_a-setenv_r.o)
                0x000000000002a308                _unsetenv_r
 .text          0x000000000002a3dc       0xdc c:/devkitpro/devkita64/bin/../lib/gcc/aarch64-none-elf/8.3.0/../../../../aarch64-none-elf/lib/pic\libg.a(lib_a-strchr.o)
                0x000000000002a3dc                strchr
 *fill*         0x000000000002a4b8        0x8 
 .text          0x000000000002a4c0       0xe4 c:/devkitpro/devkita64/bin/../lib/gcc/aarch64-none-elf/8.3.0/../../../../aarch64-none-elf/lib/pic\libg.a(lib_a-strcmp.o)
                0x000000000002a4c0                strcmp
 *fill*         0x000000000002a5a4       0x1c 
 .text          0x000000000002a5c0      0x1b8 c:/devkitpro/devkita64/bin/../lib/gcc/aarch64-none-elf/8.3.0/../../../../aarch64-none-elf/lib/pic\libg.a(lib_a-strcpy.o)
                0x000000000002a5c0                strcpy
 *fill*         0x000000000002a778        0x8 
 .text          0x000000000002a780      0x140 c:/devkitpro/devkita64/bin/../lib/gcc/aarch64-none-elf/8.3.0/../../../../aarch64-none-elf/lib/pic\libg.a(lib_a-strlen.o)
                0x000000000002a780                strlen
 .text.strncat  0x000000000002a8c0       0x84 c:/devkitpro/devkita64/bin/../lib/gcc/aarch64-none-elf/8.3.0/../../../../aarch64-none-elf/lib/pic\libg.a(lib_a-strncat.o)
                0x000000000002a8c0                strncat
 *fill*         0x000000000002a944       0x3c 
 .text          0x000000000002a980      0x1d4 c:/devkitpro/devkita64/bin/../lib/gcc/aarch64-none-elf/8.3.0/../../../../aarch64-none-elf/lib/pic\libg.a(lib_a-strncmp.o)
                0x000000000002a99c                strncmp
 *fill*         0x000000000002ab54        0x4 
 .text.strncpy  0x000000000002ab58       0xa8 c:/devkitpro/devkita64/bin/../lib/gcc/aarch64-none-elf/8.3.0/../../../../aarch64-none-elf/lib/pic\libg.a(lib_a-strncpy.o)
                0x000000000002ab58                strncpy
 .text          0x000000000002ac00       0xe0 c:/devkitpro/devkita64/bin/../lib/gcc/aarch64-none-elf/8.3.0/../../../../aarch64-none-elf/lib/pic\libg.a(lib_a-strnlen.o)
                0x000000000002ac24                strnlen
 .text.toupper  0x000000000002ace0       0x24 c:/devkitpro/devkita64/bin/../lib/gcc/aarch64-none-elf/8.3.0/../../../../aarch64-none-elf/lib/pic\libg.a(lib_a-toupper.o)
                0x000000000002ace0                toupper
 *fill*         0x000000000002ad04        0x4 
 .text._vsnprintf_r
                0x000000000002ad08       0xe0 c:/devkitpro/devkita64/bin/../lib/gcc/aarch64-none-elf/8.3.0/../../../../aarch64-none-elf/lib/pic\libg.a(lib_a-vsnprintf.o)
                0x000000000002ad08                _vsnprintf_r
 .text.vsnprintf
                0x000000000002ade8       0x50 c:/devkitpro/devkita64/bin/../lib/gcc/aarch64-none-elf/8.3.0/../../../../aarch64-none-elf/lib/pic\libg.a(lib_a-vsnprintf.o)
                0x000000000002ade8                vsnprintf
 .text.__call_exitprocs
                0x000000000002ae38      0x124 c:/devkitpro/devkita64/bin/../lib/gcc/aarch64-none-elf/8.3.0/../../../../aarch64-none-elf/lib/pic\libg.a(lib_a-__call_atexit.o)
                0x000000000002ae38                __call_exitprocs
 *fill*         0x000000000002af5c        0x4 
 .text.__env_lock
                0x000000000002af60        0xc c:/devkitpro/devkita64/bin/../lib/gcc/aarch64-none-elf/8.3.0/../../../../aarch64-none-elf/lib/pic\libg.a(lib_a-envlock.o)
                0x000000000002af60                __env_lock
 *fill*         0x000000000002af6c        0x4 
 .text.__env_unlock
                0x000000000002af70        0xc c:/devkitpro/devkita64/bin/../lib/gcc/aarch64-none-elf/8.3.0/../../../../aarch64-none-elf/lib/pic\libg.a(lib_a-envlock.o)
                0x000000000002af70                __env_unlock
 *fill*         0x000000000002af7c        0x4 
 .text._malloc_trim_r
                0x000000000002af80      0x118 c:/devkitpro/devkita64/bin/../lib/gcc/aarch64-none-elf/8.3.0/../../../../aarch64-none-elf/lib/pic\libg.a(lib_a-freer.o)
                0x000000000002af80                _malloc_trim_r
 .text._free_r  0x000000000002b098      0x2f4 c:/devkitpro/devkita64/bin/../lib/gcc/aarch64-none-elf/8.3.0/../../../../aarch64-none-elf/lib/pic\libg.a(lib_a-freer.o)
                0x000000000002b098                _free_r
 *fill*         0x000000000002b38c        0x4 
 .text._findenv_r
                0x000000000002b390      0x100 c:/devkitpro/devkita64/bin/../lib/gcc/aarch64-none-elf/8.3.0/../../../../aarch64-none-elf/lib/pic\libg.a(lib_a-getenv_r.o)
                0x000000000002b390                _findenv_r
 .text._getenv_r
                0x000000000002b490       0x18 c:/devkitpro/devkita64/bin/../lib/gcc/aarch64-none-elf/8.3.0/../../../../aarch64-none-elf/lib/pic\libg.a(lib_a-getenv_r.o)
                0x000000000002b490                _getenv_r
 .text._realloc_r
                0x000000000002b4a8      0x56c c:/devkitpro/devkita64/bin/../lib/gcc/aarch64-none-elf/8.3.0/../../../../aarch64-none-elf/lib/pic\libg.a(lib_a-reallocr.o)
                0x000000000002b4a8                _realloc_r
 .text.get_arg  0x000000000002ba14      0x76c c:/devkitpro/devkita64/bin/../lib/gcc/aarch64-none-elf/8.3.0/../../../../aarch64-none-elf/lib/pic\libg.a(lib_a-svfprintf.o)
 .text._svfprintf_r
                0x000000000002c180     0x3b38 c:/devkitpro/devkita64/bin/../lib/gcc/aarch64-none-elf/8.3.0/../../../../aarch64-none-elf/lib/pic\libg.a(lib_a-svfprintf.o)
                0x000000000002c180                _svfprintf_r
 .text._wcrtomb_r
                0x000000000002fcb8       0xd0 c:/devkitpro/devkita64/bin/../lib/gcc/aarch64-none-elf/8.3.0/../../../../aarch64-none-elf/lib/pic\libg.a(lib_a-wcrtomb.o)
                0x000000000002fcb8                _wcrtomb_r
 .text.wcrtomb  0x000000000002fd88       0xdc c:/devkitpro/devkita64/bin/../lib/gcc/aarch64-none-elf/8.3.0/../../../../aarch64-none-elf/lib/pic\libg.a(lib_a-wcrtomb.o)
                0x000000000002fd88                wcrtomb
 *fill*         0x000000000002fe64        0x4 
 .text._wcsrtombs_r
                0x000000000002fe68       0x10 c:/devkitpro/devkita64/bin/../lib/gcc/aarch64-none-elf/8.3.0/../../../../aarch64-none-elf/lib/pic\libg.a(lib_a-wcsrtombs.o)
                0x000000000002fe68                _wcsrtombs_r
 .text.wcsrtombs
                0x000000000002fe78       0x44 c:/devkitpro/devkita64/bin/../lib/gcc/aarch64-none-elf/8.3.0/../../../../aarch64-none-elf/lib/pic\libg.a(lib_a-wcsrtombs.o)
                0x000000000002fe78                wcsrtombs
 *fill*         0x000000000002febc        0x4 
 .text.quorem   0x000000000002fec0      0x1a8 c:/devkitpro/devkita64/bin/../lib/gcc/aarch64-none-elf/8.3.0/../../../../aarch64-none-elf/lib/pic\libg.a(lib_a-dtoa.o)
 .text._dtoa_r  0x0000000000030068     0x10dc c:/devkitpro/devkita64/bin/../lib/gcc/aarch64-none-elf/8.3.0/../../../../aarch64-none-elf/lib/pic\libg.a(lib_a-dtoa.o)
                0x0000000000030068                _dtoa_r
 *fill*         0x0000000000031144        0x4 
 .text.__localeconv_l
                0x0000000000031148        0x8 c:/devkitpro/devkita64/bin/../lib/gcc/aarch64-none-elf/8.3.0/../../../../aarch64-none-elf/lib/pic\libg.a(lib_a-localeconv.o)
                0x0000000000031148                __localeconv_l
 .text._localeconv_r
                0x0000000000031150       0x28 c:/devkitpro/devkita64/bin/../lib/gcc/aarch64-none-elf/8.3.0/../../../../aarch64-none-elf/lib/pic\libg.a(lib_a-localeconv.o)
                0x0000000000031150                _localeconv_r
 .text.localeconv
                0x0000000000031178       0x28 c:/devkitpro/devkita64/bin/../lib/gcc/aarch64-none-elf/8.3.0/../../../../aarch64-none-elf/lib/pic\libg.a(lib_a-localeconv.o)
                0x0000000000031178                localeconv
 .text.currentlocale
                0x00000000000311a0       0xb8 c:/devkitpro/devkita64/bin/../lib/gcc/aarch64-none-elf/8.3.0/../../../../aarch64-none-elf/lib/pic\libg.a(lib_a-locale.o)
 .text.__loadlocale
                0x0000000000031258      0x7a8 c:/devkitpro/devkita64/bin/../lib/gcc/aarch64-none-elf/8.3.0/../../../../aarch64-none-elf/lib/pic\libg.a(lib_a-locale.o)
                0x0000000000031258                __loadlocale
 .text.__get_locale_env
                0x0000000000031a00       0x88 c:/devkitpro/devkita64/bin/../lib/gcc/aarch64-none-elf/8.3.0/../../../../aarch64-none-elf/lib/pic\libg.a(lib_a-locale.o)
                0x0000000000031a00                __get_locale_env
 .text._setlocale_r
                0x0000000000031a88      0x3a4 c:/devkitpro/devkita64/bin/../lib/gcc/aarch64-none-elf/8.3.0/../../../../aarch64-none-elf/lib/pic\libg.a(lib_a-locale.o)
                0x0000000000031a88                _setlocale_r
 *fill*         0x0000000000031e2c        0x4 
 .text.__locale_mb_cur_max
                0x0000000000031e30       0x2c c:/devkitpro/devkita64/bin/../lib/gcc/aarch64-none-elf/8.3.0/../../../../aarch64-none-elf/lib/pic\libg.a(lib_a-locale.o)
                0x0000000000031e30                __locale_mb_cur_max
 *fill*         0x0000000000031e5c        0x4 
 .text.setlocale
                0x0000000000031e60       0x30 c:/devkitpro/devkita64/bin/../lib/gcc/aarch64-none-elf/8.3.0/../../../../aarch64-none-elf/lib/pic\libg.a(lib_a-locale.o)
                0x0000000000031e60                setlocale
 .text._mbtowc_r
                0x0000000000031e90       0x4c c:/devkitpro/devkita64/bin/../lib/gcc/aarch64-none-elf/8.3.0/../../../../aarch64-none-elf/lib/pic\libg.a(lib_a-mbtowc_r.o)
                0x0000000000031e90                _mbtowc_r
 *fill*         0x0000000000031edc        0x4 
 .text.__ascii_mbtowc
                0x0000000000031ee0       0x48 c:/devkitpro/devkita64/bin/../lib/gcc/aarch64-none-elf/8.3.0/../../../../aarch64-none-elf/lib/pic\libg.a(lib_a-mbtowc_r.o)
                0x0000000000031ee0                __ascii_mbtowc
 .text.__utf8_mbtowc
                0x0000000000031f28      0x2c8 c:/devkitpro/devkita64/bin/../lib/gcc/aarch64-none-elf/8.3.0/../../../../aarch64-none-elf/lib/pic\libg.a(lib_a-mbtowc_r.o)
                0x0000000000031f28                __utf8_mbtowc
 .text.__sjis_mbtowc
                0x00000000000321f0       0xcc c:/devkitpro/devkita64/bin/../lib/gcc/aarch64-none-elf/8.3.0/../../../../aarch64-none-elf/lib/pic\libg.a(lib_a-mbtowc_r.o)
                0x00000000000321f0                __sjis_mbtowc
 *fill*         0x00000000000322bc        0x4 
 .text.__eucjp_mbtowc
                0x00000000000322c0      0x120 c:/devkitpro/devkita64/bin/../lib/gcc/aarch64-none-elf/8.3.0/../../../../aarch64-none-elf/lib/pic\libg.a(lib_a-mbtowc_r.o)
                0x00000000000322c0                __eucjp_mbtowc
 .text.__jis_mbtowc
                0x00000000000323e0      0x1d4 c:/devkitpro/devkita64/bin/../lib/gcc/aarch64-none-elf/8.3.0/../../../../aarch64-none-elf/lib/pic\libg.a(lib_a-mbtowc_r.o)
                0x00000000000323e0                __jis_mbtowc
 .text          0x00000000000325b4       0xd8 c:/devkitpro/devkita64/bin/../lib/gcc/aarch64-none-elf/8.3.0/../../../../aarch64-none-elf/lib/pic\libg.a(lib_a-memchr.o)
                0x00000000000325b4                memchr
 *fill*         0x000000000003268c       0x34 
 .text          0x00000000000326c0       0xac c:/devkitpro/devkita64/bin/../lib/gcc/aarch64-none-elf/8.3.0/../../../../aarch64-none-elf/lib/pic\libg.a(lib_a-memmove.o)
                0x00000000000326c0                memmove
 *fill*         0x000000000003276c        0x4 
 .text._Balloc  0x0000000000032770       0x90 c:/devkitpro/devkita64/bin/../lib/gcc/aarch64-none-elf/8.3.0/../../../../aarch64-none-elf/lib/pic\libg.a(lib_a-mprec.o)
                0x0000000000032770                _Balloc
 .text._Bfree   0x0000000000032800       0x1c c:/devkitpro/devkita64/bin/../lib/gcc/aarch64-none-elf/8.3.0/../../../../aarch64-none-elf/lib/pic\libg.a(lib_a-mprec.o)
                0x0000000000032800                _Bfree
 *fill*         0x000000000003281c        0x4 
 .text.__multadd
                0x0000000000032820       0xe8 c:/devkitpro/devkita64/bin/../lib/gcc/aarch64-none-elf/8.3.0/../../../../aarch64-none-elf/lib/pic\libg.a(lib_a-mprec.o)
                0x0000000000032820                __multadd
 .text.__s2b    0x0000000000032908      0x120 c:/devkitpro/devkita64/bin/../lib/gcc/aarch64-none-elf/8.3.0/../../../../aarch64-none-elf/lib/pic\libg.a(lib_a-mprec.o)
                0x0000000000032908                __s2b
 .text.__hi0bits
                0x0000000000032a28       0x5c c:/devkitpro/devkita64/bin/../lib/gcc/aarch64-none-elf/8.3.0/../../../../aarch64-none-elf/lib/pic\libg.a(lib_a-mprec.o)
                0x0000000000032a28                __hi0bits
 *fill*         0x0000000000032a84        0x4 
 .text.__lo0bits
                0x0000000000032a88       0xa0 c:/devkitpro/devkita64/bin/../lib/gcc/aarch64-none-elf/8.3.0/../../../../aarch64-none-elf/lib/pic\libg.a(lib_a-mprec.o)
                0x0000000000032a88                __lo0bits
 .text.__i2b    0x0000000000032b28       0x2c c:/devkitpro/devkita64/bin/../lib/gcc/aarch64-none-elf/8.3.0/../../../../aarch64-none-elf/lib/pic\libg.a(lib_a-mprec.o)
                0x0000000000032b28                __i2b
 *fill*         0x0000000000032b54        0x4 
 .text.__multiply
                0x0000000000032b58      0x1c8 c:/devkitpro/devkita64/bin/../lib/gcc/aarch64-none-elf/8.3.0/../../../../aarch64-none-elf/lib/pic\libg.a(lib_a-mprec.o)
                0x0000000000032b58                __multiply
 .text.__pow5mult
                0x0000000000032d20      0x104 c:/devkitpro/devkita64/bin/../lib/gcc/aarch64-none-elf/8.3.0/../../../../aarch64-none-elf/lib/pic\libg.a(lib_a-mprec.o)
                0x0000000000032d20                __pow5mult
 *fill*         0x0000000000032e24        0x4 
 .text.__lshift
                0x0000000000032e28      0x134 c:/devkitpro/devkita64/bin/../lib/gcc/aarch64-none-elf/8.3.0/../../../../aarch64-none-elf/lib/pic\libg.a(lib_a-mprec.o)
                0x0000000000032e28                __lshift
 *fill*         0x0000000000032f5c        0x4 
 .text.__mcmp   0x0000000000032f60       0x50 c:/devkitpro/devkita64/bin/../lib/gcc/aarch64-none-elf/8.3.0/../../../../aarch64-none-elf/lib/pic\libg.a(lib_a-mprec.o)
                0x0000000000032f60                __mcmp
 .text.__mdiff  0x0000000000032fb0      0x14c c:/devkitpro/devkita64/bin/../lib/gcc/aarch64-none-elf/8.3.0/../../../../aarch64-none-elf/lib/pic\libg.a(lib_a-mprec.o)
                0x0000000000032fb0                __mdiff
 *fill*         0x00000000000330fc        0x4 
 .text.__ulp    0x0000000000033100       0x68 c:/devkitpro/devkita64/bin/../lib/gcc/aarch64-none-elf/8.3.0/../../../../aarch64-none-elf/lib/pic\libg.a(lib_a-mprec.o)
                0x0000000000033100                __ulp
 .text.__b2d    0x0000000000033168      0x150 c:/devkitpro/devkita64/bin/../lib/gcc/aarch64-none-elf/8.3.0/../../../../aarch64-none-elf/lib/pic\libg.a(lib_a-mprec.o)
                0x0000000000033168                __b2d
 .text.__d2b    0x00000000000332b8      0x138 c:/devkitpro/devkita64/bin/../lib/gcc/aarch64-none-elf/8.3.0/../../../../aarch64-none-elf/lib/pic\libg.a(lib_a-mprec.o)
                0x00000000000332b8                __d2b
 .text.__ratio  0x00000000000333f0       0xa0 c:/devkitpro/devkita64/bin/../lib/gcc/aarch64-none-elf/8.3.0/../../../../aarch64-none-elf/lib/pic\libg.a(lib_a-mprec.o)
                0x00000000000333f0                __ratio
 .text._mprec_log10
                0x0000000000033490       0x30 c:/devkitpro/devkita64/bin/../lib/gcc/aarch64-none-elf/8.3.0/../../../../aarch64-none-elf/lib/pic\libg.a(lib_a-mprec.o)
                0x0000000000033490                _mprec_log10
 .text.__copybits
                0x00000000000334c0       0x68 c:/devkitpro/devkita64/bin/../lib/gcc/aarch64-none-elf/8.3.0/../../../../aarch64-none-elf/lib/pic\libg.a(lib_a-mprec.o)
                0x00000000000334c0                __copybits
 .text.__any_on
                0x0000000000033528       0x84 c:/devkitpro/devkita64/bin/../lib/gcc/aarch64-none-elf/8.3.0/../../../../aarch64-none-elf/lib/pic\libg.a(lib_a-mprec.o)
                0x0000000000033528                __any_on
 *fill*         0x00000000000335ac        0x4 
 .text.frexp    0x00000000000335b0       0x7c c:/devkitpro/devkita64/bin/../lib/gcc/aarch64-none-elf/8.3.0/../../../../aarch64-none-elf/lib/pic\libg.a(lib_a-s_frexp.o)
                0x00000000000335b0                frexp
 *fill*         0x000000000003362c        0x4 
 .text.strcasecmp
                0x0000000000033630       0x78 c:/devkitpro/devkita64/bin/../lib/gcc/aarch64-none-elf/8.3.0/../../../../aarch64-none-elf/lib/pic\libg.a(lib_a-strcasecmp.o)
                0x0000000000033630                strcasecmp
 .text.strcat   0x00000000000336a8       0x74 c:/devkitpro/devkita64/bin/../lib/gcc/aarch64-none-elf/8.3.0/../../../../aarch64-none-elf/lib/pic\libg.a(lib_a-strcat.o)
                0x00000000000336a8                strcat
 *fill*         0x000000000003371c        0x4 
 .text.strlcpy  0x0000000000033720       0x54 c:/devkitpro/devkita64/bin/../lib/gcc/aarch64-none-elf/8.3.0/../../../../aarch64-none-elf/lib/pic\libg.a(lib_a-strlcpy.o)
                0x0000000000033720                strlcpy
 *fill*         0x0000000000033774        0x4 
 .text.strncasecmp
                0x0000000000033778       0x8c c:/devkitpro/devkita64/bin/../lib/gcc/aarch64-none-elf/8.3.0/../../../../aarch64-none-elf/lib/pic\libg.a(lib_a-strncasecmp.o)
                0x0000000000033778                strncasecmp
 *fill*         0x0000000000033804        0x4 
 .text._strtol_l.isra.0
                0x0000000000033808      0x1a0 c:/devkitpro/devkita64/bin/../lib/gcc/aarch64-none-elf/8.3.0/../../../../aarch64-none-elf/lib/pic\libg.a(lib_a-strtol.o)
 .text._strtol_r
                0x00000000000339a8       0x34 c:/devkitpro/devkita64/bin/../lib/gcc/aarch64-none-elf/8.3.0/../../../../aarch64-none-elf/lib/pic\libg.a(lib_a-strtol.o)
                0x00000000000339a8                _strtol_r
 *fill*         0x00000000000339dc        0x4 
 .text.strtol_l
                0x00000000000339e0       0x3c c:/devkitpro/devkita64/bin/../lib/gcc/aarch64-none-elf/8.3.0/../../../../aarch64-none-elf/lib/pic\libg.a(lib_a-strtol.o)
                0x00000000000339e0                strtol_l
 *fill*         0x0000000000033a1c        0x4 
 .text.strtol   0x0000000000033a20       0x48 c:/devkitpro/devkita64/bin/../lib/gcc/aarch64-none-elf/8.3.0/../../../../aarch64-none-elf/lib/pic\libg.a(lib_a-strtol.o)
                0x0000000000033a20                strtol
 .text.get_arg  0x0000000000033a68      0x76c c:/devkitpro/devkita64/bin/../lib/gcc/aarch64-none-elf/8.3.0/../../../../aarch64-none-elf/lib/pic\libg.a(lib_a-svfiprintf.o)
 .text.__ssprint_r
                0x00000000000341d4      0x1c0 c:/devkitpro/devkita64/bin/../lib/gcc/aarch64-none-elf/8.3.0/../../../../aarch64-none-elf/lib/pic\libg.a(lib_a-svfiprintf.o)
                0x00000000000341d4                __ssprint_r
 .text._svfiprintf_r
                0x0000000000034394     0x28ec c:/devkitpro/devkita64/bin/../lib/gcc/aarch64-none-elf/8.3.0/../../../../aarch64-none-elf/lib/pic\libg.a(lib_a-svfiprintf.o)
                0x0000000000034394                _svfiprintf_r
 .text._wcsnrtombs_l
                0x0000000000036c80      0x1dc c:/devkitpro/devkita64/bin/../lib/gcc/aarch64-none-elf/8.3.0/../../../../aarch64-none-elf/lib/pic\libg.a(lib_a-wcsnrtombs.o)
                0x0000000000036c80                _wcsnrtombs_l
 *fill*         0x0000000000036e5c        0x4 
 .text._wcsnrtombs_r
                0x0000000000036e60       0x54 c:/devkitpro/devkita64/bin/../lib/gcc/aarch64-none-elf/8.3.0/../../../../aarch64-none-elf/lib/pic\libg.a(lib_a-wcsnrtombs.o)
                0x0000000000036e60                _wcsnrtombs_r
 *fill*         0x0000000000036eb4        0x4 
 .text.wcsnrtombs
                0x0000000000036eb8       0x64 c:/devkitpro/devkita64/bin/../lib/gcc/aarch64-none-elf/8.3.0/../../../../aarch64-none-elf/lib/pic\libg.a(lib_a-wcsnrtombs.o)
                0x0000000000036eb8                wcsnrtombs
 *fill*         0x0000000000036f1c        0x4 
 .text._wctomb_r
                0x0000000000036f20       0x54 c:/devkitpro/devkita64/bin/../lib/gcc/aarch64-none-elf/8.3.0/../../../../aarch64-none-elf/lib/pic\libg.a(lib_a-wctomb_r.o)
                0x0000000000036f20                _wctomb_r
 *fill*         0x0000000000036f74        0x4 
 .text.__ascii_wctomb
                0x0000000000036f78       0x34 c:/devkitpro/devkita64/bin/../lib/gcc/aarch64-none-elf/8.3.0/../../../../aarch64-none-elf/lib/pic\libg.a(lib_a-wctomb_r.o)
                0x0000000000036f78                __ascii_wctomb
 *fill*         0x0000000000036fac        0x4 
 .text.__utf8_wctomb
                0x0000000000036fb0       0xe4 c:/devkitpro/devkita64/bin/../lib/gcc/aarch64-none-elf/8.3.0/../../../../aarch64-none-elf/lib/pic\libg.a(lib_a-wctomb_r.o)
                0x0000000000036fb0                __utf8_wctomb
 *fill*         0x0000000000037094        0x4 
 .text.__sjis_wctomb
                0x0000000000037098       0x84 c:/devkitpro/devkita64/bin/../lib/gcc/aarch64-none-elf/8.3.0/../../../../aarch64-none-elf/lib/pic\libg.a(lib_a-wctomb_r.o)
                0x0000000000037098                __sjis_wctomb
 *fill*         0x000000000003711c        0x4 
 .text.__eucjp_wctomb
                0x0000000000037120       0xa8 c:/devkitpro/devkita64/bin/../lib/gcc/aarch64-none-elf/8.3.0/../../../../aarch64-none-elf/lib/pic\libg.a(lib_a-wctomb_r.o)
                0x0000000000037120                __eucjp_wctomb
 .text.__jis_wctomb
                0x00000000000371c8       0xbc c:/devkitpro/devkita64/bin/../lib/gcc/aarch64-none-elf/8.3.0/../../../../aarch64-none-elf/lib/pic\libg.a(lib_a-wctomb_r.o)
                0x00000000000371c8                __jis_wctomb
 *fill*         0x0000000000037284        0x4 
 .text._calloc_r
                0x0000000000037288       0x94 c:/devkitpro/devkita64/bin/../lib/gcc/aarch64-none-elf/8.3.0/../../../../aarch64-none-elf/lib/pic\libg.a(lib_a-callocr.o)
                0x0000000000037288                _calloc_r
 *fill*         0x000000000003731c        0x4 
 .text.null_write
                0x0000000000037320        0x8 c:/devkitpro/devkita64/bin/../lib/gcc/aarch64-none-elf/8.3.0/../../../../aarch64-none-elf/lib/pic\libsysbase.a(iosupport.o)
 .text.setDefaultDevice
                0x0000000000037328       0x18 c:/devkitpro/devkita64/bin/../lib/gcc/aarch64-none-elf/8.3.0/../../../../aarch64-none-elf/lib/pic\libsysbase.a(iosupport.o)
                0x0000000000037328                setDefaultDevice
 .text.FindDevice
                0x0000000000037340      0x108 c:/devkitpro/devkita64/bin/../lib/gcc/aarch64-none-elf/8.3.0/../../../../aarch64-none-elf/lib/pic\libsysbase.a(iosupport.o)
                0x0000000000037340                FindDevice
 .text.RemoveDevice
                0x0000000000037448       0x34 c:/devkitpro/devkita64/bin/../lib/gcc/aarch64-none-elf/8.3.0/../../../../aarch64-none-elf/lib/pic\libsysbase.a(iosupport.o)
                0x0000000000037448                RemoveDevice
 *fill*         0x000000000003747c        0x4 
 .text.AddDevice
                0x0000000000037480       0xd8 c:/devkitpro/devkita64/bin/../lib/gcc/aarch64-none-elf/8.3.0/../../../../aarch64-none-elf/lib/pic\libsysbase.a(iosupport.o)
                0x0000000000037480                AddDevice
 .text.GetDeviceOpTab
                0x0000000000037558       0x34 c:/devkitpro/devkita64/bin/../lib/gcc/aarch64-none-elf/8.3.0/../../../../aarch64-none-elf/lib/pic\libsysbase.a(iosupport.o)
                0x0000000000037558                GetDeviceOpTab
 *fill*         0x000000000003758c        0x4 
 .text._sbrk_r  0x0000000000037590       0x78 c:/devkitpro/devkita64/bin/../lib/gcc/aarch64-none-elf/8.3.0/../../../../aarch64-none-elf/lib/pic\libsysbase.a(sbrk.o)
                0x0000000000037590                _sbrk_r
 .text._exit    0x0000000000037608       0x20 c:/devkitpro/devkita64/bin/../lib/gcc/aarch64-none-elf/8.3.0/../../../../aarch64-none-elf/lib/pic\libsysbase.a(_exit.o)
                0x0000000000037608                _exit
 .text._concatenate_path
                0x0000000000037628      0x234 c:/devkitpro/devkita64/bin/../lib/gcc/aarch64-none-elf/8.3.0/../../../../aarch64-none-elf/lib/pic\libsysbase.a(chdir.o)
                0x0000000000037628                _concatenate_path
 *fill*         0x000000000003785c        0x4 
 .text.chdir    0x0000000000037860      0x178 c:/devkitpro/devkita64/bin/../lib/gcc/aarch64-none-elf/8.3.0/../../../../aarch64-none-elf/lib/pic\libsysbase.a(chdir.o)
                0x0000000000037860                chdir
 .text.getcwd   0x00000000000379d8       0xb8 c:/devkitpro/devkita64/bin/../lib/gcc/aarch64-none-elf/8.3.0/../../../../aarch64-none-elf/lib/pic\libsysbase.a(chdir.o)
                0x00000000000379d8                getcwd
 .text.timespec2nsec
                0x0000000000037a90       0x14 c:/devkitpro/devkita64/bin/../lib/gcc/aarch64-none-elf/8.3.0/../../../../aarch64-none-elf/lib/pic\libsysbase.a(locks.o)
                0x0000000000037a90                timespec2nsec
 *fill*         0x0000000000037aa4        0x4 
 .text.abstimespec2nsec
                0x0000000000037aa8       0xc4 c:/devkitpro/devkita64/bin/../lib/gcc/aarch64-none-elf/8.3.0/../../../../aarch64-none-elf/lib/pic\libsysbase.a(locks.o)
                0x0000000000037aa8                abstimespec2nsec
 *fill*         0x0000000000037b6c        0x4 
 .text.__libc_lock_init
                0x0000000000037b70        0x8 c:/devkitpro/devkita64/bin/../lib/gcc/aarch64-none-elf/8.3.0/../../../../aarch64-none-elf/lib/pic\libsysbase.a(locks.o)
                0x0000000000037b70                __libc_lock_init
 .text.__libc_lock_acquire
                0x0000000000037b78       0x14 c:/devkitpro/devkita64/bin/../lib/gcc/aarch64-none-elf/8.3.0/../../../../aarch64-none-elf/lib/pic\libsysbase.a(locks.o)
                0x0000000000037b78                __libc_lock_acquire
 *fill*         0x0000000000037b8c        0x4 
 .text.__libc_lock_try_acquire
                0x0000000000037b90       0x18 c:/devkitpro/devkita64/bin/../lib/gcc/aarch64-none-elf/8.3.0/../../../../aarch64-none-elf/lib/pic\libsysbase.a(locks.o)
                0x0000000000037b90                __libc_lock_try_acquire
 .text.__libc_lock_release
                0x0000000000037ba8       0x14 c:/devkitpro/devkita64/bin/../lib/gcc/aarch64-none-elf/8.3.0/../../../../aarch64-none-elf/lib/pic\libsysbase.a(locks.o)
                0x0000000000037ba8                __libc_lock_release
 *fill*         0x0000000000037bbc        0x4 
 .text.__libc_lock_close
                0x0000000000037bc0        0x4 c:/devkitpro/devkita64/bin/../lib/gcc/aarch64-none-elf/8.3.0/../../../../aarch64-none-elf/lib/pic\libsysbase.a(locks.o)
                0x0000000000037bc0                __libc_lock_close
 *fill*         0x0000000000037bc4        0x4 
 .text.__libc_lock_init_recursive
                0x0000000000037bc8        0xc c:/devkitpro/devkita64/bin/../lib/gcc/aarch64-none-elf/8.3.0/../../../../aarch64-none-elf/lib/pic\libsysbase.a(locks.o)
                0x0000000000037bc8                __libc_lock_init_recursive
 *fill*         0x0000000000037bd4        0x4 
 .text.__libc_lock_acquire_recursive
                0x0000000000037bd8       0x14 c:/devkitpro/devkita64/bin/../lib/gcc/aarch64-none-elf/8.3.0/../../../../aarch64-none-elf/lib/pic\libsysbase.a(locks.o)
                0x0000000000037bd8                __libc_lock_acquire_recursive
 *fill*         0x0000000000037bec        0x4 
 .text.__libc_lock_try_acquire_recursive
                0x0000000000037bf0       0x18 c:/devkitpro/devkita64/bin/../lib/gcc/aarch64-none-elf/8.3.0/../../../../aarch64-none-elf/lib/pic\libsysbase.a(locks.o)
                0x0000000000037bf0                __libc_lock_try_acquire_recursive
 .text.__libc_lock_release_recursive
                0x0000000000037c08       0x14 c:/devkitpro/devkita64/bin/../lib/gcc/aarch64-none-elf/8.3.0/../../../../aarch64-none-elf/lib/pic\libsysbase.a(locks.o)
                0x0000000000037c08                __libc_lock_release_recursive
 *fill*         0x0000000000037c1c        0x4 
 .text.__libc_lock_close_recursive
                0x0000000000037c20        0x4 c:/devkitpro/devkita64/bin/../lib/gcc/aarch64-none-elf/8.3.0/../../../../aarch64-none-elf/lib/pic\libsysbase.a(locks.o)
                0x0000000000037c20                __libc_lock_close_recursive
 *fill*         0x0000000000037c24        0x4 
 .text.__libc_cond_init
                0x0000000000037c28        0xc c:/devkitpro/devkita64/bin/../lib/gcc/aarch64-none-elf/8.3.0/../../../../aarch64-none-elf/lib/pic\libsysbase.a(locks.o)
                0x0000000000037c28                __libc_cond_init
 *fill*         0x0000000000037c34        0x4 
 .text.__libc_cond_signal
                0x0000000000037c38       0x18 c:/devkitpro/devkita64/bin/../lib/gcc/aarch64-none-elf/8.3.0/../../../../aarch64-none-elf/lib/pic\libsysbase.a(locks.o)
                0x0000000000037c38                __libc_cond_signal
 .text.__libc_cond_broadcast
                0x0000000000037c50       0x18 c:/devkitpro/devkita64/bin/../lib/gcc/aarch64-none-elf/8.3.0/../../../../aarch64-none-elf/lib/pic\libsysbase.a(locks.o)
                0x0000000000037c50                __libc_cond_broadcast
 .text.__libc_cond_wait
                0x0000000000037c68       0x18 c:/devkitpro/devkita64/bin/../lib/gcc/aarch64-none-elf/8.3.0/../../../../aarch64-none-elf/lib/pic\libsysbase.a(locks.o)
                0x0000000000037c68                __libc_cond_wait
 .text.__libc_cond_wait_recursive
                0x0000000000037c80       0x18 c:/devkitpro/devkita64/bin/../lib/gcc/aarch64-none-elf/8.3.0/../../../../aarch64-none-elf/lib/pic\libsysbase.a(locks.o)
                0x0000000000037c80                __libc_cond_wait_recursive
 .text.__getreent
                0x0000000000037c98       0x20 c:/devkitpro/devkita64/bin/../lib/gcc/aarch64-none-elf/8.3.0/../../../../aarch64-none-elf/lib/pic\libsysbase.a(getreent.o)
                0x0000000000037c98                __getreent
 .text.clock_gettime
                0x0000000000037cb8       0x30 c:/devkitpro/devkita64/bin/../lib/gcc/aarch64-none-elf/8.3.0/../../../../aarch64-none-elf/lib/pic\libsysbase.a(clocks.o)
                0x0000000000037cb8                clock_gettime
 .text.clock_settime
                0x0000000000037ce8       0x30 c:/devkitpro/devkita64/bin/../lib/gcc/aarch64-none-elf/8.3.0/../../../../aarch64-none-elf/lib/pic\libsysbase.a(clocks.o)
                0x0000000000037ce8                clock_settime
 .text.clock_getres
                0x0000000000037d18       0x30 c:/devkitpro/devkita64/bin/../lib/gcc/aarch64-none-elf/8.3.0/../../../../aarch64-none-elf/lib/pic\libsysbase.a(clocks.o)
                0x0000000000037d18                clock_getres
 .text.__trunctfdf2
                0x0000000000037d48      0x348 c:/devkitpro/devkita64/bin/../lib/gcc/aarch64-none-elf/8.3.0/pic\libgcc.a(trunctfdf2.o)
                0x0000000000037d48                __trunctfdf2
 .text.__sfp_handle_exceptions
                0x0000000000038090       0x70 c:/devkitpro/devkita64/bin/../lib/gcc/aarch64-none-elf/8.3.0/pic\libgcc.a(sfp-exceptions.o)
                0x0000000000038090                __sfp_handle_exceptions
 .text          0x0000000000038100      0x100 c:/devkitpro/devkita64/bin/../lib/gcc/aarch64-none-elf/8.3.0/../../../../aarch64-none-elf/lib/pic\libg.a(lib_a-strrchr.o)
                0x0000000000038100                strrchr
                0x0000000000038200                . = ALIGN (0x8)

.fini           0x0000000000038200       0x38
 *(.fini)
 .fini          0x0000000000038200       0x18 c:/devkitpro/devkita64/bin/../lib/gcc/aarch64-none-elf/8.3.0/pic/crti.o
                0x0000000000038200                _fini
 .fini          0x0000000000038218       0x1c c:/devkitpro/devkita64/bin/../lib/gcc/aarch64-none-elf/8.3.0/pic/crtn.o
                0x0000000000038238                . = ALIGN (0x8)
 *fill*         0x0000000000038234        0x4 
                0x0000000000039000                . = ALIGN (0x1000)

.rodata         0x0000000000039000     0x2280
 *(.rodata .rodata.* .gnu.linkonce.r.*)
 .rodata        0x0000000000039000      0x400 main.o
 .rodata.str1.8
                0x0000000000039400      0x89a main.o
 *fill*         0x0000000000039c9a        0x6 
 .rodata        0x0000000000039ca0      0x400 acmd_wrapper.o
 .rodata.str1.8
                0x000000000003a0a0        0x5 acmd_wrapper.o
 *fill*         0x000000000003a0a5        0x3 
 .rodata        0x000000000003a0a8        0x5 saltysd_helper.o
 *fill*         0x000000000003a0ad        0x3 
 .rodata.str1.8
                0x000000000003a0b0        0x5 saltysd_helper.o
 *fill*         0x000000000003a0b5        0x3 
 .rodata        0x000000000003a0b8       0x60 lua_bind_hash.o
 .rodata        0x000000000003a118      0x53c raygun_printer.o
 *fill*         0x000000000003a654        0x4 
 .rodata.str1.8
                0x000000000003a658      0x147 raygun_printer.o
                                        0x14f (size before relaxing)
 *fill*         0x000000000003a79f        0x1 
 .rodata._fsdevUnmountDeviceStruct.part.4.str1.8
                0x000000000003a7a0        0x2 C:/Users/RNG/Desktop/Stuff/Smash-Stuff/SMASH-ULTIMATE-MODS-BABY/50xx-the-mod/acmd-edits/code-mod-framework/lib/libnx_min/nx/lib\libnx_min.a(fs_dev.o)
 *fill*         0x000000000003a7a2        0x6 
 .rodata.error_table
                0x000000000003a7a8       0x20 C:/Users/RNG/Desktop/Stuff/Smash-Stuff/SMASH-ULTIMATE-MODS-BABY/50xx-the-mod/acmd-edits/code-mod-framework/lib/libnx_min/nx/lib\libnx_min.a(fs_dev.o)
 .rodata.fsdevMountSdmc.str1.8
                0x000000000003a7c8        0x5 C:/Users/RNG/Desktop/Stuff/Smash-Stuff/SMASH-ULTIMATE-MODS-BABY/50xx-the-mod/acmd-edits/code-mod-framework/lib/libnx_min/nx/lib\libnx_min.a(fs_dev.o)
 *fill*         0x000000000003a7cd        0x3 
 .rodata.fsInitialize.str1.8
                0x000000000003a7d0        0x8 C:/Users/RNG/Desktop/Stuff/Smash-Stuff/SMASH-ULTIMATE-MODS-BABY/50xx-the-mod/acmd-edits/code-mod-framework/lib/libnx_min/nx/lib\libnx_min.a(fs.o)
 .rodata.setInitialize.str1.8
                0x000000000003a7d8        0x4 C:/Users/RNG/Desktop/Stuff/Smash-Stuff/SMASH-ULTIMATE-MODS-BABY/50xx-the-mod/acmd-edits/code-mod-framework/lib/libnx_min/nx/lib\libnx_min.a(set.o)
 *fill*         0x000000000003a7dc        0x4 
 .rodata.setsysInitialize.str1.8
                0x000000000003a7e0        0x8 C:/Users/RNG/Desktop/Stuff/Smash-Stuff/SMASH-ULTIMATE-MODS-BABY/50xx-the-mod/acmd-edits/code-mod-framework/lib/libnx_min/nx/lib\libnx_min.a(set.o)
 .rodata._fatalImpl.str1.8
                0x000000000003a7e8        0x8 C:/Users/RNG/Desktop/Stuff/Smash-Stuff/SMASH-ULTIMATE-MODS-BABY/50xx-the-mod/acmd-edits/code-mod-framework/lib/libnx_min/nx/lib\libnx_min.a(fatal.o)
 .rodata.smInitialize.str1.8
                0x000000000003a7f0        0x4 C:/Users/RNG/Desktop/Stuff/Smash-Stuff/SMASH-ULTIMATE-MODS-BABY/50xx-the-mod/acmd-edits/code-mod-framework/lib/libnx_min/nx/lib\libnx_min.a(sm.o)
                                          0x9 (size before relaxing)
 *fill*         0x000000000003a7f4        0x4 
 .rodata        0x000000000003a7f8       0x24 C:/Users/RNG/Desktop/Stuff/Smash-Stuff/SMASH-ULTIMATE-MODS-BABY/50xx-the-mod/acmd-edits/code-mod-framework/lib/libnx_min/nx/lib\libnx_min.a(hid.o)
 *fill*         0x000000000003a81c        0x4 
 .rodata.hidInitialize.str1.8
                0x000000000003a820        0x4 C:/Users/RNG/Desktop/Stuff/Smash-Stuff/SMASH-ULTIMATE-MODS-BABY/50xx-the-mod/acmd-edits/code-mod-framework/lib/libnx_min/nx/lib\libnx_min.a(hid.o)
 *fill*         0x000000000003a824        0x4 
 .rodata.timeInitialize.str1.8
                0x000000000003a828        0xf C:/Users/RNG/Desktop/Stuff/Smash-Stuff/SMASH-ULTIMATE-MODS-BABY/50xx-the-mod/acmd-edits/code-mod-framework/lib/libnx_min/nx/lib\libnx_min.a(time.o)
 *fill*         0x000000000003a837        0x1 
 .rodata.CSWTCH.93
                0x000000000003a838       0x14 C:/Users/RNG/Desktop/Stuff/Smash-Stuff/SMASH-ULTIMATE-MODS-BABY/50xx-the-mod/acmd-edits/code-mod-framework/lib/libnx_min/nx/lib\libnx_min.a(applet.o)
 *fill*         0x000000000003a84c        0x4 
 .rodata.appletInitialize.str1.8
                0x000000000003a850       0x19 C:/Users/RNG/Desktop/Stuff/Smash-Stuff/SMASH-ULTIMATE-MODS-BABY/50xx-the-mod/acmd-edits/code-mod-framework/lib/libnx_min/nx/lib\libnx_min.a(applet.o)
 *fill*         0x000000000003a869        0x7 
 .rodata.__libnx_init_time.str1.8
                0x000000000003a870        0x3 C:/Users/RNG/Desktop/Stuff/Smash-Stuff/SMASH-ULTIMATE-MODS-BABY/50xx-the-mod/acmd-edits/code-mod-framework/lib/libnx_min/nx/lib\libnx_min.a(newlib.o)
 *fill*         0x000000000003a873        0x5 
 .rodata.apmInitialize.str1.8
                0x000000000003a878        0x4 C:/Users/RNG/Desktop/Stuff/Smash-Stuff/SMASH-ULTIMATE-MODS-BABY/50xx-the-mod/acmd-edits/code-mod-framework/lib/libnx_min/nx/lib\libnx_min.a(apm.o)
 *fill*         0x000000000003a87c        0x4 
 .rodata._ctype_
                0x000000000003a880      0x101 c:/devkitpro/devkita64/bin/../lib/gcc/aarch64-none-elf/8.3.0/../../../../aarch64-none-elf/lib/pic\libg.a(lib_a-ctype_.o)
                0x000000000003a880                _ctype_
 *fill*         0x000000000003a981        0x3 
 .rodata.get_arg
                0x000000000003a984       0x92 c:/devkitpro/devkita64/bin/../lib/gcc/aarch64-none-elf/8.3.0/../../../../aarch64-none-elf/lib/pic\libg.a(lib_a-svfprintf.o)
 *fill*         0x000000000003aa16        0x2 
 .rodata._svfprintf_r
                0x000000000003aa18       0xb6 c:/devkitpro/devkita64/bin/../lib/gcc/aarch64-none-elf/8.3.0/../../../../aarch64-none-elf/lib/pic\libg.a(lib_a-svfprintf.o)
 .rodata._svfprintf_r.str1.1
                0x000000000003aace       0x3b c:/devkitpro/devkita64/bin/../lib/gcc/aarch64-none-elf/8.3.0/../../../../aarch64-none-elf/lib/pic\libg.a(lib_a-svfprintf.o)
 *fill*         0x000000000003ab09        0x7 
 .rodata.blanks.6590
                0x000000000003ab10       0x10 c:/devkitpro/devkita64/bin/../lib/gcc/aarch64-none-elf/8.3.0/../../../../aarch64-none-elf/lib/pic\libg.a(lib_a-svfprintf.o)
 .rodata.zeroes.6591
                0x000000000003ab20       0x10 c:/devkitpro/devkita64/bin/../lib/gcc/aarch64-none-elf/8.3.0/../../../../aarch64-none-elf/lib/pic\libg.a(lib_a-svfprintf.o)
 .rodata._dtoa_r.cst8
                0x000000000003ab30       0x18 c:/devkitpro/devkita64/bin/../lib/gcc/aarch64-none-elf/8.3.0/../../../../aarch64-none-elf/lib/pic\libg.a(lib_a-dtoa.o)
 .rodata._dtoa_r.str1.8
                0x000000000003ab48       0x1a c:/devkitpro/devkita64/bin/../lib/gcc/aarch64-none-elf/8.3.0/../../../../aarch64-none-elf/lib/pic\libg.a(lib_a-dtoa.o)
 *fill*         0x000000000003ab62        0x2 
 .rodata.__loadlocale
                0x000000000003ab64       0x6a c:/devkitpro/devkita64/bin/../lib/gcc/aarch64-none-elf/8.3.0/../../../../aarch64-none-elf/lib/pic\libg.a(lib_a-locale.o)
 *fill*         0x000000000003abce        0x2 
 .rodata.__get_locale_env.str1.8
                0x000000000003abd0        0xd c:/devkitpro/devkita64/bin/../lib/gcc/aarch64-none-elf/8.3.0/../../../../aarch64-none-elf/lib/pic\libg.a(lib_a-locale.o)
 *fill*         0x000000000003abdd        0x3 
 .rodata.__loadlocale.str1.8
                0x000000000003abe0      0x113 c:/devkitpro/devkita64/bin/../lib/gcc/aarch64-none-elf/8.3.0/../../../../aarch64-none-elf/lib/pic\libg.a(lib_a-locale.o)
 *fill*         0x000000000003acf3        0x5 
 .rodata.currentlocale.str1.8
                0x000000000003acf8        0x2 c:/devkitpro/devkita64/bin/../lib/gcc/aarch64-none-elf/8.3.0/../../../../aarch64-none-elf/lib/pic\libg.a(lib_a-locale.o)
 *fill*         0x000000000003acfa        0x6 
 .rodata.str1.8
                0x000000000003ad00       0x5c c:/devkitpro/devkita64/bin/../lib/gcc/aarch64-none-elf/8.3.0/../../../../aarch64-none-elf/lib/pic\libg.a(lib_a-locale.o)
                                         0x64 (size before relaxing)
 *fill*         0x000000000003ad5c        0x4 
 .rodata.JIS_action_table
                0x000000000003ad60       0x48 c:/devkitpro/devkita64/bin/../lib/gcc/aarch64-none-elf/8.3.0/../../../../aarch64-none-elf/lib/pic\libg.a(lib_a-mbtowc_r.o)
 .rodata.JIS_state_table
                0x000000000003ada8       0x48 c:/devkitpro/devkita64/bin/../lib/gcc/aarch64-none-elf/8.3.0/../../../../aarch64-none-elf/lib/pic\libg.a(lib_a-mbtowc_r.o)
 .rodata.__mprec_bigtens
                0x000000000003adf0       0x28 c:/devkitpro/devkita64/bin/../lib/gcc/aarch64-none-elf/8.3.0/../../../../aarch64-none-elf/lib/pic\libg.a(lib_a-mprec.o)
                0x000000000003adf0                __mprec_bigtens
 .rodata.__mprec_tens
                0x000000000003ae18       0xc8 c:/devkitpro/devkita64/bin/../lib/gcc/aarch64-none-elf/8.3.0/../../../../aarch64-none-elf/lib/pic\libg.a(lib_a-mprec.o)
                0x000000000003ae18                __mprec_tens
 .rodata.__mprec_tinytens
                0x000000000003aee0       0x28 c:/devkitpro/devkita64/bin/../lib/gcc/aarch64-none-elf/8.3.0/../../../../aarch64-none-elf/lib/pic\libg.a(lib_a-mprec.o)
                0x000000000003aee0                __mprec_tinytens
 .rodata.p05.5339
                0x000000000003af08        0xc c:/devkitpro/devkita64/bin/../lib/gcc/aarch64-none-elf/8.3.0/../../../../aarch64-none-elf/lib/pic\libg.a(lib_a-mprec.o)
 .rodata.get_arg
                0x000000000003af14       0x92 c:/devkitpro/devkita64/bin/../lib/gcc/aarch64-none-elf/8.3.0/../../../../aarch64-none-elf/lib/pic\libg.a(lib_a-svfiprintf.o)
 *fill*         0x000000000003afa6        0x2 
 .rodata._svfiprintf_r
                0x000000000003afa8       0xb6 c:/devkitpro/devkita64/bin/../lib/gcc/aarch64-none-elf/8.3.0/../../../../aarch64-none-elf/lib/pic\libg.a(lib_a-svfiprintf.o)
 *fill*         0x000000000003b05e        0x2 
 .rodata.__action_table
                0x000000000003b060       0x6c c:/devkitpro/devkita64/bin/../lib/gcc/aarch64-none-elf/8.3.0/../../../../aarch64-none-elf/lib/pic\libg.a(lib_a-svfiprintf.o)
                0x000000000003b060                __action_table
 *fill*         0x000000000003b0cc        0x4 
 .rodata.__chclass
                0x000000000003b0d0      0x100 c:/devkitpro/devkita64/bin/../lib/gcc/aarch64-none-elf/8.3.0/../../../../aarch64-none-elf/lib/pic\libg.a(lib_a-svfiprintf.o)
                0x000000000003b0d0                __chclass
 .rodata.__state_table
                0x000000000003b1d0       0x6c c:/devkitpro/devkita64/bin/../lib/gcc/aarch64-none-elf/8.3.0/../../../../aarch64-none-elf/lib/pic\libg.a(lib_a-svfiprintf.o)
                0x000000000003b1d0                __state_table
 .rodata._svfiprintf_r.str1.1
                0x000000000003b23c       0x29 c:/devkitpro/devkita64/bin/../lib/gcc/aarch64-none-elf/8.3.0/../../../../aarch64-none-elf/lib/pic\libg.a(lib_a-svfiprintf.o)
 *fill*         0x000000000003b23c        0x4 
 .rodata.blanks.6569
                0x000000000003b240       0x10 c:/devkitpro/devkita64/bin/../lib/gcc/aarch64-none-elf/8.3.0/../../../../aarch64-none-elf/lib/pic\libg.a(lib_a-svfiprintf.o)
 .rodata.zeroes.6570
                0x000000000003b250       0x10 c:/devkitpro/devkita64/bin/../lib/gcc/aarch64-none-elf/8.3.0/../../../../aarch64-none-elf/lib/pic\libg.a(lib_a-svfiprintf.o)
 .rodata.AddDevice.str1.8
                0x000000000003b260        0x8 c:/devkitpro/devkita64/bin/../lib/gcc/aarch64-none-elf/8.3.0/../../../../aarch64-none-elf/lib/pic\libsysbase.a(iosupport.o)
 .rodata.DIRECTORY_PARENT
                0x000000000003b268        0x3 c:/devkitpro/devkita64/bin/../lib/gcc/aarch64-none-elf/8.3.0/../../../../aarch64-none-elf/lib/pic\libsysbase.a(chdir.o)
                0x000000000003b268                DIRECTORY_PARENT
 *fill*         0x000000000003b26b        0x5 
 .rodata.DIRECTORY_SEPARATOR
                0x000000000003b270        0x2 c:/devkitpro/devkita64/bin/../lib/gcc/aarch64-none-elf/8.3.0/../../../../aarch64-none-elf/lib/pic\libsysbase.a(chdir.o)
                0x000000000003b270                DIRECTORY_SEPARATOR
 *fill*         0x000000000003b272        0x6 
 .rodata.DIRECTORY_THIS
                0x000000000003b278        0x2 c:/devkitpro/devkita64/bin/../lib/gcc/aarch64-none-elf/8.3.0/../../../../aarch64-none-elf/lib/pic\libsysbase.a(chdir.o)
                0x000000000003b278                DIRECTORY_THIS
                0x000000000003b280                . = ALIGN (0x8)
 *fill*         0x000000000003b27a        0x6 

.eh_frame_hdr   0x000000000003b280        0x0
                0x000000000003b280                __eh_frame_hdr_start = .
 *(.eh_frame_hdr)
 *(.eh_frame_entry .eh_frame_entry.*)
                0x000000000003b280                __eh_frame_hdr_end = .

.eh_frame       0x000000000003b280     0x82d8
 *(.eh_frame)
 .eh_frame      0x000000000003b280       0x80 c:/devkitpro/devkita64/bin/../lib/gcc/aarch64-none-elf/8.3.0/pic/crtbegin.o
 .eh_frame      0x000000000003b300      0xd28 main.o
                                        0xd38 (size before relaxing)
 .eh_frame      0x000000000003c028      0x300 acmd_wrapper.o
                                        0x318 (size before relaxing)
 .eh_frame      0x000000000003c328       0x70 saltysd_helper.o
                                         0x88 (size before relaxing)
 .eh_frame      0x000000000003c398       0xd8 l2c_imports.o
                                         0xe8 (size before relaxing)
 .eh_frame      0x000000000003c470       0x40 lua_bind_hash.o
                                         0x58 (size before relaxing)
 .eh_frame      0x000000000003c4b0      0x120 raygun_printer.o
                                        0x130 (size before relaxing)
 .eh_frame      0x000000000003c5d0       0x28 C:/Users/RNG/Desktop/Stuff/Smash-Stuff/SMASH-ULTIMATE-MODS-BABY/50xx-the-mod/acmd-edits/code-mod-framework/lib/libnx_min/nx/lib\libnx_min.a(exception.o)
                                         0x40 (size before relaxing)
 .eh_frame      0x000000000003c5f8       0xa8 C:/Users/RNG/Desktop/Stuff/Smash-Stuff/SMASH-ULTIMATE-MODS-BABY/50xx-the-mod/acmd-edits/code-mod-framework/lib/libnx_min/nx/lib\libnx_min.a(argv.o)
                                         0xb8 (size before relaxing)
 .eh_frame      0x000000000003c6a0      0x1c0 C:/Users/RNG/Desktop/Stuff/Smash-Stuff/SMASH-ULTIMATE-MODS-BABY/50xx-the-mod/acmd-edits/code-mod-framework/lib/libnx_min/nx/lib\libnx_min.a(env.o)
                                        0x1d8 (size before relaxing)
 .eh_frame      0x000000000003c860       0x68 C:/Users/RNG/Desktop/Stuff/Smash-Stuff/SMASH-ULTIMATE-MODS-BABY/50xx-the-mod/acmd-edits/code-mod-framework/lib/libnx_min/nx/lib\libnx_min.a(init.o)
                                         0xb8 (size before relaxing)
 .eh_frame      0x000000000003c8c8       0x28 C:/Users/RNG/Desktop/Stuff/Smash-Stuff/SMASH-ULTIMATE-MODS-BABY/50xx-the-mod/acmd-edits/code-mod-framework/lib/libnx_min/nx/lib\libnx_min.a(hosversion.o)
                                         0x40 (size before relaxing)
 .eh_frame      0x000000000003c8f0       0x18 C:/Users/RNG/Desktop/Stuff/Smash-Stuff/SMASH-ULTIMATE-MODS-BABY/50xx-the-mod/acmd-edits/code-mod-framework/lib/libnx_min/nx/lib\libnx_min.a(dynamic.o)
                                         0x30 (size before relaxing)
 .eh_frame      0x000000000003c908      0x800 C:/Users/RNG/Desktop/Stuff/Smash-Stuff/SMASH-ULTIMATE-MODS-BABY/50xx-the-mod/acmd-edits/code-mod-framework/lib/libnx_min/nx/lib\libnx_min.a(fs_dev.o)
                                        0x818 (size before relaxing)
 .eh_frame      0x000000000003d108       0x18 C:/Users/RNG/Desktop/Stuff/Smash-Stuff/SMASH-ULTIMATE-MODS-BABY/50xx-the-mod/acmd-edits/code-mod-framework/lib/libnx_min/nx/lib\libnx_min.a(decode_utf8.o)
                                         0x28 (size before relaxing)
 .eh_frame      0x000000000003d120      0x7d0 C:/Users/RNG/Desktop/Stuff/Smash-Stuff/SMASH-ULTIMATE-MODS-BABY/50xx-the-mod/acmd-edits/code-mod-framework/lib/libnx_min/nx/lib\libnx_min.a(svc.o)
                                        0x7e8 (size before relaxing)
 .eh_frame      0x000000000003d8f0       0x18 C:/Users/RNG/Desktop/Stuff/Smash-Stuff/SMASH-ULTIMATE-MODS-BABY/50xx-the-mod/acmd-edits/code-mod-framework/lib/libnx_min/nx/lib\libnx_min.a(readtp.o)
                                         0x28 (size before relaxing)
 .eh_frame      0x000000000003d908      0x108 C:/Users/RNG/Desktop/Stuff/Smash-Stuff/SMASH-ULTIMATE-MODS-BABY/50xx-the-mod/acmd-edits/code-mod-framework/lib/libnx_min/nx/lib\libnx_min.a(virtmem.o)
                                        0x120 (size before relaxing)
 .eh_frame      0x000000000003da10       0xb0 C:/Users/RNG/Desktop/Stuff/Smash-Stuff/SMASH-ULTIMATE-MODS-BABY/50xx-the-mod/acmd-edits/code-mod-framework/lib/libnx_min/nx/lib\libnx_min.a(mutex.o)
                                         0xc0 (size before relaxing)
 .eh_frame      0x000000000003dac0      0xed0 C:/Users/RNG/Desktop/Stuff/Smash-Stuff/SMASH-ULTIMATE-MODS-BABY/50xx-the-mod/acmd-edits/code-mod-framework/lib/libnx_min/nx/lib\libnx_min.a(fs.o)
                                        0xee0 (size before relaxing)
 .eh_frame      0x000000000003e990      0x540 C:/Users/RNG/Desktop/Stuff/Smash-Stuff/SMASH-ULTIMATE-MODS-BABY/50xx-the-mod/acmd-edits/code-mod-framework/lib/libnx_min/nx/lib\libnx_min.a(set.o)
                                        0x550 (size before relaxing)
 .eh_frame      0x000000000003eed0       0x70 C:/Users/RNG/Desktop/Stuff/Smash-Stuff/SMASH-ULTIMATE-MODS-BABY/50xx-the-mod/acmd-edits/code-mod-framework/lib/libnx_min/nx/lib\libnx_min.a(fatal.o)
                                         0x88 (size before relaxing)
 .eh_frame      0x000000000003ef40      0x1d8 C:/Users/RNG/Desktop/Stuff/Smash-Stuff/SMASH-ULTIMATE-MODS-BABY/50xx-the-mod/acmd-edits/code-mod-framework/lib/libnx_min/nx/lib\libnx_min.a(sm.o)
                                        0x1f0 (size before relaxing)
 .eh_frame      0x000000000003f118      0xbe0 C:/Users/RNG/Desktop/Stuff/Smash-Stuff/SMASH-ULTIMATE-MODS-BABY/50xx-the-mod/acmd-edits/code-mod-framework/lib/libnx_min/nx/lib\libnx_min.a(hid.o)
                                        0xbf0 (size before relaxing)
 .eh_frame      0x000000000003fcf8      0x180 C:/Users/RNG/Desktop/Stuff/Smash-Stuff/SMASH-ULTIMATE-MODS-BABY/50xx-the-mod/acmd-edits/code-mod-framework/lib/libnx_min/nx/lib\libnx_min.a(time.o)
                                        0x198 (size before relaxing)
 .eh_frame      0x000000000003fe78     0x1448 C:/Users/RNG/Desktop/Stuff/Smash-Stuff/SMASH-ULTIMATE-MODS-BABY/50xx-the-mod/acmd-edits/code-mod-framework/lib/libnx_min/nx/lib\libnx_min.a(applet.o)
                                       0x1458 (size before relaxing)
 .eh_frame      0x00000000000412c0      0x408 C:/Users/RNG/Desktop/Stuff/Smash-Stuff/SMASH-ULTIMATE-MODS-BABY/50xx-the-mod/acmd-edits/code-mod-framework/lib/libnx_min/nx/lib\libnx_min.a(newlib.o)
                                        0x420 (size before relaxing)
 .eh_frame      0x00000000000416c8      0x1b8 C:/Users/RNG/Desktop/Stuff/Smash-Stuff/SMASH-ULTIMATE-MODS-BABY/50xx-the-mod/acmd-edits/code-mod-framework/lib/libnx_min/nx/lib\libnx_min.a(thread.o)
                                        0x1c8 (size before relaxing)
 .eh_frame      0x0000000000041880       0x30 C:/Users/RNG/Desktop/Stuff/Smash-Stuff/SMASH-ULTIMATE-MODS-BABY/50xx-the-mod/acmd-edits/code-mod-framework/lib/libnx_min/nx/lib\libnx_min.a(condvar.o)
                                         0x48 (size before relaxing)
 .eh_frame      0x00000000000418b0       0xb0 C:/Users/RNG/Desktop/Stuff/Smash-Stuff/SMASH-ULTIMATE-MODS-BABY/50xx-the-mod/acmd-edits/code-mod-framework/lib/libnx_min/nx/lib\libnx_min.a(event.o)
                                         0xc0 (size before relaxing)
 .eh_frame      0x0000000000041960       0xf0 C:/Users/RNG/Desktop/Stuff/Smash-Stuff/SMASH-ULTIMATE-MODS-BABY/50xx-the-mod/acmd-edits/code-mod-framework/lib/libnx_min/nx/lib\libnx_min.a(tmem.o)
                                        0x108 (size before relaxing)
 .eh_frame      0x0000000000041a50       0xb0 C:/Users/RNG/Desktop/Stuff/Smash-Stuff/SMASH-ULTIMATE-MODS-BABY/50xx-the-mod/acmd-edits/code-mod-framework/lib/libnx_min/nx/lib\libnx_min.a(rwlock.o)
                                         0xc0 (size before relaxing)
 .eh_frame      0x0000000000041b00       0xb0 C:/Users/RNG/Desktop/Stuff/Smash-Stuff/SMASH-ULTIMATE-MODS-BABY/50xx-the-mod/acmd-edits/code-mod-framework/lib/libnx_min/nx/lib\libnx_min.a(wait.o)
                                         0xc8 (size before relaxing)
 .eh_frame      0x0000000000041bb0       0xb8 C:/Users/RNG/Desktop/Stuff/Smash-Stuff/SMASH-ULTIMATE-MODS-BABY/50xx-the-mod/acmd-edits/code-mod-framework/lib/libnx_min/nx/lib\libnx_min.a(shmem.o)
                                         0xc8 (size before relaxing)
 .eh_frame      0x0000000000041c68       0xc8 C:/Users/RNG/Desktop/Stuff/Smash-Stuff/SMASH-ULTIMATE-MODS-BABY/50xx-the-mod/acmd-edits/code-mod-framework/lib/libnx_min/nx/lib\libnx_min.a(detect.o)
                                         0xd8 (size before relaxing)
 .eh_frame      0x0000000000041d30      0x110 C:/Users/RNG/Desktop/Stuff/Smash-Stuff/SMASH-ULTIMATE-MODS-BABY/50xx-the-mod/acmd-edits/code-mod-framework/lib/libnx_min/nx/lib\libnx_min.a(apm.o)
                                        0x128 (size before relaxing)
 .eh_frame      0x0000000000041e40       0x68 c:/devkitpro/devkita64/bin/../lib/gcc/aarch64-none-elf/8.3.0/../../../../aarch64-none-elf/lib/pic\libg.a(lib_a-bsearch.o)
                                         0x78 (size before relaxing)
 .eh_frame      0x0000000000041ea8       0x18 c:/devkitpro/devkita64/bin/../lib/gcc/aarch64-none-elf/8.3.0/../../../../aarch64-none-elf/lib/pic\libg.a(lib_a-ctype_.o)
                                         0x28 (size before relaxing)
 .eh_frame      0x0000000000041ec0       0x20 c:/devkitpro/devkita64/bin/../lib/gcc/aarch64-none-elf/8.3.0/../../../../aarch64-none-elf/lib/pic\libg.a(lib_a-errno.o)
                                         0x38 (size before relaxing)
 .eh_frame      0x0000000000041ee0       0x20 c:/devkitpro/devkita64/bin/../lib/gcc/aarch64-none-elf/8.3.0/../../../../aarch64-none-elf/lib/pic\libg.a(lib_a-exit.o)
                                         0x30 (size before relaxing)
 .eh_frame      0x0000000000041f00       0x28 c:/devkitpro/devkita64/bin/../lib/gcc/aarch64-none-elf/8.3.0/../../../../aarch64-none-elf/lib/pic\libg.a(lib_a-fini.o)
                                         0x38 (size before relaxing)
 .eh_frame      0x0000000000041f28       0x28 c:/devkitpro/devkita64/bin/../lib/gcc/aarch64-none-elf/8.3.0/../../../../aarch64-none-elf/lib/pic\libg.a(lib_a-init.o)
                                         0x40 (size before relaxing)
 .eh_frame      0x0000000000041f50       0x28 c:/devkitpro/devkita64/bin/../lib/gcc/aarch64-none-elf/8.3.0/../../../../aarch64-none-elf/lib/pic\libg.a(lib_a-malign.o)
                                         0x38 (size before relaxing)
 .eh_frame      0x0000000000041f78       0x50 c:/devkitpro/devkita64/bin/../lib/gcc/aarch64-none-elf/8.3.0/../../../../aarch64-none-elf/lib/pic\libg.a(lib_a-malignr.o)
                                         0x68 (size before relaxing)
 .eh_frame      0x0000000000041fc8       0x40 c:/devkitpro/devkita64/bin/../lib/gcc/aarch64-none-elf/8.3.0/../../../../aarch64-none-elf/lib/pic\libg.a(lib_a-malloc.o)
                                         0x58 (size before relaxing)
 .eh_frame      0x0000000000042008       0xd0 c:/devkitpro/devkita64/bin/../lib/gcc/aarch64-none-elf/8.3.0/../../../../aarch64-none-elf/lib/pic\libg.a(lib_a-mallocr.o)
                                         0xe0 (size before relaxing)
 .eh_frame      0x00000000000420d8       0x28 c:/devkitpro/devkita64/bin/../lib/gcc/aarch64-none-elf/8.3.0/../../../../aarch64-none-elf/lib/pic\libg.a(lib_a-mlock.o)
                                         0x40 (size before relaxing)
 .eh_frame      0x0000000000042100       0x48 c:/devkitpro/devkita64/bin/../lib/gcc/aarch64-none-elf/8.3.0/../../../../aarch64-none-elf/lib/pic\libg.a(lib_a-setenv.o)
                                         0x58 (size before relaxing)
 .eh_frame      0x0000000000042148       0xb0 c:/devkitpro/devkita64/bin/../lib/gcc/aarch64-none-elf/8.3.0/../../../../aarch64-none-elf/lib/pic\libg.a(lib_a-setenv_r.o)
                                         0xc8 (size before relaxing)
 .eh_frame      0x00000000000421f8       0x18 c:/devkitpro/devkita64/bin/../lib/gcc/aarch64-none-elf/8.3.0/../../../../aarch64-none-elf/lib/pic\libg.a(lib_a-strncat.o)
                                         0x28 (size before relaxing)
 .eh_frame      0x0000000000042210       0x18 c:/devkitpro/devkita64/bin/../lib/gcc/aarch64-none-elf/8.3.0/../../../../aarch64-none-elf/lib/pic\libg.a(lib_a-strncpy.o)
                                         0x28 (size before relaxing)
 .eh_frame      0x0000000000042228       0x18 c:/devkitpro/devkita64/bin/../lib/gcc/aarch64-none-elf/8.3.0/../../../../aarch64-none-elf/lib/pic\libg.a(lib_a-toupper.o)
                                         0x28 (size before relaxing)
 .eh_frame      0x0000000000042240       0x58 c:/devkitpro/devkita64/bin/../lib/gcc/aarch64-none-elf/8.3.0/../../../../aarch64-none-elf/lib/pic\libg.a(lib_a-vsnprintf.o)
                                         0x68 (size before relaxing)
 .eh_frame      0x0000000000042298       0x40 c:/devkitpro/devkita64/bin/../lib/gcc/aarch64-none-elf/8.3.0/../../../../aarch64-none-elf/lib/pic\libg.a(lib_a-__call_atexit.o)
                                         0x58 (size before relaxing)
 .eh_frame      0x00000000000422d8       0x28 c:/devkitpro/devkita64/bin/../lib/gcc/aarch64-none-elf/8.3.0/../../../../aarch64-none-elf/lib/pic\libg.a(lib_a-envlock.o)
                                         0x40 (size before relaxing)
 .eh_frame      0x0000000000042300       0x80 c:/devkitpro/devkita64/bin/../lib/gcc/aarch64-none-elf/8.3.0/../../../../aarch64-none-elf/lib/pic\libg.a(lib_a-freer.o)
                                         0x98 (size before relaxing)
 .eh_frame      0x0000000000042380       0x68 c:/devkitpro/devkita64/bin/../lib/gcc/aarch64-none-elf/8.3.0/../../../../aarch64-none-elf/lib/pic\libg.a(lib_a-getenv_r.o)
                                         0x78 (size before relaxing)
 .eh_frame      0x00000000000423e8       0xf0 c:/devkitpro/devkita64/bin/../lib/gcc/aarch64-none-elf/8.3.0/../../../../aarch64-none-elf/lib/pic\libg.a(lib_a-reallocr.o)
                                        0x108 (size before relaxing)
 .eh_frame      0x00000000000424d8       0xb8 c:/devkitpro/devkita64/bin/../lib/gcc/aarch64-none-elf/8.3.0/../../../../aarch64-none-elf/lib/pic\libg.a(lib_a-svfprintf.o)
                                         0xc8 (size before relaxing)
 .eh_frame      0x0000000000042590       0x70 c:/devkitpro/devkita64/bin/../lib/gcc/aarch64-none-elf/8.3.0/../../../../aarch64-none-elf/lib/pic\libg.a(lib_a-wcrtomb.o)
                                         0x80 (size before relaxing)
 .eh_frame      0x0000000000042600       0x38 c:/devkitpro/devkita64/bin/../lib/gcc/aarch64-none-elf/8.3.0/../../../../aarch64-none-elf/lib/pic\libg.a(lib_a-wcsrtombs.o)
                                         0x50 (size before relaxing)
 .eh_frame      0x0000000000042638       0x98 c:/devkitpro/devkita64/bin/../lib/gcc/aarch64-none-elf/8.3.0/../../../../aarch64-none-elf/lib/pic\libg.a(lib_a-dtoa.o)
                                         0xb0 (size before relaxing)
 .eh_frame      0x00000000000426d0       0x58 c:/devkitpro/devkita64/bin/../lib/gcc/aarch64-none-elf/8.3.0/../../../../aarch64-none-elf/lib/pic\libg.a(lib_a-localeconv.o)
                                         0x68 (size before relaxing)
 .eh_frame      0x0000000000042728      0x200 c:/devkitpro/devkita64/bin/../lib/gcc/aarch64-none-elf/8.3.0/../../../../aarch64-none-elf/lib/pic\libg.a(lib_a-locale.o)
                                        0x210 (size before relaxing)
 .eh_frame      0x0000000000042928       0xf8 c:/devkitpro/devkita64/bin/../lib/gcc/aarch64-none-elf/8.3.0/../../../../aarch64-none-elf/lib/pic\libg.a(lib_a-mbtowc_r.o)
                                        0x110 (size before relaxing)
 .eh_frame      0x0000000000042a20      0x2f8 c:/devkitpro/devkita64/bin/../lib/gcc/aarch64-none-elf/8.3.0/../../../../aarch64-none-elf/lib/pic\libg.a(lib_a-mprec.o)
                                        0x310 (size before relaxing)
 .eh_frame      0x0000000000042d18       0x18 c:/devkitpro/devkita64/bin/../lib/gcc/aarch64-none-elf/8.3.0/../../../../aarch64-none-elf/lib/pic\libg.a(lib_a-s_frexp.o)
                                         0x28 (size before relaxing)
 .eh_frame      0x0000000000042d30       0x18 c:/devkitpro/devkita64/bin/../lib/gcc/aarch64-none-elf/8.3.0/../../../../aarch64-none-elf/lib/pic\libg.a(lib_a-strcasecmp.o)
                                         0x28 (size before relaxing)
 .eh_frame      0x0000000000042d48       0x28 c:/devkitpro/devkita64/bin/../lib/gcc/aarch64-none-elf/8.3.0/../../../../aarch64-none-elf/lib/pic\libg.a(lib_a-strcat.o)
                                         0x38 (size before relaxing)
 .eh_frame      0x0000000000042d70       0x18 c:/devkitpro/devkita64/bin/../lib/gcc/aarch64-none-elf/8.3.0/../../../../aarch64-none-elf/lib/pic\libg.a(lib_a-strlcpy.o)
                                         0x28 (size before relaxing)
 .eh_frame      0x0000000000042d88       0x18 c:/devkitpro/devkita64/bin/../lib/gcc/aarch64-none-elf/8.3.0/../../../../aarch64-none-elf/lib/pic\libg.a(lib_a-strncasecmp.o)
                                         0x28 (size before relaxing)
 .eh_frame      0x0000000000042da0       0x80 c:/devkitpro/devkita64/bin/../lib/gcc/aarch64-none-elf/8.3.0/../../../../aarch64-none-elf/lib/pic\libg.a(lib_a-strtol.o)
                                         0x98 (size before relaxing)
 .eh_frame      0x0000000000042e20       0xe0 c:/devkitpro/devkita64/bin/../lib/gcc/aarch64-none-elf/8.3.0/../../../../aarch64-none-elf/lib/pic\libg.a(lib_a-svfiprintf.o)
                                         0xf8 (size before relaxing)
 .eh_frame      0x0000000000042f00      0x128 c:/devkitpro/devkita64/bin/../lib/gcc/aarch64-none-elf/8.3.0/../../../../aarch64-none-elf/lib/pic\libg.a(lib_a-wcsnrtombs.o)
                                        0x138 (size before relaxing)
 .eh_frame      0x0000000000043028       0x88 c:/devkitpro/devkita64/bin/../lib/gcc/aarch64-none-elf/8.3.0/../../../../aarch64-none-elf/lib/pic\libg.a(lib_a-wctomb_r.o)
                                         0xa0 (size before relaxing)
 .eh_frame      0x00000000000430b0       0x30 c:/devkitpro/devkita64/bin/../lib/gcc/aarch64-none-elf/8.3.0/../../../../aarch64-none-elf/lib/pic\libg.a(lib_a-callocr.o)
                                         0x40 (size before relaxing)
 .eh_frame      0x00000000000430e0      0x118 c:/devkitpro/devkita64/bin/../lib/gcc/aarch64-none-elf/8.3.0/../../../../aarch64-none-elf/lib/pic\libsysbase.a(iosupport.o)
                                        0x130 (size before relaxing)
 .eh_frame      0x00000000000431f8       0x18 c:/devkitpro/devkita64/bin/../lib/gcc/aarch64-none-elf/8.3.0/../../../../aarch64-none-elf/lib/pic\libsysbase.a(sbrk.o)
                                         0x28 (size before relaxing)
 .eh_frame      0x0000000000043210       0x20 c:/devkitpro/devkita64/bin/../lib/gcc/aarch64-none-elf/8.3.0/../../../../aarch64-none-elf/lib/pic\libsysbase.a(_exit.o)
                                         0x38 (size before relaxing)
 .eh_frame      0x0000000000043230      0x110 c:/devkitpro/devkita64/bin/../lib/gcc/aarch64-none-elf/8.3.0/../../../../aarch64-none-elf/lib/pic\libsysbase.a(chdir.o)
                                        0x128 (size before relaxing)
 .eh_frame      0x0000000000043340      0x168 c:/devkitpro/devkita64/bin/../lib/gcc/aarch64-none-elf/8.3.0/../../../../aarch64-none-elf/lib/pic\libsysbase.a(locks.o)
                                        0x178 (size before relaxing)
 .eh_frame      0x00000000000434a8       0x18 c:/devkitpro/devkita64/bin/../lib/gcc/aarch64-none-elf/8.3.0/../../../../aarch64-none-elf/lib/pic\libsysbase.a(getreent.o)
                                         0x28 (size before relaxing)
 .eh_frame      0x00000000000434c0       0x60 c:/devkitpro/devkita64/bin/../lib/gcc/aarch64-none-elf/8.3.0/../../../../aarch64-none-elf/lib/pic\libsysbase.a(clocks.o)
                                         0x78 (size before relaxing)
 .eh_frame      0x0000000000043520       0x20 c:/devkitpro/devkita64/bin/../lib/gcc/aarch64-none-elf/8.3.0/pic\libgcc.a(trunctfdf2.o)
                                         0x38 (size before relaxing)
 .eh_frame      0x0000000000043540       0x14 c:/devkitpro/devkita64/bin/../lib/gcc/aarch64-none-elf/8.3.0/pic\libgcc.a(sfp-exceptions.o)
                                         0x28 (size before relaxing)
 .eh_frame      0x0000000000043554        0x4 c:/devkitpro/devkita64/bin/../lib/gcc/aarch64-none-elf/8.3.0/pic/crtend.o
 *(.eh_frame.*)

.gcc_except_table
 *(.gcc_except_table .gcc_except_table.*)

.gnu_extab
 *(.gnu_extab*)

.dynamic        0x0000000000043558      0x1a0
 *(.dynamic)
 .dynamic       0x0000000000043558      0x1a0 c:/devkitpro/devkita64/bin/../lib/gcc/aarch64-none-elf/8.3.0/pic/crti.o
                0x0000000000043558                _DYNAMIC

.dynsym         0x00000000000436f8     0x48d8
 *(.dynsym)
 .dynsym        0x00000000000436f8     0x48d8 c:/devkitpro/devkita64/bin/../lib/gcc/aarch64-none-elf/8.3.0/pic/crti.o

.dynstr         0x0000000000047fd0     0x3ee9
 *(.dynstr)
 .dynstr        0x0000000000047fd0     0x3ee9 c:/devkitpro/devkita64/bin/../lib/gcc/aarch64-none-elf/8.3.0/pic/crti.o

.rela.dyn       0x000000000004bec0     0x31e0
 *(.rela.*)
 .rela.got      0x000000000004bec0      0xdb0 c:/devkitpro/devkita64/bin/../lib/gcc/aarch64-none-elf/8.3.0/pic/crti.o
 .rela.plt      0x000000000004efe0       0xc0 c:/devkitpro/devkita64/bin/../lib/gcc/aarch64-none-elf/8.3.0/pic/crti.o
 .rela.bss      0x000000000004cd30        0x0 c:/devkitpro/devkita64/bin/../lib/gcc/aarch64-none-elf/8.3.0/pic/crti.o
 .rela.data.rel.ro
                0x000000000004cd30        0x0 c:/devkitpro/devkita64/bin/../lib/gcc/aarch64-none-elf/8.3.0/pic/crti.o
 .rela.init_array
                0x000000000004cc70       0x30 c:/devkitpro/devkita64/bin/../lib/gcc/aarch64-none-elf/8.3.0/pic/crti.o
 .rela.fini_array
                0x000000000004cca0       0x18 c:/devkitpro/devkita64/bin/../lib/gcc/aarch64-none-elf/8.3.0/pic/crti.o
 .rela.ifunc    0x000000000004cd78        0x0 c:/devkitpro/devkita64/bin/../lib/gcc/aarch64-none-elf/8.3.0/pic/crti.o
 .rela.data.rel.local
                0x000000000004ccb8      0x3c0 c:/devkitpro/devkita64/bin/../lib/gcc/aarch64-none-elf/8.3.0/pic/crti.o
 .rela.data.rel.ro.local.fsdev_devoptab
                0x000000000004d078      0x210 c:/devkitpro/devkita64/bin/../lib/gcc/aarch64-none-elf/8.3.0/pic/crti.o
 .rela.data.rel.local._impure_ptr
                0x000000000004d288       0x18 c:/devkitpro/devkita64/bin/../lib/gcc/aarch64-none-elf/8.3.0/pic/crti.o
 .rela.data.rel.local.impure_data
                0x000000000004d2a0       0x48 c:/devkitpro/devkita64/bin/../lib/gcc/aarch64-none-elf/8.3.0/pic/crti.o
 .rela.data.rel.ro.local._global_impure_ptr
                0x000000000004d2e8       0x18 c:/devkitpro/devkita64/bin/../lib/gcc/aarch64-none-elf/8.3.0/pic/crti.o
 .rela.data.rel.__malloc_av_
                0x000000000004d300     0x1800 c:/devkitpro/devkita64/bin/../lib/gcc/aarch64-none-elf/8.3.0/pic/crti.o
 .rela.data.rel.local.environ
                0x000000000004eb00       0x18 c:/devkitpro/devkita64/bin/../lib/gcc/aarch64-none-elf/8.3.0/pic/crti.o
 .rela.data.rel.__global_locale
                0x000000000004eb18      0x138 c:/devkitpro/devkita64/bin/../lib/gcc/aarch64-none-elf/8.3.0/pic/crti.o
 .rela.data.rel.ro.__C_locale
                0x000000000004ec50      0x138 c:/devkitpro/devkita64/bin/../lib/gcc/aarch64-none-elf/8.3.0/pic/crti.o
 .rela.data.rel.ro.local.categories
                0x000000000004ed88       0xa8 c:/devkitpro/devkita64/bin/../lib/gcc/aarch64-none-elf/8.3.0/pic/crti.o
 .rela.data.rel.devoptab_list
                0x000000000004ee30      0x180 c:/devkitpro/devkita64/bin/../lib/gcc/aarch64-none-elf/8.3.0/pic/crti.o
 .rela.data.rel.ro.local.dotab_stdnull
                0x000000000004efb0       0x30 c:/devkitpro/devkita64/bin/../lib/gcc/aarch64-none-elf/8.3.0/pic/crti.o

.interp         0x000000000004f0a0        0xd
 *(.interp)
 .interp        0x000000000004f0a0        0xd c:/devkitpro/devkita64/bin/../lib/gcc/aarch64-none-elf/8.3.0/pic/crti.o

.hash           0x000000000004f0b0     0x1450
 *(.hash)
 .hash          0x000000000004f0b0     0x1450 c:/devkitpro/devkita64/bin/../lib/gcc/aarch64-none-elf/8.3.0/pic/crti.o

.gnu.hash
 *(.gnu.hash)

.gnu.version    0x0000000000050500        0x0
 *(.gnu.version)
 .gnu.version   0x0000000000050500        0x0 c:/devkitpro/devkita64/bin/../lib/gcc/aarch64-none-elf/8.3.0/pic/crti.o

.gnu.version_d  0x0000000000050500        0x0
 *(.gnu.version_d)
 .gnu.version_d
                0x0000000000050500        0x0 c:/devkitpro/devkita64/bin/../lib/gcc/aarch64-none-elf/8.3.0/pic/crti.o

.gnu.version_r  0x0000000000050500        0x0
 *(.gnu.version_r)
 .gnu.version_r
                0x0000000000050500        0x0 c:/devkitpro/devkita64/bin/../lib/gcc/aarch64-none-elf/8.3.0/pic/crti.o

.note.gnu.build-id
                0x0000000000050500       0x24
 *(.note.gnu.build-id)
 .note.gnu.build-id
                0x0000000000050500       0x24 c:/devkitpro/devkita64/bin/../lib/gcc/aarch64-none-elf/8.3.0/pic/crti.o
                0x0000000000051000                . = ALIGN (0x1000)

.eh_frame
 *(.eh_frame)
 *(.eh_frame.*)

.gcc_except_table
 *(.gcc_except_table .gcc_except_table.*)

.gnu_extab
 *(.gnu_extab*)

.exception_ranges
 *(.exception_ranges .exception_ranges*)

.tdata          0x0000000000051000        0x0
                0x0000000000051000                __tdata_lma = .
 *(.tdata .tdata.* .gnu.linkonce.td.*)
                0x0000000000051000                . = ALIGN (0x8)
                0x0000000000051000                __tdata_lma_end = .

.tbss           0x0000000000051000     0x4408
 *(.tbss .tbss.* .gnu.linkonce.tb.*)
 .tbss.__fixedpath
                0x0000000000051000      0x401 C:/Users/RNG/Desktop/Stuff/Smash-Stuff/SMASH-ULTIMATE-MODS-BABY/50xx-the-mod/acmd-edits/code-mod-framework/lib/libnx_min/nx/lib\libnx_min.a(fs_dev.o)
 *fill*         0x0000000000051401        0x3 
 .tbss.fsdev_last_result
                0x0000000000051404        0x4 C:/Users/RNG/Desktop/Stuff/Smash-Stuff/SMASH-ULTIMATE-MODS-BABY/50xx-the-mod/acmd-edits/code-mod-framework/lib/libnx_min/nx/lib\libnx_min.a(fs_dev.o)
 .tbss.tmp_buffer.7389
                0x0000000000051408     0x2000 C:/Users/RNG/Desktop/Stuff/Smash-Stuff/SMASH-ULTIMATE-MODS-BABY/50xx-the-mod/acmd-edits/code-mod-framework/lib/libnx_min/nx/lib\libnx_min.a(fs_dev.o)
 .tbss.tmp_buffer.7413
                0x0000000000053408     0x2000 C:/Users/RNG/Desktop/Stuff/Smash-Stuff/SMASH-ULTIMATE-MODS-BABY/50xx-the-mod/acmd-edits/code-mod-framework/lib/libnx_min/nx/lib\libnx_min.a(fs_dev.o)
 *(.tcommon)
                0x0000000000055408                . = ALIGN (0x8)

.preinit_array  0x0000000000051000        0x0
                0x0000000000051000                PROVIDE (__preinit_array_start = .)
 *(.preinit_array)
                0x0000000000051000                PROVIDE (__preinit_array_end = .)

.init_array     0x0000000000051000       0x10
                0x0000000000051000                PROVIDE (__init_array_start = .)
 *(SORT_BY_NAME(.init_array.*))
 *(.init_array)
 .init_array    0x0000000000051000        0x8 c:/devkitpro/devkita64/bin/../lib/gcc/aarch64-none-elf/8.3.0/pic/crtbegin.o
 .init_array    0x0000000000051008        0x8 main.o
                0x0000000000051010                PROVIDE (__init_array_end = .)

.fini_array     0x0000000000051010        0x8
                0x0000000000051010                PROVIDE (__fini_array_start = .)
 *(.fini_array)
 .fini_array    0x0000000000051010        0x8 c:/devkitpro/devkita64/bin/../lib/gcc/aarch64-none-elf/8.3.0/pic/crtbegin.o
 *(SORT_BY_NAME(.fini_array.*))
                0x0000000000051018                PROVIDE (__fini_array_end = .)

.ctors
 *crtbegin.o(.ctors)
 *(EXCLUDE_FILE(*crtend.o) .ctors)
 *(SORT_BY_NAME(.ctors.*))
 *(.ctors)

.dtors
 *crtbegin.o(.dtors)
 *(EXCLUDE_FILE(*crtend.o) .dtors)
 *(SORT_BY_NAME(.dtors.*))
 *(.dtors)
                0x0000000000051018                __got_start__ = .

.got            0x0000000000051018      0x498
 *(.got)
 .got           0x0000000000051018      0x498 c:/devkitpro/devkita64/bin/../lib/gcc/aarch64-none-elf/8.3.0/pic/crti.o
                0x0000000000051018                _GLOBAL_OFFSET_TABLE_
 *(.igot)

.got.plt        0x00000000000514b0       0x58
 *(.got.plt)
 .got.plt       0x00000000000514b0       0x58 c:/devkitpro/devkita64/bin/../lib/gcc/aarch64-none-elf/8.3.0/pic/crti.o
 *(.igot.plt)
                0x0000000000051508                __got_end__ = .

.data           0x0000000000051508     0x1ef8
 *(.data .data.* .gnu.linkonce.d.*)
 .data.rel.ro   0x0000000000051508        0x0 c:/devkitpro/devkita64/bin/../lib/gcc/aarch64-none-elf/8.3.0/pic/crti.o
 .data          0x0000000000051508        0x4 main.o
                0x0000000000051508                __nx_applet_type
 *fill*         0x000000000005150c        0x4 
 .data.rel.local
                0x0000000000051510      0x140 raygun_printer.o
                0x0000000000051510                alphabet
 .data.__nx_exception_stack_size
                0x0000000000051650        0x8 C:/Users/RNG/Desktop/Stuff/Smash-Stuff/SMASH-ULTIMATE-MODS-BABY/50xx-the-mod/acmd-edits/code-mod-framework/lib/libnx_min/nx/lib\libnx_min.a(init.o)
                0x0000000000051650                __nx_exception_stack_size
 .data.__cwd    0x0000000000051658      0x401 C:/Users/RNG/Desktop/Stuff/Smash-Stuff/SMASH-ULTIMATE-MODS-BABY/50xx-the-mod/acmd-edits/code-mod-framework/lib/libnx_min/nx/lib\libnx_min.a(fs_dev.o)
 *fill*         0x0000000000051a59        0x3 
 .data.fsdev_fsdevice_cwd
                0x0000000000051a5c        0x4 C:/Users/RNG/Desktop/Stuff/Smash-Stuff/SMASH-ULTIMATE-MODS-BABY/50xx-the-mod/acmd-edits/code-mod-framework/lib/libnx_min/nx/lib\libnx_min.a(fs_dev.o)
 .data.fsdev_fsdevice_default
                0x0000000000051a60        0x4 C:/Users/RNG/Desktop/Stuff/Smash-Stuff/SMASH-ULTIMATE-MODS-BABY/50xx-the-mod/acmd-edits/code-mod-framework/lib/libnx_min/nx/lib\libnx_min.a(fs_dev.o)
 *fill*         0x0000000000051a64        0x4 
 .data.rel.ro.local.fsdev_devoptab
                0x0000000000051a68       0xe0 C:/Users/RNG/Desktop/Stuff/Smash-Stuff/SMASH-ULTIMATE-MODS-BABY/50xx-the-mod/acmd-edits/code-mod-framework/lib/libnx_min/nx/lib\libnx_min.a(fs_dev.o)
 .data.__nx_applet_auto_notifyrunning
                0x0000000000051b48        0x1 C:/Users/RNG/Desktop/Stuff/Smash-Stuff/SMASH-ULTIMATE-MODS-BABY/50xx-the-mod/acmd-edits/code-mod-framework/lib/libnx_min/nx/lib\libnx_min.a(applet.o)
                0x0000000000051b48                __nx_applet_auto_notifyrunning
 *fill*         0x0000000000051b49        0x7 
 .data.rel.local._impure_ptr
                0x0000000000051b50        0x8 c:/devkitpro/devkita64/bin/../lib/gcc/aarch64-none-elf/8.3.0/../../../../aarch64-none-elf/lib/pic\libg.a(lib_a-impure.o)
                0x0000000000051b50                _impure_ptr
 .data.rel.local.impure_data
                0x0000000000051b58      0x768 c:/devkitpro/devkita64/bin/../lib/gcc/aarch64-none-elf/8.3.0/../../../../aarch64-none-elf/lib/pic\libg.a(lib_a-impure.o)
 .data.rel.ro.local._global_impure_ptr
                0x00000000000522c0        0x8 c:/devkitpro/devkita64/bin/../lib/gcc/aarch64-none-elf/8.3.0/../../../../aarch64-none-elf/lib/pic\libg.a(lib_a-impure.o)
                0x00000000000522c0                _global_impure_ptr
 .data.__malloc_sbrk_base
                0x00000000000522c8        0x8 c:/devkitpro/devkita64/bin/../lib/gcc/aarch64-none-elf/8.3.0/../../../../aarch64-none-elf/lib/pic\libg.a(lib_a-mallocr.o)
                0x00000000000522c8                __malloc_sbrk_base
 .data.__malloc_trim_threshold
                0x00000000000522d0        0x8 c:/devkitpro/devkita64/bin/../lib/gcc/aarch64-none-elf/8.3.0/../../../../aarch64-none-elf/lib/pic\libg.a(lib_a-mallocr.o)
                0x00000000000522d0                __malloc_trim_threshold
 .data.rel.__malloc_av_
                0x00000000000522d8      0x810 c:/devkitpro/devkita64/bin/../lib/gcc/aarch64-none-elf/8.3.0/../../../../aarch64-none-elf/lib/pic\libg.a(lib_a-mallocr.o)
                0x00000000000522d8                __malloc_av_
 .data.rel.local.environ
                0x0000000000052ae8        0x8 c:/devkitpro/devkita64/bin/../lib/gcc/aarch64-none-elf/8.3.0/../../../../aarch64-none-elf/lib/pic\libg.a(lib_a-environ.o)
                0x0000000000052ae8                environ
 .data.__default_locale
                0x0000000000052af0       0x20 c:/devkitpro/devkita64/bin/../lib/gcc/aarch64-none-elf/8.3.0/../../../../aarch64-none-elf/lib/pic\libg.a(lib_a-locale.o)
                0x0000000000052af0                __default_locale
 .data.rel.__global_locale
                0x0000000000052b10      0x1a8 c:/devkitpro/devkita64/bin/../lib/gcc/aarch64-none-elf/8.3.0/../../../../aarch64-none-elf/lib/pic\libg.a(lib_a-locale.o)
                0x0000000000052b10                __global_locale
 .data.rel.ro.__C_locale
                0x0000000000052cb8      0x1a8 c:/devkitpro/devkita64/bin/../lib/gcc/aarch64-none-elf/8.3.0/../../../../aarch64-none-elf/lib/pic\libg.a(lib_a-locale.o)
                0x0000000000052cb8                __C_locale
 .data.rel.ro.local.categories
                0x0000000000052e60       0x38 c:/devkitpro/devkita64/bin/../lib/gcc/aarch64-none-elf/8.3.0/../../../../aarch64-none-elf/lib/pic\libg.a(lib_a-locale.o)
 .data.defaultDevice
                0x0000000000052e98        0x4 c:/devkitpro/devkita64/bin/../lib/gcc/aarch64-none-elf/8.3.0/../../../../aarch64-none-elf/lib/pic\libsysbase.a(iosupport.o)
 *fill*         0x0000000000052e9c        0x4 
 .data.rel.devoptab_list
                0x0000000000052ea0       0x80 c:/devkitpro/devkita64/bin/../lib/gcc/aarch64-none-elf/8.3.0/../../../../aarch64-none-elf/lib/pic\libsysbase.a(iosupport.o)
                0x0000000000052ea0                devoptab_list
 .data.rel.ro.local.dotab_stdnull
                0x0000000000052f20       0xe0 c:/devkitpro/devkita64/bin/../lib/gcc/aarch64-none-elf/8.3.0/../../../../aarch64-none-elf/lib/pic\libsysbase.a(iosupport.o)
                0x0000000000052f20                dotab_stdnull
 .data._current_working_directory
                0x0000000000053000      0x400 c:/devkitpro/devkita64/bin/../lib/gcc/aarch64-none-elf/8.3.0/../../../../aarch64-none-elf/lib/pic\libsysbase.a(chdir.o)
                0x0000000000053400                __bss_start__ = .

.tm_clone_table
                0x0000000000053400        0x0
 .tm_clone_table
                0x0000000000053400        0x0 c:/devkitpro/devkita64/bin/../lib/gcc/aarch64-none-elf/8.3.0/pic/crtbegin.o
 .tm_clone_table
                0x0000000000053400        0x0 c:/devkitpro/devkita64/bin/../lib/gcc/aarch64-none-elf/8.3.0/pic/crtend.o

.bss            0x0000000000053400    0x15f20
 *(.dynbss)
 .dynbss        0x0000000000053400        0x0 c:/devkitpro/devkita64/bin/../lib/gcc/aarch64-none-elf/8.3.0/pic/crti.o
 *(.bss .bss.* .gnu.linkonce.b.*)
 .bss.completed.7870
                0x0000000000053400        0x1 c:/devkitpro/devkita64/bin/../lib/gcc/aarch64-none-elf/8.3.0/pic/crtbegin.o
 *fill*         0x0000000000053401        0x7 
 .bss.object.7875
                0x0000000000053408       0x30 c:/devkitpro/devkita64/bin/../lib/gcc/aarch64-none-elf/8.3.0/pic/crtbegin.o
 .bss           0x0000000000053438     0x8768 main.o
                0x0000000000053438                prev_get_command_flag_cat
                0x0000000000053440                fighter_agents
                0x0000000000053480                fighter_module_accessors
                0x00000000000534c0                acmd_objs
                0x0000000000053b80                prev_clear_lua_stack
                0x0000000000053b88                orig_ctx
                0x0000000000053b90                orig_main_thread
                0x0000000000053b98                orig_saved_lr
 .bss           0x000000000005bba0        0x8 saltysd_helper.o
                0x000000000005bba0                ANCHOR_ABS
 .bss.g_argv_empty
                0x000000000005bba8        0x8 C:/Users/RNG/Desktop/Stuff/Smash-Stuff/SMASH-ULTIMATE-MODS-BABY/50xx-the-mod/acmd-edits/code-mod-framework/lib/libnx_min/nx/lib\libnx_min.a(argv.o)
 .bss.g_hasRandomSeed
                0x000000000005bbb0        0x1 C:/Users/RNG/Desktop/Stuff/Smash-Stuff/SMASH-ULTIMATE-MODS-BABY/50xx-the-mod/acmd-edits/code-mod-framework/lib/libnx_min/nx/lib\libnx_min.a(env.o)
 .bss.g_isNso   0x000000000005bbb1        0x1 C:/Users/RNG/Desktop/Stuff/Smash-Stuff/SMASH-ULTIMATE-MODS-BABY/50xx-the-mod/acmd-edits/code-mod-framework/lib/libnx_min/nx/lib\libnx_min.a(env.o)
 *fill*         0x000000000005bbb2        0x2 
 .bss.g_lastLoadResult
                0x000000000005bbb4        0x4 C:/Users/RNG/Desktop/Stuff/Smash-Stuff/SMASH-ULTIMATE-MODS-BABY/50xx-the-mod/acmd-edits/code-mod-framework/lib/libnx_min/nx/lib\libnx_min.a(env.o)
 .bss.g_loaderRetAddr
                0x000000000005bbb8        0x8 C:/Users/RNG/Desktop/Stuff/Smash-Stuff/SMASH-ULTIMATE-MODS-BABY/50xx-the-mod/acmd-edits/code-mod-framework/lib/libnx_min/nx/lib\libnx_min.a(env.o)
 .bss.g_mainThreadHandle
                0x000000000005bbc0        0x4 C:/Users/RNG/Desktop/Stuff/Smash-Stuff/SMASH-ULTIMATE-MODS-BABY/50xx-the-mod/acmd-edits/code-mod-framework/lib/libnx_min/nx/lib\libnx_min.a(env.o)
 *fill*         0x000000000005bbc4        0x4 
 .bss.g_nextLoadArgv
                0x000000000005bbc8        0x8 C:/Users/RNG/Desktop/Stuff/Smash-Stuff/SMASH-ULTIMATE-MODS-BABY/50xx-the-mod/acmd-edits/code-mod-framework/lib/libnx_min/nx/lib\libnx_min.a(env.o)
 .bss.g_nextLoadPath
                0x000000000005bbd0        0x8 C:/Users/RNG/Desktop/Stuff/Smash-Stuff/SMASH-ULTIMATE-MODS-BABY/50xx-the-mod/acmd-edits/code-mod-framework/lib/libnx_min/nx/lib\libnx_min.a(env.o)
 .bss.g_overrideArgv
                0x000000000005bbd8        0x8 C:/Users/RNG/Desktop/Stuff/Smash-Stuff/SMASH-ULTIMATE-MODS-BABY/50xx-the-mod/acmd-edits/code-mod-framework/lib/libnx_min/nx/lib\libnx_min.a(env.o)
 .bss.g_overrideHeapAddr
                0x000000000005bbe0        0x8 C:/Users/RNG/Desktop/Stuff/Smash-Stuff/SMASH-ULTIMATE-MODS-BABY/50xx-the-mod/acmd-edits/code-mod-framework/lib/libnx_min/nx/lib\libnx_min.a(env.o)
 .bss.g_overrideHeapSize
                0x000000000005bbe8        0x8 C:/Users/RNG/Desktop/Stuff/Smash-Stuff/SMASH-ULTIMATE-MODS-BABY/50xx-the-mod/acmd-edits/code-mod-framework/lib/libnx_min/nx/lib\libnx_min.a(env.o)
 .bss.g_processHandle
                0x000000000005bbf0        0x4 C:/Users/RNG/Desktop/Stuff/Smash-Stuff/SMASH-ULTIMATE-MODS-BABY/50xx-the-mod/acmd-edits/code-mod-framework/lib/libnx_min/nx/lib\libnx_min.a(env.o)
 *fill*         0x000000000005bbf4        0x4 
 .bss.g_randomSeed
                0x000000000005bbf8       0x10 C:/Users/RNG/Desktop/Stuff/Smash-Stuff/SMASH-ULTIMATE-MODS-BABY/50xx-the-mod/acmd-edits/code-mod-framework/lib/libnx_min/nx/lib\libnx_min.a(env.o)
 .bss.g_syscallHints
                0x000000000005bc08       0x10 C:/Users/RNG/Desktop/Stuff/Smash-Stuff/SMASH-ULTIMATE-MODS-BABY/50xx-the-mod/acmd-edits/code-mod-framework/lib/libnx_min/nx/lib\libnx_min.a(env.o)
 .bss.__nx_exception_ignoredebug
                0x000000000005bc18        0x4 C:/Users/RNG/Desktop/Stuff/Smash-Stuff/SMASH-ULTIMATE-MODS-BABY/50xx-the-mod/acmd-edits/code-mod-framework/lib/libnx_min/nx/lib\libnx_min.a(init.o)
                0x000000000005bc18                __nx_exception_ignoredebug
 *fill*         0x000000000005bc1c        0x4 
 .bss.__nx_exception_stack
                0x000000000005bc20      0x400 C:/Users/RNG/Desktop/Stuff/Smash-Stuff/SMASH-ULTIMATE-MODS-BABY/50xx-the-mod/acmd-edits/code-mod-framework/lib/libnx_min/nx/lib\libnx_min.a(init.o)
                0x000000000005bc20                __nx_exception_stack
 .bss.__nx_heap_size
                0x000000000005c020        0x8 C:/Users/RNG/Desktop/Stuff/Smash-Stuff/SMASH-ULTIMATE-MODS-BABY/50xx-the-mod/acmd-edits/code-mod-framework/lib/libnx_min/nx/lib\libnx_min.a(init.o)
                0x000000000005c020                __nx_heap_size
 .bss.g_hosVersion
                0x000000000005c028        0x4 C:/Users/RNG/Desktop/Stuff/Smash-Stuff/SMASH-ULTIMATE-MODS-BABY/50xx-the-mod/acmd-edits/code-mod-framework/lib/libnx_min/nx/lib\libnx_min.a(hosversion.o)
 *fill*         0x000000000005c02c        0x4 
 .bss.fsdev_fsdevices
                0x000000000005c030     0x2300 C:/Users/RNG/Desktop/Stuff/Smash-Stuff/SMASH-ULTIMATE-MODS-BABY/50xx-the-mod/acmd-edits/code-mod-framework/lib/libnx_min/nx/lib\libnx_min.a(fs_dev.o)
 .bss.fsdev_initialised
                0x000000000005e330        0x1 C:/Users/RNG/Desktop/Stuff/Smash-Stuff/SMASH-ULTIMATE-MODS-BABY/50xx-the-mod/acmd-edits/code-mod-framework/lib/libnx_min/nx/lib\libnx_min.a(fs_dev.o)
 *fill*         0x000000000005e331        0x7 
 .bss.g_AddressSpace
                0x000000000005e338       0x10 C:/Users/RNG/Desktop/Stuff/Smash-Stuff/SMASH-ULTIMATE-MODS-BABY/50xx-the-mod/acmd-edits/code-mod-framework/lib/libnx_min/nx/lib\libnx_min.a(virtmem.o)
 .bss.g_CurrentAddr
                0x000000000005e348        0x8 C:/Users/RNG/Desktop/Stuff/Smash-Stuff/SMASH-ULTIMATE-MODS-BABY/50xx-the-mod/acmd-edits/code-mod-framework/lib/libnx_min/nx/lib\libnx_min.a(virtmem.o)
 .bss.g_CurrentMapAddr
                0x000000000005e350        0x8 C:/Users/RNG/Desktop/Stuff/Smash-Stuff/SMASH-ULTIMATE-MODS-BABY/50xx-the-mod/acmd-edits/code-mod-framework/lib/libnx_min/nx/lib\libnx_min.a(virtmem.o)
 .bss.g_Region  0x000000000005e358       0x30 C:/Users/RNG/Desktop/Stuff/Smash-Stuff/SMASH-ULTIMATE-MODS-BABY/50xx-the-mod/acmd-edits/code-mod-framework/lib/libnx_min/nx/lib\libnx_min.a(virtmem.o)
 .bss.g_VirtMemMutex
                0x000000000005e388        0x4 C:/Users/RNG/Desktop/Stuff/Smash-Stuff/SMASH-ULTIMATE-MODS-BABY/50xx-the-mod/acmd-edits/code-mod-framework/lib/libnx_min/nx/lib\libnx_min.a(virtmem.o)
 *fill*         0x000000000005e38c        0x4 
 .bss.g_fsSrv   0x000000000005e390        0xc C:/Users/RNG/Desktop/Stuff/Smash-Stuff/SMASH-ULTIMATE-MODS-BABY/50xx-the-mod/acmd-edits/code-mod-framework/lib/libnx_min/nx/lib\libnx_min.a(fs.o)
 *fill*         0x000000000005e39c        0x4 
 .bss.g_refCnt  0x000000000005e3a0        0x8 C:/Users/RNG/Desktop/Stuff/Smash-Stuff/SMASH-ULTIMATE-MODS-BABY/50xx-the-mod/acmd-edits/code-mod-framework/lib/libnx_min/nx/lib\libnx_min.a(fs.o)
 .bss.g_refCnt  0x000000000005e3a8        0x8 C:/Users/RNG/Desktop/Stuff/Smash-Stuff/SMASH-ULTIMATE-MODS-BABY/50xx-the-mod/acmd-edits/code-mod-framework/lib/libnx_min/nx/lib\libnx_min.a(set.o)
 .bss.g_refCntSys
                0x000000000005e3b0        0x8 C:/Users/RNG/Desktop/Stuff/Smash-Stuff/SMASH-ULTIMATE-MODS-BABY/50xx-the-mod/acmd-edits/code-mod-framework/lib/libnx_min/nx/lib\libnx_min.a(set.o)
 .bss.g_setLanguageCodes
                0x000000000005e3b8      0x200 C:/Users/RNG/Desktop/Stuff/Smash-Stuff/SMASH-ULTIMATE-MODS-BABY/50xx-the-mod/acmd-edits/code-mod-framework/lib/libnx_min/nx/lib\libnx_min.a(set.o)
 .bss.g_setLanguageCodesInitialized
                0x000000000005e5b8        0x1 C:/Users/RNG/Desktop/Stuff/Smash-Stuff/SMASH-ULTIMATE-MODS-BABY/50xx-the-mod/acmd-edits/code-mod-framework/lib/libnx_min/nx/lib\libnx_min.a(set.o)
 *fill*         0x000000000005e5b9        0x3 
 .bss.g_setLanguageCodesTotal
                0x000000000005e5bc        0x4 C:/Users/RNG/Desktop/Stuff/Smash-Stuff/SMASH-ULTIMATE-MODS-BABY/50xx-the-mod/acmd-edits/code-mod-framework/lib/libnx_min/nx/lib\libnx_min.a(set.o)
 .bss.g_setSrv  0x000000000005e5c0        0xc C:/Users/RNG/Desktop/Stuff/Smash-Stuff/SMASH-ULTIMATE-MODS-BABY/50xx-the-mod/acmd-edits/code-mod-framework/lib/libnx_min/nx/lib\libnx_min.a(set.o)
 *fill*         0x000000000005e5cc        0x4 
 .bss.g_setsysSrv
                0x000000000005e5d0        0xc C:/Users/RNG/Desktop/Stuff/Smash-Stuff/SMASH-ULTIMATE-MODS-BABY/50xx-the-mod/acmd-edits/code-mod-framework/lib/libnx_min/nx/lib\libnx_min.a(set.o)
 *fill*         0x000000000005e5dc        0x4 
 .bss.g_refCnt  0x000000000005e5e0        0x8 C:/Users/RNG/Desktop/Stuff/Smash-Stuff/SMASH-ULTIMATE-MODS-BABY/50xx-the-mod/acmd-edits/code-mod-framework/lib/libnx_min/nx/lib\libnx_min.a(sm.o)
 .bss.g_smOverrides
                0x000000000005e5e8      0x200 C:/Users/RNG/Desktop/Stuff/Smash-Stuff/SMASH-ULTIMATE-MODS-BABY/50xx-the-mod/acmd-edits/code-mod-framework/lib/libnx_min/nx/lib\libnx_min.a(sm.o)
 .bss.g_smOverridesNum
                0x000000000005e7e8        0x8 C:/Users/RNG/Desktop/Stuff/Smash-Stuff/SMASH-ULTIMATE-MODS-BABY/50xx-the-mod/acmd-edits/code-mod-framework/lib/libnx_min/nx/lib\libnx_min.a(sm.o)
 .bss.g_smSrv   0x000000000005e7f0        0xc C:/Users/RNG/Desktop/Stuff/Smash-Stuff/SMASH-ULTIMATE-MODS-BABY/50xx-the-mod/acmd-edits/code-mod-framework/lib/libnx_min/nx/lib\libnx_min.a(sm.o)
 *fill*         0x000000000005e7fc        0x4 
 .bss.g_controllerDown
                0x000000000005e800       0x50 C:/Users/RNG/Desktop/Stuff/Smash-Stuff/SMASH-ULTIMATE-MODS-BABY/50xx-the-mod/acmd-edits/code-mod-framework/lib/libnx_min/nx/lib\libnx_min.a(hid.o)
 .bss.g_controllerEntries
                0x000000000005e850      0x1e0 C:/Users/RNG/Desktop/Stuff/Smash-Stuff/SMASH-ULTIMATE-MODS-BABY/50xx-the-mod/acmd-edits/code-mod-framework/lib/libnx_min/nx/lib\libnx_min.a(hid.o)
 .bss.g_controllerHeaders
                0x000000000005ea30      0x190 C:/Users/RNG/Desktop/Stuff/Smash-Stuff/SMASH-ULTIMATE-MODS-BABY/50xx-the-mod/acmd-edits/code-mod-framework/lib/libnx_min/nx/lib\libnx_min.a(hid.o)
 .bss.g_controllerHeld
                0x000000000005ebc0       0x50 C:/Users/RNG/Desktop/Stuff/Smash-Stuff/SMASH-ULTIMATE-MODS-BABY/50xx-the-mod/acmd-edits/code-mod-framework/lib/libnx_min/nx/lib\libnx_min.a(hid.o)
 .bss.g_controllerLayout
                0x000000000005ec10       0x28 C:/Users/RNG/Desktop/Stuff/Smash-Stuff/SMASH-ULTIMATE-MODS-BABY/50xx-the-mod/acmd-edits/code-mod-framework/lib/libnx_min/nx/lib\libnx_min.a(hid.o)
 .bss.g_controllerMisc
                0x000000000005ec38      0x500 C:/Users/RNG/Desktop/Stuff/Smash-Stuff/SMASH-ULTIMATE-MODS-BABY/50xx-the-mod/acmd-edits/code-mod-framework/lib/libnx_min/nx/lib\libnx_min.a(hid.o)
 .bss.g_controllerOld
                0x000000000005f138       0x50 C:/Users/RNG/Desktop/Stuff/Smash-Stuff/SMASH-ULTIMATE-MODS-BABY/50xx-the-mod/acmd-edits/code-mod-framework/lib/libnx_min/nx/lib\libnx_min.a(hid.o)
 .bss.g_controllerP1AutoID
                0x000000000005f188        0x4 C:/Users/RNG/Desktop/Stuff/Smash-Stuff/SMASH-ULTIMATE-MODS-BABY/50xx-the-mod/acmd-edits/code-mod-framework/lib/libnx_min/nx/lib\libnx_min.a(hid.o)
 *fill*         0x000000000005f18c        0x4 
 .bss.g_controllerTimestamps
                0x000000000005f190       0x50 C:/Users/RNG/Desktop/Stuff/Smash-Stuff/SMASH-ULTIMATE-MODS-BABY/50xx-the-mod/acmd-edits/code-mod-framework/lib/libnx_min/nx/lib\libnx_min.a(hid.o)
 .bss.g_controllerUp
                0x000000000005f1e0       0x50 C:/Users/RNG/Desktop/Stuff/Smash-Stuff/SMASH-ULTIMATE-MODS-BABY/50xx-the-mod/acmd-edits/code-mod-framework/lib/libnx_min/nx/lib\libnx_min.a(hid.o)
 .bss.g_hidIAppletResource
                0x000000000005f230        0xc C:/Users/RNG/Desktop/Stuff/Smash-Stuff/SMASH-ULTIMATE-MODS-BABY/50xx-the-mod/acmd-edits/code-mod-framework/lib/libnx_min/nx/lib\libnx_min.a(hid.o)
 *fill*         0x000000000005f23c        0x4 
 .bss.g_hidLock
                0x000000000005f240       0x10 C:/Users/RNG/Desktop/Stuff/Smash-Stuff/SMASH-ULTIMATE-MODS-BABY/50xx-the-mod/acmd-edits/code-mod-framework/lib/libnx_min/nx/lib\libnx_min.a(hid.o)
 .bss.g_hidSharedmem
                0x000000000005f250       0x20 C:/Users/RNG/Desktop/Stuff/Smash-Stuff/SMASH-ULTIMATE-MODS-BABY/50xx-the-mod/acmd-edits/code-mod-framework/lib/libnx_min/nx/lib\libnx_min.a(hid.o)
 .bss.g_hidSrv  0x000000000005f270        0xc C:/Users/RNG/Desktop/Stuff/Smash-Stuff/SMASH-ULTIMATE-MODS-BABY/50xx-the-mod/acmd-edits/code-mod-framework/lib/libnx_min/nx/lib\libnx_min.a(hid.o)
 *fill*         0x000000000005f27c        0x4 
 .bss.g_keyboardDown
                0x000000000005f280       0x20 C:/Users/RNG/Desktop/Stuff/Smash-Stuff/SMASH-ULTIMATE-MODS-BABY/50xx-the-mod/acmd-edits/code-mod-framework/lib/libnx_min/nx/lib\libnx_min.a(hid.o)
 .bss.g_keyboardEntry
                0x000000000005f2a0       0x38 C:/Users/RNG/Desktop/Stuff/Smash-Stuff/SMASH-ULTIMATE-MODS-BABY/50xx-the-mod/acmd-edits/code-mod-framework/lib/libnx_min/nx/lib\libnx_min.a(hid.o)
 .bss.g_keyboardHeld
                0x000000000005f2d8       0x20 C:/Users/RNG/Desktop/Stuff/Smash-Stuff/SMASH-ULTIMATE-MODS-BABY/50xx-the-mod/acmd-edits/code-mod-framework/lib/libnx_min/nx/lib\libnx_min.a(hid.o)
 .bss.g_keyboardModDown
                0x000000000005f2f8        0x8 C:/Users/RNG/Desktop/Stuff/Smash-Stuff/SMASH-ULTIMATE-MODS-BABY/50xx-the-mod/acmd-edits/code-mod-framework/lib/libnx_min/nx/lib\libnx_min.a(hid.o)
 .bss.g_keyboardModHeld
                0x000000000005f300        0x8 C:/Users/RNG/Desktop/Stuff/Smash-Stuff/SMASH-ULTIMATE-MODS-BABY/50xx-the-mod/acmd-edits/code-mod-framework/lib/libnx_min/nx/lib\libnx_min.a(hid.o)
 .bss.g_keyboardModOld
                0x000000000005f308        0x8 C:/Users/RNG/Desktop/Stuff/Smash-Stuff/SMASH-ULTIMATE-MODS-BABY/50xx-the-mod/acmd-edits/code-mod-framework/lib/libnx_min/nx/lib\libnx_min.a(hid.o)
 .bss.g_keyboardModUp
                0x000000000005f310        0x8 C:/Users/RNG/Desktop/Stuff/Smash-Stuff/SMASH-ULTIMATE-MODS-BABY/50xx-the-mod/acmd-edits/code-mod-framework/lib/libnx_min/nx/lib\libnx_min.a(hid.o)
 .bss.g_keyboardOld
                0x000000000005f318       0x20 C:/Users/RNG/Desktop/Stuff/Smash-Stuff/SMASH-ULTIMATE-MODS-BABY/50xx-the-mod/acmd-edits/code-mod-framework/lib/libnx_min/nx/lib\libnx_min.a(hid.o)
 .bss.g_keyboardTimestamp
                0x000000000005f338        0x8 C:/Users/RNG/Desktop/Stuff/Smash-Stuff/SMASH-ULTIMATE-MODS-BABY/50xx-the-mod/acmd-edits/code-mod-framework/lib/libnx_min/nx/lib\libnx_min.a(hid.o)
 .bss.g_keyboardUp
                0x000000000005f340       0x20 C:/Users/RNG/Desktop/Stuff/Smash-Stuff/SMASH-ULTIMATE-MODS-BABY/50xx-the-mod/acmd-edits/code-mod-framework/lib/libnx_min/nx/lib\libnx_min.a(hid.o)
 .bss.g_mouse   0x000000000005f360      0x400 C:/Users/RNG/Desktop/Stuff/Smash-Stuff/SMASH-ULTIMATE-MODS-BABY/50xx-the-mod/acmd-edits/code-mod-framework/lib/libnx_min/nx/lib\libnx_min.a(hid.o)
 .bss.g_mouseDown
                0x000000000005f760        0x8 C:/Users/RNG/Desktop/Stuff/Smash-Stuff/SMASH-ULTIMATE-MODS-BABY/50xx-the-mod/acmd-edits/code-mod-framework/lib/libnx_min/nx/lib\libnx_min.a(hid.o)
 .bss.g_mouseEntry
                0x000000000005f768        0x8 C:/Users/RNG/Desktop/Stuff/Smash-Stuff/SMASH-ULTIMATE-MODS-BABY/50xx-the-mod/acmd-edits/code-mod-framework/lib/libnx_min/nx/lib\libnx_min.a(hid.o)
 .bss.g_mouseHeld
                0x000000000005f770        0x8 C:/Users/RNG/Desktop/Stuff/Smash-Stuff/SMASH-ULTIMATE-MODS-BABY/50xx-the-mod/acmd-edits/code-mod-framework/lib/libnx_min/nx/lib\libnx_min.a(hid.o)
 .bss.g_mouseOld
                0x000000000005f778        0x8 C:/Users/RNG/Desktop/Stuff/Smash-Stuff/SMASH-ULTIMATE-MODS-BABY/50xx-the-mod/acmd-edits/code-mod-framework/lib/libnx_min/nx/lib\libnx_min.a(hid.o)
 .bss.g_mouseTimestamp
                0x000000000005f780        0x8 C:/Users/RNG/Desktop/Stuff/Smash-Stuff/SMASH-ULTIMATE-MODS-BABY/50xx-the-mod/acmd-edits/code-mod-framework/lib/libnx_min/nx/lib\libnx_min.a(hid.o)
 .bss.g_mouseUp
                0x000000000005f788        0x8 C:/Users/RNG/Desktop/Stuff/Smash-Stuff/SMASH-ULTIMATE-MODS-BABY/50xx-the-mod/acmd-edits/code-mod-framework/lib/libnx_min/nx/lib\libnx_min.a(hid.o)
 .bss.g_refCnt  0x000000000005f790        0x8 C:/Users/RNG/Desktop/Stuff/Smash-Stuff/SMASH-ULTIMATE-MODS-BABY/50xx-the-mod/acmd-edits/code-mod-framework/lib/libnx_min/nx/lib\libnx_min.a(hid.o)
 .bss.g_sevenSixAxisSensorBuffer
                0x000000000005f798        0x8 C:/Users/RNG/Desktop/Stuff/Smash-Stuff/SMASH-ULTIMATE-MODS-BABY/50xx-the-mod/acmd-edits/code-mod-framework/lib/libnx_min/nx/lib\libnx_min.a(hid.o)
 .bss.g_sevenSixAxisSensorTmem0
                0x000000000005f7a0       0x28 C:/Users/RNG/Desktop/Stuff/Smash-Stuff/SMASH-ULTIMATE-MODS-BABY/50xx-the-mod/acmd-edits/code-mod-framework/lib/libnx_min/nx/lib\libnx_min.a(hid.o)
 .bss.g_sevenSixAxisSensorTmem1
                0x000000000005f7c8       0x28 C:/Users/RNG/Desktop/Stuff/Smash-Stuff/SMASH-ULTIMATE-MODS-BABY/50xx-the-mod/acmd-edits/code-mod-framework/lib/libnx_min/nx/lib\libnx_min.a(hid.o)
 .bss.g_sixaxisEnabled
                0x000000000005f7f0        0xa C:/Users/RNG/Desktop/Stuff/Smash-Stuff/SMASH-ULTIMATE-MODS-BABY/50xx-the-mod/acmd-edits/code-mod-framework/lib/libnx_min/nx/lib\libnx_min.a(hid.o)
 *fill*         0x000000000005f7fa        0x6 
 .bss.g_sixaxisLayouts
                0x000000000005f800     0x4650 C:/Users/RNG/Desktop/Stuff/Smash-Stuff/SMASH-ULTIMATE-MODS-BABY/50xx-the-mod/acmd-edits/code-mod-framework/lib/libnx_min/nx/lib\libnx_min.a(hid.o)
 .bss.g_touchEntry
                0x0000000000063e50      0x298 C:/Users/RNG/Desktop/Stuff/Smash-Stuff/SMASH-ULTIMATE-MODS-BABY/50xx-the-mod/acmd-edits/code-mod-framework/lib/libnx_min/nx/lib\libnx_min.a(hid.o)
 .bss.g_touchTimestamp
                0x00000000000640e8        0x8 C:/Users/RNG/Desktop/Stuff/Smash-Stuff/SMASH-ULTIMATE-MODS-BABY/50xx-the-mod/acmd-edits/code-mod-framework/lib/libnx_min/nx/lib\libnx_min.a(hid.o)
 .bss.g_refCnt  0x00000000000640f0        0x8 C:/Users/RNG/Desktop/Stuff/Smash-Stuff/SMASH-ULTIMATE-MODS-BABY/50xx-the-mod/acmd-edits/code-mod-framework/lib/libnx_min/nx/lib\libnx_min.a(time.o)
 .bss.g_timeLocalSystemClock
                0x00000000000640f8        0xc C:/Users/RNG/Desktop/Stuff/Smash-Stuff/SMASH-ULTIMATE-MODS-BABY/50xx-the-mod/acmd-edits/code-mod-framework/lib/libnx_min/nx/lib\libnx_min.a(time.o)
 *fill*         0x0000000000064104        0x4 
 .bss.g_timeNetworkSystemClock
                0x0000000000064108        0xc C:/Users/RNG/Desktop/Stuff/Smash-Stuff/SMASH-ULTIMATE-MODS-BABY/50xx-the-mod/acmd-edits/code-mod-framework/lib/libnx_min/nx/lib\libnx_min.a(time.o)
 *fill*         0x0000000000064114        0x4 
 .bss.g_timeSrv
                0x0000000000064118        0xc C:/Users/RNG/Desktop/Stuff/Smash-Stuff/SMASH-ULTIMATE-MODS-BABY/50xx-the-mod/acmd-edits/code-mod-framework/lib/libnx_min/nx/lib\libnx_min.a(time.o)
 *fill*         0x0000000000064124        0x4 
 .bss.g_timeTimeZoneService
                0x0000000000064128        0xc C:/Users/RNG/Desktop/Stuff/Smash-Stuff/SMASH-ULTIMATE-MODS-BABY/50xx-the-mod/acmd-edits/code-mod-framework/lib/libnx_min/nx/lib\libnx_min.a(time.o)
 *fill*         0x0000000000064134        0x4 
 .bss.g_timeUserSystemClock
                0x0000000000064138        0xc C:/Users/RNG/Desktop/Stuff/Smash-Stuff/SMASH-ULTIMATE-MODS-BABY/50xx-the-mod/acmd-edits/code-mod-framework/lib/libnx_min/nx/lib\libnx_min.a(time.o)
 *fill*         0x0000000000064144        0x4 
 .bss.__nx_applet_AppletAttribute
                0x0000000000064148       0x80 C:/Users/RNG/Desktop/Stuff/Smash-Stuff/SMASH-ULTIMATE-MODS-BABY/50xx-the-mod/acmd-edits/code-mod-framework/lib/libnx_min/nx/lib\libnx_min.a(applet.o)
                0x0000000000064148                __nx_applet_AppletAttribute
 .bss.__nx_applet_PerformanceConfiguration
                0x00000000000641c8        0x8 C:/Users/RNG/Desktop/Stuff/Smash-Stuff/SMASH-ULTIMATE-MODS-BABY/50xx-the-mod/acmd-edits/code-mod-framework/lib/libnx_min/nx/lib\libnx_min.a(applet.o)
                0x00000000000641c8                __nx_applet_PerformanceConfiguration
 .bss.__nx_applet_exit_mode
                0x00000000000641d0        0x4 C:/Users/RNG/Desktop/Stuff/Smash-Stuff/SMASH-ULTIMATE-MODS-BABY/50xx-the-mod/acmd-edits/code-mod-framework/lib/libnx_min/nx/lib\libnx_min.a(applet.o)
                0x00000000000641d0                __nx_applet_exit_mode
 .bss.g_appletCpuBoostMode
                0x00000000000641d4        0x4 C:/Users/RNG/Desktop/Stuff/Smash-Stuff/SMASH-ULTIMATE-MODS-BABY/50xx-the-mod/acmd-edits/code-mod-framework/lib/libnx_min/nx/lib\libnx_min.a(applet.o)
 .bss.g_appletExitProcessFlag
                0x00000000000641d8        0x1 C:/Users/RNG/Desktop/Stuff/Smash-Stuff/SMASH-ULTIMATE-MODS-BABY/50xx-the-mod/acmd-edits/code-mod-framework/lib/libnx_min/nx/lib\libnx_min.a(applet.o)
 *fill*         0x00000000000641d9        0x7 
 .bss.g_appletFirstHook
                0x00000000000641e0       0x18 C:/Users/RNG/Desktop/Stuff/Smash-Stuff/SMASH-ULTIMATE-MODS-BABY/50xx-the-mod/acmd-edits/code-mod-framework/lib/libnx_min/nx/lib\libnx_min.a(applet.o)
 .bss.g_appletFocusState
                0x00000000000641f8        0x1 C:/Users/RNG/Desktop/Stuff/Smash-Stuff/SMASH-ULTIMATE-MODS-BABY/50xx-the-mod/acmd-edits/code-mod-framework/lib/libnx_min/nx/lib\libnx_min.a(applet.o)
 *fill*         0x00000000000641f9        0x7 
 .bss.g_appletIApplicationCreator
                0x0000000000064200        0xc C:/Users/RNG/Desktop/Stuff/Smash-Stuff/SMASH-ULTIMATE-MODS-BABY/50xx-the-mod/acmd-edits/code-mod-framework/lib/libnx_min/nx/lib\libnx_min.a(applet.o)
 *fill*         0x000000000006420c        0x4 
 .bss.g_appletIAudioController
                0x0000000000064210        0xc C:/Users/RNG/Desktop/Stuff/Smash-Stuff/SMASH-ULTIMATE-MODS-BABY/50xx-the-mod/acmd-edits/code-mod-framework/lib/libnx_min/nx/lib\libnx_min.a(applet.o)
 *fill*         0x000000000006421c        0x4 
 .bss.g_appletICommonStateGetter
                0x0000000000064220        0xc C:/Users/RNG/Desktop/Stuff/Smash-Stuff/SMASH-ULTIMATE-MODS-BABY/50xx-the-mod/acmd-edits/code-mod-framework/lib/libnx_min/nx/lib\libnx_min.a(applet.o)
 *fill*         0x000000000006422c        0x4 
 .bss.g_appletIDebugFunctions
                0x0000000000064230        0xc C:/Users/RNG/Desktop/Stuff/Smash-Stuff/SMASH-ULTIMATE-MODS-BABY/50xx-the-mod/acmd-edits/code-mod-framework/lib/libnx_min/nx/lib\libnx_min.a(applet.o)
 *fill*         0x000000000006423c        0x4 
 .bss.g_appletIDisplayController
                0x0000000000064240        0xc C:/Users/RNG/Desktop/Stuff/Smash-Stuff/SMASH-ULTIMATE-MODS-BABY/50xx-the-mod/acmd-edits/code-mod-framework/lib/libnx_min/nx/lib\libnx_min.a(applet.o)
 *fill*         0x000000000006424c        0x4 
 .bss.g_appletIFunctions
                0x0000000000064250        0xc C:/Users/RNG/Desktop/Stuff/Smash-Stuff/SMASH-ULTIMATE-MODS-BABY/50xx-the-mod/acmd-edits/code-mod-framework/lib/libnx_min/nx/lib\libnx_min.a(applet.o)
 *fill*         0x000000000006425c        0x4 
 .bss.g_appletIGlobalStateController
                0x0000000000064260        0xc C:/Users/RNG/Desktop/Stuff/Smash-Stuff/SMASH-ULTIMATE-MODS-BABY/50xx-the-mod/acmd-edits/code-mod-framework/lib/libnx_min/nx/lib\libnx_min.a(applet.o)
 *fill*         0x000000000006426c        0x4 
 .bss.g_appletILibraryAppletCreator
                0x0000000000064270        0xc C:/Users/RNG/Desktop/Stuff/Smash-Stuff/SMASH-ULTIMATE-MODS-BABY/50xx-the-mod/acmd-edits/code-mod-framework/lib/libnx_min/nx/lib\libnx_min.a(applet.o)
 *fill*         0x000000000006427c        0x4 
 .bss.g_appletILibraryAppletSelfAccessor
                0x0000000000064280        0xc C:/Users/RNG/Desktop/Stuff/Smash-Stuff/SMASH-ULTIMATE-MODS-BABY/50xx-the-mod/acmd-edits/code-mod-framework/lib/libnx_min/nx/lib\libnx_min.a(applet.o)
 *fill*         0x000000000006428c        0x4 
 .bss.g_appletIProcessWindingController
                0x0000000000064290        0xc C:/Users/RNG/Desktop/Stuff/Smash-Stuff/SMASH-ULTIMATE-MODS-BABY/50xx-the-mod/acmd-edits/code-mod-framework/lib/libnx_min/nx/lib\libnx_min.a(applet.o)
 *fill*         0x000000000006429c        0x4 
 .bss.g_appletISelfController
                0x00000000000642a0        0xc C:/Users/RNG/Desktop/Stuff/Smash-Stuff/SMASH-ULTIMATE-MODS-BABY/50xx-the-mod/acmd-edits/code-mod-framework/lib/libnx_min/nx/lib\libnx_min.a(applet.o)
 *fill*         0x00000000000642ac        0x4 
 .bss.g_appletIWindowController
                0x00000000000642b0        0xc C:/Users/RNG/Desktop/Stuff/Smash-Stuff/SMASH-ULTIMATE-MODS-BABY/50xx-the-mod/acmd-edits/code-mod-framework/lib/libnx_min/nx/lib\libnx_min.a(applet.o)
 *fill*         0x00000000000642bc        0x4 
 .bss.g_appletLibraryAppletLaunchableEvent
                0x00000000000642c0        0xc C:/Users/RNG/Desktop/Stuff/Smash-Stuff/SMASH-ULTIMATE-MODS-BABY/50xx-the-mod/acmd-edits/code-mod-framework/lib/libnx_min/nx/lib\libnx_min.a(applet.o)
 *fill*         0x00000000000642cc        0x4 
 .bss.g_appletMessageEvent
                0x00000000000642d0        0xc C:/Users/RNG/Desktop/Stuff/Smash-Stuff/SMASH-ULTIMATE-MODS-BABY/50xx-the-mod/acmd-edits/code-mod-framework/lib/libnx_min/nx/lib\libnx_min.a(applet.o)
 .bss.g_appletNotifiedRunning
                0x00000000000642dc        0x1 C:/Users/RNG/Desktop/Stuff/Smash-Stuff/SMASH-ULTIMATE-MODS-BABY/50xx-the-mod/acmd-edits/code-mod-framework/lib/libnx_min/nx/lib\libnx_min.a(applet.o)
 .bss.g_appletOperationMode
                0x00000000000642dd        0x1 C:/Users/RNG/Desktop/Stuff/Smash-Stuff/SMASH-ULTIMATE-MODS-BABY/50xx-the-mod/acmd-edits/code-mod-framework/lib/libnx_min/nx/lib\libnx_min.a(applet.o)
 *fill*         0x00000000000642de        0x2 
 .bss.g_appletPerformanceMode
                0x00000000000642e0        0x4 C:/Users/RNG/Desktop/Stuff/Smash-Stuff/SMASH-ULTIMATE-MODS-BABY/50xx-the-mod/acmd-edits/code-mod-framework/lib/libnx_min/nx/lib\libnx_min.a(applet.o)
 *fill*         0x00000000000642e4        0x4 
 .bss.g_appletProxySession
                0x00000000000642e8        0xc C:/Users/RNG/Desktop/Stuff/Smash-Stuff/SMASH-ULTIMATE-MODS-BABY/50xx-the-mod/acmd-edits/code-mod-framework/lib/libnx_min/nx/lib\libnx_min.a(applet.o)
 .bss.g_appletRecordingInitialized
                0x00000000000642f4        0x4 C:/Users/RNG/Desktop/Stuff/Smash-Stuff/SMASH-ULTIMATE-MODS-BABY/50xx-the-mod/acmd-edits/code-mod-framework/lib/libnx_min/nx/lib\libnx_min.a(applet.o)
 .bss.g_appletRecordingTmem
                0x00000000000642f8       0x28 C:/Users/RNG/Desktop/Stuff/Smash-Stuff/SMASH-ULTIMATE-MODS-BABY/50xx-the-mod/acmd-edits/code-mod-framework/lib/libnx_min/nx/lib\libnx_min.a(applet.o)
 .bss.g_appletResourceUserId
                0x0000000000064320        0x8 C:/Users/RNG/Desktop/Stuff/Smash-Stuff/SMASH-ULTIMATE-MODS-BABY/50xx-the-mod/acmd-edits/code-mod-framework/lib/libnx_min/nx/lib\libnx_min.a(applet.o)
 .bss.g_appletSrv
                0x0000000000064328        0xc C:/Users/RNG/Desktop/Stuff/Smash-Stuff/SMASH-ULTIMATE-MODS-BABY/50xx-the-mod/acmd-edits/code-mod-framework/lib/libnx_min/nx/lib\libnx_min.a(applet.o)
 .bss.g_appletThemeColorType
                0x0000000000064334        0x4 C:/Users/RNG/Desktop/Stuff/Smash-Stuff/SMASH-ULTIMATE-MODS-BABY/50xx-the-mod/acmd-edits/code-mod-framework/lib/libnx_min/nx/lib\libnx_min.a(applet.o)
 .bss.g_refCnt  0x0000000000064338        0x8 C:/Users/RNG/Desktop/Stuff/Smash-Stuff/SMASH-ULTIMATE-MODS-BABY/50xx-the-mod/acmd-edits/code-mod-framework/lib/libnx_min/nx/lib\libnx_min.a(applet.o)
 .bss.__bootticks
                0x0000000000064340        0x8 C:/Users/RNG/Desktop/Stuff/Smash-Stuff/SMASH-ULTIMATE-MODS-BABY/50xx-the-mod/acmd-edits/code-mod-framework/lib/libnx_min/nx/lib\libnx_min.a(newlib.o)
 .bss.__boottime
                0x0000000000064348        0x8 C:/Users/RNG/Desktop/Stuff/Smash-Stuff/SMASH-ULTIMATE-MODS-BABY/50xx-the-mod/acmd-edits/code-mod-framework/lib/libnx_min/nx/lib\libnx_min.a(newlib.o)
 .bss.__nx_time_type
                0x0000000000064350        0x4 C:/Users/RNG/Desktop/Stuff/Smash-Stuff/SMASH-ULTIMATE-MODS-BABY/50xx-the-mod/acmd-edits/code-mod-framework/lib/libnx_min/nx/lib\libnx_min.a(newlib.o)
                0x0000000000064350                __nx_time_type
 *fill*         0x0000000000064354        0x4 
 .bss.g_threadList
                0x0000000000064358        0x8 C:/Users/RNG/Desktop/Stuff/Smash-Stuff/SMASH-ULTIMATE-MODS-BABY/50xx-the-mod/acmd-edits/code-mod-framework/lib/libnx_min/nx/lib\libnx_min.a(thread.o)
 .bss.g_threadMutex
                0x0000000000064360        0x4 C:/Users/RNG/Desktop/Stuff/Smash-Stuff/SMASH-ULTIMATE-MODS-BABY/50xx-the-mod/acmd-edits/code-mod-framework/lib/libnx_min/nx/lib\libnx_min.a(thread.o)
 *fill*         0x0000000000064364        0x4 
 .bss.g_tlsDestructors
                0x0000000000064368       0xd0 C:/Users/RNG/Desktop/Stuff/Smash-Stuff/SMASH-ULTIMATE-MODS-BABY/50xx-the-mod/acmd-edits/code-mod-framework/lib/libnx_min/nx/lib\libnx_min.a(thread.o)
 .bss.g_tlsUsageMask
                0x0000000000064438        0x8 C:/Users/RNG/Desktop/Stuff/Smash-Stuff/SMASH-ULTIMATE-MODS-BABY/50xx-the-mod/acmd-edits/code-mod-framework/lib/libnx_min/nx/lib\libnx_min.a(thread.o)
 .bss.g_JitKernelPatchCached
                0x0000000000064440        0x1 C:/Users/RNG/Desktop/Stuff/Smash-Stuff/SMASH-ULTIMATE-MODS-BABY/50xx-the-mod/acmd-edits/code-mod-framework/lib/libnx_min/nx/lib\libnx_min.a(detect.o)
 .bss.g_JitKernelPatchDetected
                0x0000000000064441        0x1 C:/Users/RNG/Desktop/Stuff/Smash-Stuff/SMASH-ULTIMATE-MODS-BABY/50xx-the-mod/acmd-edits/code-mod-framework/lib/libnx_min/nx/lib\libnx_min.a(detect.o)
 *fill*         0x0000000000064442        0x2 
 .bss.g_JitKernelPatchMutex
                0x0000000000064444        0x4 C:/Users/RNG/Desktop/Stuff/Smash-Stuff/SMASH-ULTIMATE-MODS-BABY/50xx-the-mod/acmd-edits/code-mod-framework/lib/libnx_min/nx/lib\libnx_min.a(detect.o)
 .bss.g_Version
                0x0000000000064448        0x4 C:/Users/RNG/Desktop/Stuff/Smash-Stuff/SMASH-ULTIMATE-MODS-BABY/50xx-the-mod/acmd-edits/code-mod-framework/lib/libnx_min/nx/lib\libnx_min.a(detect.o)
 .bss.g_VersionCached
                0x000000000006444c        0x1 C:/Users/RNG/Desktop/Stuff/Smash-Stuff/SMASH-ULTIMATE-MODS-BABY/50xx-the-mod/acmd-edits/code-mod-framework/lib/libnx_min/nx/lib\libnx_min.a(detect.o)
 *fill*         0x000000000006444d        0x3 
 .bss.g_VersionMutex
                0x0000000000064450        0x4 C:/Users/RNG/Desktop/Stuff/Smash-Stuff/SMASH-ULTIMATE-MODS-BABY/50xx-the-mod/acmd-edits/code-mod-framework/lib/libnx_min/nx/lib\libnx_min.a(detect.o)
 *fill*         0x0000000000064454        0x4 
 .bss.g_apmISession
                0x0000000000064458        0xc C:/Users/RNG/Desktop/Stuff/Smash-Stuff/SMASH-ULTIMATE-MODS-BABY/50xx-the-mod/acmd-edits/code-mod-framework/lib/libnx_min/nx/lib\libnx_min.a(apm.o)
 *fill*         0x0000000000064464        0x4 
 .bss.g_apmSrv  0x0000000000064468        0xc C:/Users/RNG/Desktop/Stuff/Smash-Stuff/SMASH-ULTIMATE-MODS-BABY/50xx-the-mod/acmd-edits/code-mod-framework/lib/libnx_min/nx/lib\libnx_min.a(apm.o)
 *fill*         0x0000000000064474        0x4 
 .bss.g_refCnt  0x0000000000064478        0x8 C:/Users/RNG/Desktop/Stuff/Smash-Stuff/SMASH-ULTIMATE-MODS-BABY/50xx-the-mod/acmd-edits/code-mod-framework/lib/libnx_min/nx/lib\libnx_min.a(apm.o)
 .bss.__malloc_current_mallinfo
                0x0000000000064480       0x28 c:/devkitpro/devkita64/bin/../lib/gcc/aarch64-none-elf/8.3.0/../../../../aarch64-none-elf/lib/pic\libg.a(lib_a-mallocr.o)
                0x0000000000064480                __malloc_current_mallinfo
 .bss.__malloc_max_sbrked_mem
                0x00000000000644a8        0x8 c:/devkitpro/devkita64/bin/../lib/gcc/aarch64-none-elf/8.3.0/../../../../aarch64-none-elf/lib/pic\libg.a(lib_a-mallocr.o)
                0x00000000000644a8                __malloc_max_sbrked_mem
 .bss.__malloc_max_total_mem
                0x00000000000644b0        0x8 c:/devkitpro/devkita64/bin/../lib/gcc/aarch64-none-elf/8.3.0/../../../../aarch64-none-elf/lib/pic\libg.a(lib_a-mallocr.o)
                0x00000000000644b0                __malloc_max_total_mem
 .bss.__malloc_top_pad
                0x00000000000644b8        0x8 c:/devkitpro/devkita64/bin/../lib/gcc/aarch64-none-elf/8.3.0/../../../../aarch64-none-elf/lib/pic\libg.a(lib_a-mallocr.o)
                0x00000000000644b8                __malloc_top_pad
 .bss.__malloc_recursive_mutex
                0x00000000000644c0        0xc c:/devkitpro/devkita64/bin/../lib/gcc/aarch64-none-elf/8.3.0/../../../../aarch64-none-elf/lib/pic\libg.a(lib_a-mlock.o)
 .bss.alloced.4086
                0x00000000000644cc        0x4 c:/devkitpro/devkita64/bin/../lib/gcc/aarch64-none-elf/8.3.0/../../../../aarch64-none-elf/lib/pic\libg.a(lib_a-setenv_r.o)
 .bss.__atexit_recursive_mutex
                0x00000000000644d0        0xc c:/devkitpro/devkita64/bin/../lib/gcc/aarch64-none-elf/8.3.0/../../../../aarch64-none-elf/lib/pic\libg.a(lib_a-__call_atexit.o)
                0x00000000000644d0                __atexit_recursive_mutex
 *fill*         0x00000000000644dc        0x4 
 .bss.initial_env
                0x00000000000644e0        0x8 c:/devkitpro/devkita64/bin/../lib/gcc/aarch64-none-elf/8.3.0/../../../../aarch64-none-elf/lib/pic\libg.a(lib_a-environ.o)
 .bss.__env_recursive_mutex
                0x00000000000644e8        0xc c:/devkitpro/devkita64/bin/../lib/gcc/aarch64-none-elf/8.3.0/../../../../aarch64-none-elf/lib/pic\libg.a(lib_a-envlock.o)
 *fill*         0x00000000000644f4        0x4 
 .bss._PathLocale
                0x00000000000644f8        0x8 c:/devkitpro/devkita64/bin/../lib/gcc/aarch64-none-elf/8.3.0/../../../../aarch64-none-elf/lib/pic\libg.a(lib_a-locale.o)
                0x00000000000644f8                _PathLocale
 .bss.global_locale_string
                0x0000000000064500       0xe7 c:/devkitpro/devkita64/bin/../lib/gcc/aarch64-none-elf/8.3.0/../../../../aarch64-none-elf/lib/pic\libg.a(lib_a-locale.o)
 *fill*         0x00000000000645e7        0x1 
 .bss.new_categories.4568
                0x00000000000645e8       0xe0 c:/devkitpro/devkita64/bin/../lib/gcc/aarch64-none-elf/8.3.0/../../../../aarch64-none-elf/lib/pic\libg.a(lib_a-locale.o)
 .bss.saved_categories.4569
                0x00000000000646c8       0xe0 c:/devkitpro/devkita64/bin/../lib/gcc/aarch64-none-elf/8.3.0/../../../../aarch64-none-elf/lib/pic\libg.a(lib_a-locale.o)
 .bss.heap_start.5295
                0x00000000000647a8        0x8 c:/devkitpro/devkita64/bin/../lib/gcc/aarch64-none-elf/8.3.0/../../../../aarch64-none-elf/lib/pic\libsysbase.a(sbrk.o)
 .bss.fake_heap_end
                0x00000000000647b0        0x8 c:/devkitpro/devkita64/bin/../lib/gcc/aarch64-none-elf/8.3.0/../../../../aarch64-none-elf/lib/pic\libsysbase.a(malloc_vars.o)
                0x00000000000647b0                fake_heap_end
 .bss.fake_heap_start
                0x00000000000647b8        0x8 c:/devkitpro/devkita64/bin/../lib/gcc/aarch64-none-elf/8.3.0/../../../../aarch64-none-elf/lib/pic\libsysbase.a(malloc_vars.o)
                0x00000000000647b8                fake_heap_start
 .bss.temp_cwd  0x00000000000647c0      0x400 c:/devkitpro/devkita64/bin/../lib/gcc/aarch64-none-elf/8.3.0/../../../../aarch64-none-elf/lib/pic\libsysbase.a(chdir.o)
 *(COMMON)
 COMMON         0x0000000000064bc0        0xc C:/Users/RNG/Desktop/Stuff/Smash-Stuff/SMASH-ULTIMATE-MODS-BABY/50xx-the-mod/acmd-edits/code-mod-framework/lib/libnx_min/nx/lib\libnx_min.a(argv.o)
                0x0000000000064bc0                __system_argv
                0x0000000000064bc8                __system_argc
 *fill*         0x0000000000064bcc        0x4 
 COMMON         0x0000000000064bd0      0x348 C:/Users/RNG/Desktop/Stuff/Smash-Stuff/SMASH-ULTIMATE-MODS-BABY/50xx-the-mod/acmd-edits/code-mod-framework/lib/libnx_min/nx/lib\libnx_min.a(init.o)
                0x0000000000064bd0                __nx_exceptiondump
                0x0000000000064f10                __stack_top
                0x0000000000064f18                . = ALIGN (0x8)
                0x0000000000064f18                __tls_start = .
                0x0000000000069320                . = (. + (SIZEOF (.tdata) + SIZEOF (.tbss)))
 *fill*         0x0000000000064f18     0x4408 
                0x0000000000069320                __tls_end = .
                0x0000000000069320                __bss_end__ = .
                0x0000000000069320                __end__ = ABSOLUTE (.)
                0x000000000006a000                . = ALIGN (0x1000)
                0x000000000006a000                __argdata__ = ABSOLUTE (.)

/DISCARD/
 *(.group .comment .note)

.stab
 *(.stab)

.stabstr
 *(.stabstr)

.stab.excl
 *(.stab.excl)

.stab.exclstr
 *(.stab.exclstr)

.stab.index
 *(.stab.index)

.stab.indexstr
 *(.stab.indexstr)

.debug
 *(.debug)

.line
 *(.line)

.debug_srcinfo
 *(.debug_srcinfo)

.debug_sfnames
 *(.debug_sfnames)

.debug_aranges
 *(.debug_aranges)

.debug_pubnames
 *(.debug_pubnames)

.debug_info
 *(.debug_info)

.debug_abbrev
 *(.debug_abbrev)

.debug_line
 *(.debug_line)

.debug_frame
 *(.debug_frame)

.debug_str
 *(.debug_str)

.debug_loc
 *(.debug_loc)

.debug_macinfo
 *(.debug_macinfo)
LOAD c:/devkitpro/devkita64/bin/../lib/gcc/aarch64-none-elf/8.3.0/pic/crti.o
LOAD c:/devkitpro/devkita64/bin/../lib/gcc/aarch64-none-elf/8.3.0/pic/crtbegin.o
LOAD main.o
LOAD acmd_wrapper.o
LOAD saltysd_helper.o
LOAD l2c_imports.o
LOAD lua_bind_hash.o
LOAD raygun_printer.o
LOAD C:/Users/RNG/Desktop/Stuff/Smash-Stuff/SMASH-ULTIMATE-MODS-BABY/50xx-the-mod/acmd-edits/code-mod-framework/lib/libnx_min/nx/lib\libnx_min.a
LOAD c:/devkitpro/devkita64/bin/../lib/gcc/aarch64-none-elf/8.3.0/../../../../aarch64-none-elf/lib/pic\libstdc++.a
LOAD c:/devkitpro/devkita64/bin/../lib/gcc/aarch64-none-elf/8.3.0/../../../../aarch64-none-elf/lib/pic\libm.a
START GROUP
LOAD c:/devkitpro/devkita64/bin/../lib/gcc/aarch64-none-elf/8.3.0/pic\libgcc.a
LOAD c:/devkitpro/devkita64/bin/../lib/gcc/aarch64-none-elf/8.3.0/../../../../aarch64-none-elf/lib/pic\libg.a
LOAD c:/devkitpro/devkita64/bin/../lib/gcc/aarch64-none-elf/8.3.0/../../../../aarch64-none-elf/lib/pic\libc.a
LOAD c:/devkitpro/devkita64/bin/../lib/gcc/aarch64-none-elf/8.3.0/../../../../aarch64-none-elf/lib/pic\libsysbase.a
END GROUP
LOAD c:/devkitpro/devkita64/bin/../lib/gcc/aarch64-none-elf/8.3.0/pic/crtend.o
LOAD c:/devkitpro/devkita64/bin/../lib/gcc/aarch64-none-elf/8.3.0/pic/crtn.o
OUTPUT(C:/Users/RNG/Desktop/Stuff/Smash-Stuff/SMASH-ULTIMATE-MODS-BABY/50xx-the-mod/acmd-edits/acmd-edits.elf elf64-littleaarch64)
