Archive member included to satisfy reference by file (symbol)

C:/Users/RNG/Desktop/Stuff/Smash-Stuff/SMASH-ULTIMATE-MODS-BABY/50xx-the-mod/acmd-edits/code-mod-framework/lib/libnx_min/nx/lib\libnx_min.a(switch_crt0.o)
                              (_start)
C:/Users/RNG/Desktop/Stuff/Smash-Stuff/SMASH-ULTIMATE-MODS-BABY/50xx-the-mod/acmd-edits/code-mod-framework/lib/libnx_min/nx/lib\libnx_min.a(exception.o)
                              C:/Users/RNG/Desktop/Stuff/Smash-Stuff/SMASH-ULTIMATE-MODS-BABY/50xx-the-mod/acmd-edits/code-mod-framework/lib/libnx_min/nx/lib\libnx_min.a(switch_crt0.o) (__libnx_exception_entry)
C:/Users/RNG/Desktop/Stuff/Smash-Stuff/SMASH-ULTIMATE-MODS-BABY/50xx-the-mod/acmd-edits/code-mod-framework/lib/libnx_min/nx/lib\libnx_min.a(argv.o)
                              C:/Users/RNG/Desktop/Stuff/Smash-Stuff/SMASH-ULTIMATE-MODS-BABY/50xx-the-mod/acmd-edits/code-mod-framework/lib/libnx_min/nx/lib\libnx_min.a(switch_crt0.o) (__system_argv)
C:/Users/RNG/Desktop/Stuff/Smash-Stuff/SMASH-ULTIMATE-MODS-BABY/50xx-the-mod/acmd-edits/code-mod-framework/lib/libnx_min/nx/lib\libnx_min.a(env.o)
                              C:/Users/RNG/Desktop/Stuff/Smash-Stuff/SMASH-ULTIMATE-MODS-BABY/50xx-the-mod/acmd-edits/code-mod-framework/lib/libnx_min/nx/lib\libnx_min.a(argv.o) (envIsNso)
C:/Users/RNG/Desktop/Stuff/Smash-Stuff/SMASH-ULTIMATE-MODS-BABY/50xx-the-mod/acmd-edits/code-mod-framework/lib/libnx_min/nx/lib\libnx_min.a(init.o)
                              C:/Users/RNG/Desktop/Stuff/Smash-Stuff/SMASH-ULTIMATE-MODS-BABY/50xx-the-mod/acmd-edits/code-mod-framework/lib/libnx_min/nx/lib\libnx_min.a(exception.o) (__nx_exceptiondump)
C:/Users/RNG/Desktop/Stuff/Smash-Stuff/SMASH-ULTIMATE-MODS-BABY/50xx-the-mod/acmd-edits/code-mod-framework/lib/libnx_min/nx/lib\libnx_min.a(hosversion.o)
                              C:/Users/RNG/Desktop/Stuff/Smash-Stuff/SMASH-ULTIMATE-MODS-BABY/50xx-the-mod/acmd-edits/code-mod-framework/lib/libnx_min/nx/lib\libnx_min.a(init.o) (hosversionSet)
C:/Users/RNG/Desktop/Stuff/Smash-Stuff/SMASH-ULTIMATE-MODS-BABY/50xx-the-mod/acmd-edits/code-mod-framework/lib/libnx_min/nx/lib\libnx_min.a(dynamic.o)
                              C:/Users/RNG/Desktop/Stuff/Smash-Stuff/SMASH-ULTIMATE-MODS-BABY/50xx-the-mod/acmd-edits/code-mod-framework/lib/libnx_min/nx/lib\libnx_min.a(switch_crt0.o) (__nx_dynamic)
C:/Users/RNG/Desktop/Stuff/Smash-Stuff/SMASH-ULTIMATE-MODS-BABY/50xx-the-mod/acmd-edits/code-mod-framework/lib/libnx_min/nx/lib\libnx_min.a(fs_dev.o)
                              C:/Users/RNG/Desktop/Stuff/Smash-Stuff/SMASH-ULTIMATE-MODS-BABY/50xx-the-mod/acmd-edits/code-mod-framework/lib/libnx_min/nx/lib\libnx_min.a(init.o) (fsdevMountSdmc)
C:/Users/RNG/Desktop/Stuff/Smash-Stuff/SMASH-ULTIMATE-MODS-BABY/50xx-the-mod/acmd-edits/code-mod-framework/lib/libnx_min/nx/lib\libnx_min.a(decode_utf8.o)
                              C:/Users/RNG/Desktop/Stuff/Smash-Stuff/SMASH-ULTIMATE-MODS-BABY/50xx-the-mod/acmd-edits/code-mod-framework/lib/libnx_min/nx/lib\libnx_min.a(fs_dev.o) (decode_utf8)
C:/Users/RNG/Desktop/Stuff/Smash-Stuff/SMASH-ULTIMATE-MODS-BABY/50xx-the-mod/acmd-edits/code-mod-framework/lib/libnx_min/nx/lib\libnx_min.a(svc.o)
                              C:/Users/RNG/Desktop/Stuff/Smash-Stuff/SMASH-ULTIMATE-MODS-BABY/50xx-the-mod/acmd-edits/code-mod-framework/lib/libnx_min/nx/lib\libnx_min.a(init.o) (svcSetHeapSize)
C:/Users/RNG/Desktop/Stuff/Smash-Stuff/SMASH-ULTIMATE-MODS-BABY/50xx-the-mod/acmd-edits/code-mod-framework/lib/libnx_min/nx/lib\libnx_min.a(readtp.o)
                              C:/Users/RNG/Desktop/Stuff/Smash-Stuff/SMASH-ULTIMATE-MODS-BABY/50xx-the-mod/acmd-edits/code-mod-framework/lib/libnx_min/nx/lib\libnx_min.a(fs_dev.o) (__aarch64_read_tp)
C:/Users/RNG/Desktop/Stuff/Smash-Stuff/SMASH-ULTIMATE-MODS-BABY/50xx-the-mod/acmd-edits/code-mod-framework/lib/libnx_min/nx/lib\libnx_min.a(virtmem.o)
                              C:/Users/RNG/Desktop/Stuff/Smash-Stuff/SMASH-ULTIMATE-MODS-BABY/50xx-the-mod/acmd-edits/code-mod-framework/lib/libnx_min/nx/lib\libnx_min.a(init.o) (virtmemSetup)
C:/Users/RNG/Desktop/Stuff/Smash-Stuff/SMASH-ULTIMATE-MODS-BABY/50xx-the-mod/acmd-edits/code-mod-framework/lib/libnx_min/nx/lib\libnx_min.a(mutex.o)
                              C:/Users/RNG/Desktop/Stuff/Smash-Stuff/SMASH-ULTIMATE-MODS-BABY/50xx-the-mod/acmd-edits/code-mod-framework/lib/libnx_min/nx/lib\libnx_min.a(virtmem.o) (mutexLock)
C:/Users/RNG/Desktop/Stuff/Smash-Stuff/SMASH-ULTIMATE-MODS-BABY/50xx-the-mod/acmd-edits/code-mod-framework/lib/libnx_min/nx/lib\libnx_min.a(fs.o)
                              C:/Users/RNG/Desktop/Stuff/Smash-Stuff/SMASH-ULTIMATE-MODS-BABY/50xx-the-mod/acmd-edits/code-mod-framework/lib/libnx_min/nx/lib\libnx_min.a(init.o) (fsInitialize)
C:/Users/RNG/Desktop/Stuff/Smash-Stuff/SMASH-ULTIMATE-MODS-BABY/50xx-the-mod/acmd-edits/code-mod-framework/lib/libnx_min/nx/lib\libnx_min.a(set.o)
                              C:/Users/RNG/Desktop/Stuff/Smash-Stuff/SMASH-ULTIMATE-MODS-BABY/50xx-the-mod/acmd-edits/code-mod-framework/lib/libnx_min/nx/lib\libnx_min.a(init.o) (setsysInitialize)
C:/Users/RNG/Desktop/Stuff/Smash-Stuff/SMASH-ULTIMATE-MODS-BABY/50xx-the-mod/acmd-edits/code-mod-framework/lib/libnx_min/nx/lib\libnx_min.a(fatal.o)
                              C:/Users/RNG/Desktop/Stuff/Smash-Stuff/SMASH-ULTIMATE-MODS-BABY/50xx-the-mod/acmd-edits/code-mod-framework/lib/libnx_min/nx/lib\libnx_min.a(env.o) (fatalSimple)
C:/Users/RNG/Desktop/Stuff/Smash-Stuff/SMASH-ULTIMATE-MODS-BABY/50xx-the-mod/acmd-edits/code-mod-framework/lib/libnx_min/nx/lib\libnx_min.a(sm.o)
                              C:/Users/RNG/Desktop/Stuff/Smash-Stuff/SMASH-ULTIMATE-MODS-BABY/50xx-the-mod/acmd-edits/code-mod-framework/lib/libnx_min/nx/lib\libnx_min.a(env.o) (smAddOverrideHandle)
C:/Users/RNG/Desktop/Stuff/Smash-Stuff/SMASH-ULTIMATE-MODS-BABY/50xx-the-mod/acmd-edits/code-mod-framework/lib/libnx_min/nx/lib\libnx_min.a(hid.o)
                              C:/Users/RNG/Desktop/Stuff/Smash-Stuff/SMASH-ULTIMATE-MODS-BABY/50xx-the-mod/acmd-edits/code-mod-framework/lib/libnx_min/nx/lib\libnx_min.a(init.o) (hidExit)
C:/Users/RNG/Desktop/Stuff/Smash-Stuff/SMASH-ULTIMATE-MODS-BABY/50xx-the-mod/acmd-edits/code-mod-framework/lib/libnx_min/nx/lib\libnx_min.a(time.o)
                              C:/Users/RNG/Desktop/Stuff/Smash-Stuff/SMASH-ULTIMATE-MODS-BABY/50xx-the-mod/acmd-edits/code-mod-framework/lib/libnx_min/nx/lib\libnx_min.a(init.o) (timeExit)
C:/Users/RNG/Desktop/Stuff/Smash-Stuff/SMASH-ULTIMATE-MODS-BABY/50xx-the-mod/acmd-edits/code-mod-framework/lib/libnx_min/nx/lib\libnx_min.a(applet.o)
                              C:/Users/RNG/Desktop/Stuff/Smash-Stuff/SMASH-ULTIMATE-MODS-BABY/50xx-the-mod/acmd-edits/code-mod-framework/lib/libnx_min/nx/lib\libnx_min.a(hid.o) (appletGetAppletResourceUserId)
C:/Users/RNG/Desktop/Stuff/Smash-Stuff/SMASH-ULTIMATE-MODS-BABY/50xx-the-mod/acmd-edits/code-mod-framework/lib/libnx_min/nx/lib\libnx_min.a(newlib.o)
                              C:/Users/RNG/Desktop/Stuff/Smash-Stuff/SMASH-ULTIMATE-MODS-BABY/50xx-the-mod/acmd-edits/code-mod-framework/lib/libnx_min/nx/lib\libnx_min.a(init.o) (__libnx_init_time)
C:/Users/RNG/Desktop/Stuff/Smash-Stuff/SMASH-ULTIMATE-MODS-BABY/50xx-the-mod/acmd-edits/code-mod-framework/lib/libnx_min/nx/lib\libnx_min.a(thread.o)
                              C:/Users/RNG/Desktop/Stuff/Smash-Stuff/SMASH-ULTIMATE-MODS-BABY/50xx-the-mod/acmd-edits/code-mod-framework/lib/libnx_min/nx/lib\libnx_min.a(newlib.o) (threadCreate)
C:/Users/RNG/Desktop/Stuff/Smash-Stuff/SMASH-ULTIMATE-MODS-BABY/50xx-the-mod/acmd-edits/code-mod-framework/lib/libnx_min/nx/lib\libnx_min.a(condvar.o)
                              C:/Users/RNG/Desktop/Stuff/Smash-Stuff/SMASH-ULTIMATE-MODS-BABY/50xx-the-mod/acmd-edits/code-mod-framework/lib/libnx_min/nx/lib\libnx_min.a(newlib.o) (condvarWaitTimeout)
C:/Users/RNG/Desktop/Stuff/Smash-Stuff/SMASH-ULTIMATE-MODS-BABY/50xx-the-mod/acmd-edits/code-mod-framework/lib/libnx_min/nx/lib\libnx_min.a(event.o)
                              C:/Users/RNG/Desktop/Stuff/Smash-Stuff/SMASH-ULTIMATE-MODS-BABY/50xx-the-mod/acmd-edits/code-mod-framework/lib/libnx_min/nx/lib\libnx_min.a(set.o) (eventLoadRemote)
C:/Users/RNG/Desktop/Stuff/Smash-Stuff/SMASH-ULTIMATE-MODS-BABY/50xx-the-mod/acmd-edits/code-mod-framework/lib/libnx_min/nx/lib\libnx_min.a(tmem.o)
                              C:/Users/RNG/Desktop/Stuff/Smash-Stuff/SMASH-ULTIMATE-MODS-BABY/50xx-the-mod/acmd-edits/code-mod-framework/lib/libnx_min/nx/lib\libnx_min.a(applet.o) (tmemCreate)
C:/Users/RNG/Desktop/Stuff/Smash-Stuff/SMASH-ULTIMATE-MODS-BABY/50xx-the-mod/acmd-edits/code-mod-framework/lib/libnx_min/nx/lib\libnx_min.a(rwlock.o)
                              C:/Users/RNG/Desktop/Stuff/Smash-Stuff/SMASH-ULTIMATE-MODS-BABY/50xx-the-mod/acmd-edits/code-mod-framework/lib/libnx_min/nx/lib\libnx_min.a(hid.o) (rwlockReadLock)
C:/Users/RNG/Desktop/Stuff/Smash-Stuff/SMASH-ULTIMATE-MODS-BABY/50xx-the-mod/acmd-edits/code-mod-framework/lib/libnx_min/nx/lib\libnx_min.a(wait.o)
                              C:/Users/RNG/Desktop/Stuff/Smash-Stuff/SMASH-ULTIMATE-MODS-BABY/50xx-the-mod/acmd-edits/code-mod-framework/lib/libnx_min/nx/lib\libnx_min.a(applet.o) (waitObjects)
C:/Users/RNG/Desktop/Stuff/Smash-Stuff/SMASH-ULTIMATE-MODS-BABY/50xx-the-mod/acmd-edits/code-mod-framework/lib/libnx_min/nx/lib\libnx_min.a(shmem.o)
                              C:/Users/RNG/Desktop/Stuff/Smash-Stuff/SMASH-ULTIMATE-MODS-BABY/50xx-the-mod/acmd-edits/code-mod-framework/lib/libnx_min/nx/lib\libnx_min.a(hid.o) (shmemLoadRemote)
C:/Users/RNG/Desktop/Stuff/Smash-Stuff/SMASH-ULTIMATE-MODS-BABY/50xx-the-mod/acmd-edits/code-mod-framework/lib/libnx_min/nx/lib\libnx_min.a(detect.o)
                              C:/Users/RNG/Desktop/Stuff/Smash-Stuff/SMASH-ULTIMATE-MODS-BABY/50xx-the-mod/acmd-edits/code-mod-framework/lib/libnx_min/nx/lib\libnx_min.a(fatal.o) (detectKernelVersion)
C:/Users/RNG/Desktop/Stuff/Smash-Stuff/SMASH-ULTIMATE-MODS-BABY/50xx-the-mod/acmd-edits/code-mod-framework/lib/libnx_min/nx/lib\libnx_min.a(apm.o)
                              C:/Users/RNG/Desktop/Stuff/Smash-Stuff/SMASH-ULTIMATE-MODS-BABY/50xx-the-mod/acmd-edits/code-mod-framework/lib/libnx_min/nx/lib\libnx_min.a(applet.o) (apmExit)
c:/devkitpro/devkita64/bin/../lib/gcc/aarch64-none-elf/8.3.0/../../../../aarch64-none-elf/lib/pic\libg.a(lib_a-bsearch.o)
                              C:/Users/RNG/Desktop/Stuff/Smash-Stuff/SMASH-ULTIMATE-MODS-BABY/50xx-the-mod/acmd-edits/code-mod-framework/lib/libnx_min/nx/lib\libnx_min.a(fs_dev.o) (bsearch)
c:/devkitpro/devkita64/bin/../lib/gcc/aarch64-none-elf/8.3.0/../../../../aarch64-none-elf/lib/pic\libg.a(lib_a-ctype_.o)
                              C:/Users/RNG/Desktop/Stuff/Smash-Stuff/SMASH-ULTIMATE-MODS-BABY/50xx-the-mod/acmd-edits/code-mod-framework/lib/libnx_min/nx/lib\libnx_min.a(argv.o) (_ctype_)
c:/devkitpro/devkita64/bin/../lib/gcc/aarch64-none-elf/8.3.0/../../../../aarch64-none-elf/lib/pic\libg.a(lib_a-errno.o)
                              C:/Users/RNG/Desktop/Stuff/Smash-Stuff/SMASH-ULTIMATE-MODS-BABY/50xx-the-mod/acmd-edits/code-mod-framework/lib/libnx_min/nx/lib\libnx_min.a(fs_dev.o) (__errno)
c:/devkitpro/devkita64/bin/../lib/gcc/aarch64-none-elf/8.3.0/../../../../aarch64-none-elf/lib/pic\libg.a(lib_a-exit.o)
                              C:/Users/RNG/Desktop/Stuff/Smash-Stuff/SMASH-ULTIMATE-MODS-BABY/50xx-the-mod/acmd-edits/code-mod-framework/lib/libnx_min/nx/lib\libnx_min.a(switch_crt0.o) (exit)
c:/devkitpro/devkita64/bin/../lib/gcc/aarch64-none-elf/8.3.0/../../../../aarch64-none-elf/lib/pic\libg.a(lib_a-fini.o)
                              main.o (__libc_fini_array)
c:/devkitpro/devkita64/bin/../lib/gcc/aarch64-none-elf/8.3.0/../../../../aarch64-none-elf/lib/pic\libg.a(lib_a-impure.o)
                              c:/devkitpro/devkita64/bin/../lib/gcc/aarch64-none-elf/8.3.0/../../../../aarch64-none-elf/lib/pic\libg.a(lib_a-exit.o) (_global_impure_ptr)
c:/devkitpro/devkita64/bin/../lib/gcc/aarch64-none-elf/8.3.0/../../../../aarch64-none-elf/lib/pic\libg.a(lib_a-init.o)
                              main.o (__libc_init_array)
c:/devkitpro/devkita64/bin/../lib/gcc/aarch64-none-elf/8.3.0/../../../../aarch64-none-elf/lib/pic\libg.a(lib_a-malign.o)
                              C:/Users/RNG/Desktop/Stuff/Smash-Stuff/SMASH-ULTIMATE-MODS-BABY/50xx-the-mod/acmd-edits/code-mod-framework/lib/libnx_min/nx/lib\libnx_min.a(hid.o) (memalign)
c:/devkitpro/devkita64/bin/../lib/gcc/aarch64-none-elf/8.3.0/../../../../aarch64-none-elf/lib/pic\libg.a(lib_a-malignr.o)
                              c:/devkitpro/devkita64/bin/../lib/gcc/aarch64-none-elf/8.3.0/../../../../aarch64-none-elf/lib/pic\libg.a(lib_a-malign.o) (_memalign_r)
c:/devkitpro/devkita64/bin/../lib/gcc/aarch64-none-elf/8.3.0/../../../../aarch64-none-elf/lib/pic\libg.a(lib_a-malloc.o)
                              C:/Users/RNG/Desktop/Stuff/Smash-Stuff/SMASH-ULTIMATE-MODS-BABY/50xx-the-mod/acmd-edits/code-mod-framework/lib/libnx_min/nx/lib\libnx_min.a(newlib.o) (malloc)
c:/devkitpro/devkita64/bin/../lib/gcc/aarch64-none-elf/8.3.0/../../../../aarch64-none-elf/lib/pic\libg.a(lib_a-mallocr.o)
                              c:/devkitpro/devkita64/bin/../lib/gcc/aarch64-none-elf/8.3.0/../../../../aarch64-none-elf/lib/pic\libg.a(lib_a-malignr.o) (_malloc_r)
c:/devkitpro/devkita64/bin/../lib/gcc/aarch64-none-elf/8.3.0/../../../../aarch64-none-elf/lib/pic\libg.a(lib_a-memcpy.o)
                              C:/Users/RNG/Desktop/Stuff/Smash-Stuff/SMASH-ULTIMATE-MODS-BABY/50xx-the-mod/acmd-edits/code-mod-framework/lib/libnx_min/nx/lib\libnx_min.a(fs_dev.o) (memcpy)
c:/devkitpro/devkita64/bin/../lib/gcc/aarch64-none-elf/8.3.0/../../../../aarch64-none-elf/lib/pic\libg.a(lib_a-memset.o)
                              C:/Users/RNG/Desktop/Stuff/Smash-Stuff/SMASH-ULTIMATE-MODS-BABY/50xx-the-mod/acmd-edits/code-mod-framework/lib/libnx_min/nx/lib\libnx_min.a(argv.o) (memset)
c:/devkitpro/devkita64/bin/../lib/gcc/aarch64-none-elf/8.3.0/../../../../aarch64-none-elf/lib/pic\libg.a(lib_a-mlock.o)
                              c:/devkitpro/devkita64/bin/../lib/gcc/aarch64-none-elf/8.3.0/../../../../aarch64-none-elf/lib/pic\libg.a(lib_a-malignr.o) (__malloc_lock)
c:/devkitpro/devkita64/bin/../lib/gcc/aarch64-none-elf/8.3.0/../../../../aarch64-none-elf/lib/pic\libg.a(lib_a-setenv.o)
                              C:/Users/RNG/Desktop/Stuff/Smash-Stuff/SMASH-ULTIMATE-MODS-BABY/50xx-the-mod/acmd-edits/code-mod-framework/lib/libnx_min/nx/lib\libnx_min.a(newlib.o) (setenv)
c:/devkitpro/devkita64/bin/../lib/gcc/aarch64-none-elf/8.3.0/../../../../aarch64-none-elf/lib/pic\libg.a(lib_a-setenv_r.o)
                              c:/devkitpro/devkita64/bin/../lib/gcc/aarch64-none-elf/8.3.0/../../../../aarch64-none-elf/lib/pic\libg.a(lib_a-setenv.o) (_setenv_r)
c:/devkitpro/devkita64/bin/../lib/gcc/aarch64-none-elf/8.3.0/../../../../aarch64-none-elf/lib/pic\libg.a(lib_a-strchr.o)
                              raygun_printer.o (strchr)
c:/devkitpro/devkita64/bin/../lib/gcc/aarch64-none-elf/8.3.0/../../../../aarch64-none-elf/lib/pic\libg.a(lib_a-strcmp.o)
                              saltysd_helper.o (strcmp)
c:/devkitpro/devkita64/bin/../lib/gcc/aarch64-none-elf/8.3.0/../../../../aarch64-none-elf/lib/pic\libg.a(lib_a-strcpy.o)
                              C:/Users/RNG/Desktop/Stuff/Smash-Stuff/SMASH-ULTIMATE-MODS-BABY/50xx-the-mod/acmd-edits/code-mod-framework/lib/libnx_min/nx/lib\libnx_min.a(env.o) (strcpy)
c:/devkitpro/devkita64/bin/../lib/gcc/aarch64-none-elf/8.3.0/../../../../aarch64-none-elf/lib/pic\libg.a(lib_a-strlen.o)
                              main.o (strlen)
c:/devkitpro/devkita64/bin/../lib/gcc/aarch64-none-elf/8.3.0/../../../../aarch64-none-elf/lib/pic\libg.a(lib_a-strncat.o)
                              C:/Users/RNG/Desktop/Stuff/Smash-Stuff/SMASH-ULTIMATE-MODS-BABY/50xx-the-mod/acmd-edits/code-mod-framework/lib/libnx_min/nx/lib\libnx_min.a(fs_dev.o) (strncat)
c:/devkitpro/devkita64/bin/../lib/gcc/aarch64-none-elf/8.3.0/../../../../aarch64-none-elf/lib/pic\libg.a(lib_a-strncmp.o)
                              saltysd_helper.o (strncmp)
c:/devkitpro/devkita64/bin/../lib/gcc/aarch64-none-elf/8.3.0/../../../../aarch64-none-elf/lib/pic\libg.a(lib_a-strncpy.o)
                              C:/Users/RNG/Desktop/Stuff/Smash-Stuff/SMASH-ULTIMATE-MODS-BABY/50xx-the-mod/acmd-edits/code-mod-framework/lib/libnx_min/nx/lib\libnx_min.a(argv.o) (strncpy)
c:/devkitpro/devkita64/bin/../lib/gcc/aarch64-none-elf/8.3.0/../../../../aarch64-none-elf/lib/pic\libg.a(lib_a-strnlen.o)
                              C:/Users/RNG/Desktop/Stuff/Smash-Stuff/SMASH-ULTIMATE-MODS-BABY/50xx-the-mod/acmd-edits/code-mod-framework/lib/libnx_min/nx/lib\libnx_min.a(fs_dev.o) (strnlen)
c:/devkitpro/devkita64/bin/../lib/gcc/aarch64-none-elf/8.3.0/../../../../aarch64-none-elf/lib/pic\libg.a(lib_a-toupper.o)
                              raygun_printer.o (toupper)
c:/devkitpro/devkita64/bin/../lib/gcc/aarch64-none-elf/8.3.0/../../../../aarch64-none-elf/lib/pic\libg.a(lib_a-vsnprintf.o)
                              raygun_printer.o (vsnprintf)
c:/devkitpro/devkita64/bin/../lib/gcc/aarch64-none-elf/8.3.0/../../../../aarch64-none-elf/lib/pic\libg.a(lib_a-__call_atexit.o)
                              c:/devkitpro/devkita64/bin/../lib/gcc/aarch64-none-elf/8.3.0/../../../../aarch64-none-elf/lib/pic\libg.a(lib_a-exit.o) (__call_exitprocs)
c:/devkitpro/devkita64/bin/../lib/gcc/aarch64-none-elf/8.3.0/../../../../aarch64-none-elf/lib/pic\libg.a(lib_a-environ.o)
                              c:/devkitpro/devkita64/bin/../lib/gcc/aarch64-none-elf/8.3.0/../../../../aarch64-none-elf/lib/pic\libg.a(lib_a-setenv_r.o) (environ)
c:/devkitpro/devkita64/bin/../lib/gcc/aarch64-none-elf/8.3.0/../../../../aarch64-none-elf/lib/pic\libg.a(lib_a-envlock.o)
                              c:/devkitpro/devkita64/bin/../lib/gcc/aarch64-none-elf/8.3.0/../../../../aarch64-none-elf/lib/pic\libg.a(lib_a-setenv_r.o) (__env_lock)
c:/devkitpro/devkita64/bin/../lib/gcc/aarch64-none-elf/8.3.0/../../../../aarch64-none-elf/lib/pic\libg.a(lib_a-freer.o)
                              c:/devkitpro/devkita64/bin/../lib/gcc/aarch64-none-elf/8.3.0/../../../../aarch64-none-elf/lib/pic\libg.a(lib_a-malignr.o) (_free_r)
c:/devkitpro/devkita64/bin/../lib/gcc/aarch64-none-elf/8.3.0/../../../../aarch64-none-elf/lib/pic\libg.a(lib_a-getenv_r.o)
                              c:/devkitpro/devkita64/bin/../lib/gcc/aarch64-none-elf/8.3.0/../../../../aarch64-none-elf/lib/pic\libg.a(lib_a-setenv_r.o) (_findenv_r)
c:/devkitpro/devkita64/bin/../lib/gcc/aarch64-none-elf/8.3.0/../../../../aarch64-none-elf/lib/pic\libg.a(lib_a-reallocr.o)
                              c:/devkitpro/devkita64/bin/../lib/gcc/aarch64-none-elf/8.3.0/../../../../aarch64-none-elf/lib/pic\libg.a(lib_a-setenv_r.o) (_realloc_r)
c:/devkitpro/devkita64/bin/../lib/gcc/aarch64-none-elf/8.3.0/../../../../aarch64-none-elf/lib/pic\libg.a(lib_a-svfprintf.o)
                              c:/devkitpro/devkita64/bin/../lib/gcc/aarch64-none-elf/8.3.0/../../../../aarch64-none-elf/lib/pic\libg.a(lib_a-vsnprintf.o) (_svfprintf_r)
c:/devkitpro/devkita64/bin/../lib/gcc/aarch64-none-elf/8.3.0/../../../../aarch64-none-elf/lib/pic\libg.a(lib_a-wcrtomb.o)
                              c:/devkitpro/devkita64/bin/../lib/gcc/aarch64-none-elf/8.3.0/../../../../aarch64-none-elf/lib/pic\libg.a(lib_a-svfprintf.o) (_wcrtomb_r)
c:/devkitpro/devkita64/bin/../lib/gcc/aarch64-none-elf/8.3.0/../../../../aarch64-none-elf/lib/pic\libg.a(lib_a-wcsrtombs.o)
                              c:/devkitpro/devkita64/bin/../lib/gcc/aarch64-none-elf/8.3.0/../../../../aarch64-none-elf/lib/pic\libg.a(lib_a-svfprintf.o) (_wcsrtombs_r)
c:/devkitpro/devkita64/bin/../lib/gcc/aarch64-none-elf/8.3.0/../../../../aarch64-none-elf/lib/pic\libg.a(lib_a-dtoa.o)
                              c:/devkitpro/devkita64/bin/../lib/gcc/aarch64-none-elf/8.3.0/../../../../aarch64-none-elf/lib/pic\libg.a(lib_a-svfprintf.o) (_dtoa_r)
c:/devkitpro/devkita64/bin/../lib/gcc/aarch64-none-elf/8.3.0/../../../../aarch64-none-elf/lib/pic\libg.a(lib_a-localeconv.o)
                              c:/devkitpro/devkita64/bin/../lib/gcc/aarch64-none-elf/8.3.0/../../../../aarch64-none-elf/lib/pic\libg.a(lib_a-svfprintf.o) (_localeconv_r)
c:/devkitpro/devkita64/bin/../lib/gcc/aarch64-none-elf/8.3.0/../../../../aarch64-none-elf/lib/pic\libg.a(lib_a-locale.o)
                              c:/devkitpro/devkita64/bin/../lib/gcc/aarch64-none-elf/8.3.0/../../../../aarch64-none-elf/lib/pic\libg.a(lib_a-svfprintf.o) (__global_locale)
c:/devkitpro/devkita64/bin/../lib/gcc/aarch64-none-elf/8.3.0/../../../../aarch64-none-elf/lib/pic\libg.a(lib_a-mbtowc_r.o)
                              c:/devkitpro/devkita64/bin/../lib/gcc/aarch64-none-elf/8.3.0/../../../../aarch64-none-elf/lib/pic\libg.a(lib_a-locale.o) (__ascii_mbtowc)
c:/devkitpro/devkita64/bin/../lib/gcc/aarch64-none-elf/8.3.0/../../../../aarch64-none-elf/lib/pic\libg.a(lib_a-memchr.o)
                              c:/devkitpro/devkita64/bin/../lib/gcc/aarch64-none-elf/8.3.0/../../../../aarch64-none-elf/lib/pic\libg.a(lib_a-svfprintf.o) (memchr)
c:/devkitpro/devkita64/bin/../lib/gcc/aarch64-none-elf/8.3.0/../../../../aarch64-none-elf/lib/pic\libg.a(lib_a-memmove.o)
                              c:/devkitpro/devkita64/bin/../lib/gcc/aarch64-none-elf/8.3.0/../../../../aarch64-none-elf/lib/pic\libg.a(lib_a-reallocr.o) (memmove)
c:/devkitpro/devkita64/bin/../lib/gcc/aarch64-none-elf/8.3.0/../../../../aarch64-none-elf/lib/pic\libg.a(lib_a-mprec.o)
                              c:/devkitpro/devkita64/bin/../lib/gcc/aarch64-none-elf/8.3.0/../../../../aarch64-none-elf/lib/pic\libg.a(lib_a-dtoa.o) (_Balloc)
c:/devkitpro/devkita64/bin/../lib/gcc/aarch64-none-elf/8.3.0/../../../../aarch64-none-elf/lib/pic\libg.a(lib_a-s_frexp.o)
                              c:/devkitpro/devkita64/bin/../lib/gcc/aarch64-none-elf/8.3.0/../../../../aarch64-none-elf/lib/pic\libg.a(lib_a-svfprintf.o) (frexp)
c:/devkitpro/devkita64/bin/../lib/gcc/aarch64-none-elf/8.3.0/../../../../aarch64-none-elf/lib/pic\libg.a(lib_a-strcasecmp.o)
                              c:/devkitpro/devkita64/bin/../lib/gcc/aarch64-none-elf/8.3.0/../../../../aarch64-none-elf/lib/pic\libg.a(lib_a-locale.o) (strcasecmp)
c:/devkitpro/devkita64/bin/../lib/gcc/aarch64-none-elf/8.3.0/../../../../aarch64-none-elf/lib/pic\libg.a(lib_a-strcat.o)
                              c:/devkitpro/devkita64/bin/../lib/gcc/aarch64-none-elf/8.3.0/../../../../aarch64-none-elf/lib/pic\libg.a(lib_a-locale.o) (strcat)
c:/devkitpro/devkita64/bin/../lib/gcc/aarch64-none-elf/8.3.0/../../../../aarch64-none-elf/lib/pic\libg.a(lib_a-strlcpy.o)
                              c:/devkitpro/devkita64/bin/../lib/gcc/aarch64-none-elf/8.3.0/../../../../aarch64-none-elf/lib/pic\libg.a(lib_a-locale.o) (strlcpy)
c:/devkitpro/devkita64/bin/../lib/gcc/aarch64-none-elf/8.3.0/../../../../aarch64-none-elf/lib/pic\libg.a(lib_a-strncasecmp.o)
                              c:/devkitpro/devkita64/bin/../lib/gcc/aarch64-none-elf/8.3.0/../../../../aarch64-none-elf/lib/pic\libg.a(lib_a-locale.o) (strncasecmp)
c:/devkitpro/devkita64/bin/../lib/gcc/aarch64-none-elf/8.3.0/../../../../aarch64-none-elf/lib/pic\libg.a(lib_a-strtol.o)
                              c:/devkitpro/devkita64/bin/../lib/gcc/aarch64-none-elf/8.3.0/../../../../aarch64-none-elf/lib/pic\libg.a(lib_a-locale.o) (strtol)
c:/devkitpro/devkita64/bin/../lib/gcc/aarch64-none-elf/8.3.0/../../../../aarch64-none-elf/lib/pic\libg.a(lib_a-svfiprintf.o)
                              c:/devkitpro/devkita64/bin/../lib/gcc/aarch64-none-elf/8.3.0/../../../../aarch64-none-elf/lib/pic\libg.a(lib_a-svfprintf.o) (__chclass)
c:/devkitpro/devkita64/bin/../lib/gcc/aarch64-none-elf/8.3.0/../../../../aarch64-none-elf/lib/pic\libg.a(lib_a-wcsnrtombs.o)
                              c:/devkitpro/devkita64/bin/../lib/gcc/aarch64-none-elf/8.3.0/../../../../aarch64-none-elf/lib/pic\libg.a(lib_a-wcsrtombs.o) (_wcsnrtombs_r)
c:/devkitpro/devkita64/bin/../lib/gcc/aarch64-none-elf/8.3.0/../../../../aarch64-none-elf/lib/pic\libg.a(lib_a-wctomb_r.o)
                              c:/devkitpro/devkita64/bin/../lib/gcc/aarch64-none-elf/8.3.0/../../../../aarch64-none-elf/lib/pic\libg.a(lib_a-locale.o) (__ascii_wctomb)
c:/devkitpro/devkita64/bin/../lib/gcc/aarch64-none-elf/8.3.0/../../../../aarch64-none-elf/lib/pic\libg.a(lib_a-callocr.o)
                              c:/devkitpro/devkita64/bin/../lib/gcc/aarch64-none-elf/8.3.0/../../../../aarch64-none-elf/lib/pic\libg.a(lib_a-mprec.o) (_calloc_r)
c:/devkitpro/devkita64/bin/../lib/gcc/aarch64-none-elf/8.3.0/../../../../aarch64-none-elf/lib/pic\libsysbase.a(iosupport.o)
                              C:/Users/RNG/Desktop/Stuff/Smash-Stuff/SMASH-ULTIMATE-MODS-BABY/50xx-the-mod/acmd-edits/code-mod-framework/lib/libnx_min/nx/lib\libnx_min.a(fs_dev.o) (setDefaultDevice)
c:/devkitpro/devkita64/bin/../lib/gcc/aarch64-none-elf/8.3.0/../../../../aarch64-none-elf/lib/pic\libsysbase.a(sbrk.o)
                              c:/devkitpro/devkita64/bin/../lib/gcc/aarch64-none-elf/8.3.0/../../../../aarch64-none-elf/lib/pic\libg.a(lib_a-mallocr.o) (_sbrk_r)
c:/devkitpro/devkita64/bin/../lib/gcc/aarch64-none-elf/8.3.0/../../../../aarch64-none-elf/lib/pic\libsysbase.a(_exit.o)
                              c:/devkitpro/devkita64/bin/../lib/gcc/aarch64-none-elf/8.3.0/../../../../aarch64-none-elf/lib/pic\libg.a(lib_a-exit.o) (_exit)
c:/devkitpro/devkita64/bin/../lib/gcc/aarch64-none-elf/8.3.0/../../../../aarch64-none-elf/lib/pic\libsysbase.a(malloc_vars.o)
                              main.o (fake_heap_start)
c:/devkitpro/devkita64/bin/../lib/gcc/aarch64-none-elf/8.3.0/../../../../aarch64-none-elf/lib/pic\libsysbase.a(chdir.o)
                              C:/Users/RNG/Desktop/Stuff/Smash-Stuff/SMASH-ULTIMATE-MODS-BABY/50xx-the-mod/acmd-edits/code-mod-framework/lib/libnx_min/nx/lib\libnx_min.a(fs_dev.o) (chdir)
c:/devkitpro/devkita64/bin/../lib/gcc/aarch64-none-elf/8.3.0/../../../../aarch64-none-elf/lib/pic\libsysbase.a(locks.o)
                              C:/Users/RNG/Desktop/Stuff/Smash-Stuff/SMASH-ULTIMATE-MODS-BABY/50xx-the-mod/acmd-edits/code-mod-framework/lib/libnx_min/nx/lib\libnx_min.a(newlib.o) (timespec2nsec)
c:/devkitpro/devkita64/bin/../lib/gcc/aarch64-none-elf/8.3.0/../../../../aarch64-none-elf/lib/pic\libsysbase.a(getreent.o)
                              C:/Users/RNG/Desktop/Stuff/Smash-Stuff/SMASH-ULTIMATE-MODS-BABY/50xx-the-mod/acmd-edits/code-mod-framework/lib/libnx_min/nx/lib\libnx_min.a(fs_dev.o) (__getreent)
c:/devkitpro/devkita64/bin/../lib/gcc/aarch64-none-elf/8.3.0/../../../../aarch64-none-elf/lib/pic\libsysbase.a(clocks.o)
                              c:/devkitpro/devkita64/bin/../lib/gcc/aarch64-none-elf/8.3.0/../../../../aarch64-none-elf/lib/pic\libsysbase.a(locks.o) (clock_gettime)
c:/devkitpro/devkita64/bin/../lib/gcc/aarch64-none-elf/8.3.0/pic\libgcc.a(trunctfdf2.o)
                              c:/devkitpro/devkita64/bin/../lib/gcc/aarch64-none-elf/8.3.0/../../../../aarch64-none-elf/lib/pic\libg.a(lib_a-svfprintf.o) (__trunctfdf2)
c:/devkitpro/devkita64/bin/../lib/gcc/aarch64-none-elf/8.3.0/pic\libgcc.a(sfp-exceptions.o)
                              c:/devkitpro/devkita64/bin/../lib/gcc/aarch64-none-elf/8.3.0/pic\libgcc.a(trunctfdf2.o) (__sfp_handle_exceptions)
c:/devkitpro/devkita64/bin/../lib/gcc/aarch64-none-elf/8.3.0/../../../../aarch64-none-elf/lib/pic\libg.a(lib_a-strrchr.o)
                              c:/devkitpro/devkita64/bin/../lib/gcc/aarch64-none-elf/8.3.0/../../../../aarch64-none-elf/lib/pic\libsysbase.a(chdir.o) (strrchr)

Allocating common symbols
Common symbol       size              file

__nx_exceptiondump  0x340             C:/Users/RNG/Desktop/Stuff/Smash-Stuff/SMASH-ULTIMATE-MODS-BABY/50xx-the-mod/acmd-edits/code-mod-framework/lib/libnx_min/nx/lib\libnx_min.a(init.o)
__system_argv       0x8               C:/Users/RNG/Desktop/Stuff/Smash-Stuff/SMASH-ULTIMATE-MODS-BABY/50xx-the-mod/acmd-edits/code-mod-framework/lib/libnx_min/nx/lib\libnx_min.a(argv.o)
__system_argc       0x4               C:/Users/RNG/Desktop/Stuff/Smash-Stuff/SMASH-ULTIMATE-MODS-BABY/50xx-the-mod/acmd-edits/code-mod-framework/lib/libnx_min/nx/lib\libnx_min.a(argv.o)
__stack_top         0x8               C:/Users/RNG/Desktop/Stuff/Smash-Stuff/SMASH-ULTIMATE-MODS-BABY/50xx-the-mod/acmd-edits/code-mod-framework/lib/libnx_min/nx/lib\libnx_min.a(init.o)

Discarded input sections

 .text          0x0000000000000000        0x0 c:/devkitpro/devkita64/bin/../lib/gcc/aarch64-none-elf/8.3.0/pic/crti.o
 .data          0x0000000000000000        0x0 c:/devkitpro/devkita64/bin/../lib/gcc/aarch64-none-elf/8.3.0/pic/crti.o
 .bss           0x0000000000000000        0x0 c:/devkitpro/devkita64/bin/../lib/gcc/aarch64-none-elf/8.3.0/pic/crti.o
 .text          0x0000000000000000        0x0 c:/devkitpro/devkita64/bin/../lib/gcc/aarch64-none-elf/8.3.0/pic/crtbegin.o
 .data          0x0000000000000000        0x0 c:/devkitpro/devkita64/bin/../lib/gcc/aarch64-none-elf/8.3.0/pic/crtbegin.o
 .bss           0x0000000000000000        0x0 c:/devkitpro/devkita64/bin/../lib/gcc/aarch64-none-elf/8.3.0/pic/crtbegin.o
 .data.__dso_handle
                0x0000000000000000        0x8 c:/devkitpro/devkita64/bin/../lib/gcc/aarch64-none-elf/8.3.0/pic/crtbegin.o
 .comment       0x0000000000000000       0x23 c:/devkitpro/devkita64/bin/../lib/gcc/aarch64-none-elf/8.3.0/pic/crtbegin.o
 .group         0x0000000000000000        0xc main.o
 .comment       0x0000000000000000       0x23 main.o
 .data          0x0000000000000000        0x0 acmd_wrapper.o
 .bss           0x0000000000000000        0x0 acmd_wrapper.o
 .comment       0x0000000000000000       0x23 acmd_wrapper.o
 .data          0x0000000000000000        0x0 saltysd_helper.o
 .comment       0x0000000000000000       0x23 saltysd_helper.o
 .data          0x0000000000000000        0x0 l2c_imports.o
 .bss           0x0000000000000000        0x0 l2c_imports.o
 .comment       0x0000000000000000       0x23 l2c_imports.o
 .data          0x0000000000000000        0x0 lua_bind_hash.o
 .bss           0x0000000000000000        0x0 lua_bind_hash.o
 .comment       0x0000000000000000       0x23 lua_bind_hash.o
 .data          0x0000000000000000        0x0 raygun_printer.o
 .bss           0x0000000000000000        0x0 raygun_printer.o
 .comment       0x0000000000000000       0x23 raygun_printer.o
 .text          0x0000000000000000        0x0 C:/Users/RNG/Desktop/Stuff/Smash-Stuff/SMASH-ULTIMATE-MODS-BABY/50xx-the-mod/acmd-edits/code-mod-framework/lib/libnx_min/nx/lib\libnx_min.a(switch_crt0.o)
 .data          0x0000000000000000        0x0 C:/Users/RNG/Desktop/Stuff/Smash-Stuff/SMASH-ULTIMATE-MODS-BABY/50xx-the-mod/acmd-edits/code-mod-framework/lib/libnx_min/nx/lib\libnx_min.a(switch_crt0.o)
 .bss           0x0000000000000000        0x0 C:/Users/RNG/Desktop/Stuff/Smash-Stuff/SMASH-ULTIMATE-MODS-BABY/50xx-the-mod/acmd-edits/code-mod-framework/lib/libnx_min/nx/lib\libnx_min.a(switch_crt0.o)
 .debug_line    0x0000000000000000       0xc3 C:/Users/RNG/Desktop/Stuff/Smash-Stuff/SMASH-ULTIMATE-MODS-BABY/50xx-the-mod/acmd-edits/code-mod-framework/lib/libnx_min/nx/lib\libnx_min.a(switch_crt0.o)
 .debug_info    0x0000000000000000       0x2e C:/Users/RNG/Desktop/Stuff/Smash-Stuff/SMASH-ULTIMATE-MODS-BABY/50xx-the-mod/acmd-edits/code-mod-framework/lib/libnx_min/nx/lib\libnx_min.a(switch_crt0.o)
 .debug_abbrev  0x0000000000000000       0x14 C:/Users/RNG/Desktop/Stuff/Smash-Stuff/SMASH-ULTIMATE-MODS-BABY/50xx-the-mod/acmd-edits/code-mod-framework/lib/libnx_min/nx/lib\libnx_min.a(switch_crt0.o)
 .debug_aranges
                0x0000000000000000       0x30 C:/Users/RNG/Desktop/Stuff/Smash-Stuff/SMASH-ULTIMATE-MODS-BABY/50xx-the-mod/acmd-edits/code-mod-framework/lib/libnx_min/nx/lib\libnx_min.a(switch_crt0.o)
 .debug_str     0x0000000000000000       0xc1 C:/Users/RNG/Desktop/Stuff/Smash-Stuff/SMASH-ULTIMATE-MODS-BABY/50xx-the-mod/acmd-edits/code-mod-framework/lib/libnx_min/nx/lib\libnx_min.a(switch_crt0.o)
 .text          0x0000000000000000        0x0 C:/Users/RNG/Desktop/Stuff/Smash-Stuff/SMASH-ULTIMATE-MODS-BABY/50xx-the-mod/acmd-edits/code-mod-framework/lib/libnx_min/nx/lib\libnx_min.a(exception.o)
 .data          0x0000000000000000        0x0 C:/Users/RNG/Desktop/Stuff/Smash-Stuff/SMASH-ULTIMATE-MODS-BABY/50xx-the-mod/acmd-edits/code-mod-framework/lib/libnx_min/nx/lib\libnx_min.a(exception.o)
 .bss           0x0000000000000000        0x0 C:/Users/RNG/Desktop/Stuff/Smash-Stuff/SMASH-ULTIMATE-MODS-BABY/50xx-the-mod/acmd-edits/code-mod-framework/lib/libnx_min/nx/lib\libnx_min.a(exception.o)
 .debug_line    0x0000000000000000      0x11e C:/Users/RNG/Desktop/Stuff/Smash-Stuff/SMASH-ULTIMATE-MODS-BABY/50xx-the-mod/acmd-edits/code-mod-framework/lib/libnx_min/nx/lib\libnx_min.a(exception.o)
 .debug_info    0x0000000000000000       0x22 C:/Users/RNG/Desktop/Stuff/Smash-Stuff/SMASH-ULTIMATE-MODS-BABY/50xx-the-mod/acmd-edits/code-mod-framework/lib/libnx_min/nx/lib\libnx_min.a(exception.o)
 .debug_abbrev  0x0000000000000000       0x12 C:/Users/RNG/Desktop/Stuff/Smash-Stuff/SMASH-ULTIMATE-MODS-BABY/50xx-the-mod/acmd-edits/code-mod-framework/lib/libnx_min/nx/lib\libnx_min.a(exception.o)
 .debug_aranges
                0x0000000000000000       0x40 C:/Users/RNG/Desktop/Stuff/Smash-Stuff/SMASH-ULTIMATE-MODS-BABY/50xx-the-mod/acmd-edits/code-mod-framework/lib/libnx_min/nx/lib\libnx_min.a(exception.o)
 .debug_str     0x0000000000000000       0xbf C:/Users/RNG/Desktop/Stuff/Smash-Stuff/SMASH-ULTIMATE-MODS-BABY/50xx-the-mod/acmd-edits/code-mod-framework/lib/libnx_min/nx/lib\libnx_min.a(exception.o)
 .debug_ranges  0x0000000000000000       0x40 C:/Users/RNG/Desktop/Stuff/Smash-Stuff/SMASH-ULTIMATE-MODS-BABY/50xx-the-mod/acmd-edits/code-mod-framework/lib/libnx_min/nx/lib\libnx_min.a(exception.o)
 .text          0x0000000000000000        0x0 C:/Users/RNG/Desktop/Stuff/Smash-Stuff/SMASH-ULTIMATE-MODS-BABY/50xx-the-mod/acmd-edits/code-mod-framework/lib/libnx_min/nx/lib\libnx_min.a(argv.o)
 .data          0x0000000000000000        0x0 C:/Users/RNG/Desktop/Stuff/Smash-Stuff/SMASH-ULTIMATE-MODS-BABY/50xx-the-mod/acmd-edits/code-mod-framework/lib/libnx_min/nx/lib\libnx_min.a(argv.o)
 .bss           0x0000000000000000        0x0 C:/Users/RNG/Desktop/Stuff/Smash-Stuff/SMASH-ULTIMATE-MODS-BABY/50xx-the-mod/acmd-edits/code-mod-framework/lib/libnx_min/nx/lib\libnx_min.a(argv.o)
 .debug_info    0x0000000000000000      0xe43 C:/Users/RNG/Desktop/Stuff/Smash-Stuff/SMASH-ULTIMATE-MODS-BABY/50xx-the-mod/acmd-edits/code-mod-framework/lib/libnx_min/nx/lib\libnx_min.a(argv.o)
 .debug_abbrev  0x0000000000000000      0x2de C:/Users/RNG/Desktop/Stuff/Smash-Stuff/SMASH-ULTIMATE-MODS-BABY/50xx-the-mod/acmd-edits/code-mod-framework/lib/libnx_min/nx/lib\libnx_min.a(argv.o)
 .debug_loc     0x0000000000000000      0x6a8 C:/Users/RNG/Desktop/Stuff/Smash-Stuff/SMASH-ULTIMATE-MODS-BABY/50xx-the-mod/acmd-edits/code-mod-framework/lib/libnx_min/nx/lib\libnx_min.a(argv.o)
 .debug_aranges
                0x0000000000000000       0x30 C:/Users/RNG/Desktop/Stuff/Smash-Stuff/SMASH-ULTIMATE-MODS-BABY/50xx-the-mod/acmd-edits/code-mod-framework/lib/libnx_min/nx/lib\libnx_min.a(argv.o)
 .debug_ranges  0x0000000000000000       0x20 C:/Users/RNG/Desktop/Stuff/Smash-Stuff/SMASH-ULTIMATE-MODS-BABY/50xx-the-mod/acmd-edits/code-mod-framework/lib/libnx_min/nx/lib\libnx_min.a(argv.o)
 .debug_line    0x0000000000000000      0x64d C:/Users/RNG/Desktop/Stuff/Smash-Stuff/SMASH-ULTIMATE-MODS-BABY/50xx-the-mod/acmd-edits/code-mod-framework/lib/libnx_min/nx/lib\libnx_min.a(argv.o)
 .debug_str     0x0000000000000000      0x874 C:/Users/RNG/Desktop/Stuff/Smash-Stuff/SMASH-ULTIMATE-MODS-BABY/50xx-the-mod/acmd-edits/code-mod-framework/lib/libnx_min/nx/lib\libnx_min.a(argv.o)
 .comment       0x0000000000000000       0x23 C:/Users/RNG/Desktop/Stuff/Smash-Stuff/SMASH-ULTIMATE-MODS-BABY/50xx-the-mod/acmd-edits/code-mod-framework/lib/libnx_min/nx/lib\libnx_min.a(argv.o)
 .text          0x0000000000000000        0x0 C:/Users/RNG/Desktop/Stuff/Smash-Stuff/SMASH-ULTIMATE-MODS-BABY/50xx-the-mod/acmd-edits/code-mod-framework/lib/libnx_min/nx/lib\libnx_min.a(env.o)
 .data          0x0000000000000000        0x0 C:/Users/RNG/Desktop/Stuff/Smash-Stuff/SMASH-ULTIMATE-MODS-BABY/50xx-the-mod/acmd-edits/code-mod-framework/lib/libnx_min/nx/lib\libnx_min.a(env.o)
 .bss           0x0000000000000000        0x0 C:/Users/RNG/Desktop/Stuff/Smash-Stuff/SMASH-ULTIMATE-MODS-BABY/50xx-the-mod/acmd-edits/code-mod-framework/lib/libnx_min/nx/lib\libnx_min.a(env.o)
 .debug_info    0x0000000000000000     0x111a C:/Users/RNG/Desktop/Stuff/Smash-Stuff/SMASH-ULTIMATE-MODS-BABY/50xx-the-mod/acmd-edits/code-mod-framework/lib/libnx_min/nx/lib\libnx_min.a(env.o)
 .debug_abbrev  0x0000000000000000      0x322 C:/Users/RNG/Desktop/Stuff/Smash-Stuff/SMASH-ULTIMATE-MODS-BABY/50xx-the-mod/acmd-edits/code-mod-framework/lib/libnx_min/nx/lib\libnx_min.a(env.o)
 .debug_loc     0x0000000000000000      0x362 C:/Users/RNG/Desktop/Stuff/Smash-Stuff/SMASH-ULTIMATE-MODS-BABY/50xx-the-mod/acmd-edits/code-mod-framework/lib/libnx_min/nx/lib\libnx_min.a(env.o)
 .debug_aranges
                0x0000000000000000      0x130 C:/Users/RNG/Desktop/Stuff/Smash-Stuff/SMASH-ULTIMATE-MODS-BABY/50xx-the-mod/acmd-edits/code-mod-framework/lib/libnx_min/nx/lib\libnx_min.a(env.o)
 .debug_ranges  0x0000000000000000      0x120 C:/Users/RNG/Desktop/Stuff/Smash-Stuff/SMASH-ULTIMATE-MODS-BABY/50xx-the-mod/acmd-edits/code-mod-framework/lib/libnx_min/nx/lib\libnx_min.a(env.o)
 .debug_line    0x0000000000000000      0x6fe C:/Users/RNG/Desktop/Stuff/Smash-Stuff/SMASH-ULTIMATE-MODS-BABY/50xx-the-mod/acmd-edits/code-mod-framework/lib/libnx_min/nx/lib\libnx_min.a(env.o)
 .debug_str     0x0000000000000000     0x107e C:/Users/RNG/Desktop/Stuff/Smash-Stuff/SMASH-ULTIMATE-MODS-BABY/50xx-the-mod/acmd-edits/code-mod-framework/lib/libnx_min/nx/lib\libnx_min.a(env.o)
 .comment       0x0000000000000000       0x23 C:/Users/RNG/Desktop/Stuff/Smash-Stuff/SMASH-ULTIMATE-MODS-BABY/50xx-the-mod/acmd-edits/code-mod-framework/lib/libnx_min/nx/lib\libnx_min.a(env.o)
 .text          0x0000000000000000        0x0 C:/Users/RNG/Desktop/Stuff/Smash-Stuff/SMASH-ULTIMATE-MODS-BABY/50xx-the-mod/acmd-edits/code-mod-framework/lib/libnx_min/nx/lib\libnx_min.a(init.o)
 .data          0x0000000000000000        0x0 C:/Users/RNG/Desktop/Stuff/Smash-Stuff/SMASH-ULTIMATE-MODS-BABY/50xx-the-mod/acmd-edits/code-mod-framework/lib/libnx_min/nx/lib\libnx_min.a(init.o)
 .bss           0x0000000000000000        0x0 C:/Users/RNG/Desktop/Stuff/Smash-Stuff/SMASH-ULTIMATE-MODS-BABY/50xx-the-mod/acmd-edits/code-mod-framework/lib/libnx_min/nx/lib\libnx_min.a(init.o)
 .text.__libnx_init
                0x0000000000000000       0x28 C:/Users/RNG/Desktop/Stuff/Smash-Stuff/SMASH-ULTIMATE-MODS-BABY/50xx-the-mod/acmd-edits/code-mod-framework/lib/libnx_min/nx/lib\libnx_min.a(init.o)
 .text.__libnx_exit
                0x0000000000000000       0x20 C:/Users/RNG/Desktop/Stuff/Smash-Stuff/SMASH-ULTIMATE-MODS-BABY/50xx-the-mod/acmd-edits/code-mod-framework/lib/libnx_min/nx/lib\libnx_min.a(init.o)
 .debug_info    0x0000000000000000      0xce2 C:/Users/RNG/Desktop/Stuff/Smash-Stuff/SMASH-ULTIMATE-MODS-BABY/50xx-the-mod/acmd-edits/code-mod-framework/lib/libnx_min/nx/lib\libnx_min.a(init.o)
 .debug_abbrev  0x0000000000000000      0x2a1 C:/Users/RNG/Desktop/Stuff/Smash-Stuff/SMASH-ULTIMATE-MODS-BABY/50xx-the-mod/acmd-edits/code-mod-framework/lib/libnx_min/nx/lib\libnx_min.a(init.o)
 .debug_loc     0x0000000000000000      0x34a C:/Users/RNG/Desktop/Stuff/Smash-Stuff/SMASH-ULTIMATE-MODS-BABY/50xx-the-mod/acmd-edits/code-mod-framework/lib/libnx_min/nx/lib\libnx_min.a(init.o)
 .debug_aranges
                0x0000000000000000       0x70 C:/Users/RNG/Desktop/Stuff/Smash-Stuff/SMASH-ULTIMATE-MODS-BABY/50xx-the-mod/acmd-edits/code-mod-framework/lib/libnx_min/nx/lib\libnx_min.a(init.o)
 .debug_ranges  0x0000000000000000       0xa0 C:/Users/RNG/Desktop/Stuff/Smash-Stuff/SMASH-ULTIMATE-MODS-BABY/50xx-the-mod/acmd-edits/code-mod-framework/lib/libnx_min/nx/lib\libnx_min.a(init.o)
 .debug_line    0x0000000000000000      0x685 C:/Users/RNG/Desktop/Stuff/Smash-Stuff/SMASH-ULTIMATE-MODS-BABY/50xx-the-mod/acmd-edits/code-mod-framework/lib/libnx_min/nx/lib\libnx_min.a(init.o)
 .debug_str     0x0000000000000000      0xf19 C:/Users/RNG/Desktop/Stuff/Smash-Stuff/SMASH-ULTIMATE-MODS-BABY/50xx-the-mod/acmd-edits/code-mod-framework/lib/libnx_min/nx/lib\libnx_min.a(init.o)
 .comment       0x0000000000000000       0x23 C:/Users/RNG/Desktop/Stuff/Smash-Stuff/SMASH-ULTIMATE-MODS-BABY/50xx-the-mod/acmd-edits/code-mod-framework/lib/libnx_min/nx/lib\libnx_min.a(init.o)
 .text          0x0000000000000000        0x0 C:/Users/RNG/Desktop/Stuff/Smash-Stuff/SMASH-ULTIMATE-MODS-BABY/50xx-the-mod/acmd-edits/code-mod-framework/lib/libnx_min/nx/lib\libnx_min.a(hosversion.o)
 .data          0x0000000000000000        0x0 C:/Users/RNG/Desktop/Stuff/Smash-Stuff/SMASH-ULTIMATE-MODS-BABY/50xx-the-mod/acmd-edits/code-mod-framework/lib/libnx_min/nx/lib\libnx_min.a(hosversion.o)
 .bss           0x0000000000000000        0x0 C:/Users/RNG/Desktop/Stuff/Smash-Stuff/SMASH-ULTIMATE-MODS-BABY/50xx-the-mod/acmd-edits/code-mod-framework/lib/libnx_min/nx/lib\libnx_min.a(hosversion.o)
 .debug_info    0x0000000000000000      0x103 C:/Users/RNG/Desktop/Stuff/Smash-Stuff/SMASH-ULTIMATE-MODS-BABY/50xx-the-mod/acmd-edits/code-mod-framework/lib/libnx_min/nx/lib\libnx_min.a(hosversion.o)
 .debug_abbrev  0x0000000000000000       0xa2 C:/Users/RNG/Desktop/Stuff/Smash-Stuff/SMASH-ULTIMATE-MODS-BABY/50xx-the-mod/acmd-edits/code-mod-framework/lib/libnx_min/nx/lib\libnx_min.a(hosversion.o)
 .debug_aranges
                0x0000000000000000       0x40 C:/Users/RNG/Desktop/Stuff/Smash-Stuff/SMASH-ULTIMATE-MODS-BABY/50xx-the-mod/acmd-edits/code-mod-framework/lib/libnx_min/nx/lib\libnx_min.a(hosversion.o)
 .debug_ranges  0x0000000000000000       0x30 C:/Users/RNG/Desktop/Stuff/Smash-Stuff/SMASH-ULTIMATE-MODS-BABY/50xx-the-mod/acmd-edits/code-mod-framework/lib/libnx_min/nx/lib\libnx_min.a(hosversion.o)
 .debug_line    0x0000000000000000      0x1b0 C:/Users/RNG/Desktop/Stuff/Smash-Stuff/SMASH-ULTIMATE-MODS-BABY/50xx-the-mod/acmd-edits/code-mod-framework/lib/libnx_min/nx/lib\libnx_min.a(hosversion.o)
 .debug_str     0x0000000000000000      0x234 C:/Users/RNG/Desktop/Stuff/Smash-Stuff/SMASH-ULTIMATE-MODS-BABY/50xx-the-mod/acmd-edits/code-mod-framework/lib/libnx_min/nx/lib\libnx_min.a(hosversion.o)
 .comment       0x0000000000000000       0x23 C:/Users/RNG/Desktop/Stuff/Smash-Stuff/SMASH-ULTIMATE-MODS-BABY/50xx-the-mod/acmd-edits/code-mod-framework/lib/libnx_min/nx/lib\libnx_min.a(hosversion.o)
 .text          0x0000000000000000        0x0 C:/Users/RNG/Desktop/Stuff/Smash-Stuff/SMASH-ULTIMATE-MODS-BABY/50xx-the-mod/acmd-edits/code-mod-framework/lib/libnx_min/nx/lib\libnx_min.a(dynamic.o)
 .data          0x0000000000000000        0x0 C:/Users/RNG/Desktop/Stuff/Smash-Stuff/SMASH-ULTIMATE-MODS-BABY/50xx-the-mod/acmd-edits/code-mod-framework/lib/libnx_min/nx/lib\libnx_min.a(dynamic.o)
 .bss           0x0000000000000000        0x0 C:/Users/RNG/Desktop/Stuff/Smash-Stuff/SMASH-ULTIMATE-MODS-BABY/50xx-the-mod/acmd-edits/code-mod-framework/lib/libnx_min/nx/lib\libnx_min.a(dynamic.o)
 .debug_info    0x0000000000000000      0x3c9 C:/Users/RNG/Desktop/Stuff/Smash-Stuff/SMASH-ULTIMATE-MODS-BABY/50xx-the-mod/acmd-edits/code-mod-framework/lib/libnx_min/nx/lib\libnx_min.a(dynamic.o)
 .debug_abbrev  0x0000000000000000      0x16b C:/Users/RNG/Desktop/Stuff/Smash-Stuff/SMASH-ULTIMATE-MODS-BABY/50xx-the-mod/acmd-edits/code-mod-framework/lib/libnx_min/nx/lib\libnx_min.a(dynamic.o)
 .debug_loc     0x0000000000000000      0x1b8 C:/Users/RNG/Desktop/Stuff/Smash-Stuff/SMASH-ULTIMATE-MODS-BABY/50xx-the-mod/acmd-edits/code-mod-framework/lib/libnx_min/nx/lib\libnx_min.a(dynamic.o)
 .debug_aranges
                0x0000000000000000       0x30 C:/Users/RNG/Desktop/Stuff/Smash-Stuff/SMASH-ULTIMATE-MODS-BABY/50xx-the-mod/acmd-edits/code-mod-framework/lib/libnx_min/nx/lib\libnx_min.a(dynamic.o)
 .debug_ranges  0x0000000000000000       0x20 C:/Users/RNG/Desktop/Stuff/Smash-Stuff/SMASH-ULTIMATE-MODS-BABY/50xx-the-mod/acmd-edits/code-mod-framework/lib/libnx_min/nx/lib\libnx_min.a(dynamic.o)
 .debug_line    0x0000000000000000      0x2df C:/Users/RNG/Desktop/Stuff/Smash-Stuff/SMASH-ULTIMATE-MODS-BABY/50xx-the-mod/acmd-edits/code-mod-framework/lib/libnx_min/nx/lib\libnx_min.a(dynamic.o)
 .debug_str     0x0000000000000000      0x837 C:/Users/RNG/Desktop/Stuff/Smash-Stuff/SMASH-ULTIMATE-MODS-BABY/50xx-the-mod/acmd-edits/code-mod-framework/lib/libnx_min/nx/lib\libnx_min.a(dynamic.o)
 .comment       0x0000000000000000       0x23 C:/Users/RNG/Desktop/Stuff/Smash-Stuff/SMASH-ULTIMATE-MODS-BABY/50xx-the-mod/acmd-edits/code-mod-framework/lib/libnx_min/nx/lib\libnx_min.a(dynamic.o)
 .text          0x0000000000000000        0x0 C:/Users/RNG/Desktop/Stuff/Smash-Stuff/SMASH-ULTIMATE-MODS-BABY/50xx-the-mod/acmd-edits/code-mod-framework/lib/libnx_min/nx/lib\libnx_min.a(fs_dev.o)
 .data          0x0000000000000000        0x0 C:/Users/RNG/Desktop/Stuff/Smash-Stuff/SMASH-ULTIMATE-MODS-BABY/50xx-the-mod/acmd-edits/code-mod-framework/lib/libnx_min/nx/lib\libnx_min.a(fs_dev.o)
 .bss           0x0000000000000000        0x0 C:/Users/RNG/Desktop/Stuff/Smash-Stuff/SMASH-ULTIMATE-MODS-BABY/50xx-the-mod/acmd-edits/code-mod-framework/lib/libnx_min/nx/lib\libnx_min.a(fs_dev.o)
 .debug_info    0x0000000000000000     0x411e C:/Users/RNG/Desktop/Stuff/Smash-Stuff/SMASH-ULTIMATE-MODS-BABY/50xx-the-mod/acmd-edits/code-mod-framework/lib/libnx_min/nx/lib\libnx_min.a(fs_dev.o)
 .debug_abbrev  0x0000000000000000      0x5b7 C:/Users/RNG/Desktop/Stuff/Smash-Stuff/SMASH-ULTIMATE-MODS-BABY/50xx-the-mod/acmd-edits/code-mod-framework/lib/libnx_min/nx/lib\libnx_min.a(fs_dev.o)
 .debug_loc     0x0000000000000000     0x4332 C:/Users/RNG/Desktop/Stuff/Smash-Stuff/SMASH-ULTIMATE-MODS-BABY/50xx-the-mod/acmd-edits/code-mod-framework/lib/libnx_min/nx/lib\libnx_min.a(fs_dev.o)
 .debug_aranges
                0x0000000000000000      0x2a0 C:/Users/RNG/Desktop/Stuff/Smash-Stuff/SMASH-ULTIMATE-MODS-BABY/50xx-the-mod/acmd-edits/code-mod-framework/lib/libnx_min/nx/lib\libnx_min.a(fs_dev.o)
 .debug_ranges  0x0000000000000000      0x670 C:/Users/RNG/Desktop/Stuff/Smash-Stuff/SMASH-ULTIMATE-MODS-BABY/50xx-the-mod/acmd-edits/code-mod-framework/lib/libnx_min/nx/lib\libnx_min.a(fs_dev.o)
 .debug_line    0x0000000000000000     0x1a73 C:/Users/RNG/Desktop/Stuff/Smash-Stuff/SMASH-ULTIMATE-MODS-BABY/50xx-the-mod/acmd-edits/code-mod-framework/lib/libnx_min/nx/lib\libnx_min.a(fs_dev.o)
 .debug_str     0x0000000000000000     0x1939 C:/Users/RNG/Desktop/Stuff/Smash-Stuff/SMASH-ULTIMATE-MODS-BABY/50xx-the-mod/acmd-edits/code-mod-framework/lib/libnx_min/nx/lib\libnx_min.a(fs_dev.o)
 .comment       0x0000000000000000       0x23 C:/Users/RNG/Desktop/Stuff/Smash-Stuff/SMASH-ULTIMATE-MODS-BABY/50xx-the-mod/acmd-edits/code-mod-framework/lib/libnx_min/nx/lib\libnx_min.a(fs_dev.o)
 .text          0x0000000000000000        0x0 C:/Users/RNG/Desktop/Stuff/Smash-Stuff/SMASH-ULTIMATE-MODS-BABY/50xx-the-mod/acmd-edits/code-mod-framework/lib/libnx_min/nx/lib\libnx_min.a(decode_utf8.o)
 .data          0x0000000000000000        0x0 C:/Users/RNG/Desktop/Stuff/Smash-Stuff/SMASH-ULTIMATE-MODS-BABY/50xx-the-mod/acmd-edits/code-mod-framework/lib/libnx_min/nx/lib\libnx_min.a(decode_utf8.o)
 .bss           0x0000000000000000        0x0 C:/Users/RNG/Desktop/Stuff/Smash-Stuff/SMASH-ULTIMATE-MODS-BABY/50xx-the-mod/acmd-edits/code-mod-framework/lib/libnx_min/nx/lib\libnx_min.a(decode_utf8.o)
 .debug_info    0x0000000000000000      0x170 C:/Users/RNG/Desktop/Stuff/Smash-Stuff/SMASH-ULTIMATE-MODS-BABY/50xx-the-mod/acmd-edits/code-mod-framework/lib/libnx_min/nx/lib\libnx_min.a(decode_utf8.o)
 .debug_abbrev  0x0000000000000000       0x9e C:/Users/RNG/Desktop/Stuff/Smash-Stuff/SMASH-ULTIMATE-MODS-BABY/50xx-the-mod/acmd-edits/code-mod-framework/lib/libnx_min/nx/lib\libnx_min.a(decode_utf8.o)
 .debug_loc     0x0000000000000000      0x334 C:/Users/RNG/Desktop/Stuff/Smash-Stuff/SMASH-ULTIMATE-MODS-BABY/50xx-the-mod/acmd-edits/code-mod-framework/lib/libnx_min/nx/lib\libnx_min.a(decode_utf8.o)
 .debug_aranges
                0x0000000000000000       0x30 C:/Users/RNG/Desktop/Stuff/Smash-Stuff/SMASH-ULTIMATE-MODS-BABY/50xx-the-mod/acmd-edits/code-mod-framework/lib/libnx_min/nx/lib\libnx_min.a(decode_utf8.o)
 .debug_ranges  0x0000000000000000       0x20 C:/Users/RNG/Desktop/Stuff/Smash-Stuff/SMASH-ULTIMATE-MODS-BABY/50xx-the-mod/acmd-edits/code-mod-framework/lib/libnx_min/nx/lib\libnx_min.a(decode_utf8.o)
 .debug_line    0x0000000000000000      0x28a C:/Users/RNG/Desktop/Stuff/Smash-Stuff/SMASH-ULTIMATE-MODS-BABY/50xx-the-mod/acmd-edits/code-mod-framework/lib/libnx_min/nx/lib\libnx_min.a(decode_utf8.o)
 .debug_str     0x0000000000000000      0x259 C:/Users/RNG/Desktop/Stuff/Smash-Stuff/SMASH-ULTIMATE-MODS-BABY/50xx-the-mod/acmd-edits/code-mod-framework/lib/libnx_min/nx/lib\libnx_min.a(decode_utf8.o)
 .comment       0x0000000000000000       0x23 C:/Users/RNG/Desktop/Stuff/Smash-Stuff/SMASH-ULTIMATE-MODS-BABY/50xx-the-mod/acmd-edits/code-mod-framework/lib/libnx_min/nx/lib\libnx_min.a(decode_utf8.o)
 .text          0x0000000000000000        0x0 C:/Users/RNG/Desktop/Stuff/Smash-Stuff/SMASH-ULTIMATE-MODS-BABY/50xx-the-mod/acmd-edits/code-mod-framework/lib/libnx_min/nx/lib\libnx_min.a(svc.o)
 .data          0x0000000000000000        0x0 C:/Users/RNG/Desktop/Stuff/Smash-Stuff/SMASH-ULTIMATE-MODS-BABY/50xx-the-mod/acmd-edits/code-mod-framework/lib/libnx_min/nx/lib\libnx_min.a(svc.o)
 .bss           0x0000000000000000        0x0 C:/Users/RNG/Desktop/Stuff/Smash-Stuff/SMASH-ULTIMATE-MODS-BABY/50xx-the-mod/acmd-edits/code-mod-framework/lib/libnx_min/nx/lib\libnx_min.a(svc.o)
 .debug_line    0x0000000000000000      0x92d C:/Users/RNG/Desktop/Stuff/Smash-Stuff/SMASH-ULTIMATE-MODS-BABY/50xx-the-mod/acmd-edits/code-mod-framework/lib/libnx_min/nx/lib\libnx_min.a(svc.o)
 .debug_info    0x0000000000000000       0x22 C:/Users/RNG/Desktop/Stuff/Smash-Stuff/SMASH-ULTIMATE-MODS-BABY/50xx-the-mod/acmd-edits/code-mod-framework/lib/libnx_min/nx/lib\libnx_min.a(svc.o)
 .debug_abbrev  0x0000000000000000       0x12 C:/Users/RNG/Desktop/Stuff/Smash-Stuff/SMASH-ULTIMATE-MODS-BABY/50xx-the-mod/acmd-edits/code-mod-framework/lib/libnx_min/nx/lib\libnx_min.a(svc.o)
 .debug_aranges
                0x0000000000000000      0x660 C:/Users/RNG/Desktop/Stuff/Smash-Stuff/SMASH-ULTIMATE-MODS-BABY/50xx-the-mod/acmd-edits/code-mod-framework/lib/libnx_min/nx/lib\libnx_min.a(svc.o)
 .debug_str     0x0000000000000000       0xb8 C:/Users/RNG/Desktop/Stuff/Smash-Stuff/SMASH-ULTIMATE-MODS-BABY/50xx-the-mod/acmd-edits/code-mod-framework/lib/libnx_min/nx/lib\libnx_min.a(svc.o)
 .debug_ranges  0x0000000000000000      0x660 C:/Users/RNG/Desktop/Stuff/Smash-Stuff/SMASH-ULTIMATE-MODS-BABY/50xx-the-mod/acmd-edits/code-mod-framework/lib/libnx_min/nx/lib\libnx_min.a(svc.o)
 .text          0x0000000000000000        0x0 C:/Users/RNG/Desktop/Stuff/Smash-Stuff/SMASH-ULTIMATE-MODS-BABY/50xx-the-mod/acmd-edits/code-mod-framework/lib/libnx_min/nx/lib\libnx_min.a(readtp.o)
 .data          0x0000000000000000        0x0 C:/Users/RNG/Desktop/Stuff/Smash-Stuff/SMASH-ULTIMATE-MODS-BABY/50xx-the-mod/acmd-edits/code-mod-framework/lib/libnx_min/nx/lib\libnx_min.a(readtp.o)
 .bss           0x0000000000000000        0x0 C:/Users/RNG/Desktop/Stuff/Smash-Stuff/SMASH-ULTIMATE-MODS-BABY/50xx-the-mod/acmd-edits/code-mod-framework/lib/libnx_min/nx/lib\libnx_min.a(readtp.o)
 .debug_line    0x0000000000000000       0x93 C:/Users/RNG/Desktop/Stuff/Smash-Stuff/SMASH-ULTIMATE-MODS-BABY/50xx-the-mod/acmd-edits/code-mod-framework/lib/libnx_min/nx/lib\libnx_min.a(readtp.o)
 .debug_info    0x0000000000000000       0x2e C:/Users/RNG/Desktop/Stuff/Smash-Stuff/SMASH-ULTIMATE-MODS-BABY/50xx-the-mod/acmd-edits/code-mod-framework/lib/libnx_min/nx/lib\libnx_min.a(readtp.o)
 .debug_abbrev  0x0000000000000000       0x14 C:/Users/RNG/Desktop/Stuff/Smash-Stuff/SMASH-ULTIMATE-MODS-BABY/50xx-the-mod/acmd-edits/code-mod-framework/lib/libnx_min/nx/lib\libnx_min.a(readtp.o)
 .debug_aranges
                0x0000000000000000       0x30 C:/Users/RNG/Desktop/Stuff/Smash-Stuff/SMASH-ULTIMATE-MODS-BABY/50xx-the-mod/acmd-edits/code-mod-framework/lib/libnx_min/nx/lib\libnx_min.a(readtp.o)
 .debug_str     0x0000000000000000       0xbc C:/Users/RNG/Desktop/Stuff/Smash-Stuff/SMASH-ULTIMATE-MODS-BABY/50xx-the-mod/acmd-edits/code-mod-framework/lib/libnx_min/nx/lib\libnx_min.a(readtp.o)
 .text          0x0000000000000000        0x0 C:/Users/RNG/Desktop/Stuff/Smash-Stuff/SMASH-ULTIMATE-MODS-BABY/50xx-the-mod/acmd-edits/code-mod-framework/lib/libnx_min/nx/lib\libnx_min.a(virtmem.o)
 .data          0x0000000000000000        0x0 C:/Users/RNG/Desktop/Stuff/Smash-Stuff/SMASH-ULTIMATE-MODS-BABY/50xx-the-mod/acmd-edits/code-mod-framework/lib/libnx_min/nx/lib\libnx_min.a(virtmem.o)
 .bss           0x0000000000000000        0x0 C:/Users/RNG/Desktop/Stuff/Smash-Stuff/SMASH-ULTIMATE-MODS-BABY/50xx-the-mod/acmd-edits/code-mod-framework/lib/libnx_min/nx/lib\libnx_min.a(virtmem.o)
 .debug_info    0x0000000000000000      0xb52 C:/Users/RNG/Desktop/Stuff/Smash-Stuff/SMASH-ULTIMATE-MODS-BABY/50xx-the-mod/acmd-edits/code-mod-framework/lib/libnx_min/nx/lib\libnx_min.a(virtmem.o)
 .debug_abbrev  0x0000000000000000      0x2cf C:/Users/RNG/Desktop/Stuff/Smash-Stuff/SMASH-ULTIMATE-MODS-BABY/50xx-the-mod/acmd-edits/code-mod-framework/lib/libnx_min/nx/lib\libnx_min.a(virtmem.o)
 .debug_loc     0x0000000000000000      0x668 C:/Users/RNG/Desktop/Stuff/Smash-Stuff/SMASH-ULTIMATE-MODS-BABY/50xx-the-mod/acmd-edits/code-mod-framework/lib/libnx_min/nx/lib\libnx_min.a(virtmem.o)
 .debug_aranges
                0x0000000000000000       0x70 C:/Users/RNG/Desktop/Stuff/Smash-Stuff/SMASH-ULTIMATE-MODS-BABY/50xx-the-mod/acmd-edits/code-mod-framework/lib/libnx_min/nx/lib\libnx_min.a(virtmem.o)
 .debug_ranges  0x0000000000000000      0x170 C:/Users/RNG/Desktop/Stuff/Smash-Stuff/SMASH-ULTIMATE-MODS-BABY/50xx-the-mod/acmd-edits/code-mod-framework/lib/libnx_min/nx/lib\libnx_min.a(virtmem.o)
 .debug_line    0x0000000000000000      0x60f C:/Users/RNG/Desktop/Stuff/Smash-Stuff/SMASH-ULTIMATE-MODS-BABY/50xx-the-mod/acmd-edits/code-mod-framework/lib/libnx_min/nx/lib\libnx_min.a(virtmem.o)
 .debug_str     0x0000000000000000      0xbfa C:/Users/RNG/Desktop/Stuff/Smash-Stuff/SMASH-ULTIMATE-MODS-BABY/50xx-the-mod/acmd-edits/code-mod-framework/lib/libnx_min/nx/lib\libnx_min.a(virtmem.o)
 .comment       0x0000000000000000       0x23 C:/Users/RNG/Desktop/Stuff/Smash-Stuff/SMASH-ULTIMATE-MODS-BABY/50xx-the-mod/acmd-edits/code-mod-framework/lib/libnx_min/nx/lib\libnx_min.a(virtmem.o)
 .text          0x0000000000000000        0x0 C:/Users/RNG/Desktop/Stuff/Smash-Stuff/SMASH-ULTIMATE-MODS-BABY/50xx-the-mod/acmd-edits/code-mod-framework/lib/libnx_min/nx/lib\libnx_min.a(mutex.o)
 .data          0x0000000000000000        0x0 C:/Users/RNG/Desktop/Stuff/Smash-Stuff/SMASH-ULTIMATE-MODS-BABY/50xx-the-mod/acmd-edits/code-mod-framework/lib/libnx_min/nx/lib\libnx_min.a(mutex.o)
 .bss           0x0000000000000000        0x0 C:/Users/RNG/Desktop/Stuff/Smash-Stuff/SMASH-ULTIMATE-MODS-BABY/50xx-the-mod/acmd-edits/code-mod-framework/lib/libnx_min/nx/lib\libnx_min.a(mutex.o)
 .debug_info    0x0000000000000000      0x782 C:/Users/RNG/Desktop/Stuff/Smash-Stuff/SMASH-ULTIMATE-MODS-BABY/50xx-the-mod/acmd-edits/code-mod-framework/lib/libnx_min/nx/lib\libnx_min.a(mutex.o)
 .debug_abbrev  0x0000000000000000      0x1fe C:/Users/RNG/Desktop/Stuff/Smash-Stuff/SMASH-ULTIMATE-MODS-BABY/50xx-the-mod/acmd-edits/code-mod-framework/lib/libnx_min/nx/lib\libnx_min.a(mutex.o)
 .debug_loc     0x0000000000000000      0x3d1 C:/Users/RNG/Desktop/Stuff/Smash-Stuff/SMASH-ULTIMATE-MODS-BABY/50xx-the-mod/acmd-edits/code-mod-framework/lib/libnx_min/nx/lib\libnx_min.a(mutex.o)
 .debug_aranges
                0x0000000000000000       0x80 C:/Users/RNG/Desktop/Stuff/Smash-Stuff/SMASH-ULTIMATE-MODS-BABY/50xx-the-mod/acmd-edits/code-mod-framework/lib/libnx_min/nx/lib\libnx_min.a(mutex.o)
 .debug_ranges  0x0000000000000000      0x470 C:/Users/RNG/Desktop/Stuff/Smash-Stuff/SMASH-ULTIMATE-MODS-BABY/50xx-the-mod/acmd-edits/code-mod-framework/lib/libnx_min/nx/lib\libnx_min.a(mutex.o)
 .debug_line    0x0000000000000000      0x5e6 C:/Users/RNG/Desktop/Stuff/Smash-Stuff/SMASH-ULTIMATE-MODS-BABY/50xx-the-mod/acmd-edits/code-mod-framework/lib/libnx_min/nx/lib\libnx_min.a(mutex.o)
 .debug_str     0x0000000000000000      0x3a4 C:/Users/RNG/Desktop/Stuff/Smash-Stuff/SMASH-ULTIMATE-MODS-BABY/50xx-the-mod/acmd-edits/code-mod-framework/lib/libnx_min/nx/lib\libnx_min.a(mutex.o)
 .comment       0x0000000000000000       0x23 C:/Users/RNG/Desktop/Stuff/Smash-Stuff/SMASH-ULTIMATE-MODS-BABY/50xx-the-mod/acmd-edits/code-mod-framework/lib/libnx_min/nx/lib\libnx_min.a(mutex.o)
 .text          0x0000000000000000        0x0 C:/Users/RNG/Desktop/Stuff/Smash-Stuff/SMASH-ULTIMATE-MODS-BABY/50xx-the-mod/acmd-edits/code-mod-framework/lib/libnx_min/nx/lib\libnx_min.a(fs.o)
 .data          0x0000000000000000        0x0 C:/Users/RNG/Desktop/Stuff/Smash-Stuff/SMASH-ULTIMATE-MODS-BABY/50xx-the-mod/acmd-edits/code-mod-framework/lib/libnx_min/nx/lib\libnx_min.a(fs.o)
 .bss           0x0000000000000000        0x0 C:/Users/RNG/Desktop/Stuff/Smash-Stuff/SMASH-ULTIMATE-MODS-BABY/50xx-the-mod/acmd-edits/code-mod-framework/lib/libnx_min/nx/lib\libnx_min.a(fs.o)
 .debug_info    0x0000000000000000    0x148db C:/Users/RNG/Desktop/Stuff/Smash-Stuff/SMASH-ULTIMATE-MODS-BABY/50xx-the-mod/acmd-edits/code-mod-framework/lib/libnx_min/nx/lib\libnx_min.a(fs.o)
 .debug_abbrev  0x0000000000000000      0x6cd C:/Users/RNG/Desktop/Stuff/Smash-Stuff/SMASH-ULTIMATE-MODS-BABY/50xx-the-mod/acmd-edits/code-mod-framework/lib/libnx_min/nx/lib\libnx_min.a(fs.o)
 .debug_loc     0x0000000000000000    0x23e9b C:/Users/RNG/Desktop/Stuff/Smash-Stuff/SMASH-ULTIMATE-MODS-BABY/50xx-the-mod/acmd-edits/code-mod-framework/lib/libnx_min/nx/lib\libnx_min.a(fs.o)
 .debug_aranges
                0x0000000000000000      0x4a0 C:/Users/RNG/Desktop/Stuff/Smash-Stuff/SMASH-ULTIMATE-MODS-BABY/50xx-the-mod/acmd-edits/code-mod-framework/lib/libnx_min/nx/lib\libnx_min.a(fs.o)
 .debug_ranges  0x0000000000000000     0xb5b0 C:/Users/RNG/Desktop/Stuff/Smash-Stuff/SMASH-ULTIMATE-MODS-BABY/50xx-the-mod/acmd-edits/code-mod-framework/lib/libnx_min/nx/lib\libnx_min.a(fs.o)
 .debug_line    0x0000000000000000     0xb1b2 C:/Users/RNG/Desktop/Stuff/Smash-Stuff/SMASH-ULTIMATE-MODS-BABY/50xx-the-mod/acmd-edits/code-mod-framework/lib/libnx_min/nx/lib\libnx_min.a(fs.o)
 .debug_str     0x0000000000000000     0x23e6 C:/Users/RNG/Desktop/Stuff/Smash-Stuff/SMASH-ULTIMATE-MODS-BABY/50xx-the-mod/acmd-edits/code-mod-framework/lib/libnx_min/nx/lib\libnx_min.a(fs.o)
 .comment       0x0000000000000000       0x23 C:/Users/RNG/Desktop/Stuff/Smash-Stuff/SMASH-ULTIMATE-MODS-BABY/50xx-the-mod/acmd-edits/code-mod-framework/lib/libnx_min/nx/lib\libnx_min.a(fs.o)
 .text          0x0000000000000000        0x0 C:/Users/RNG/Desktop/Stuff/Smash-Stuff/SMASH-ULTIMATE-MODS-BABY/50xx-the-mod/acmd-edits/code-mod-framework/lib/libnx_min/nx/lib\libnx_min.a(set.o)
 .data          0x0000000000000000        0x0 C:/Users/RNG/Desktop/Stuff/Smash-Stuff/SMASH-ULTIMATE-MODS-BABY/50xx-the-mod/acmd-edits/code-mod-framework/lib/libnx_min/nx/lib\libnx_min.a(set.o)
 .bss           0x0000000000000000        0x0 C:/Users/RNG/Desktop/Stuff/Smash-Stuff/SMASH-ULTIMATE-MODS-BABY/50xx-the-mod/acmd-edits/code-mod-framework/lib/libnx_min/nx/lib\libnx_min.a(set.o)
 .debug_info    0x0000000000000000     0x692b C:/Users/RNG/Desktop/Stuff/Smash-Stuff/SMASH-ULTIMATE-MODS-BABY/50xx-the-mod/acmd-edits/code-mod-framework/lib/libnx_min/nx/lib\libnx_min.a(set.o)
 .debug_abbrev  0x0000000000000000      0x5eb C:/Users/RNG/Desktop/Stuff/Smash-Stuff/SMASH-ULTIMATE-MODS-BABY/50xx-the-mod/acmd-edits/code-mod-framework/lib/libnx_min/nx/lib\libnx_min.a(set.o)
 .debug_loc     0x0000000000000000     0xc88f C:/Users/RNG/Desktop/Stuff/Smash-Stuff/SMASH-ULTIMATE-MODS-BABY/50xx-the-mod/acmd-edits/code-mod-framework/lib/libnx_min/nx/lib\libnx_min.a(set.o)
 .debug_aranges
                0x0000000000000000      0x1d0 C:/Users/RNG/Desktop/Stuff/Smash-Stuff/SMASH-ULTIMATE-MODS-BABY/50xx-the-mod/acmd-edits/code-mod-framework/lib/libnx_min/nx/lib\libnx_min.a(set.o)
 .debug_ranges  0x0000000000000000     0x25f0 C:/Users/RNG/Desktop/Stuff/Smash-Stuff/SMASH-ULTIMATE-MODS-BABY/50xx-the-mod/acmd-edits/code-mod-framework/lib/libnx_min/nx/lib\libnx_min.a(set.o)
 .debug_line    0x0000000000000000     0x3101 C:/Users/RNG/Desktop/Stuff/Smash-Stuff/SMASH-ULTIMATE-MODS-BABY/50xx-the-mod/acmd-edits/code-mod-framework/lib/libnx_min/nx/lib\libnx_min.a(set.o)
 .debug_str     0x0000000000000000     0x1b23 C:/Users/RNG/Desktop/Stuff/Smash-Stuff/SMASH-ULTIMATE-MODS-BABY/50xx-the-mod/acmd-edits/code-mod-framework/lib/libnx_min/nx/lib\libnx_min.a(set.o)
 .comment       0x0000000000000000       0x23 C:/Users/RNG/Desktop/Stuff/Smash-Stuff/SMASH-ULTIMATE-MODS-BABY/50xx-the-mod/acmd-edits/code-mod-framework/lib/libnx_min/nx/lib\libnx_min.a(set.o)
 .text          0x0000000000000000        0x0 C:/Users/RNG/Desktop/Stuff/Smash-Stuff/SMASH-ULTIMATE-MODS-BABY/50xx-the-mod/acmd-edits/code-mod-framework/lib/libnx_min/nx/lib\libnx_min.a(fatal.o)
 .data          0x0000000000000000        0x0 C:/Users/RNG/Desktop/Stuff/Smash-Stuff/SMASH-ULTIMATE-MODS-BABY/50xx-the-mod/acmd-edits/code-mod-framework/lib/libnx_min/nx/lib\libnx_min.a(fatal.o)
 .bss           0x0000000000000000        0x0 C:/Users/RNG/Desktop/Stuff/Smash-Stuff/SMASH-ULTIMATE-MODS-BABY/50xx-the-mod/acmd-edits/code-mod-framework/lib/libnx_min/nx/lib\libnx_min.a(fatal.o)
 .debug_info    0x0000000000000000      0xd6e C:/Users/RNG/Desktop/Stuff/Smash-Stuff/SMASH-ULTIMATE-MODS-BABY/50xx-the-mod/acmd-edits/code-mod-framework/lib/libnx_min/nx/lib\libnx_min.a(fatal.o)
 .debug_abbrev  0x0000000000000000      0x393 C:/Users/RNG/Desktop/Stuff/Smash-Stuff/SMASH-ULTIMATE-MODS-BABY/50xx-the-mod/acmd-edits/code-mod-framework/lib/libnx_min/nx/lib\libnx_min.a(fatal.o)
 .debug_loc     0x0000000000000000      0x895 C:/Users/RNG/Desktop/Stuff/Smash-Stuff/SMASH-ULTIMATE-MODS-BABY/50xx-the-mod/acmd-edits/code-mod-framework/lib/libnx_min/nx/lib\libnx_min.a(fatal.o)
 .debug_aranges
                0x0000000000000000       0x60 C:/Users/RNG/Desktop/Stuff/Smash-Stuff/SMASH-ULTIMATE-MODS-BABY/50xx-the-mod/acmd-edits/code-mod-framework/lib/libnx_min/nx/lib\libnx_min.a(fatal.o)
 .debug_ranges  0x0000000000000000      0x240 C:/Users/RNG/Desktop/Stuff/Smash-Stuff/SMASH-ULTIMATE-MODS-BABY/50xx-the-mod/acmd-edits/code-mod-framework/lib/libnx_min/nx/lib\libnx_min.a(fatal.o)
 .debug_line    0x0000000000000000      0x5c9 C:/Users/RNG/Desktop/Stuff/Smash-Stuff/SMASH-ULTIMATE-MODS-BABY/50xx-the-mod/acmd-edits/code-mod-framework/lib/libnx_min/nx/lib\libnx_min.a(fatal.o)
 .debug_str     0x0000000000000000      0x763 C:/Users/RNG/Desktop/Stuff/Smash-Stuff/SMASH-ULTIMATE-MODS-BABY/50xx-the-mod/acmd-edits/code-mod-framework/lib/libnx_min/nx/lib\libnx_min.a(fatal.o)
 .comment       0x0000000000000000       0x23 C:/Users/RNG/Desktop/Stuff/Smash-Stuff/SMASH-ULTIMATE-MODS-BABY/50xx-the-mod/acmd-edits/code-mod-framework/lib/libnx_min/nx/lib\libnx_min.a(fatal.o)
 .text          0x0000000000000000        0x0 C:/Users/RNG/Desktop/Stuff/Smash-Stuff/SMASH-ULTIMATE-MODS-BABY/50xx-the-mod/acmd-edits/code-mod-framework/lib/libnx_min/nx/lib\libnx_min.a(sm.o)
 .data          0x0000000000000000        0x0 C:/Users/RNG/Desktop/Stuff/Smash-Stuff/SMASH-ULTIMATE-MODS-BABY/50xx-the-mod/acmd-edits/code-mod-framework/lib/libnx_min/nx/lib\libnx_min.a(sm.o)
 .bss           0x0000000000000000        0x0 C:/Users/RNG/Desktop/Stuff/Smash-Stuff/SMASH-ULTIMATE-MODS-BABY/50xx-the-mod/acmd-edits/code-mod-framework/lib/libnx_min/nx/lib\libnx_min.a(sm.o)
 .debug_info    0x0000000000000000     0x34eb C:/Users/RNG/Desktop/Stuff/Smash-Stuff/SMASH-ULTIMATE-MODS-BABY/50xx-the-mod/acmd-edits/code-mod-framework/lib/libnx_min/nx/lib\libnx_min.a(sm.o)
 .debug_abbrev  0x0000000000000000      0x4c4 C:/Users/RNG/Desktop/Stuff/Smash-Stuff/SMASH-ULTIMATE-MODS-BABY/50xx-the-mod/acmd-edits/code-mod-framework/lib/libnx_min/nx/lib\libnx_min.a(sm.o)
 .debug_loc     0x0000000000000000     0x5a55 C:/Users/RNG/Desktop/Stuff/Smash-Stuff/SMASH-ULTIMATE-MODS-BABY/50xx-the-mod/acmd-edits/code-mod-framework/lib/libnx_min/nx/lib\libnx_min.a(sm.o)
 .debug_aranges
                0x0000000000000000       0xe0 C:/Users/RNG/Desktop/Stuff/Smash-Stuff/SMASH-ULTIMATE-MODS-BABY/50xx-the-mod/acmd-edits/code-mod-framework/lib/libnx_min/nx/lib\libnx_min.a(sm.o)
 .debug_ranges  0x0000000000000000     0x1160 C:/Users/RNG/Desktop/Stuff/Smash-Stuff/SMASH-ULTIMATE-MODS-BABY/50xx-the-mod/acmd-edits/code-mod-framework/lib/libnx_min/nx/lib\libnx_min.a(sm.o)
 .debug_line    0x0000000000000000     0x175a C:/Users/RNG/Desktop/Stuff/Smash-Stuff/SMASH-ULTIMATE-MODS-BABY/50xx-the-mod/acmd-edits/code-mod-framework/lib/libnx_min/nx/lib\libnx_min.a(sm.o)
 .debug_str     0x0000000000000000     0x150b C:/Users/RNG/Desktop/Stuff/Smash-Stuff/SMASH-ULTIMATE-MODS-BABY/50xx-the-mod/acmd-edits/code-mod-framework/lib/libnx_min/nx/lib\libnx_min.a(sm.o)
 .comment       0x0000000000000000       0x23 C:/Users/RNG/Desktop/Stuff/Smash-Stuff/SMASH-ULTIMATE-MODS-BABY/50xx-the-mod/acmd-edits/code-mod-framework/lib/libnx_min/nx/lib\libnx_min.a(sm.o)
 .text          0x0000000000000000        0x0 C:/Users/RNG/Desktop/Stuff/Smash-Stuff/SMASH-ULTIMATE-MODS-BABY/50xx-the-mod/acmd-edits/code-mod-framework/lib/libnx_min/nx/lib\libnx_min.a(hid.o)
 .data          0x0000000000000000        0x0 C:/Users/RNG/Desktop/Stuff/Smash-Stuff/SMASH-ULTIMATE-MODS-BABY/50xx-the-mod/acmd-edits/code-mod-framework/lib/libnx_min/nx/lib\libnx_min.a(hid.o)
 .bss           0x0000000000000000        0x0 C:/Users/RNG/Desktop/Stuff/Smash-Stuff/SMASH-ULTIMATE-MODS-BABY/50xx-the-mod/acmd-edits/code-mod-framework/lib/libnx_min/nx/lib\libnx_min.a(hid.o)
 .debug_info    0x0000000000000000     0xb19f C:/Users/RNG/Desktop/Stuff/Smash-Stuff/SMASH-ULTIMATE-MODS-BABY/50xx-the-mod/acmd-edits/code-mod-framework/lib/libnx_min/nx/lib\libnx_min.a(hid.o)
 .debug_abbrev  0x0000000000000000      0x743 C:/Users/RNG/Desktop/Stuff/Smash-Stuff/SMASH-ULTIMATE-MODS-BABY/50xx-the-mod/acmd-edits/code-mod-framework/lib/libnx_min/nx/lib\libnx_min.a(hid.o)
 .debug_loc     0x0000000000000000    0x1192e C:/Users/RNG/Desktop/Stuff/Smash-Stuff/SMASH-ULTIMATE-MODS-BABY/50xx-the-mod/acmd-edits/code-mod-framework/lib/libnx_min/nx/lib\libnx_min.a(hid.o)
 .debug_aranges
                0x0000000000000000      0x450 C:/Users/RNG/Desktop/Stuff/Smash-Stuff/SMASH-ULTIMATE-MODS-BABY/50xx-the-mod/acmd-edits/code-mod-framework/lib/libnx_min/nx/lib\libnx_min.a(hid.o)
 .debug_ranges  0x0000000000000000     0x3140 C:/Users/RNG/Desktop/Stuff/Smash-Stuff/SMASH-ULTIMATE-MODS-BABY/50xx-the-mod/acmd-edits/code-mod-framework/lib/libnx_min/nx/lib\libnx_min.a(hid.o)
 .debug_line    0x0000000000000000     0x5037 C:/Users/RNG/Desktop/Stuff/Smash-Stuff/SMASH-ULTIMATE-MODS-BABY/50xx-the-mod/acmd-edits/code-mod-framework/lib/libnx_min/nx/lib\libnx_min.a(hid.o)
 .debug_str     0x0000000000000000     0x338c C:/Users/RNG/Desktop/Stuff/Smash-Stuff/SMASH-ULTIMATE-MODS-BABY/50xx-the-mod/acmd-edits/code-mod-framework/lib/libnx_min/nx/lib\libnx_min.a(hid.o)
 .comment       0x0000000000000000       0x23 C:/Users/RNG/Desktop/Stuff/Smash-Stuff/SMASH-ULTIMATE-MODS-BABY/50xx-the-mod/acmd-edits/code-mod-framework/lib/libnx_min/nx/lib\libnx_min.a(hid.o)
 .text          0x0000000000000000        0x0 C:/Users/RNG/Desktop/Stuff/Smash-Stuff/SMASH-ULTIMATE-MODS-BABY/50xx-the-mod/acmd-edits/code-mod-framework/lib/libnx_min/nx/lib\libnx_min.a(time.o)
 .data          0x0000000000000000        0x0 C:/Users/RNG/Desktop/Stuff/Smash-Stuff/SMASH-ULTIMATE-MODS-BABY/50xx-the-mod/acmd-edits/code-mod-framework/lib/libnx_min/nx/lib\libnx_min.a(time.o)
 .bss           0x0000000000000000        0x0 C:/Users/RNG/Desktop/Stuff/Smash-Stuff/SMASH-ULTIMATE-MODS-BABY/50xx-the-mod/acmd-edits/code-mod-framework/lib/libnx_min/nx/lib\libnx_min.a(time.o)
 .debug_info    0x0000000000000000     0x2f93 C:/Users/RNG/Desktop/Stuff/Smash-Stuff/SMASH-ULTIMATE-MODS-BABY/50xx-the-mod/acmd-edits/code-mod-framework/lib/libnx_min/nx/lib\libnx_min.a(time.o)
 .debug_abbrev  0x0000000000000000      0x544 C:/Users/RNG/Desktop/Stuff/Smash-Stuff/SMASH-ULTIMATE-MODS-BABY/50xx-the-mod/acmd-edits/code-mod-framework/lib/libnx_min/nx/lib\libnx_min.a(time.o)
 .debug_loc     0x0000000000000000     0x36b5 C:/Users/RNG/Desktop/Stuff/Smash-Stuff/SMASH-ULTIMATE-MODS-BABY/50xx-the-mod/acmd-edits/code-mod-framework/lib/libnx_min/nx/lib\libnx_min.a(time.o)
 .debug_aranges
                0x0000000000000000       0xa0 C:/Users/RNG/Desktop/Stuff/Smash-Stuff/SMASH-ULTIMATE-MODS-BABY/50xx-the-mod/acmd-edits/code-mod-framework/lib/libnx_min/nx/lib\libnx_min.a(time.o)
 .debug_ranges  0x0000000000000000      0xa70 C:/Users/RNG/Desktop/Stuff/Smash-Stuff/SMASH-ULTIMATE-MODS-BABY/50xx-the-mod/acmd-edits/code-mod-framework/lib/libnx_min/nx/lib\libnx_min.a(time.o)
 .debug_line    0x0000000000000000     0x10ba C:/Users/RNG/Desktop/Stuff/Smash-Stuff/SMASH-ULTIMATE-MODS-BABY/50xx-the-mod/acmd-edits/code-mod-framework/lib/libnx_min/nx/lib\libnx_min.a(time.o)
 .debug_str     0x0000000000000000     0x151b C:/Users/RNG/Desktop/Stuff/Smash-Stuff/SMASH-ULTIMATE-MODS-BABY/50xx-the-mod/acmd-edits/code-mod-framework/lib/libnx_min/nx/lib\libnx_min.a(time.o)
 .comment       0x0000000000000000       0x23 C:/Users/RNG/Desktop/Stuff/Smash-Stuff/SMASH-ULTIMATE-MODS-BABY/50xx-the-mod/acmd-edits/code-mod-framework/lib/libnx_min/nx/lib\libnx_min.a(time.o)
 .text          0x0000000000000000        0x0 C:/Users/RNG/Desktop/Stuff/Smash-Stuff/SMASH-ULTIMATE-MODS-BABY/50xx-the-mod/acmd-edits/code-mod-framework/lib/libnx_min/nx/lib\libnx_min.a(applet.o)
 .data          0x0000000000000000        0x0 C:/Users/RNG/Desktop/Stuff/Smash-Stuff/SMASH-ULTIMATE-MODS-BABY/50xx-the-mod/acmd-edits/code-mod-framework/lib/libnx_min/nx/lib\libnx_min.a(applet.o)
 .bss           0x0000000000000000        0x0 C:/Users/RNG/Desktop/Stuff/Smash-Stuff/SMASH-ULTIMATE-MODS-BABY/50xx-the-mod/acmd-edits/code-mod-framework/lib/libnx_min/nx/lib\libnx_min.a(applet.o)
 .data.__nx_applet_type
                0x0000000000000000        0x4 C:/Users/RNG/Desktop/Stuff/Smash-Stuff/SMASH-ULTIMATE-MODS-BABY/50xx-the-mod/acmd-edits/code-mod-framework/lib/libnx_min/nx/lib\libnx_min.a(applet.o)
 .debug_info    0x0000000000000000    0x1572b C:/Users/RNG/Desktop/Stuff/Smash-Stuff/SMASH-ULTIMATE-MODS-BABY/50xx-the-mod/acmd-edits/code-mod-framework/lib/libnx_min/nx/lib\libnx_min.a(applet.o)
 .debug_abbrev  0x0000000000000000      0x76e C:/Users/RNG/Desktop/Stuff/Smash-Stuff/SMASH-ULTIMATE-MODS-BABY/50xx-the-mod/acmd-edits/code-mod-framework/lib/libnx_min/nx/lib\libnx_min.a(applet.o)
 .debug_loc     0x0000000000000000    0x20f04 C:/Users/RNG/Desktop/Stuff/Smash-Stuff/SMASH-ULTIMATE-MODS-BABY/50xx-the-mod/acmd-edits/code-mod-framework/lib/libnx_min/nx/lib\libnx_min.a(applet.o)
 .debug_aranges
                0x0000000000000000      0x730 C:/Users/RNG/Desktop/Stuff/Smash-Stuff/SMASH-ULTIMATE-MODS-BABY/50xx-the-mod/acmd-edits/code-mod-framework/lib/libnx_min/nx/lib\libnx_min.a(applet.o)
 .debug_ranges  0x0000000000000000     0x8b40 C:/Users/RNG/Desktop/Stuff/Smash-Stuff/SMASH-ULTIMATE-MODS-BABY/50xx-the-mod/acmd-edits/code-mod-framework/lib/libnx_min/nx/lib\libnx_min.a(applet.o)
 .debug_line    0x0000000000000000     0xadb0 C:/Users/RNG/Desktop/Stuff/Smash-Stuff/SMASH-ULTIMATE-MODS-BABY/50xx-the-mod/acmd-edits/code-mod-framework/lib/libnx_min/nx/lib\libnx_min.a(applet.o)
 .debug_str     0x0000000000000000     0x30c0 C:/Users/RNG/Desktop/Stuff/Smash-Stuff/SMASH-ULTIMATE-MODS-BABY/50xx-the-mod/acmd-edits/code-mod-framework/lib/libnx_min/nx/lib\libnx_min.a(applet.o)
 .comment       0x0000000000000000       0x23 C:/Users/RNG/Desktop/Stuff/Smash-Stuff/SMASH-ULTIMATE-MODS-BABY/50xx-the-mod/acmd-edits/code-mod-framework/lib/libnx_min/nx/lib\libnx_min.a(applet.o)
 .text          0x0000000000000000        0x0 C:/Users/RNG/Desktop/Stuff/Smash-Stuff/SMASH-ULTIMATE-MODS-BABY/50xx-the-mod/acmd-edits/code-mod-framework/lib/libnx_min/nx/lib\libnx_min.a(newlib.o)
 .data          0x0000000000000000        0x0 C:/Users/RNG/Desktop/Stuff/Smash-Stuff/SMASH-ULTIMATE-MODS-BABY/50xx-the-mod/acmd-edits/code-mod-framework/lib/libnx_min/nx/lib\libnx_min.a(newlib.o)
 .bss           0x0000000000000000        0x0 C:/Users/RNG/Desktop/Stuff/Smash-Stuff/SMASH-ULTIMATE-MODS-BABY/50xx-the-mod/acmd-edits/code-mod-framework/lib/libnx_min/nx/lib\libnx_min.a(newlib.o)
 .debug_info    0x0000000000000000     0x2bc2 C:/Users/RNG/Desktop/Stuff/Smash-Stuff/SMASH-ULTIMATE-MODS-BABY/50xx-the-mod/acmd-edits/code-mod-framework/lib/libnx_min/nx/lib\libnx_min.a(newlib.o)
 .debug_abbrev  0x0000000000000000      0x571 C:/Users/RNG/Desktop/Stuff/Smash-Stuff/SMASH-ULTIMATE-MODS-BABY/50xx-the-mod/acmd-edits/code-mod-framework/lib/libnx_min/nx/lib\libnx_min.a(newlib.o)
 .debug_loc     0x0000000000000000     0x192e C:/Users/RNG/Desktop/Stuff/Smash-Stuff/SMASH-ULTIMATE-MODS-BABY/50xx-the-mod/acmd-edits/code-mod-framework/lib/libnx_min/nx/lib\libnx_min.a(newlib.o)
 .debug_aranges
                0x0000000000000000      0x1f0 C:/Users/RNG/Desktop/Stuff/Smash-Stuff/SMASH-ULTIMATE-MODS-BABY/50xx-the-mod/acmd-edits/code-mod-framework/lib/libnx_min/nx/lib\libnx_min.a(newlib.o)
 .debug_ranges  0x0000000000000000      0x4e0 C:/Users/RNG/Desktop/Stuff/Smash-Stuff/SMASH-ULTIMATE-MODS-BABY/50xx-the-mod/acmd-edits/code-mod-framework/lib/libnx_min/nx/lib\libnx_min.a(newlib.o)
 .debug_line    0x0000000000000000     0x10e9 C:/Users/RNG/Desktop/Stuff/Smash-Stuff/SMASH-ULTIMATE-MODS-BABY/50xx-the-mod/acmd-edits/code-mod-framework/lib/libnx_min/nx/lib\libnx_min.a(newlib.o)
 .debug_str     0x0000000000000000     0x18ae C:/Users/RNG/Desktop/Stuff/Smash-Stuff/SMASH-ULTIMATE-MODS-BABY/50xx-the-mod/acmd-edits/code-mod-framework/lib/libnx_min/nx/lib\libnx_min.a(newlib.o)
 .comment       0x0000000000000000       0x23 C:/Users/RNG/Desktop/Stuff/Smash-Stuff/SMASH-ULTIMATE-MODS-BABY/50xx-the-mod/acmd-edits/code-mod-framework/lib/libnx_min/nx/lib\libnx_min.a(newlib.o)
 .text          0x0000000000000000        0x0 C:/Users/RNG/Desktop/Stuff/Smash-Stuff/SMASH-ULTIMATE-MODS-BABY/50xx-the-mod/acmd-edits/code-mod-framework/lib/libnx_min/nx/lib\libnx_min.a(thread.o)
 .data          0x0000000000000000        0x0 C:/Users/RNG/Desktop/Stuff/Smash-Stuff/SMASH-ULTIMATE-MODS-BABY/50xx-the-mod/acmd-edits/code-mod-framework/lib/libnx_min/nx/lib\libnx_min.a(thread.o)
 .bss           0x0000000000000000        0x0 C:/Users/RNG/Desktop/Stuff/Smash-Stuff/SMASH-ULTIMATE-MODS-BABY/50xx-the-mod/acmd-edits/code-mod-framework/lib/libnx_min/nx/lib\libnx_min.a(thread.o)
 .debug_info    0x0000000000000000     0x1a68 C:/Users/RNG/Desktop/Stuff/Smash-Stuff/SMASH-ULTIMATE-MODS-BABY/50xx-the-mod/acmd-edits/code-mod-framework/lib/libnx_min/nx/lib\libnx_min.a(thread.o)
 .debug_abbrev  0x0000000000000000      0x492 C:/Users/RNG/Desktop/Stuff/Smash-Stuff/SMASH-ULTIMATE-MODS-BABY/50xx-the-mod/acmd-edits/code-mod-framework/lib/libnx_min/nx/lib\libnx_min.a(thread.o)
 .debug_loc     0x0000000000000000      0xbd2 C:/Users/RNG/Desktop/Stuff/Smash-Stuff/SMASH-ULTIMATE-MODS-BABY/50xx-the-mod/acmd-edits/code-mod-framework/lib/libnx_min/nx/lib\libnx_min.a(thread.o)
 .debug_aranges
                0x0000000000000000      0x100 C:/Users/RNG/Desktop/Stuff/Smash-Stuff/SMASH-ULTIMATE-MODS-BABY/50xx-the-mod/acmd-edits/code-mod-framework/lib/libnx_min/nx/lib\libnx_min.a(thread.o)
 .debug_ranges  0x0000000000000000      0x320 C:/Users/RNG/Desktop/Stuff/Smash-Stuff/SMASH-ULTIMATE-MODS-BABY/50xx-the-mod/acmd-edits/code-mod-framework/lib/libnx_min/nx/lib\libnx_min.a(thread.o)
 .debug_line    0x0000000000000000      0xa2c C:/Users/RNG/Desktop/Stuff/Smash-Stuff/SMASH-ULTIMATE-MODS-BABY/50xx-the-mod/acmd-edits/code-mod-framework/lib/libnx_min/nx/lib\libnx_min.a(thread.o)
 .debug_str     0x0000000000000000      0xfee C:/Users/RNG/Desktop/Stuff/Smash-Stuff/SMASH-ULTIMATE-MODS-BABY/50xx-the-mod/acmd-edits/code-mod-framework/lib/libnx_min/nx/lib\libnx_min.a(thread.o)
 .comment       0x0000000000000000       0x23 C:/Users/RNG/Desktop/Stuff/Smash-Stuff/SMASH-ULTIMATE-MODS-BABY/50xx-the-mod/acmd-edits/code-mod-framework/lib/libnx_min/nx/lib\libnx_min.a(thread.o)
 .text          0x0000000000000000        0x0 C:/Users/RNG/Desktop/Stuff/Smash-Stuff/SMASH-ULTIMATE-MODS-BABY/50xx-the-mod/acmd-edits/code-mod-framework/lib/libnx_min/nx/lib\libnx_min.a(condvar.o)
 .data          0x0000000000000000        0x0 C:/Users/RNG/Desktop/Stuff/Smash-Stuff/SMASH-ULTIMATE-MODS-BABY/50xx-the-mod/acmd-edits/code-mod-framework/lib/libnx_min/nx/lib\libnx_min.a(condvar.o)
 .bss           0x0000000000000000        0x0 C:/Users/RNG/Desktop/Stuff/Smash-Stuff/SMASH-ULTIMATE-MODS-BABY/50xx-the-mod/acmd-edits/code-mod-framework/lib/libnx_min/nx/lib\libnx_min.a(condvar.o)
 .debug_info    0x0000000000000000      0x396 C:/Users/RNG/Desktop/Stuff/Smash-Stuff/SMASH-ULTIMATE-MODS-BABY/50xx-the-mod/acmd-edits/code-mod-framework/lib/libnx_min/nx/lib\libnx_min.a(condvar.o)
 .debug_abbrev  0x0000000000000000      0x1aa C:/Users/RNG/Desktop/Stuff/Smash-Stuff/SMASH-ULTIMATE-MODS-BABY/50xx-the-mod/acmd-edits/code-mod-framework/lib/libnx_min/nx/lib\libnx_min.a(condvar.o)
 .debug_loc     0x0000000000000000      0x1c1 C:/Users/RNG/Desktop/Stuff/Smash-Stuff/SMASH-ULTIMATE-MODS-BABY/50xx-the-mod/acmd-edits/code-mod-framework/lib/libnx_min/nx/lib\libnx_min.a(condvar.o)
 .debug_aranges
                0x0000000000000000       0x30 C:/Users/RNG/Desktop/Stuff/Smash-Stuff/SMASH-ULTIMATE-MODS-BABY/50xx-the-mod/acmd-edits/code-mod-framework/lib/libnx_min/nx/lib\libnx_min.a(condvar.o)
 .debug_ranges  0x0000000000000000       0x60 C:/Users/RNG/Desktop/Stuff/Smash-Stuff/SMASH-ULTIMATE-MODS-BABY/50xx-the-mod/acmd-edits/code-mod-framework/lib/libnx_min/nx/lib\libnx_min.a(condvar.o)
 .debug_line    0x0000000000000000      0x398 C:/Users/RNG/Desktop/Stuff/Smash-Stuff/SMASH-ULTIMATE-MODS-BABY/50xx-the-mod/acmd-edits/code-mod-framework/lib/libnx_min/nx/lib\libnx_min.a(condvar.o)
 .debug_str     0x0000000000000000      0x350 C:/Users/RNG/Desktop/Stuff/Smash-Stuff/SMASH-ULTIMATE-MODS-BABY/50xx-the-mod/acmd-edits/code-mod-framework/lib/libnx_min/nx/lib\libnx_min.a(condvar.o)
 .comment       0x0000000000000000       0x23 C:/Users/RNG/Desktop/Stuff/Smash-Stuff/SMASH-ULTIMATE-MODS-BABY/50xx-the-mod/acmd-edits/code-mod-framework/lib/libnx_min/nx/lib\libnx_min.a(condvar.o)
 .text          0x0000000000000000        0x0 C:/Users/RNG/Desktop/Stuff/Smash-Stuff/SMASH-ULTIMATE-MODS-BABY/50xx-the-mod/acmd-edits/code-mod-framework/lib/libnx_min/nx/lib\libnx_min.a(event.o)
 .data          0x0000000000000000        0x0 C:/Users/RNG/Desktop/Stuff/Smash-Stuff/SMASH-ULTIMATE-MODS-BABY/50xx-the-mod/acmd-edits/code-mod-framework/lib/libnx_min/nx/lib\libnx_min.a(event.o)
 .bss           0x0000000000000000        0x0 C:/Users/RNG/Desktop/Stuff/Smash-Stuff/SMASH-ULTIMATE-MODS-BABY/50xx-the-mod/acmd-edits/code-mod-framework/lib/libnx_min/nx/lib\libnx_min.a(event.o)
 .debug_info    0x0000000000000000      0x702 C:/Users/RNG/Desktop/Stuff/Smash-Stuff/SMASH-ULTIMATE-MODS-BABY/50xx-the-mod/acmd-edits/code-mod-framework/lib/libnx_min/nx/lib\libnx_min.a(event.o)
 .debug_abbrev  0x0000000000000000      0x28b C:/Users/RNG/Desktop/Stuff/Smash-Stuff/SMASH-ULTIMATE-MODS-BABY/50xx-the-mod/acmd-edits/code-mod-framework/lib/libnx_min/nx/lib\libnx_min.a(event.o)
 .debug_loc     0x0000000000000000      0x2e3 C:/Users/RNG/Desktop/Stuff/Smash-Stuff/SMASH-ULTIMATE-MODS-BABY/50xx-the-mod/acmd-edits/code-mod-framework/lib/libnx_min/nx/lib\libnx_min.a(event.o)
 .debug_aranges
                0x0000000000000000       0x80 C:/Users/RNG/Desktop/Stuff/Smash-Stuff/SMASH-ULTIMATE-MODS-BABY/50xx-the-mod/acmd-edits/code-mod-framework/lib/libnx_min/nx/lib\libnx_min.a(event.o)
 .debug_ranges  0x0000000000000000       0xe0 C:/Users/RNG/Desktop/Stuff/Smash-Stuff/SMASH-ULTIMATE-MODS-BABY/50xx-the-mod/acmd-edits/code-mod-framework/lib/libnx_min/nx/lib\libnx_min.a(event.o)
 .debug_line    0x0000000000000000      0x3a9 C:/Users/RNG/Desktop/Stuff/Smash-Stuff/SMASH-ULTIMATE-MODS-BABY/50xx-the-mod/acmd-edits/code-mod-framework/lib/libnx_min/nx/lib\libnx_min.a(event.o)
 .debug_str     0x0000000000000000      0x950 C:/Users/RNG/Desktop/Stuff/Smash-Stuff/SMASH-ULTIMATE-MODS-BABY/50xx-the-mod/acmd-edits/code-mod-framework/lib/libnx_min/nx/lib\libnx_min.a(event.o)
 .comment       0x0000000000000000       0x23 C:/Users/RNG/Desktop/Stuff/Smash-Stuff/SMASH-ULTIMATE-MODS-BABY/50xx-the-mod/acmd-edits/code-mod-framework/lib/libnx_min/nx/lib\libnx_min.a(event.o)
 .text          0x0000000000000000        0x0 C:/Users/RNG/Desktop/Stuff/Smash-Stuff/SMASH-ULTIMATE-MODS-BABY/50xx-the-mod/acmd-edits/code-mod-framework/lib/libnx_min/nx/lib\libnx_min.a(tmem.o)
 .data          0x0000000000000000        0x0 C:/Users/RNG/Desktop/Stuff/Smash-Stuff/SMASH-ULTIMATE-MODS-BABY/50xx-the-mod/acmd-edits/code-mod-framework/lib/libnx_min/nx/lib\libnx_min.a(tmem.o)
 .bss           0x0000000000000000        0x0 C:/Users/RNG/Desktop/Stuff/Smash-Stuff/SMASH-ULTIMATE-MODS-BABY/50xx-the-mod/acmd-edits/code-mod-framework/lib/libnx_min/nx/lib\libnx_min.a(tmem.o)
 .debug_info    0x0000000000000000     0x100a C:/Users/RNG/Desktop/Stuff/Smash-Stuff/SMASH-ULTIMATE-MODS-BABY/50xx-the-mod/acmd-edits/code-mod-framework/lib/libnx_min/nx/lib\libnx_min.a(tmem.o)
 .debug_abbrev  0x0000000000000000      0x3a2 C:/Users/RNG/Desktop/Stuff/Smash-Stuff/SMASH-ULTIMATE-MODS-BABY/50xx-the-mod/acmd-edits/code-mod-framework/lib/libnx_min/nx/lib\libnx_min.a(tmem.o)
 .debug_loc     0x0000000000000000      0x6e2 C:/Users/RNG/Desktop/Stuff/Smash-Stuff/SMASH-ULTIMATE-MODS-BABY/50xx-the-mod/acmd-edits/code-mod-framework/lib/libnx_min/nx/lib\libnx_min.a(tmem.o)
 .debug_aranges
                0x0000000000000000       0x80 C:/Users/RNG/Desktop/Stuff/Smash-Stuff/SMASH-ULTIMATE-MODS-BABY/50xx-the-mod/acmd-edits/code-mod-framework/lib/libnx_min/nx/lib\libnx_min.a(tmem.o)
 .debug_ranges  0x0000000000000000       0xf0 C:/Users/RNG/Desktop/Stuff/Smash-Stuff/SMASH-ULTIMATE-MODS-BABY/50xx-the-mod/acmd-edits/code-mod-framework/lib/libnx_min/nx/lib\libnx_min.a(tmem.o)
 .debug_line    0x0000000000000000      0x507 C:/Users/RNG/Desktop/Stuff/Smash-Stuff/SMASH-ULTIMATE-MODS-BABY/50xx-the-mod/acmd-edits/code-mod-framework/lib/libnx_min/nx/lib\libnx_min.a(tmem.o)
 .debug_str     0x0000000000000000      0xd4f C:/Users/RNG/Desktop/Stuff/Smash-Stuff/SMASH-ULTIMATE-MODS-BABY/50xx-the-mod/acmd-edits/code-mod-framework/lib/libnx_min/nx/lib\libnx_min.a(tmem.o)
 .comment       0x0000000000000000       0x23 C:/Users/RNG/Desktop/Stuff/Smash-Stuff/SMASH-ULTIMATE-MODS-BABY/50xx-the-mod/acmd-edits/code-mod-framework/lib/libnx_min/nx/lib\libnx_min.a(tmem.o)
 .text          0x0000000000000000        0x0 C:/Users/RNG/Desktop/Stuff/Smash-Stuff/SMASH-ULTIMATE-MODS-BABY/50xx-the-mod/acmd-edits/code-mod-framework/lib/libnx_min/nx/lib\libnx_min.a(rwlock.o)
 .data          0x0000000000000000        0x0 C:/Users/RNG/Desktop/Stuff/Smash-Stuff/SMASH-ULTIMATE-MODS-BABY/50xx-the-mod/acmd-edits/code-mod-framework/lib/libnx_min/nx/lib\libnx_min.a(rwlock.o)
 .bss           0x0000000000000000        0x0 C:/Users/RNG/Desktop/Stuff/Smash-Stuff/SMASH-ULTIMATE-MODS-BABY/50xx-the-mod/acmd-edits/code-mod-framework/lib/libnx_min/nx/lib\libnx_min.a(rwlock.o)
 .debug_info    0x0000000000000000      0x659 C:/Users/RNG/Desktop/Stuff/Smash-Stuff/SMASH-ULTIMATE-MODS-BABY/50xx-the-mod/acmd-edits/code-mod-framework/lib/libnx_min/nx/lib\libnx_min.a(rwlock.o)
 .debug_abbrev  0x0000000000000000      0x1cc C:/Users/RNG/Desktop/Stuff/Smash-Stuff/SMASH-ULTIMATE-MODS-BABY/50xx-the-mod/acmd-edits/code-mod-framework/lib/libnx_min/nx/lib\libnx_min.a(rwlock.o)
 .debug_loc     0x0000000000000000      0x4ab C:/Users/RNG/Desktop/Stuff/Smash-Stuff/SMASH-ULTIMATE-MODS-BABY/50xx-the-mod/acmd-edits/code-mod-framework/lib/libnx_min/nx/lib\libnx_min.a(rwlock.o)
 .debug_aranges
                0x0000000000000000       0x70 C:/Users/RNG/Desktop/Stuff/Smash-Stuff/SMASH-ULTIMATE-MODS-BABY/50xx-the-mod/acmd-edits/code-mod-framework/lib/libnx_min/nx/lib\libnx_min.a(rwlock.o)
 .debug_ranges  0x0000000000000000      0x130 C:/Users/RNG/Desktop/Stuff/Smash-Stuff/SMASH-ULTIMATE-MODS-BABY/50xx-the-mod/acmd-edits/code-mod-framework/lib/libnx_min/nx/lib\libnx_min.a(rwlock.o)
 .debug_line    0x0000000000000000      0x3eb C:/Users/RNG/Desktop/Stuff/Smash-Stuff/SMASH-ULTIMATE-MODS-BABY/50xx-the-mod/acmd-edits/code-mod-framework/lib/libnx_min/nx/lib\libnx_min.a(rwlock.o)
 .debug_str     0x0000000000000000      0x346 C:/Users/RNG/Desktop/Stuff/Smash-Stuff/SMASH-ULTIMATE-MODS-BABY/50xx-the-mod/acmd-edits/code-mod-framework/lib/libnx_min/nx/lib\libnx_min.a(rwlock.o)
 .comment       0x0000000000000000       0x23 C:/Users/RNG/Desktop/Stuff/Smash-Stuff/SMASH-ULTIMATE-MODS-BABY/50xx-the-mod/acmd-edits/code-mod-framework/lib/libnx_min/nx/lib\libnx_min.a(rwlock.o)
 .text          0x0000000000000000        0x0 C:/Users/RNG/Desktop/Stuff/Smash-Stuff/SMASH-ULTIMATE-MODS-BABY/50xx-the-mod/acmd-edits/code-mod-framework/lib/libnx_min/nx/lib\libnx_min.a(wait.o)
 .data          0x0000000000000000        0x0 C:/Users/RNG/Desktop/Stuff/Smash-Stuff/SMASH-ULTIMATE-MODS-BABY/50xx-the-mod/acmd-edits/code-mod-framework/lib/libnx_min/nx/lib\libnx_min.a(wait.o)
 .bss           0x0000000000000000        0x0 C:/Users/RNG/Desktop/Stuff/Smash-Stuff/SMASH-ULTIMATE-MODS-BABY/50xx-the-mod/acmd-edits/code-mod-framework/lib/libnx_min/nx/lib\libnx_min.a(wait.o)
 .debug_info    0x0000000000000000      0xe46 C:/Users/RNG/Desktop/Stuff/Smash-Stuff/SMASH-ULTIMATE-MODS-BABY/50xx-the-mod/acmd-edits/code-mod-framework/lib/libnx_min/nx/lib\libnx_min.a(wait.o)
 .debug_abbrev  0x0000000000000000      0x35d C:/Users/RNG/Desktop/Stuff/Smash-Stuff/SMASH-ULTIMATE-MODS-BABY/50xx-the-mod/acmd-edits/code-mod-framework/lib/libnx_min/nx/lib\libnx_min.a(wait.o)
 .debug_loc     0x0000000000000000      0xeb6 C:/Users/RNG/Desktop/Stuff/Smash-Stuff/SMASH-ULTIMATE-MODS-BABY/50xx-the-mod/acmd-edits/code-mod-framework/lib/libnx_min/nx/lib\libnx_min.a(wait.o)
 .debug_aranges
                0x0000000000000000       0x60 C:/Users/RNG/Desktop/Stuff/Smash-Stuff/SMASH-ULTIMATE-MODS-BABY/50xx-the-mod/acmd-edits/code-mod-framework/lib/libnx_min/nx/lib\libnx_min.a(wait.o)
 .debug_ranges  0x0000000000000000      0x290 C:/Users/RNG/Desktop/Stuff/Smash-Stuff/SMASH-ULTIMATE-MODS-BABY/50xx-the-mod/acmd-edits/code-mod-framework/lib/libnx_min/nx/lib\libnx_min.a(wait.o)
 .debug_line    0x0000000000000000      0x7bb C:/Users/RNG/Desktop/Stuff/Smash-Stuff/SMASH-ULTIMATE-MODS-BABY/50xx-the-mod/acmd-edits/code-mod-framework/lib/libnx_min/nx/lib\libnx_min.a(wait.o)
 .debug_str     0x0000000000000000      0xa07 C:/Users/RNG/Desktop/Stuff/Smash-Stuff/SMASH-ULTIMATE-MODS-BABY/50xx-the-mod/acmd-edits/code-mod-framework/lib/libnx_min/nx/lib\libnx_min.a(wait.o)
 .comment       0x0000000000000000       0x23 C:/Users/RNG/Desktop/Stuff/Smash-Stuff/SMASH-ULTIMATE-MODS-BABY/50xx-the-mod/acmd-edits/code-mod-framework/lib/libnx_min/nx/lib\libnx_min.a(wait.o)
 .text          0x0000000000000000        0x0 C:/Users/RNG/Desktop/Stuff/Smash-Stuff/SMASH-ULTIMATE-MODS-BABY/50xx-the-mod/acmd-edits/code-mod-framework/lib/libnx_min/nx/lib\libnx_min.a(shmem.o)
 .data          0x0000000000000000        0x0 C:/Users/RNG/Desktop/Stuff/Smash-Stuff/SMASH-ULTIMATE-MODS-BABY/50xx-the-mod/acmd-edits/code-mod-framework/lib/libnx_min/nx/lib\libnx_min.a(shmem.o)
 .bss           0x0000000000000000        0x0 C:/Users/RNG/Desktop/Stuff/Smash-Stuff/SMASH-ULTIMATE-MODS-BABY/50xx-the-mod/acmd-edits/code-mod-framework/lib/libnx_min/nx/lib\libnx_min.a(shmem.o)
 .debug_info    0x0000000000000000      0xe91 C:/Users/RNG/Desktop/Stuff/Smash-Stuff/SMASH-ULTIMATE-MODS-BABY/50xx-the-mod/acmd-edits/code-mod-framework/lib/libnx_min/nx/lib\libnx_min.a(shmem.o)
 .debug_abbrev  0x0000000000000000      0x377 C:/Users/RNG/Desktop/Stuff/Smash-Stuff/SMASH-ULTIMATE-MODS-BABY/50xx-the-mod/acmd-edits/code-mod-framework/lib/libnx_min/nx/lib\libnx_min.a(shmem.o)
 .debug_loc     0x0000000000000000      0x442 C:/Users/RNG/Desktop/Stuff/Smash-Stuff/SMASH-ULTIMATE-MODS-BABY/50xx-the-mod/acmd-edits/code-mod-framework/lib/libnx_min/nx/lib\libnx_min.a(shmem.o)
 .debug_aranges
                0x0000000000000000       0x70 C:/Users/RNG/Desktop/Stuff/Smash-Stuff/SMASH-ULTIMATE-MODS-BABY/50xx-the-mod/acmd-edits/code-mod-framework/lib/libnx_min/nx/lib\libnx_min.a(shmem.o)
 .debug_ranges  0x0000000000000000       0xe0 C:/Users/RNG/Desktop/Stuff/Smash-Stuff/SMASH-ULTIMATE-MODS-BABY/50xx-the-mod/acmd-edits/code-mod-framework/lib/libnx_min/nx/lib\libnx_min.a(shmem.o)
 .debug_line    0x0000000000000000      0x401 C:/Users/RNG/Desktop/Stuff/Smash-Stuff/SMASH-ULTIMATE-MODS-BABY/50xx-the-mod/acmd-edits/code-mod-framework/lib/libnx_min/nx/lib\libnx_min.a(shmem.o)
 .debug_str     0x0000000000000000      0xc9a C:/Users/RNG/Desktop/Stuff/Smash-Stuff/SMASH-ULTIMATE-MODS-BABY/50xx-the-mod/acmd-edits/code-mod-framework/lib/libnx_min/nx/lib\libnx_min.a(shmem.o)
 .comment       0x0000000000000000       0x23 C:/Users/RNG/Desktop/Stuff/Smash-Stuff/SMASH-ULTIMATE-MODS-BABY/50xx-the-mod/acmd-edits/code-mod-framework/lib/libnx_min/nx/lib\libnx_min.a(shmem.o)
 .text          0x0000000000000000        0x0 C:/Users/RNG/Desktop/Stuff/Smash-Stuff/SMASH-ULTIMATE-MODS-BABY/50xx-the-mod/acmd-edits/code-mod-framework/lib/libnx_min/nx/lib\libnx_min.a(detect.o)
 .data          0x0000000000000000        0x0 C:/Users/RNG/Desktop/Stuff/Smash-Stuff/SMASH-ULTIMATE-MODS-BABY/50xx-the-mod/acmd-edits/code-mod-framework/lib/libnx_min/nx/lib\libnx_min.a(detect.o)
 .bss           0x0000000000000000        0x0 C:/Users/RNG/Desktop/Stuff/Smash-Stuff/SMASH-ULTIMATE-MODS-BABY/50xx-the-mod/acmd-edits/code-mod-framework/lib/libnx_min/nx/lib\libnx_min.a(detect.o)
 .debug_info    0x0000000000000000     0x103a C:/Users/RNG/Desktop/Stuff/Smash-Stuff/SMASH-ULTIMATE-MODS-BABY/50xx-the-mod/acmd-edits/code-mod-framework/lib/libnx_min/nx/lib\libnx_min.a(detect.o)
 .debug_abbrev  0x0000000000000000      0x31e C:/Users/RNG/Desktop/Stuff/Smash-Stuff/SMASH-ULTIMATE-MODS-BABY/50xx-the-mod/acmd-edits/code-mod-framework/lib/libnx_min/nx/lib\libnx_min.a(detect.o)
 .debug_loc     0x0000000000000000       0xb3 C:/Users/RNG/Desktop/Stuff/Smash-Stuff/SMASH-ULTIMATE-MODS-BABY/50xx-the-mod/acmd-edits/code-mod-framework/lib/libnx_min/nx/lib\libnx_min.a(detect.o)
 .debug_aranges
                0x0000000000000000       0x60 C:/Users/RNG/Desktop/Stuff/Smash-Stuff/SMASH-ULTIMATE-MODS-BABY/50xx-the-mod/acmd-edits/code-mod-framework/lib/libnx_min/nx/lib\libnx_min.a(detect.o)
 .debug_ranges  0x0000000000000000      0x130 C:/Users/RNG/Desktop/Stuff/Smash-Stuff/SMASH-ULTIMATE-MODS-BABY/50xx-the-mod/acmd-edits/code-mod-framework/lib/libnx_min/nx/lib\libnx_min.a(detect.o)
 .debug_line    0x0000000000000000      0x48e C:/Users/RNG/Desktop/Stuff/Smash-Stuff/SMASH-ULTIMATE-MODS-BABY/50xx-the-mod/acmd-edits/code-mod-framework/lib/libnx_min/nx/lib\libnx_min.a(detect.o)
 .debug_str     0x0000000000000000      0xea7 C:/Users/RNG/Desktop/Stuff/Smash-Stuff/SMASH-ULTIMATE-MODS-BABY/50xx-the-mod/acmd-edits/code-mod-framework/lib/libnx_min/nx/lib\libnx_min.a(detect.o)
 .comment       0x0000000000000000       0x23 C:/Users/RNG/Desktop/Stuff/Smash-Stuff/SMASH-ULTIMATE-MODS-BABY/50xx-the-mod/acmd-edits/code-mod-framework/lib/libnx_min/nx/lib\libnx_min.a(detect.o)
 .text          0x0000000000000000        0x0 C:/Users/RNG/Desktop/Stuff/Smash-Stuff/SMASH-ULTIMATE-MODS-BABY/50xx-the-mod/acmd-edits/code-mod-framework/lib/libnx_min/nx/lib\libnx_min.a(apm.o)
 .data          0x0000000000000000        0x0 C:/Users/RNG/Desktop/Stuff/Smash-Stuff/SMASH-ULTIMATE-MODS-BABY/50xx-the-mod/acmd-edits/code-mod-framework/lib/libnx_min/nx/lib\libnx_min.a(apm.o)
 .bss           0x0000000000000000        0x0 C:/Users/RNG/Desktop/Stuff/Smash-Stuff/SMASH-ULTIMATE-MODS-BABY/50xx-the-mod/acmd-edits/code-mod-framework/lib/libnx_min/nx/lib\libnx_min.a(apm.o)
 .debug_info    0x0000000000000000     0x1b13 C:/Users/RNG/Desktop/Stuff/Smash-Stuff/SMASH-ULTIMATE-MODS-BABY/50xx-the-mod/acmd-edits/code-mod-framework/lib/libnx_min/nx/lib\libnx_min.a(apm.o)
 .debug_abbrev  0x0000000000000000      0x442 C:/Users/RNG/Desktop/Stuff/Smash-Stuff/SMASH-ULTIMATE-MODS-BABY/50xx-the-mod/acmd-edits/code-mod-framework/lib/libnx_min/nx/lib\libnx_min.a(apm.o)
 .debug_loc     0x0000000000000000     0x239a C:/Users/RNG/Desktop/Stuff/Smash-Stuff/SMASH-ULTIMATE-MODS-BABY/50xx-the-mod/acmd-edits/code-mod-framework/lib/libnx_min/nx/lib\libnx_min.a(apm.o)
 .debug_aranges
                0x0000000000000000       0x80 C:/Users/RNG/Desktop/Stuff/Smash-Stuff/SMASH-ULTIMATE-MODS-BABY/50xx-the-mod/acmd-edits/code-mod-framework/lib/libnx_min/nx/lib\libnx_min.a(apm.o)
 .debug_ranges  0x0000000000000000      0x630 C:/Users/RNG/Desktop/Stuff/Smash-Stuff/SMASH-ULTIMATE-MODS-BABY/50xx-the-mod/acmd-edits/code-mod-framework/lib/libnx_min/nx/lib\libnx_min.a(apm.o)
 .debug_line    0x0000000000000000      0xbdc C:/Users/RNG/Desktop/Stuff/Smash-Stuff/SMASH-ULTIMATE-MODS-BABY/50xx-the-mod/acmd-edits/code-mod-framework/lib/libnx_min/nx/lib\libnx_min.a(apm.o)
 .debug_str     0x0000000000000000      0xa22 C:/Users/RNG/Desktop/Stuff/Smash-Stuff/SMASH-ULTIMATE-MODS-BABY/50xx-the-mod/acmd-edits/code-mod-framework/lib/libnx_min/nx/lib\libnx_min.a(apm.o)
 .comment       0x0000000000000000       0x23 C:/Users/RNG/Desktop/Stuff/Smash-Stuff/SMASH-ULTIMATE-MODS-BABY/50xx-the-mod/acmd-edits/code-mod-framework/lib/libnx_min/nx/lib\libnx_min.a(apm.o)
 .text          0x0000000000000000        0x0 c:/devkitpro/devkita64/bin/../lib/gcc/aarch64-none-elf/8.3.0/../../../../aarch64-none-elf/lib/pic\libg.a(lib_a-bsearch.o)
 .data          0x0000000000000000        0x0 c:/devkitpro/devkita64/bin/../lib/gcc/aarch64-none-elf/8.3.0/../../../../aarch64-none-elf/lib/pic\libg.a(lib_a-bsearch.o)
 .bss           0x0000000000000000        0x0 c:/devkitpro/devkita64/bin/../lib/gcc/aarch64-none-elf/8.3.0/../../../../aarch64-none-elf/lib/pic\libg.a(lib_a-bsearch.o)
 .comment       0x0000000000000000       0x23 c:/devkitpro/devkita64/bin/../lib/gcc/aarch64-none-elf/8.3.0/../../../../aarch64-none-elf/lib/pic\libg.a(lib_a-bsearch.o)
 .text          0x0000000000000000        0x0 c:/devkitpro/devkita64/bin/../lib/gcc/aarch64-none-elf/8.3.0/../../../../aarch64-none-elf/lib/pic\libg.a(lib_a-ctype_.o)
 .data          0x0000000000000000        0x0 c:/devkitpro/devkita64/bin/../lib/gcc/aarch64-none-elf/8.3.0/../../../../aarch64-none-elf/lib/pic\libg.a(lib_a-ctype_.o)
 .bss           0x0000000000000000        0x0 c:/devkitpro/devkita64/bin/../lib/gcc/aarch64-none-elf/8.3.0/../../../../aarch64-none-elf/lib/pic\libg.a(lib_a-ctype_.o)
 .comment       0x0000000000000000       0x23 c:/devkitpro/devkita64/bin/../lib/gcc/aarch64-none-elf/8.3.0/../../../../aarch64-none-elf/lib/pic\libg.a(lib_a-ctype_.o)
 .text          0x0000000000000000        0x0 c:/devkitpro/devkita64/bin/../lib/gcc/aarch64-none-elf/8.3.0/../../../../aarch64-none-elf/lib/pic\libg.a(lib_a-errno.o)
 .data          0x0000000000000000        0x0 c:/devkitpro/devkita64/bin/../lib/gcc/aarch64-none-elf/8.3.0/../../../../aarch64-none-elf/lib/pic\libg.a(lib_a-errno.o)
 .bss           0x0000000000000000        0x0 c:/devkitpro/devkita64/bin/../lib/gcc/aarch64-none-elf/8.3.0/../../../../aarch64-none-elf/lib/pic\libg.a(lib_a-errno.o)
 .comment       0x0000000000000000       0x23 c:/devkitpro/devkita64/bin/../lib/gcc/aarch64-none-elf/8.3.0/../../../../aarch64-none-elf/lib/pic\libg.a(lib_a-errno.o)
 .text          0x0000000000000000        0x0 c:/devkitpro/devkita64/bin/../lib/gcc/aarch64-none-elf/8.3.0/../../../../aarch64-none-elf/lib/pic\libg.a(lib_a-exit.o)
 .data          0x0000000000000000        0x0 c:/devkitpro/devkita64/bin/../lib/gcc/aarch64-none-elf/8.3.0/../../../../aarch64-none-elf/lib/pic\libg.a(lib_a-exit.o)
 .bss           0x0000000000000000        0x0 c:/devkitpro/devkita64/bin/../lib/gcc/aarch64-none-elf/8.3.0/../../../../aarch64-none-elf/lib/pic\libg.a(lib_a-exit.o)
 .comment       0x0000000000000000       0x23 c:/devkitpro/devkita64/bin/../lib/gcc/aarch64-none-elf/8.3.0/../../../../aarch64-none-elf/lib/pic\libg.a(lib_a-exit.o)
 .text          0x0000000000000000        0x0 c:/devkitpro/devkita64/bin/../lib/gcc/aarch64-none-elf/8.3.0/../../../../aarch64-none-elf/lib/pic\libg.a(lib_a-fini.o)
 .data          0x0000000000000000        0x0 c:/devkitpro/devkita64/bin/../lib/gcc/aarch64-none-elf/8.3.0/../../../../aarch64-none-elf/lib/pic\libg.a(lib_a-fini.o)
 .bss           0x0000000000000000        0x0 c:/devkitpro/devkita64/bin/../lib/gcc/aarch64-none-elf/8.3.0/../../../../aarch64-none-elf/lib/pic\libg.a(lib_a-fini.o)
 .comment       0x0000000000000000       0x23 c:/devkitpro/devkita64/bin/../lib/gcc/aarch64-none-elf/8.3.0/../../../../aarch64-none-elf/lib/pic\libg.a(lib_a-fini.o)
 .text          0x0000000000000000        0x0 c:/devkitpro/devkita64/bin/../lib/gcc/aarch64-none-elf/8.3.0/../../../../aarch64-none-elf/lib/pic\libg.a(lib_a-impure.o)
 .data          0x0000000000000000        0x0 c:/devkitpro/devkita64/bin/../lib/gcc/aarch64-none-elf/8.3.0/../../../../aarch64-none-elf/lib/pic\libg.a(lib_a-impure.o)
 .bss           0x0000000000000000        0x0 c:/devkitpro/devkita64/bin/../lib/gcc/aarch64-none-elf/8.3.0/../../../../aarch64-none-elf/lib/pic\libg.a(lib_a-impure.o)
 .comment       0x0000000000000000       0x23 c:/devkitpro/devkita64/bin/../lib/gcc/aarch64-none-elf/8.3.0/../../../../aarch64-none-elf/lib/pic\libg.a(lib_a-impure.o)
 .text          0x0000000000000000        0x0 c:/devkitpro/devkita64/bin/../lib/gcc/aarch64-none-elf/8.3.0/../../../../aarch64-none-elf/lib/pic\libg.a(lib_a-init.o)
 .data          0x0000000000000000        0x0 c:/devkitpro/devkita64/bin/../lib/gcc/aarch64-none-elf/8.3.0/../../../../aarch64-none-elf/lib/pic\libg.a(lib_a-init.o)
 .bss           0x0000000000000000        0x0 c:/devkitpro/devkita64/bin/../lib/gcc/aarch64-none-elf/8.3.0/../../../../aarch64-none-elf/lib/pic\libg.a(lib_a-init.o)
 .comment       0x0000000000000000       0x23 c:/devkitpro/devkita64/bin/../lib/gcc/aarch64-none-elf/8.3.0/../../../../aarch64-none-elf/lib/pic\libg.a(lib_a-init.o)
 .text          0x0000000000000000        0x0 c:/devkitpro/devkita64/bin/../lib/gcc/aarch64-none-elf/8.3.0/../../../../aarch64-none-elf/lib/pic\libg.a(lib_a-malign.o)
 .data          0x0000000000000000        0x0 c:/devkitpro/devkita64/bin/../lib/gcc/aarch64-none-elf/8.3.0/../../../../aarch64-none-elf/lib/pic\libg.a(lib_a-malign.o)
 .bss           0x0000000000000000        0x0 c:/devkitpro/devkita64/bin/../lib/gcc/aarch64-none-elf/8.3.0/../../../../aarch64-none-elf/lib/pic\libg.a(lib_a-malign.o)
 .comment       0x0000000000000000       0x23 c:/devkitpro/devkita64/bin/../lib/gcc/aarch64-none-elf/8.3.0/../../../../aarch64-none-elf/lib/pic\libg.a(lib_a-malign.o)
 .text          0x0000000000000000        0x0 c:/devkitpro/devkita64/bin/../lib/gcc/aarch64-none-elf/8.3.0/../../../../aarch64-none-elf/lib/pic\libg.a(lib_a-malignr.o)
 .data          0x0000000000000000        0x0 c:/devkitpro/devkita64/bin/../lib/gcc/aarch64-none-elf/8.3.0/../../../../aarch64-none-elf/lib/pic\libg.a(lib_a-malignr.o)
 .bss           0x0000000000000000        0x0 c:/devkitpro/devkita64/bin/../lib/gcc/aarch64-none-elf/8.3.0/../../../../aarch64-none-elf/lib/pic\libg.a(lib_a-malignr.o)
 .comment       0x0000000000000000       0x23 c:/devkitpro/devkita64/bin/../lib/gcc/aarch64-none-elf/8.3.0/../../../../aarch64-none-elf/lib/pic\libg.a(lib_a-malignr.o)
 .text          0x0000000000000000        0x0 c:/devkitpro/devkita64/bin/../lib/gcc/aarch64-none-elf/8.3.0/../../../../aarch64-none-elf/lib/pic\libg.a(lib_a-malloc.o)
 .data          0x0000000000000000        0x0 c:/devkitpro/devkita64/bin/../lib/gcc/aarch64-none-elf/8.3.0/../../../../aarch64-none-elf/lib/pic\libg.a(lib_a-malloc.o)
 .bss           0x0000000000000000        0x0 c:/devkitpro/devkita64/bin/../lib/gcc/aarch64-none-elf/8.3.0/../../../../aarch64-none-elf/lib/pic\libg.a(lib_a-malloc.o)
 .comment       0x0000000000000000       0x23 c:/devkitpro/devkita64/bin/../lib/gcc/aarch64-none-elf/8.3.0/../../../../aarch64-none-elf/lib/pic\libg.a(lib_a-malloc.o)
 .text          0x0000000000000000        0x0 c:/devkitpro/devkita64/bin/../lib/gcc/aarch64-none-elf/8.3.0/../../../../aarch64-none-elf/lib/pic\libg.a(lib_a-mallocr.o)
 .data          0x0000000000000000        0x0 c:/devkitpro/devkita64/bin/../lib/gcc/aarch64-none-elf/8.3.0/../../../../aarch64-none-elf/lib/pic\libg.a(lib_a-mallocr.o)
 .bss           0x0000000000000000        0x0 c:/devkitpro/devkita64/bin/../lib/gcc/aarch64-none-elf/8.3.0/../../../../aarch64-none-elf/lib/pic\libg.a(lib_a-mallocr.o)
 .comment       0x0000000000000000       0x23 c:/devkitpro/devkita64/bin/../lib/gcc/aarch64-none-elf/8.3.0/../../../../aarch64-none-elf/lib/pic\libg.a(lib_a-mallocr.o)
 .data          0x0000000000000000        0x0 c:/devkitpro/devkita64/bin/../lib/gcc/aarch64-none-elf/8.3.0/../../../../aarch64-none-elf/lib/pic\libg.a(lib_a-memcpy.o)
 .bss           0x0000000000000000        0x0 c:/devkitpro/devkita64/bin/../lib/gcc/aarch64-none-elf/8.3.0/../../../../aarch64-none-elf/lib/pic\libg.a(lib_a-memcpy.o)
 .data          0x0000000000000000        0x0 c:/devkitpro/devkita64/bin/../lib/gcc/aarch64-none-elf/8.3.0/../../../../aarch64-none-elf/lib/pic\libg.a(lib_a-memset.o)
 .bss           0x0000000000000000        0x0 c:/devkitpro/devkita64/bin/../lib/gcc/aarch64-none-elf/8.3.0/../../../../aarch64-none-elf/lib/pic\libg.a(lib_a-memset.o)
 .text          0x0000000000000000        0x0 c:/devkitpro/devkita64/bin/../lib/gcc/aarch64-none-elf/8.3.0/../../../../aarch64-none-elf/lib/pic\libg.a(lib_a-mlock.o)
 .data          0x0000000000000000        0x0 c:/devkitpro/devkita64/bin/../lib/gcc/aarch64-none-elf/8.3.0/../../../../aarch64-none-elf/lib/pic\libg.a(lib_a-mlock.o)
 .bss           0x0000000000000000        0x0 c:/devkitpro/devkita64/bin/../lib/gcc/aarch64-none-elf/8.3.0/../../../../aarch64-none-elf/lib/pic\libg.a(lib_a-mlock.o)
 .comment       0x0000000000000000       0x23 c:/devkitpro/devkita64/bin/../lib/gcc/aarch64-none-elf/8.3.0/../../../../aarch64-none-elf/lib/pic\libg.a(lib_a-mlock.o)
 .text          0x0000000000000000        0x0 c:/devkitpro/devkita64/bin/../lib/gcc/aarch64-none-elf/8.3.0/../../../../aarch64-none-elf/lib/pic\libg.a(lib_a-setenv.o)
 .data          0x0000000000000000        0x0 c:/devkitpro/devkita64/bin/../lib/gcc/aarch64-none-elf/8.3.0/../../../../aarch64-none-elf/lib/pic\libg.a(lib_a-setenv.o)
 .bss           0x0000000000000000        0x0 c:/devkitpro/devkita64/bin/../lib/gcc/aarch64-none-elf/8.3.0/../../../../aarch64-none-elf/lib/pic\libg.a(lib_a-setenv.o)
 .comment       0x0000000000000000       0x23 c:/devkitpro/devkita64/bin/../lib/gcc/aarch64-none-elf/8.3.0/../../../../aarch64-none-elf/lib/pic\libg.a(lib_a-setenv.o)
 .text          0x0000000000000000        0x0 c:/devkitpro/devkita64/bin/../lib/gcc/aarch64-none-elf/8.3.0/../../../../aarch64-none-elf/lib/pic\libg.a(lib_a-setenv_r.o)
 .data          0x0000000000000000        0x0 c:/devkitpro/devkita64/bin/../lib/gcc/aarch64-none-elf/8.3.0/../../../../aarch64-none-elf/lib/pic\libg.a(lib_a-setenv_r.o)
 .bss           0x0000000000000000        0x0 c:/devkitpro/devkita64/bin/../lib/gcc/aarch64-none-elf/8.3.0/../../../../aarch64-none-elf/lib/pic\libg.a(lib_a-setenv_r.o)
 .comment       0x0000000000000000       0x23 c:/devkitpro/devkita64/bin/../lib/gcc/aarch64-none-elf/8.3.0/../../../../aarch64-none-elf/lib/pic\libg.a(lib_a-setenv_r.o)
 .data          0x0000000000000000        0x0 c:/devkitpro/devkita64/bin/../lib/gcc/aarch64-none-elf/8.3.0/../../../../aarch64-none-elf/lib/pic\libg.a(lib_a-strchr.o)
 .bss           0x0000000000000000        0x0 c:/devkitpro/devkita64/bin/../lib/gcc/aarch64-none-elf/8.3.0/../../../../aarch64-none-elf/lib/pic\libg.a(lib_a-strchr.o)
 .data          0x0000000000000000        0x0 c:/devkitpro/devkita64/bin/../lib/gcc/aarch64-none-elf/8.3.0/../../../../aarch64-none-elf/lib/pic\libg.a(lib_a-strcmp.o)
 .bss           0x0000000000000000        0x0 c:/devkitpro/devkita64/bin/../lib/gcc/aarch64-none-elf/8.3.0/../../../../aarch64-none-elf/lib/pic\libg.a(lib_a-strcmp.o)
 .data          0x0000000000000000        0x0 c:/devkitpro/devkita64/bin/../lib/gcc/aarch64-none-elf/8.3.0/../../../../aarch64-none-elf/lib/pic\libg.a(lib_a-strcpy.o)
 .bss           0x0000000000000000        0x0 c:/devkitpro/devkita64/bin/../lib/gcc/aarch64-none-elf/8.3.0/../../../../aarch64-none-elf/lib/pic\libg.a(lib_a-strcpy.o)
 .data          0x0000000000000000        0x0 c:/devkitpro/devkita64/bin/../lib/gcc/aarch64-none-elf/8.3.0/../../../../aarch64-none-elf/lib/pic\libg.a(lib_a-strlen.o)
 .bss           0x0000000000000000        0x0 c:/devkitpro/devkita64/bin/../lib/gcc/aarch64-none-elf/8.3.0/../../../../aarch64-none-elf/lib/pic\libg.a(lib_a-strlen.o)
 .text          0x0000000000000000        0x0 c:/devkitpro/devkita64/bin/../lib/gcc/aarch64-none-elf/8.3.0/../../../../aarch64-none-elf/lib/pic\libg.a(lib_a-strncat.o)
 .data          0x0000000000000000        0x0 c:/devkitpro/devkita64/bin/../lib/gcc/aarch64-none-elf/8.3.0/../../../../aarch64-none-elf/lib/pic\libg.a(lib_a-strncat.o)
 .bss           0x0000000000000000        0x0 c:/devkitpro/devkita64/bin/../lib/gcc/aarch64-none-elf/8.3.0/../../../../aarch64-none-elf/lib/pic\libg.a(lib_a-strncat.o)
 .comment       0x0000000000000000       0x23 c:/devkitpro/devkita64/bin/../lib/gcc/aarch64-none-elf/8.3.0/../../../../aarch64-none-elf/lib/pic\libg.a(lib_a-strncat.o)
 .data          0x0000000000000000        0x0 c:/devkitpro/devkita64/bin/../lib/gcc/aarch64-none-elf/8.3.0/../../../../aarch64-none-elf/lib/pic\libg.a(lib_a-strncmp.o)
 .bss           0x0000000000000000        0x0 c:/devkitpro/devkita64/bin/../lib/gcc/aarch64-none-elf/8.3.0/../../../../aarch64-none-elf/lib/pic\libg.a(lib_a-strncmp.o)
 .text          0x0000000000000000        0x0 c:/devkitpro/devkita64/bin/../lib/gcc/aarch64-none-elf/8.3.0/../../../../aarch64-none-elf/lib/pic\libg.a(lib_a-strncpy.o)
 .data          0x0000000000000000        0x0 c:/devkitpro/devkita64/bin/../lib/gcc/aarch64-none-elf/8.3.0/../../../../aarch64-none-elf/lib/pic\libg.a(lib_a-strncpy.o)
 .bss           0x0000000000000000        0x0 c:/devkitpro/devkita64/bin/../lib/gcc/aarch64-none-elf/8.3.0/../../../../aarch64-none-elf/lib/pic\libg.a(lib_a-strncpy.o)
 .comment       0x0000000000000000       0x23 c:/devkitpro/devkita64/bin/../lib/gcc/aarch64-none-elf/8.3.0/../../../../aarch64-none-elf/lib/pic\libg.a(lib_a-strncpy.o)
 .data          0x0000000000000000        0x0 c:/devkitpro/devkita64/bin/../lib/gcc/aarch64-none-elf/8.3.0/../../../../aarch64-none-elf/lib/pic\libg.a(lib_a-strnlen.o)
 .bss           0x0000000000000000        0x0 c:/devkitpro/devkita64/bin/../lib/gcc/aarch64-none-elf/8.3.0/../../../../aarch64-none-elf/lib/pic\libg.a(lib_a-strnlen.o)
 .text          0x0000000000000000        0x0 c:/devkitpro/devkita64/bin/../lib/gcc/aarch64-none-elf/8.3.0/../../../../aarch64-none-elf/lib/pic\libg.a(lib_a-toupper.o)
 .data          0x0000000000000000        0x0 c:/devkitpro/devkita64/bin/../lib/gcc/aarch64-none-elf/8.3.0/../../../../aarch64-none-elf/lib/pic\libg.a(lib_a-toupper.o)
 .bss           0x0000000000000000        0x0 c:/devkitpro/devkita64/bin/../lib/gcc/aarch64-none-elf/8.3.0/../../../../aarch64-none-elf/lib/pic\libg.a(lib_a-toupper.o)
 .comment       0x0000000000000000       0x23 c:/devkitpro/devkita64/bin/../lib/gcc/aarch64-none-elf/8.3.0/../../../../aarch64-none-elf/lib/pic\libg.a(lib_a-toupper.o)
 .text          0x0000000000000000        0x0 c:/devkitpro/devkita64/bin/../lib/gcc/aarch64-none-elf/8.3.0/../../../../aarch64-none-elf/lib/pic\libg.a(lib_a-vsnprintf.o)
 .data          0x0000000000000000        0x0 c:/devkitpro/devkita64/bin/../lib/gcc/aarch64-none-elf/8.3.0/../../../../aarch64-none-elf/lib/pic\libg.a(lib_a-vsnprintf.o)
 .bss           0x0000000000000000        0x0 c:/devkitpro/devkita64/bin/../lib/gcc/aarch64-none-elf/8.3.0/../../../../aarch64-none-elf/lib/pic\libg.a(lib_a-vsnprintf.o)
 .comment       0x0000000000000000       0x23 c:/devkitpro/devkita64/bin/../lib/gcc/aarch64-none-elf/8.3.0/../../../../aarch64-none-elf/lib/pic\libg.a(lib_a-vsnprintf.o)
 .text          0x0000000000000000        0x0 c:/devkitpro/devkita64/bin/../lib/gcc/aarch64-none-elf/8.3.0/../../../../aarch64-none-elf/lib/pic\libg.a(lib_a-__call_atexit.o)
 .data          0x0000000000000000        0x0 c:/devkitpro/devkita64/bin/../lib/gcc/aarch64-none-elf/8.3.0/../../../../aarch64-none-elf/lib/pic\libg.a(lib_a-__call_atexit.o)
 .bss           0x0000000000000000        0x0 c:/devkitpro/devkita64/bin/../lib/gcc/aarch64-none-elf/8.3.0/../../../../aarch64-none-elf/lib/pic\libg.a(lib_a-__call_atexit.o)
 .comment       0x0000000000000000       0x23 c:/devkitpro/devkita64/bin/../lib/gcc/aarch64-none-elf/8.3.0/../../../../aarch64-none-elf/lib/pic\libg.a(lib_a-__call_atexit.o)
 .text          0x0000000000000000        0x0 c:/devkitpro/devkita64/bin/../lib/gcc/aarch64-none-elf/8.3.0/../../../../aarch64-none-elf/lib/pic\libg.a(lib_a-environ.o)
 .data          0x0000000000000000        0x0 c:/devkitpro/devkita64/bin/../lib/gcc/aarch64-none-elf/8.3.0/../../../../aarch64-none-elf/lib/pic\libg.a(lib_a-environ.o)
 .bss           0x0000000000000000        0x0 c:/devkitpro/devkita64/bin/../lib/gcc/aarch64-none-elf/8.3.0/../../../../aarch64-none-elf/lib/pic\libg.a(lib_a-environ.o)
 .comment       0x0000000000000000       0x23 c:/devkitpro/devkita64/bin/../lib/gcc/aarch64-none-elf/8.3.0/../../../../aarch64-none-elf/lib/pic\libg.a(lib_a-environ.o)
 .text          0x0000000000000000        0x0 c:/devkitpro/devkita64/bin/../lib/gcc/aarch64-none-elf/8.3.0/../../../../aarch64-none-elf/lib/pic\libg.a(lib_a-envlock.o)
 .data          0x0000000000000000        0x0 c:/devkitpro/devkita64/bin/../lib/gcc/aarch64-none-elf/8.3.0/../../../../aarch64-none-elf/lib/pic\libg.a(lib_a-envlock.o)
 .bss           0x0000000000000000        0x0 c:/devkitpro/devkita64/bin/../lib/gcc/aarch64-none-elf/8.3.0/../../../../aarch64-none-elf/lib/pic\libg.a(lib_a-envlock.o)
 .comment       0x0000000000000000       0x23 c:/devkitpro/devkita64/bin/../lib/gcc/aarch64-none-elf/8.3.0/../../../../aarch64-none-elf/lib/pic\libg.a(lib_a-envlock.o)
 .text          0x0000000000000000        0x0 c:/devkitpro/devkita64/bin/../lib/gcc/aarch64-none-elf/8.3.0/../../../../aarch64-none-elf/lib/pic\libg.a(lib_a-freer.o)
 .data          0x0000000000000000        0x0 c:/devkitpro/devkita64/bin/../lib/gcc/aarch64-none-elf/8.3.0/../../../../aarch64-none-elf/lib/pic\libg.a(lib_a-freer.o)
 .bss           0x0000000000000000        0x0 c:/devkitpro/devkita64/bin/../lib/gcc/aarch64-none-elf/8.3.0/../../../../aarch64-none-elf/lib/pic\libg.a(lib_a-freer.o)
 .comment       0x0000000000000000       0x23 c:/devkitpro/devkita64/bin/../lib/gcc/aarch64-none-elf/8.3.0/../../../../aarch64-none-elf/lib/pic\libg.a(lib_a-freer.o)
 .text          0x0000000000000000        0x0 c:/devkitpro/devkita64/bin/../lib/gcc/aarch64-none-elf/8.3.0/../../../../aarch64-none-elf/lib/pic\libg.a(lib_a-getenv_r.o)
 .data          0x0000000000000000        0x0 c:/devkitpro/devkita64/bin/../lib/gcc/aarch64-none-elf/8.3.0/../../../../aarch64-none-elf/lib/pic\libg.a(lib_a-getenv_r.o)
 .bss           0x0000000000000000        0x0 c:/devkitpro/devkita64/bin/../lib/gcc/aarch64-none-elf/8.3.0/../../../../aarch64-none-elf/lib/pic\libg.a(lib_a-getenv_r.o)
 .comment       0x0000000000000000       0x23 c:/devkitpro/devkita64/bin/../lib/gcc/aarch64-none-elf/8.3.0/../../../../aarch64-none-elf/lib/pic\libg.a(lib_a-getenv_r.o)
 .text          0x0000000000000000        0x0 c:/devkitpro/devkita64/bin/../lib/gcc/aarch64-none-elf/8.3.0/../../../../aarch64-none-elf/lib/pic\libg.a(lib_a-reallocr.o)
 .data          0x0000000000000000        0x0 c:/devkitpro/devkita64/bin/../lib/gcc/aarch64-none-elf/8.3.0/../../../../aarch64-none-elf/lib/pic\libg.a(lib_a-reallocr.o)
 .bss           0x0000000000000000        0x0 c:/devkitpro/devkita64/bin/../lib/gcc/aarch64-none-elf/8.3.0/../../../../aarch64-none-elf/lib/pic\libg.a(lib_a-reallocr.o)
 .comment       0x0000000000000000       0x23 c:/devkitpro/devkita64/bin/../lib/gcc/aarch64-none-elf/8.3.0/../../../../aarch64-none-elf/lib/pic\libg.a(lib_a-reallocr.o)
 .text          0x0000000000000000        0x0 c:/devkitpro/devkita64/bin/../lib/gcc/aarch64-none-elf/8.3.0/../../../../aarch64-none-elf/lib/pic\libg.a(lib_a-svfprintf.o)
 .data          0x0000000000000000        0x0 c:/devkitpro/devkita64/bin/../lib/gcc/aarch64-none-elf/8.3.0/../../../../aarch64-none-elf/lib/pic\libg.a(lib_a-svfprintf.o)
 .bss           0x0000000000000000        0x0 c:/devkitpro/devkita64/bin/../lib/gcc/aarch64-none-elf/8.3.0/../../../../aarch64-none-elf/lib/pic\libg.a(lib_a-svfprintf.o)
 .comment       0x0000000000000000       0x23 c:/devkitpro/devkita64/bin/../lib/gcc/aarch64-none-elf/8.3.0/../../../../aarch64-none-elf/lib/pic\libg.a(lib_a-svfprintf.o)
 .text          0x0000000000000000        0x0 c:/devkitpro/devkita64/bin/../lib/gcc/aarch64-none-elf/8.3.0/../../../../aarch64-none-elf/lib/pic\libg.a(lib_a-wcrtomb.o)
 .data          0x0000000000000000        0x0 c:/devkitpro/devkita64/bin/../lib/gcc/aarch64-none-elf/8.3.0/../../../../aarch64-none-elf/lib/pic\libg.a(lib_a-wcrtomb.o)
 .bss           0x0000000000000000        0x0 c:/devkitpro/devkita64/bin/../lib/gcc/aarch64-none-elf/8.3.0/../../../../aarch64-none-elf/lib/pic\libg.a(lib_a-wcrtomb.o)
 .comment       0x0000000000000000       0x23 c:/devkitpro/devkita64/bin/../lib/gcc/aarch64-none-elf/8.3.0/../../../../aarch64-none-elf/lib/pic\libg.a(lib_a-wcrtomb.o)
 .text          0x0000000000000000        0x0 c:/devkitpro/devkita64/bin/../lib/gcc/aarch64-none-elf/8.3.0/../../../../aarch64-none-elf/lib/pic\libg.a(lib_a-wcsrtombs.o)
 .data          0x0000000000000000        0x0 c:/devkitpro/devkita64/bin/../lib/gcc/aarch64-none-elf/8.3.0/../../../../aarch64-none-elf/lib/pic\libg.a(lib_a-wcsrtombs.o)
 .bss           0x0000000000000000        0x0 c:/devkitpro/devkita64/bin/../lib/gcc/aarch64-none-elf/8.3.0/../../../../aarch64-none-elf/lib/pic\libg.a(lib_a-wcsrtombs.o)
 .comment       0x0000000000000000       0x23 c:/devkitpro/devkita64/bin/../lib/gcc/aarch64-none-elf/8.3.0/../../../../aarch64-none-elf/lib/pic\libg.a(lib_a-wcsrtombs.o)
 .text          0x0000000000000000        0x0 c:/devkitpro/devkita64/bin/../lib/gcc/aarch64-none-elf/8.3.0/../../../../aarch64-none-elf/lib/pic\libg.a(lib_a-dtoa.o)
 .data          0x0000000000000000        0x0 c:/devkitpro/devkita64/bin/../lib/gcc/aarch64-none-elf/8.3.0/../../../../aarch64-none-elf/lib/pic\libg.a(lib_a-dtoa.o)
 .bss           0x0000000000000000        0x0 c:/devkitpro/devkita64/bin/../lib/gcc/aarch64-none-elf/8.3.0/../../../../aarch64-none-elf/lib/pic\libg.a(lib_a-dtoa.o)
 .comment       0x0000000000000000       0x23 c:/devkitpro/devkita64/bin/../lib/gcc/aarch64-none-elf/8.3.0/../../../../aarch64-none-elf/lib/pic\libg.a(lib_a-dtoa.o)
 .text          0x0000000000000000        0x0 c:/devkitpro/devkita64/bin/../lib/gcc/aarch64-none-elf/8.3.0/../../../../aarch64-none-elf/lib/pic\libg.a(lib_a-localeconv.o)
 .data          0x0000000000000000        0x0 c:/devkitpro/devkita64/bin/../lib/gcc/aarch64-none-elf/8.3.0/../../../../aarch64-none-elf/lib/pic\libg.a(lib_a-localeconv.o)
 .bss           0x0000000000000000        0x0 c:/devkitpro/devkita64/bin/../lib/gcc/aarch64-none-elf/8.3.0/../../../../aarch64-none-elf/lib/pic\libg.a(lib_a-localeconv.o)
 .comment       0x0000000000000000       0x23 c:/devkitpro/devkita64/bin/../lib/gcc/aarch64-none-elf/8.3.0/../../../../aarch64-none-elf/lib/pic\libg.a(lib_a-localeconv.o)
 .text          0x0000000000000000        0x0 c:/devkitpro/devkita64/bin/../lib/gcc/aarch64-none-elf/8.3.0/../../../../aarch64-none-elf/lib/pic\libg.a(lib_a-locale.o)
 .data          0x0000000000000000        0x0 c:/devkitpro/devkita64/bin/../lib/gcc/aarch64-none-elf/8.3.0/../../../../aarch64-none-elf/lib/pic\libg.a(lib_a-locale.o)
 .bss           0x0000000000000000        0x0 c:/devkitpro/devkita64/bin/../lib/gcc/aarch64-none-elf/8.3.0/../../../../aarch64-none-elf/lib/pic\libg.a(lib_a-locale.o)
 .comment       0x0000000000000000       0x23 c:/devkitpro/devkita64/bin/../lib/gcc/aarch64-none-elf/8.3.0/../../../../aarch64-none-elf/lib/pic\libg.a(lib_a-locale.o)
 .text          0x0000000000000000        0x0 c:/devkitpro/devkita64/bin/../lib/gcc/aarch64-none-elf/8.3.0/../../../../aarch64-none-elf/lib/pic\libg.a(lib_a-mbtowc_r.o)
 .data          0x0000000000000000        0x0 c:/devkitpro/devkita64/bin/../lib/gcc/aarch64-none-elf/8.3.0/../../../../aarch64-none-elf/lib/pic\libg.a(lib_a-mbtowc_r.o)
 .bss           0x0000000000000000        0x0 c:/devkitpro/devkita64/bin/../lib/gcc/aarch64-none-elf/8.3.0/../../../../aarch64-none-elf/lib/pic\libg.a(lib_a-mbtowc_r.o)
 .comment       0x0000000000000000       0x23 c:/devkitpro/devkita64/bin/../lib/gcc/aarch64-none-elf/8.3.0/../../../../aarch64-none-elf/lib/pic\libg.a(lib_a-mbtowc_r.o)
 .data          0x0000000000000000        0x0 c:/devkitpro/devkita64/bin/../lib/gcc/aarch64-none-elf/8.3.0/../../../../aarch64-none-elf/lib/pic\libg.a(lib_a-memchr.o)
 .bss           0x0000000000000000        0x0 c:/devkitpro/devkita64/bin/../lib/gcc/aarch64-none-elf/8.3.0/../../../../aarch64-none-elf/lib/pic\libg.a(lib_a-memchr.o)
 .data          0x0000000000000000        0x0 c:/devkitpro/devkita64/bin/../lib/gcc/aarch64-none-elf/8.3.0/../../../../aarch64-none-elf/lib/pic\libg.a(lib_a-memmove.o)
 .bss           0x0000000000000000        0x0 c:/devkitpro/devkita64/bin/../lib/gcc/aarch64-none-elf/8.3.0/../../../../aarch64-none-elf/lib/pic\libg.a(lib_a-memmove.o)
 .text          0x0000000000000000        0x0 c:/devkitpro/devkita64/bin/../lib/gcc/aarch64-none-elf/8.3.0/../../../../aarch64-none-elf/lib/pic\libg.a(lib_a-mprec.o)
 .data          0x0000000000000000        0x0 c:/devkitpro/devkita64/bin/../lib/gcc/aarch64-none-elf/8.3.0/../../../../aarch64-none-elf/lib/pic\libg.a(lib_a-mprec.o)
 .bss           0x0000000000000000        0x0 c:/devkitpro/devkita64/bin/../lib/gcc/aarch64-none-elf/8.3.0/../../../../aarch64-none-elf/lib/pic\libg.a(lib_a-mprec.o)
 .comment       0x0000000000000000       0x23 c:/devkitpro/devkita64/bin/../lib/gcc/aarch64-none-elf/8.3.0/../../../../aarch64-none-elf/lib/pic\libg.a(lib_a-mprec.o)
 .text          0x0000000000000000        0x0 c:/devkitpro/devkita64/bin/../lib/gcc/aarch64-none-elf/8.3.0/../../../../aarch64-none-elf/lib/pic\libg.a(lib_a-s_frexp.o)
 .data          0x0000000000000000        0x0 c:/devkitpro/devkita64/bin/../lib/gcc/aarch64-none-elf/8.3.0/../../../../aarch64-none-elf/lib/pic\libg.a(lib_a-s_frexp.o)
 .bss           0x0000000000000000        0x0 c:/devkitpro/devkita64/bin/../lib/gcc/aarch64-none-elf/8.3.0/../../../../aarch64-none-elf/lib/pic\libg.a(lib_a-s_frexp.o)
 .comment       0x0000000000000000       0x23 c:/devkitpro/devkita64/bin/../lib/gcc/aarch64-none-elf/8.3.0/../../../../aarch64-none-elf/lib/pic\libg.a(lib_a-s_frexp.o)
 .text          0x0000000000000000        0x0 c:/devkitpro/devkita64/bin/../lib/gcc/aarch64-none-elf/8.3.0/../../../../aarch64-none-elf/lib/pic\libg.a(lib_a-strcasecmp.o)
 .data          0x0000000000000000        0x0 c:/devkitpro/devkita64/bin/../lib/gcc/aarch64-none-elf/8.3.0/../../../../aarch64-none-elf/lib/pic\libg.a(lib_a-strcasecmp.o)
 .bss           0x0000000000000000        0x0 c:/devkitpro/devkita64/bin/../lib/gcc/aarch64-none-elf/8.3.0/../../../../aarch64-none-elf/lib/pic\libg.a(lib_a-strcasecmp.o)
 .comment       0x0000000000000000       0x23 c:/devkitpro/devkita64/bin/../lib/gcc/aarch64-none-elf/8.3.0/../../../../aarch64-none-elf/lib/pic\libg.a(lib_a-strcasecmp.o)
 .text          0x0000000000000000        0x0 c:/devkitpro/devkita64/bin/../lib/gcc/aarch64-none-elf/8.3.0/../../../../aarch64-none-elf/lib/pic\libg.a(lib_a-strcat.o)
 .data          0x0000000000000000        0x0 c:/devkitpro/devkita64/bin/../lib/gcc/aarch64-none-elf/8.3.0/../../../../aarch64-none-elf/lib/pic\libg.a(lib_a-strcat.o)
 .bss           0x0000000000000000        0x0 c:/devkitpro/devkita64/bin/../lib/gcc/aarch64-none-elf/8.3.0/../../../../aarch64-none-elf/lib/pic\libg.a(lib_a-strcat.o)
 .comment       0x0000000000000000       0x23 c:/devkitpro/devkita64/bin/../lib/gcc/aarch64-none-elf/8.3.0/../../../../aarch64-none-elf/lib/pic\libg.a(lib_a-strcat.o)
 .text          0x0000000000000000        0x0 c:/devkitpro/devkita64/bin/../lib/gcc/aarch64-none-elf/8.3.0/../../../../aarch64-none-elf/lib/pic\libg.a(lib_a-strlcpy.o)
 .data          0x0000000000000000        0x0 c:/devkitpro/devkita64/bin/../lib/gcc/aarch64-none-elf/8.3.0/../../../../aarch64-none-elf/lib/pic\libg.a(lib_a-strlcpy.o)
 .bss           0x0000000000000000        0x0 c:/devkitpro/devkita64/bin/../lib/gcc/aarch64-none-elf/8.3.0/../../../../aarch64-none-elf/lib/pic\libg.a(lib_a-strlcpy.o)
 .comment       0x0000000000000000       0x23 c:/devkitpro/devkita64/bin/../lib/gcc/aarch64-none-elf/8.3.0/../../../../aarch64-none-elf/lib/pic\libg.a(lib_a-strlcpy.o)
 .text          0x0000000000000000        0x0 c:/devkitpro/devkita64/bin/../lib/gcc/aarch64-none-elf/8.3.0/../../../../aarch64-none-elf/lib/pic\libg.a(lib_a-strncasecmp.o)
 .data          0x0000000000000000        0x0 c:/devkitpro/devkita64/bin/../lib/gcc/aarch64-none-elf/8.3.0/../../../../aarch64-none-elf/lib/pic\libg.a(lib_a-strncasecmp.o)
 .bss           0x0000000000000000        0x0 c:/devkitpro/devkita64/bin/../lib/gcc/aarch64-none-elf/8.3.0/../../../../aarch64-none-elf/lib/pic\libg.a(lib_a-strncasecmp.o)
 .comment       0x0000000000000000       0x23 c:/devkitpro/devkita64/bin/../lib/gcc/aarch64-none-elf/8.3.0/../../../../aarch64-none-elf/lib/pic\libg.a(lib_a-strncasecmp.o)
 .text          0x0000000000000000        0x0 c:/devkitpro/devkita64/bin/../lib/gcc/aarch64-none-elf/8.3.0/../../../../aarch64-none-elf/lib/pic\libg.a(lib_a-strtol.o)
 .data          0x0000000000000000        0x0 c:/devkitpro/devkita64/bin/../lib/gcc/aarch64-none-elf/8.3.0/../../../../aarch64-none-elf/lib/pic\libg.a(lib_a-strtol.o)
 .bss           0x0000000000000000        0x0 c:/devkitpro/devkita64/bin/../lib/gcc/aarch64-none-elf/8.3.0/../../../../aarch64-none-elf/lib/pic\libg.a(lib_a-strtol.o)
 .comment       0x0000000000000000       0x23 c:/devkitpro/devkita64/bin/../lib/gcc/aarch64-none-elf/8.3.0/../../../../aarch64-none-elf/lib/pic\libg.a(lib_a-strtol.o)
 .text          0x0000000000000000        0x0 c:/devkitpro/devkita64/bin/../lib/gcc/aarch64-none-elf/8.3.0/../../../../aarch64-none-elf/lib/pic\libg.a(lib_a-svfiprintf.o)
 .data          0x0000000000000000        0x0 c:/devkitpro/devkita64/bin/../lib/gcc/aarch64-none-elf/8.3.0/../../../../aarch64-none-elf/lib/pic\libg.a(lib_a-svfiprintf.o)
 .bss           0x0000000000000000        0x0 c:/devkitpro/devkita64/bin/../lib/gcc/aarch64-none-elf/8.3.0/../../../../aarch64-none-elf/lib/pic\libg.a(lib_a-svfiprintf.o)
 .comment       0x0000000000000000       0x23 c:/devkitpro/devkita64/bin/../lib/gcc/aarch64-none-elf/8.3.0/../../../../aarch64-none-elf/lib/pic\libg.a(lib_a-svfiprintf.o)
 .text          0x0000000000000000        0x0 c:/devkitpro/devkita64/bin/../lib/gcc/aarch64-none-elf/8.3.0/../../../../aarch64-none-elf/lib/pic\libg.a(lib_a-wcsnrtombs.o)
 .data          0x0000000000000000        0x0 c:/devkitpro/devkita64/bin/../lib/gcc/aarch64-none-elf/8.3.0/../../../../aarch64-none-elf/lib/pic\libg.a(lib_a-wcsnrtombs.o)
 .bss           0x0000000000000000        0x0 c:/devkitpro/devkita64/bin/../lib/gcc/aarch64-none-elf/8.3.0/../../../../aarch64-none-elf/lib/pic\libg.a(lib_a-wcsnrtombs.o)
 .comment       0x0000000000000000       0x23 c:/devkitpro/devkita64/bin/../lib/gcc/aarch64-none-elf/8.3.0/../../../../aarch64-none-elf/lib/pic\libg.a(lib_a-wcsnrtombs.o)
 .text          0x0000000000000000        0x0 c:/devkitpro/devkita64/bin/../lib/gcc/aarch64-none-elf/8.3.0/../../../../aarch64-none-elf/lib/pic\libg.a(lib_a-wctomb_r.o)
 .data          0x0000000000000000        0x0 c:/devkitpro/devkita64/bin/../lib/gcc/aarch64-none-elf/8.3.0/../../../../aarch64-none-elf/lib/pic\libg.a(lib_a-wctomb_r.o)
 .bss           0x0000000000000000        0x0 c:/devkitpro/devkita64/bin/../lib/gcc/aarch64-none-elf/8.3.0/../../../../aarch64-none-elf/lib/pic\libg.a(lib_a-wctomb_r.o)
 .comment       0x0000000000000000       0x23 c:/devkitpro/devkita64/bin/../lib/gcc/aarch64-none-elf/8.3.0/../../../../aarch64-none-elf/lib/pic\libg.a(lib_a-wctomb_r.o)
 .text          0x0000000000000000        0x0 c:/devkitpro/devkita64/bin/../lib/gcc/aarch64-none-elf/8.3.0/../../../../aarch64-none-elf/lib/pic\libg.a(lib_a-callocr.o)
 .data          0x0000000000000000        0x0 c:/devkitpro/devkita64/bin/../lib/gcc/aarch64-none-elf/8.3.0/../../../../aarch64-none-elf/lib/pic\libg.a(lib_a-callocr.o)
 .bss           0x0000000000000000        0x0 c:/devkitpro/devkita64/bin/../lib/gcc/aarch64-none-elf/8.3.0/../../../../aarch64-none-elf/lib/pic\libg.a(lib_a-callocr.o)
 .comment       0x0000000000000000       0x23 c:/devkitpro/devkita64/bin/../lib/gcc/aarch64-none-elf/8.3.0/../../../../aarch64-none-elf/lib/pic\libg.a(lib_a-callocr.o)
 .text          0x0000000000000000        0x0 c:/devkitpro/devkita64/bin/../lib/gcc/aarch64-none-elf/8.3.0/../../../../aarch64-none-elf/lib/pic\libsysbase.a(iosupport.o)
 .data          0x0000000000000000        0x0 c:/devkitpro/devkita64/bin/../lib/gcc/aarch64-none-elf/8.3.0/../../../../aarch64-none-elf/lib/pic\libsysbase.a(iosupport.o)
 .bss           0x0000000000000000        0x0 c:/devkitpro/devkita64/bin/../lib/gcc/aarch64-none-elf/8.3.0/../../../../aarch64-none-elf/lib/pic\libsysbase.a(iosupport.o)
 .comment       0x0000000000000000       0x23 c:/devkitpro/devkita64/bin/../lib/gcc/aarch64-none-elf/8.3.0/../../../../aarch64-none-elf/lib/pic\libsysbase.a(iosupport.o)
 .text          0x0000000000000000        0x0 c:/devkitpro/devkita64/bin/../lib/gcc/aarch64-none-elf/8.3.0/../../../../aarch64-none-elf/lib/pic\libsysbase.a(sbrk.o)
 .data          0x0000000000000000        0x0 c:/devkitpro/devkita64/bin/../lib/gcc/aarch64-none-elf/8.3.0/../../../../aarch64-none-elf/lib/pic\libsysbase.a(sbrk.o)
 .bss           0x0000000000000000        0x0 c:/devkitpro/devkita64/bin/../lib/gcc/aarch64-none-elf/8.3.0/../../../../aarch64-none-elf/lib/pic\libsysbase.a(sbrk.o)
 .comment       0x0000000000000000       0x23 c:/devkitpro/devkita64/bin/../lib/gcc/aarch64-none-elf/8.3.0/../../../../aarch64-none-elf/lib/pic\libsysbase.a(sbrk.o)
 .text          0x0000000000000000        0x0 c:/devkitpro/devkita64/bin/../lib/gcc/aarch64-none-elf/8.3.0/../../../../aarch64-none-elf/lib/pic\libsysbase.a(_exit.o)
 .data          0x0000000000000000        0x0 c:/devkitpro/devkita64/bin/../lib/gcc/aarch64-none-elf/8.3.0/../../../../aarch64-none-elf/lib/pic\libsysbase.a(_exit.o)
 .bss           0x0000000000000000        0x0 c:/devkitpro/devkita64/bin/../lib/gcc/aarch64-none-elf/8.3.0/../../../../aarch64-none-elf/lib/pic\libsysbase.a(_exit.o)
 .comment       0x0000000000000000       0x23 c:/devkitpro/devkita64/bin/../lib/gcc/aarch64-none-elf/8.3.0/../../../../aarch64-none-elf/lib/pic\libsysbase.a(_exit.o)
 .text          0x0000000000000000        0x0 c:/devkitpro/devkita64/bin/../lib/gcc/aarch64-none-elf/8.3.0/../../../../aarch64-none-elf/lib/pic\libsysbase.a(malloc_vars.o)
 .data          0x0000000000000000        0x0 c:/devkitpro/devkita64/bin/../lib/gcc/aarch64-none-elf/8.3.0/../../../../aarch64-none-elf/lib/pic\libsysbase.a(malloc_vars.o)
 .bss           0x0000000000000000        0x0 c:/devkitpro/devkita64/bin/../lib/gcc/aarch64-none-elf/8.3.0/../../../../aarch64-none-elf/lib/pic\libsysbase.a(malloc_vars.o)
 .comment       0x0000000000000000       0x23 c:/devkitpro/devkita64/bin/../lib/gcc/aarch64-none-elf/8.3.0/../../../../aarch64-none-elf/lib/pic\libsysbase.a(malloc_vars.o)
 .text          0x0000000000000000        0x0 c:/devkitpro/devkita64/bin/../lib/gcc/aarch64-none-elf/8.3.0/../../../../aarch64-none-elf/lib/pic\libsysbase.a(chdir.o)
 .data          0x0000000000000000        0x0 c:/devkitpro/devkita64/bin/../lib/gcc/aarch64-none-elf/8.3.0/../../../../aarch64-none-elf/lib/pic\libsysbase.a(chdir.o)
 .bss           0x0000000000000000        0x0 c:/devkitpro/devkita64/bin/../lib/gcc/aarch64-none-elf/8.3.0/../../../../aarch64-none-elf/lib/pic\libsysbase.a(chdir.o)
 .comment       0x0000000000000000       0x23 c:/devkitpro/devkita64/bin/../lib/gcc/aarch64-none-elf/8.3.0/../../../../aarch64-none-elf/lib/pic\libsysbase.a(chdir.o)
 .text          0x0000000000000000        0x0 c:/devkitpro/devkita64/bin/../lib/gcc/aarch64-none-elf/8.3.0/../../../../aarch64-none-elf/lib/pic\libsysbase.a(locks.o)
 .data          0x0000000000000000        0x0 c:/devkitpro/devkita64/bin/../lib/gcc/aarch64-none-elf/8.3.0/../../../../aarch64-none-elf/lib/pic\libsysbase.a(locks.o)
 .bss           0x0000000000000000        0x0 c:/devkitpro/devkita64/bin/../lib/gcc/aarch64-none-elf/8.3.0/../../../../aarch64-none-elf/lib/pic\libsysbase.a(locks.o)
 .comment       0x0000000000000000       0x23 c:/devkitpro/devkita64/bin/../lib/gcc/aarch64-none-elf/8.3.0/../../../../aarch64-none-elf/lib/pic\libsysbase.a(locks.o)
 .text          0x0000000000000000        0x0 c:/devkitpro/devkita64/bin/../lib/gcc/aarch64-none-elf/8.3.0/../../../../aarch64-none-elf/lib/pic\libsysbase.a(getreent.o)
 .data          0x0000000000000000        0x0 c:/devkitpro/devkita64/bin/../lib/gcc/aarch64-none-elf/8.3.0/../../../../aarch64-none-elf/lib/pic\libsysbase.a(getreent.o)
 .bss           0x0000000000000000        0x0 c:/devkitpro/devkita64/bin/../lib/gcc/aarch64-none-elf/8.3.0/../../../../aarch64-none-elf/lib/pic\libsysbase.a(getreent.o)
 .comment       0x0000000000000000       0x23 c:/devkitpro/devkita64/bin/../lib/gcc/aarch64-none-elf/8.3.0/../../../../aarch64-none-elf/lib/pic\libsysbase.a(getreent.o)
 .text          0x0000000000000000        0x0 c:/devkitpro/devkita64/bin/../lib/gcc/aarch64-none-elf/8.3.0/../../../../aarch64-none-elf/lib/pic\libsysbase.a(clocks.o)
 .data          0x0000000000000000        0x0 c:/devkitpro/devkita64/bin/../lib/gcc/aarch64-none-elf/8.3.0/../../../../aarch64-none-elf/lib/pic\libsysbase.a(clocks.o)
 .bss           0x0000000000000000        0x0 c:/devkitpro/devkita64/bin/../lib/gcc/aarch64-none-elf/8.3.0/../../../../aarch64-none-elf/lib/pic\libsysbase.a(clocks.o)
 .comment       0x0000000000000000       0x23 c:/devkitpro/devkita64/bin/../lib/gcc/aarch64-none-elf/8.3.0/../../../../aarch64-none-elf/lib/pic\libsysbase.a(clocks.o)
 .text          0x0000000000000000        0x0 c:/devkitpro/devkita64/bin/../lib/gcc/aarch64-none-elf/8.3.0/pic\libgcc.a(trunctfdf2.o)
 .data          0x0000000000000000        0x0 c:/devkitpro/devkita64/bin/../lib/gcc/aarch64-none-elf/8.3.0/pic\libgcc.a(trunctfdf2.o)
 .bss           0x0000000000000000        0x0 c:/devkitpro/devkita64/bin/../lib/gcc/aarch64-none-elf/8.3.0/pic\libgcc.a(trunctfdf2.o)
 .comment       0x0000000000000000       0x23 c:/devkitpro/devkita64/bin/../lib/gcc/aarch64-none-elf/8.3.0/pic\libgcc.a(trunctfdf2.o)
 .text          0x0000000000000000        0x0 c:/devkitpro/devkita64/bin/../lib/gcc/aarch64-none-elf/8.3.0/pic\libgcc.a(sfp-exceptions.o)
 .data          0x0000000000000000        0x0 c:/devkitpro/devkita64/bin/../lib/gcc/aarch64-none-elf/8.3.0/pic\libgcc.a(sfp-exceptions.o)
 .bss           0x0000000000000000        0x0 c:/devkitpro/devkita64/bin/../lib/gcc/aarch64-none-elf/8.3.0/pic\libgcc.a(sfp-exceptions.o)
 .comment       0x0000000000000000       0x23 c:/devkitpro/devkita64/bin/../lib/gcc/aarch64-none-elf/8.3.0/pic\libgcc.a(sfp-exceptions.o)
 .data          0x0000000000000000        0x0 c:/devkitpro/devkita64/bin/../lib/gcc/aarch64-none-elf/8.3.0/../../../../aarch64-none-elf/lib/pic\libg.a(lib_a-strrchr.o)
 .bss           0x0000000000000000        0x0 c:/devkitpro/devkita64/bin/../lib/gcc/aarch64-none-elf/8.3.0/../../../../aarch64-none-elf/lib/pic\libg.a(lib_a-strrchr.o)
 .text          0x0000000000000000        0x0 c:/devkitpro/devkita64/bin/../lib/gcc/aarch64-none-elf/8.3.0/pic/crtend.o
 .data          0x0000000000000000        0x0 c:/devkitpro/devkita64/bin/../lib/gcc/aarch64-none-elf/8.3.0/pic/crtend.o
 .bss           0x0000000000000000        0x0 c:/devkitpro/devkita64/bin/../lib/gcc/aarch64-none-elf/8.3.0/pic/crtend.o
 .comment       0x0000000000000000       0x23 c:/devkitpro/devkita64/bin/../lib/gcc/aarch64-none-elf/8.3.0/pic/crtend.o
 .text          0x0000000000000000        0x0 c:/devkitpro/devkita64/bin/../lib/gcc/aarch64-none-elf/8.3.0/pic/crtn.o
 .data          0x0000000000000000        0x0 c:/devkitpro/devkita64/bin/../lib/gcc/aarch64-none-elf/8.3.0/pic/crtn.o
 .bss           0x0000000000000000        0x0 c:/devkitpro/devkita64/bin/../lib/gcc/aarch64-none-elf/8.3.0/pic/crtn.o

Memory Configuration

Name             Origin             Length             Attributes
*default*        0x0000000000000000 0xffffffffffffffff

Linker script and memory map

                0x0000000000000000                PROVIDE (__start__ = 0x0)
                0x0000000000000000                . = __start__

.crt0           0x0000000000000000      0x158
 *(.crt0)
 .crt0          0x0000000000000000      0x158 C:/Users/RNG/Desktop/Stuff/Smash-Stuff/SMASH-ULTIMATE-MODS-BABY/50xx-the-mod/acmd-edits/code-mod-framework/lib/libnx_min/nx/lib\libnx_min.a(switch_crt0.o)
                0x0000000000000000                _start
                0x0000000000000120                __nx_exit
                0x0000000000000130                __nx_mod0
                0x0000000000000158                . = ALIGN (0x8)

.init           0x0000000000000158       0x38
 *(.init)
 .init          0x0000000000000158       0x18 c:/devkitpro/devkita64/bin/../lib/gcc/aarch64-none-elf/8.3.0/pic/crti.o
                0x0000000000000158                _init
 .init          0x0000000000000170       0x1c c:/devkitpro/devkita64/bin/../lib/gcc/aarch64-none-elf/8.3.0/pic/crtn.o
                0x0000000000000190                . = ALIGN (0x8)
 *fill*         0x000000000000018c        0x4 

.plt            0x0000000000000190       0xa0
 *(.plt)
 .plt           0x0000000000000190       0xa0 c:/devkitpro/devkita64/bin/../lib/gcc/aarch64-none-elf/8.3.0/pic/crti.o
 *(.iplt)
                0x0000000000000230                . = ALIGN (0x8)

.text           0x0000000000000240    0x51000
 *(.text.unlikely .text.*_unlikely .text.unlikely.*)
 *(.text.exit .text.exit.*)
 .text.exit     0x0000000000000240       0x38 c:/devkitpro/devkita64/bin/../lib/gcc/aarch64-none-elf/8.3.0/../../../../aarch64-none-elf/lib/pic\libg.a(lib_a-exit.o)
                0x0000000000000240                exit
 *(.text.startup .text.startup.*)
 *fill*         0x0000000000000278        0x8 
 .text.startup  0x0000000000000280      0xdf0 main.o
                0x0000000000000280                main
 *(.text.hot .text.hot.*)
 *(.text .stub .text.* .gnu.linkonce.t.*)
 .text.deregister_tm_clones
                0x0000000000001070       0x2c c:/devkitpro/devkita64/bin/../lib/gcc/aarch64-none-elf/8.3.0/pic/crtbegin.o
 *fill*         0x000000000000109c        0x4 
 .text.register_tm_clones
                0x00000000000010a0       0x38 c:/devkitpro/devkita64/bin/../lib/gcc/aarch64-none-elf/8.3.0/pic/crtbegin.o
 .text.__do_global_dtors_aux
                0x00000000000010d8       0x48 c:/devkitpro/devkita64/bin/../lib/gcc/aarch64-none-elf/8.3.0/pic/crtbegin.o
 .text.frame_dummy
                0x0000000000001120       0x34 c:/devkitpro/devkita64/bin/../lib/gcc/aarch64-none-elf/8.3.0/pic/crtbegin.o
 *fill*         0x0000000000001154        0xc 
 .text          0x0000000000001160    0x27010 main.o
                0x0000000000001170                get_command_flag_cat_replace(unsigned long, int)
                0x0000000000001350                clear_lua_stack_replace(lib::L2CAgent*)
                0x0000000000027f90                replace_scripts(lib::L2CAgent*, unsigned char, int)
                0x0000000000027fe0                sv_get_status_func(unsigned long, int, unsigned long)
                0x0000000000028030                sv_replace_status_func(unsigned long, int, unsigned long, void*)
                0x0000000000028070                script_replacement()
                0x00000000000280d0                __libnx_init
                0x0000000000028120                __libnx_exit
 .text._ZN6Hash40C2EPKc
                0x0000000000028170       0x90 main.o
                0x0000000000028170                Hash40::Hash40(char const*)
                0x0000000000028170                Hash40::Hash40(char const*)
 .text          0x0000000000028200      0xbb8 acmd_wrapper.o
                0x0000000000028200                is_before_frame(unsigned long, float)
                0x0000000000028230                null_acmd_func(lib::L2CAgent*, void*)
                0x0000000000028240                load_module(unsigned long, unsigned long)
                0x0000000000028250                load_module_impl(unsigned long, unsigned long)
                0x0000000000028260                ACMD::ACMD()
                0x0000000000028260                ACMD::ACMD()
                0x0000000000028270                ACMD::ACMD(char const*, char const*, char const*, char const*, void (*)(ACMD*))
                0x0000000000028270                ACMD::ACMD(char const*, char const*, char const*, char const*, void (*)(ACMD*))
                0x0000000000028290                ACMD::match()
                0x0000000000028310                ACMD::nullify_original(lib::L2CAgent*)
                0x00000000000283e0                ACMD::run(lib::L2CAgent*)
                0x00000000000284d0                ACMD::frame(float)
                0x00000000000284f0                ACMD::wait(float)
                0x0000000000028500                ACMD::is_excute()
                0x0000000000028580                ACMD::_frame(float)
                0x0000000000028610                ACMD::_frame_reimpl(float)
                0x0000000000028700                ACMD::_wait(float)
                0x0000000000028790                ACMD::_is_excute()
                0x0000000000028830                ACMD::wrap(void (*)(unsigned long), std::initializer_list<lib::L2CValue>)
                0x00000000000288d0                ACMD::ATTACK(unsigned long, unsigned long, unsigned long, float, unsigned long, unsigned long, unsigned long, unsigned long, float, float, float, float, float, float, unsigned long, unsigned long, unsigned long, unsigned long, float, unsigned long, unsigned long, unsigned long, unsigned long, unsigned long, unsigned long, unsigned long, unsigned long, unsigned long, unsigned long, unsigned long, unsigned long, unsigned long, unsigned long)
                0x0000000000028b50                ACMD::ATTACK(unsigned long, unsigned long, unsigned long, float, unsigned long, unsigned long, unsigned long, unsigned long, float, float, float, float, float, float, float, float, float, unsigned long, unsigned long, unsigned long, unsigned long, float, unsigned long, unsigned long, unsigned long, unsigned long, unsigned long, unsigned long, unsigned long, unsigned long, unsigned long, unsigned long, unsigned long, unsigned long, unsigned long, unsigned long)
 *fill*         0x0000000000028db8        0x8 
 .text          0x0000000000028dc0      0x124 saltysd_helper.o
                0x0000000000028dc0                SaltySD_function_replace(unsigned long, unsigned long)
                0x0000000000028e30                SaltySD_function_replace_sym(char*, unsigned long)
                0x0000000000028e60                SaltySD_function_replace_sym_check_prev(char*, unsigned long, unsigned long&)
 *fill*         0x0000000000028ee4        0xc 
 .text          0x0000000000028ef0      0x128 l2c_imports.o
                0x0000000000028ef0                lib::lua_const(char const*)
                0x0000000000028f30                lib::L2CValue::L2CValue()
                0x0000000000028f30                lib::L2CValue::L2CValue()
                0x0000000000028f40                lib::L2CValue::L2CValue(bool)
                0x0000000000028f40                lib::L2CValue::L2CValue(bool)
                0x0000000000028f60                lib::L2CValue::L2CValue(int)
                0x0000000000028f60                lib::L2CValue::L2CValue(int)
                0x0000000000028f80                lib::L2CValue::L2CValue(unsigned long)
                0x0000000000028f80                lib::L2CValue::L2CValue(unsigned long)
                0x0000000000028f90                lib::L2CValue::L2CValue(float)
                0x0000000000028f90                lib::L2CValue::L2CValue(float)
                0x0000000000028fa0                lib::L2CValue::L2CValue(double)
                0x0000000000028fa0                lib::L2CValue::L2CValue(double)
                0x0000000000028fc0                lib::L2CValue::L2CValue(char const*)
                0x0000000000028fc0                lib::L2CValue::L2CValue(char const*)
                0x0000000000028fd0                lib::L2CAgent::get_lua_stack(int, lib::L2CValue*)
                0x0000000000028fe0                lib::L2CAgent::_clear_lua_stack()
 *fill*         0x0000000000029018        0x8 
 .text          0x0000000000029020      0x350 lua_bind_hash.o
                0x0000000000029020                lua_bind_hash(void const*, unsigned long)
                0x0000000000029340                lua_bind_hash_str(char const*)
 .text          0x0000000000029370      0x500 raygun_printer.o
                0x0000000000029370                show_segment(unsigned long, float, float, float, float, float)
                0x0000000000029440                alphabet_index(char)
                0x00000000000294b0                print_char(unsigned long, char, int, float, float)
                0x0000000000029610                print_string(unsigned long, char const*, ...)
 .text.__libnx_exception_entry
                0x0000000000029870      0x1c0 C:/Users/RNG/Desktop/Stuff/Smash-Stuff/SMASH-ULTIMATE-MODS-BABY/50xx-the-mod/acmd-edits/code-mod-framework/lib/libnx_min/nx/lib\libnx_min.a(exception.o)
                0x0000000000029870                __libnx_exception_entry
 .text.__libnx_exception_returnentry
                0x0000000000029a30       0x18 C:/Users/RNG/Desktop/Stuff/Smash-Stuff/SMASH-ULTIMATE-MODS-BABY/50xx-the-mod/acmd-edits/code-mod-framework/lib/libnx_min/nx/lib\libnx_min.a(exception.o)
                0x0000000000029a30                __libnx_exception_returnentry
 *fill*         0x0000000000029a48        0x8 
 .text.argvSetup
                0x0000000000029a50      0x318 C:/Users/RNG/Desktop/Stuff/Smash-Stuff/SMASH-ULTIMATE-MODS-BABY/50xx-the-mod/acmd-edits/code-mod-framework/lib/libnx_min/nx/lib\libnx_min.a(argv.o)
                0x0000000000029a50                argvSetup
 *fill*         0x0000000000029d68        0x8 
 .text.envSetup
                0x0000000000029d70      0x208 C:/Users/RNG/Desktop/Stuff/Smash-Stuff/SMASH-ULTIMATE-MODS-BABY/50xx-the-mod/acmd-edits/code-mod-framework/lib/libnx_min/nx/lib\libnx_min.a(env.o)
                0x0000000000029d70                envSetup
 *fill*         0x0000000000029f78        0x8 
 .text.envGetMainThreadHandle
                0x0000000000029f80       0x20 C:/Users/RNG/Desktop/Stuff/Smash-Stuff/SMASH-ULTIMATE-MODS-BABY/50xx-the-mod/acmd-edits/code-mod-framework/lib/libnx_min/nx/lib\libnx_min.a(env.o)
                0x0000000000029f80                envGetMainThreadHandle
 .text.envIsNso
                0x0000000000029fa0        0xc C:/Users/RNG/Desktop/Stuff/Smash-Stuff/SMASH-ULTIMATE-MODS-BABY/50xx-the-mod/acmd-edits/code-mod-framework/lib/libnx_min/nx/lib\libnx_min.a(env.o)
                0x0000000000029fa0                envIsNso
 *fill*         0x0000000000029fac        0x4 
 .text.envHasHeapOverride
                0x0000000000029fb0       0x14 C:/Users/RNG/Desktop/Stuff/Smash-Stuff/SMASH-ULTIMATE-MODS-BABY/50xx-the-mod/acmd-edits/code-mod-framework/lib/libnx_min/nx/lib\libnx_min.a(env.o)
                0x0000000000029fb0                envHasHeapOverride
 *fill*         0x0000000000029fc4        0xc 
 .text.envGetHeapOverrideAddr
                0x0000000000029fd0        0xc C:/Users/RNG/Desktop/Stuff/Smash-Stuff/SMASH-ULTIMATE-MODS-BABY/50xx-the-mod/acmd-edits/code-mod-framework/lib/libnx_min/nx/lib\libnx_min.a(env.o)
                0x0000000000029fd0                envGetHeapOverrideAddr
 *fill*         0x0000000000029fdc        0x4 
 .text.envGetHeapOverrideSize
                0x0000000000029fe0        0xc C:/Users/RNG/Desktop/Stuff/Smash-Stuff/SMASH-ULTIMATE-MODS-BABY/50xx-the-mod/acmd-edits/code-mod-framework/lib/libnx_min/nx/lib\libnx_min.a(env.o)
                0x0000000000029fe0                envGetHeapOverrideSize
 *fill*         0x0000000000029fec        0x4 
 .text.envHasArgv
                0x0000000000029ff0       0x14 C:/Users/RNG/Desktop/Stuff/Smash-Stuff/SMASH-ULTIMATE-MODS-BABY/50xx-the-mod/acmd-edits/code-mod-framework/lib/libnx_min/nx/lib\libnx_min.a(env.o)
                0x0000000000029ff0                envHasArgv
 *fill*         0x000000000002a004        0xc 
 .text.envGetArgv
                0x000000000002a010        0xc C:/Users/RNG/Desktop/Stuff/Smash-Stuff/SMASH-ULTIMATE-MODS-BABY/50xx-the-mod/acmd-edits/code-mod-framework/lib/libnx_min/nx/lib\libnx_min.a(env.o)
                0x000000000002a010                envGetArgv
 *fill*         0x000000000002a01c        0x4 
 .text.envIsSyscallHinted
                0x000000000002a020       0x20 C:/Users/RNG/Desktop/Stuff/Smash-Stuff/SMASH-ULTIMATE-MODS-BABY/50xx-the-mod/acmd-edits/code-mod-framework/lib/libnx_min/nx/lib\libnx_min.a(env.o)
                0x000000000002a020                envIsSyscallHinted
 .text.envGetOwnProcessHandle
                0x000000000002a040        0xc C:/Users/RNG/Desktop/Stuff/Smash-Stuff/SMASH-ULTIMATE-MODS-BABY/50xx-the-mod/acmd-edits/code-mod-framework/lib/libnx_min/nx/lib\libnx_min.a(env.o)
                0x000000000002a040                envGetOwnProcessHandle
 *fill*         0x000000000002a04c        0x4 
 .text.envGetExitFuncPtr
                0x000000000002a050        0xc C:/Users/RNG/Desktop/Stuff/Smash-Stuff/SMASH-ULTIMATE-MODS-BABY/50xx-the-mod/acmd-edits/code-mod-framework/lib/libnx_min/nx/lib\libnx_min.a(env.o)
                0x000000000002a050                envGetExitFuncPtr
 *fill*         0x000000000002a05c        0x4 
 .text.envSetExitFuncPtr
                0x000000000002a060        0xc C:/Users/RNG/Desktop/Stuff/Smash-Stuff/SMASH-ULTIMATE-MODS-BABY/50xx-the-mod/acmd-edits/code-mod-framework/lib/libnx_min/nx/lib\libnx_min.a(env.o)
                0x000000000002a060                envSetExitFuncPtr
 *fill*         0x000000000002a06c        0x4 
 .text.envSetNextLoad
                0x000000000002a070       0x7c C:/Users/RNG/Desktop/Stuff/Smash-Stuff/SMASH-ULTIMATE-MODS-BABY/50xx-the-mod/acmd-edits/code-mod-framework/lib/libnx_min/nx/lib\libnx_min.a(env.o)
                0x000000000002a070                envSetNextLoad
 *fill*         0x000000000002a0ec        0x4 
 .text.envHasNextLoad
                0x000000000002a0f0       0x14 C:/Users/RNG/Desktop/Stuff/Smash-Stuff/SMASH-ULTIMATE-MODS-BABY/50xx-the-mod/acmd-edits/code-mod-framework/lib/libnx_min/nx/lib\libnx_min.a(env.o)
                0x000000000002a0f0                envHasNextLoad
 *fill*         0x000000000002a104        0xc 
 .text.envGetLastLoadResult
                0x000000000002a110        0xc C:/Users/RNG/Desktop/Stuff/Smash-Stuff/SMASH-ULTIMATE-MODS-BABY/50xx-the-mod/acmd-edits/code-mod-framework/lib/libnx_min/nx/lib\libnx_min.a(env.o)
                0x000000000002a110                envGetLastLoadResult
 *fill*         0x000000000002a11c        0x4 
 .text.envHasRandomSeed
                0x000000000002a120        0xc C:/Users/RNG/Desktop/Stuff/Smash-Stuff/SMASH-ULTIMATE-MODS-BABY/50xx-the-mod/acmd-edits/code-mod-framework/lib/libnx_min/nx/lib\libnx_min.a(env.o)
                0x000000000002a120                envHasRandomSeed
 *fill*         0x000000000002a12c        0x4 
 .text.envGetRandomSeed
                0x000000000002a130       0x18 C:/Users/RNG/Desktop/Stuff/Smash-Stuff/SMASH-ULTIMATE-MODS-BABY/50xx-the-mod/acmd-edits/code-mod-framework/lib/libnx_min/nx/lib\libnx_min.a(env.o)
                0x000000000002a130                envGetRandomSeed
 *fill*         0x000000000002a148        0x8 
 .text.__libnx_initheap
                0x000000000002a150       0xd8 C:/Users/RNG/Desktop/Stuff/Smash-Stuff/SMASH-ULTIMATE-MODS-BABY/50xx-the-mod/acmd-edits/code-mod-framework/lib/libnx_min/nx/lib\libnx_min.a(init.o)
                0x000000000002a150                __libnx_initheap
 *fill*         0x000000000002a228        0x8 
 .text.__appInit
                0x000000000002a230       0xdc C:/Users/RNG/Desktop/Stuff/Smash-Stuff/SMASH-ULTIMATE-MODS-BABY/50xx-the-mod/acmd-edits/code-mod-framework/lib/libnx_min/nx/lib\libnx_min.a(init.o)
                0x000000000002a230                __appInit
 *fill*         0x000000000002a30c        0x4 
 .text.__appExit
                0x000000000002a310       0x44 C:/Users/RNG/Desktop/Stuff/Smash-Stuff/SMASH-ULTIMATE-MODS-BABY/50xx-the-mod/acmd-edits/code-mod-framework/lib/libnx_min/nx/lib\libnx_min.a(init.o)
                0x000000000002a310                __appExit
 *fill*         0x000000000002a354        0xc 
 .text.hosversionGet
                0x000000000002a360       0x10 C:/Users/RNG/Desktop/Stuff/Smash-Stuff/SMASH-ULTIMATE-MODS-BABY/50xx-the-mod/acmd-edits/code-mod-framework/lib/libnx_min/nx/lib\libnx_min.a(hosversion.o)
                0x000000000002a360                hosversionGet
 .text.hosversionSet
                0x000000000002a370       0x10 C:/Users/RNG/Desktop/Stuff/Smash-Stuff/SMASH-ULTIMATE-MODS-BABY/50xx-the-mod/acmd-edits/code-mod-framework/lib/libnx_min/nx/lib\libnx_min.a(hosversion.o)
                0x000000000002a370                hosversionSet
 .text.__nx_dynamic
                0x000000000002a380       0xa0 C:/Users/RNG/Desktop/Stuff/Smash-Stuff/SMASH-ULTIMATE-MODS-BABY/50xx-the-mod/acmd-edits/code-mod-framework/lib/libnx_min/nx/lib\libnx_min.a(dynamic.o)
                0x000000000002a380                __nx_dynamic
 .text.fsdev_link
                0x000000000002a420       0x10 C:/Users/RNG/Desktop/Stuff/Smash-Stuff/SMASH-ULTIMATE-MODS-BABY/50xx-the-mod/acmd-edits/code-mod-framework/lib/libnx_min/nx/lib\libnx_min.a(fs_dev.o)
 .text.fsdev_dirreset
                0x000000000002a430       0x10 C:/Users/RNG/Desktop/Stuff/Smash-Stuff/SMASH-ULTIMATE-MODS-BABY/50xx-the-mod/acmd-edits/code-mod-framework/lib/libnx_min/nx/lib\libnx_min.a(fs_dev.o)
 .text.fsdev_chmod
                0x000000000002a440       0x10 C:/Users/RNG/Desktop/Stuff/Smash-Stuff/SMASH-ULTIMATE-MODS-BABY/50xx-the-mod/acmd-edits/code-mod-framework/lib/libnx_min/nx/lib\libnx_min.a(fs_dev.o)
 .text.error_cmp
                0x000000000002a450       0x1c C:/Users/RNG/Desktop/Stuff/Smash-Stuff/SMASH-ULTIMATE-MODS-BABY/50xx-the-mod/acmd-edits/code-mod-framework/lib/libnx_min/nx/lib\libnx_min.a(fs_dev.o)
 *fill*         0x000000000002a46c        0x4 
 .text.fsdev_translate_error
                0x000000000002a470       0x5c C:/Users/RNG/Desktop/Stuff/Smash-Stuff/SMASH-ULTIMATE-MODS-BABY/50xx-the-mod/acmd-edits/code-mod-framework/lib/libnx_min/nx/lib\libnx_min.a(fs_dev.o)
 *fill*         0x000000000002a4cc        0x4 
 .text.fsdev_fsync
                0x000000000002a4d0       0x40 C:/Users/RNG/Desktop/Stuff/Smash-Stuff/SMASH-ULTIMATE-MODS-BABY/50xx-the-mod/acmd-edits/code-mod-framework/lib/libnx_min/nx/lib\libnx_min.a(fs_dev.o)
 .text.fsdev_ftruncate
                0x000000000002a510       0x60 C:/Users/RNG/Desktop/Stuff/Smash-Stuff/SMASH-ULTIMATE-MODS-BABY/50xx-the-mod/acmd-edits/code-mod-framework/lib/libnx_min/nx/lib\libnx_min.a(fs_dev.o)
 .text.fsdev_dirclose
                0x000000000002a570       0x20 C:/Users/RNG/Desktop/Stuff/Smash-Stuff/SMASH-ULTIMATE-MODS-BABY/50xx-the-mod/acmd-edits/code-mod-framework/lib/libnx_min/nx/lib\libnx_min.a(fs_dev.o)
 .text.fsdev_dirnext
                0x000000000002a590      0x16c C:/Users/RNG/Desktop/Stuff/Smash-Stuff/SMASH-ULTIMATE-MODS-BABY/50xx-the-mod/acmd-edits/code-mod-framework/lib/libnx_min/nx/lib\libnx_min.a(fs_dev.o)
 *fill*         0x000000000002a6fc        0x4 
 .text.fsdev_close
                0x000000000002a700       0x1c C:/Users/RNG/Desktop/Stuff/Smash-Stuff/SMASH-ULTIMATE-MODS-BABY/50xx-the-mod/acmd-edits/code-mod-framework/lib/libnx_min/nx/lib\libnx_min.a(fs_dev.o)
 *fill*         0x000000000002a71c        0x4 
 .text.fsdev_fstat
                0x000000000002a720       0xa4 C:/Users/RNG/Desktop/Stuff/Smash-Stuff/SMASH-ULTIMATE-MODS-BABY/50xx-the-mod/acmd-edits/code-mod-framework/lib/libnx_min/nx/lib\libnx_min.a(fs_dev.o)
 *fill*         0x000000000002a7c4        0xc 
 .text.fsdev_seek
                0x000000000002a7d0       0xb0 C:/Users/RNG/Desktop/Stuff/Smash-Stuff/SMASH-ULTIMATE-MODS-BABY/50xx-the-mod/acmd-edits/code-mod-framework/lib/libnx_min/nx/lib\libnx_min.a(fs_dev.o)
 .text.fsdev_read
                0x000000000002a880      0x1a0 C:/Users/RNG/Desktop/Stuff/Smash-Stuff/SMASH-ULTIMATE-MODS-BABY/50xx-the-mod/acmd-edits/code-mod-framework/lib/libnx_min/nx/lib\libnx_min.a(fs_dev.o)
 .text.fsdev_write
                0x000000000002aa20      0x1a8 C:/Users/RNG/Desktop/Stuff/Smash-Stuff/SMASH-ULTIMATE-MODS-BABY/50xx-the-mod/acmd-edits/code-mod-framework/lib/libnx_min/nx/lib\libnx_min.a(fs_dev.o)
 *fill*         0x000000000002abc8        0x8 
 .text.fsdevFindDevice
                0x000000000002abd0      0x120 C:/Users/RNG/Desktop/Stuff/Smash-Stuff/SMASH-ULTIMATE-MODS-BABY/50xx-the-mod/acmd-edits/code-mod-framework/lib/libnx_min/nx/lib\libnx_min.a(fs_dev.o)
 .text._fsdevMountDevice
                0x000000000002acf0      0x140 C:/Users/RNG/Desktop/Stuff/Smash-Stuff/SMASH-ULTIMATE-MODS-BABY/50xx-the-mod/acmd-edits/code-mod-framework/lib/libnx_min/nx/lib\libnx_min.a(fs_dev.o)
 .text.fsdev_getfspath
                0x000000000002ae30      0x1fc C:/Users/RNG/Desktop/Stuff/Smash-Stuff/SMASH-ULTIMATE-MODS-BABY/50xx-the-mod/acmd-edits/code-mod-framework/lib/libnx_min/nx/lib\libnx_min.a(fs_dev.o)
 *fill*         0x000000000002b02c        0x4 
 .text.fsdev_rmdir
                0x000000000002b030       0x70 C:/Users/RNG/Desktop/Stuff/Smash-Stuff/SMASH-ULTIMATE-MODS-BABY/50xx-the-mod/acmd-edits/code-mod-framework/lib/libnx_min/nx/lib\libnx_min.a(fs_dev.o)
 .text.fsdev_statvfs
                0x000000000002b0a0       0xd4 C:/Users/RNG/Desktop/Stuff/Smash-Stuff/SMASH-ULTIMATE-MODS-BABY/50xx-the-mod/acmd-edits/code-mod-framework/lib/libnx_min/nx/lib\libnx_min.a(fs_dev.o)
 *fill*         0x000000000002b174        0xc 
 .text.fsdev_diropen
                0x000000000002b180       0xec C:/Users/RNG/Desktop/Stuff/Smash-Stuff/SMASH-ULTIMATE-MODS-BABY/50xx-the-mod/acmd-edits/code-mod-framework/lib/libnx_min/nx/lib\libnx_min.a(fs_dev.o)
 *fill*         0x000000000002b26c        0x4 
 .text.fsdev_mkdir
                0x000000000002b270       0x70 C:/Users/RNG/Desktop/Stuff/Smash-Stuff/SMASH-ULTIMATE-MODS-BABY/50xx-the-mod/acmd-edits/code-mod-framework/lib/libnx_min/nx/lib\libnx_min.a(fs_dev.o)
 .text.fsdev_rename
                0x000000000002b2e0      0x114 C:/Users/RNG/Desktop/Stuff/Smash-Stuff/SMASH-ULTIMATE-MODS-BABY/50xx-the-mod/acmd-edits/code-mod-framework/lib/libnx_min/nx/lib\libnx_min.a(fs_dev.o)
 *fill*         0x000000000002b3f4        0xc 
 .text.fsdev_chdir
                0x000000000002b400       0xe8 C:/Users/RNG/Desktop/Stuff/Smash-Stuff/SMASH-ULTIMATE-MODS-BABY/50xx-the-mod/acmd-edits/code-mod-framework/lib/libnx_min/nx/lib\libnx_min.a(fs_dev.o)
 *fill*         0x000000000002b4e8        0x8 
 .text.fsdev_unlink
                0x000000000002b4f0       0x70 C:/Users/RNG/Desktop/Stuff/Smash-Stuff/SMASH-ULTIMATE-MODS-BABY/50xx-the-mod/acmd-edits/code-mod-framework/lib/libnx_min/nx/lib\libnx_min.a(fs_dev.o)
 .text.fsdev_stat
                0x000000000002b560      0x1bc C:/Users/RNG/Desktop/Stuff/Smash-Stuff/SMASH-ULTIMATE-MODS-BABY/50xx-the-mod/acmd-edits/code-mod-framework/lib/libnx_min/nx/lib\libnx_min.a(fs_dev.o)
 *fill*         0x000000000002b71c        0x4 
 .text.fsdev_open
                0x000000000002b720      0x19c C:/Users/RNG/Desktop/Stuff/Smash-Stuff/SMASH-ULTIMATE-MODS-BABY/50xx-the-mod/acmd-edits/code-mod-framework/lib/libnx_min/nx/lib\libnx_min.a(fs_dev.o)
 *fill*         0x000000000002b8bc        0x4 
 .text._fsdevUnmountDeviceStruct.part.4
                0x000000000002b8c0       0xb8 C:/Users/RNG/Desktop/Stuff/Smash-Stuff/SMASH-ULTIMATE-MODS-BABY/50xx-the-mod/acmd-edits/code-mod-framework/lib/libnx_min/nx/lib\libnx_min.a(fs_dev.o)
 *fill*         0x000000000002b978        0x8 
 .text.fsdev_fchmod
                0x000000000002b980       0x10 C:/Users/RNG/Desktop/Stuff/Smash-Stuff/SMASH-ULTIMATE-MODS-BABY/50xx-the-mod/acmd-edits/code-mod-framework/lib/libnx_min/nx/lib\libnx_min.a(fs_dev.o)
 .text.fsdevMountDevice
                0x000000000002b990       0x14 C:/Users/RNG/Desktop/Stuff/Smash-Stuff/SMASH-ULTIMATE-MODS-BABY/50xx-the-mod/acmd-edits/code-mod-framework/lib/libnx_min/nx/lib\libnx_min.a(fs_dev.o)
                0x000000000002b990                fsdevMountDevice
 *fill*         0x000000000002b9a4        0xc 
 .text.fsdevUnmountDevice
                0x000000000002b9b0       0x3c C:/Users/RNG/Desktop/Stuff/Smash-Stuff/SMASH-ULTIMATE-MODS-BABY/50xx-the-mod/acmd-edits/code-mod-framework/lib/libnx_min/nx/lib\libnx_min.a(fs_dev.o)
                0x000000000002b9b0                fsdevUnmountDevice
 *fill*         0x000000000002b9ec        0x4 
 .text.fsdevCommitDevice
                0x000000000002b9f0       0x28 C:/Users/RNG/Desktop/Stuff/Smash-Stuff/SMASH-ULTIMATE-MODS-BABY/50xx-the-mod/acmd-edits/code-mod-framework/lib/libnx_min/nx/lib\libnx_min.a(fs_dev.o)
                0x000000000002b9f0                fsdevCommitDevice
 *fill*         0x000000000002ba18        0x8 
 .text.fsdevSetArchiveBit
                0x000000000002ba20       0x68 C:/Users/RNG/Desktop/Stuff/Smash-Stuff/SMASH-ULTIMATE-MODS-BABY/50xx-the-mod/acmd-edits/code-mod-framework/lib/libnx_min/nx/lib\libnx_min.a(fs_dev.o)
                0x000000000002ba20                fsdevSetArchiveBit
 *fill*         0x000000000002ba88        0x8 
 .text.fsdevCreateFile
                0x000000000002ba90       0x88 C:/Users/RNG/Desktop/Stuff/Smash-Stuff/SMASH-ULTIMATE-MODS-BABY/50xx-the-mod/acmd-edits/code-mod-framework/lib/libnx_min/nx/lib\libnx_min.a(fs_dev.o)
                0x000000000002ba90                fsdevCreateFile
 *fill*         0x000000000002bb18        0x8 
 .text.fsdevDeleteDirectoryRecursively
                0x000000000002bb20       0x68 C:/Users/RNG/Desktop/Stuff/Smash-Stuff/SMASH-ULTIMATE-MODS-BABY/50xx-the-mod/acmd-edits/code-mod-framework/lib/libnx_min/nx/lib\libnx_min.a(fs_dev.o)
                0x000000000002bb20                fsdevDeleteDirectoryRecursively
 *fill*         0x000000000002bb88        0x8 
 .text.fsdevMountSdmc
                0x000000000002bb90      0x170 C:/Users/RNG/Desktop/Stuff/Smash-Stuff/SMASH-ULTIMATE-MODS-BABY/50xx-the-mod/acmd-edits/code-mod-framework/lib/libnx_min/nx/lib\libnx_min.a(fs_dev.o)
                0x000000000002bb90                fsdevMountSdmc
 .text.fsdevUnmountAll
                0x000000000002bd00       0x64 C:/Users/RNG/Desktop/Stuff/Smash-Stuff/SMASH-ULTIMATE-MODS-BABY/50xx-the-mod/acmd-edits/code-mod-framework/lib/libnx_min/nx/lib\libnx_min.a(fs_dev.o)
                0x000000000002bd00                fsdevUnmountAll
 *fill*         0x000000000002bd64        0xc 
 .text.fsdevGetDeviceFileSystem
                0x000000000002bd70       0x20 C:/Users/RNG/Desktop/Stuff/Smash-Stuff/SMASH-ULTIMATE-MODS-BABY/50xx-the-mod/acmd-edits/code-mod-framework/lib/libnx_min/nx/lib\libnx_min.a(fs_dev.o)
                0x000000000002bd70                fsdevGetDeviceFileSystem
 .text.fsdevGetDefaultFileSystem
                0x000000000002bd90       0x40 C:/Users/RNG/Desktop/Stuff/Smash-Stuff/SMASH-ULTIMATE-MODS-BABY/50xx-the-mod/acmd-edits/code-mod-framework/lib/libnx_min/nx/lib\libnx_min.a(fs_dev.o)
                0x000000000002bd90                fsdevGetDefaultFileSystem
 .text.fsdevTranslatePath
                0x000000000002bdd0       0x58 C:/Users/RNG/Desktop/Stuff/Smash-Stuff/SMASH-ULTIMATE-MODS-BABY/50xx-the-mod/acmd-edits/code-mod-framework/lib/libnx_min/nx/lib\libnx_min.a(fs_dev.o)
                0x000000000002bdd0                fsdevTranslatePath
 *fill*         0x000000000002be28        0x8 
 .text.fsdev_getmtime
                0x000000000002be30       0x20 C:/Users/RNG/Desktop/Stuff/Smash-Stuff/SMASH-ULTIMATE-MODS-BABY/50xx-the-mod/acmd-edits/code-mod-framework/lib/libnx_min/nx/lib\libnx_min.a(fs_dev.o)
                0x000000000002be30                fsdev_getmtime
 .text.fsdevGetLastResult
                0x000000000002be50       0x20 C:/Users/RNG/Desktop/Stuff/Smash-Stuff/SMASH-ULTIMATE-MODS-BABY/50xx-the-mod/acmd-edits/code-mod-framework/lib/libnx_min/nx/lib\libnx_min.a(fs_dev.o)
                0x000000000002be50                fsdevGetLastResult
 .text.decode_utf8
                0x000000000002be70      0x12c C:/Users/RNG/Desktop/Stuff/Smash-Stuff/SMASH-ULTIMATE-MODS-BABY/50xx-the-mod/acmd-edits/code-mod-framework/lib/libnx_min/nx/lib\libnx_min.a(decode_utf8.o)
                0x000000000002be70                decode_utf8
 .text.svcSetHeapSize
                0x000000000002bf9c       0x14 C:/Users/RNG/Desktop/Stuff/Smash-Stuff/SMASH-ULTIMATE-MODS-BABY/50xx-the-mod/acmd-edits/code-mod-framework/lib/libnx_min/nx/lib\libnx_min.a(svc.o)
                0x000000000002bf9c                svcSetHeapSize
 .text.svcSetMemoryPermission
                0x000000000002bfb0        0x8 C:/Users/RNG/Desktop/Stuff/Smash-Stuff/SMASH-ULTIMATE-MODS-BABY/50xx-the-mod/acmd-edits/code-mod-framework/lib/libnx_min/nx/lib\libnx_min.a(svc.o)
                0x000000000002bfb0                svcSetMemoryPermission
 .text.svcSetMemoryAttribute
                0x000000000002bfb8        0x8 C:/Users/RNG/Desktop/Stuff/Smash-Stuff/SMASH-ULTIMATE-MODS-BABY/50xx-the-mod/acmd-edits/code-mod-framework/lib/libnx_min/nx/lib\libnx_min.a(svc.o)
                0x000000000002bfb8                svcSetMemoryAttribute
 .text.svcMapMemory
                0x000000000002bfc0        0x8 C:/Users/RNG/Desktop/Stuff/Smash-Stuff/SMASH-ULTIMATE-MODS-BABY/50xx-the-mod/acmd-edits/code-mod-framework/lib/libnx_min/nx/lib\libnx_min.a(svc.o)
                0x000000000002bfc0                svcMapMemory
 .text.svcUnmapMemory
                0x000000000002bfc8        0x8 C:/Users/RNG/Desktop/Stuff/Smash-Stuff/SMASH-ULTIMATE-MODS-BABY/50xx-the-mod/acmd-edits/code-mod-framework/lib/libnx_min/nx/lib\libnx_min.a(svc.o)
                0x000000000002bfc8                svcUnmapMemory
 .text.svcQueryMemory
                0x000000000002bfd0       0x14 C:/Users/RNG/Desktop/Stuff/Smash-Stuff/SMASH-ULTIMATE-MODS-BABY/50xx-the-mod/acmd-edits/code-mod-framework/lib/libnx_min/nx/lib\libnx_min.a(svc.o)
                0x000000000002bfd0                svcQueryMemory
 .text.svcExitProcess
                0x000000000002bfe4        0x8 C:/Users/RNG/Desktop/Stuff/Smash-Stuff/SMASH-ULTIMATE-MODS-BABY/50xx-the-mod/acmd-edits/code-mod-framework/lib/libnx_min/nx/lib\libnx_min.a(svc.o)
                0x000000000002bfe4                svcExitProcess
 .text.svcCreateThread
                0x000000000002bfec       0x14 C:/Users/RNG/Desktop/Stuff/Smash-Stuff/SMASH-ULTIMATE-MODS-BABY/50xx-the-mod/acmd-edits/code-mod-framework/lib/libnx_min/nx/lib\libnx_min.a(svc.o)
                0x000000000002bfec                svcCreateThread
 .text.svcStartThread
                0x000000000002c000        0x8 C:/Users/RNG/Desktop/Stuff/Smash-Stuff/SMASH-ULTIMATE-MODS-BABY/50xx-the-mod/acmd-edits/code-mod-framework/lib/libnx_min/nx/lib\libnx_min.a(svc.o)
                0x000000000002c000                svcStartThread
 .text.svcExitThread
                0x000000000002c008        0x8 C:/Users/RNG/Desktop/Stuff/Smash-Stuff/SMASH-ULTIMATE-MODS-BABY/50xx-the-mod/acmd-edits/code-mod-framework/lib/libnx_min/nx/lib\libnx_min.a(svc.o)
                0x000000000002c008                svcExitThread
 .text.svcSleepThread
                0x000000000002c010        0x8 C:/Users/RNG/Desktop/Stuff/Smash-Stuff/SMASH-ULTIMATE-MODS-BABY/50xx-the-mod/acmd-edits/code-mod-framework/lib/libnx_min/nx/lib\libnx_min.a(svc.o)
                0x000000000002c010                svcSleepThread
 .text.svcGetThreadPriority
                0x000000000002c018       0x14 C:/Users/RNG/Desktop/Stuff/Smash-Stuff/SMASH-ULTIMATE-MODS-BABY/50xx-the-mod/acmd-edits/code-mod-framework/lib/libnx_min/nx/lib\libnx_min.a(svc.o)
                0x000000000002c018                svcGetThreadPriority
 .text.svcSetThreadPriority
                0x000000000002c02c        0x8 C:/Users/RNG/Desktop/Stuff/Smash-Stuff/SMASH-ULTIMATE-MODS-BABY/50xx-the-mod/acmd-edits/code-mod-framework/lib/libnx_min/nx/lib\libnx_min.a(svc.o)
                0x000000000002c02c                svcSetThreadPriority
 .text.svcGetThreadCoreMask
                0x000000000002c034       0x18 C:/Users/RNG/Desktop/Stuff/Smash-Stuff/SMASH-ULTIMATE-MODS-BABY/50xx-the-mod/acmd-edits/code-mod-framework/lib/libnx_min/nx/lib\libnx_min.a(svc.o)
                0x000000000002c034                svcGetThreadCoreMask
 .text.svcSetThreadCoreMask
                0x000000000002c04c        0x8 C:/Users/RNG/Desktop/Stuff/Smash-Stuff/SMASH-ULTIMATE-MODS-BABY/50xx-the-mod/acmd-edits/code-mod-framework/lib/libnx_min/nx/lib\libnx_min.a(svc.o)
                0x000000000002c04c                svcSetThreadCoreMask
 .text.svcGetCurrentProcessorNumber
                0x000000000002c054        0x8 C:/Users/RNG/Desktop/Stuff/Smash-Stuff/SMASH-ULTIMATE-MODS-BABY/50xx-the-mod/acmd-edits/code-mod-framework/lib/libnx_min/nx/lib\libnx_min.a(svc.o)
                0x000000000002c054                svcGetCurrentProcessorNumber
 .text.svcSignalEvent
                0x000000000002c05c        0x8 C:/Users/RNG/Desktop/Stuff/Smash-Stuff/SMASH-ULTIMATE-MODS-BABY/50xx-the-mod/acmd-edits/code-mod-framework/lib/libnx_min/nx/lib\libnx_min.a(svc.o)
                0x000000000002c05c                svcSignalEvent
 .text.svcClearEvent
                0x000000000002c064        0x8 C:/Users/RNG/Desktop/Stuff/Smash-Stuff/SMASH-ULTIMATE-MODS-BABY/50xx-the-mod/acmd-edits/code-mod-framework/lib/libnx_min/nx/lib\libnx_min.a(svc.o)
                0x000000000002c064                svcClearEvent
 .text.svcMapSharedMemory
                0x000000000002c06c        0x8 C:/Users/RNG/Desktop/Stuff/Smash-Stuff/SMASH-ULTIMATE-MODS-BABY/50xx-the-mod/acmd-edits/code-mod-framework/lib/libnx_min/nx/lib\libnx_min.a(svc.o)
                0x000000000002c06c                svcMapSharedMemory
 .text.svcUnmapSharedMemory
                0x000000000002c074        0x8 C:/Users/RNG/Desktop/Stuff/Smash-Stuff/SMASH-ULTIMATE-MODS-BABY/50xx-the-mod/acmd-edits/code-mod-framework/lib/libnx_min/nx/lib\libnx_min.a(svc.o)
                0x000000000002c074                svcUnmapSharedMemory
 .text.svcCreateTransferMemory
                0x000000000002c07c       0x14 C:/Users/RNG/Desktop/Stuff/Smash-Stuff/SMASH-ULTIMATE-MODS-BABY/50xx-the-mod/acmd-edits/code-mod-framework/lib/libnx_min/nx/lib\libnx_min.a(svc.o)
                0x000000000002c07c                svcCreateTransferMemory
 .text.svcCloseHandle
                0x000000000002c090        0x8 C:/Users/RNG/Desktop/Stuff/Smash-Stuff/SMASH-ULTIMATE-MODS-BABY/50xx-the-mod/acmd-edits/code-mod-framework/lib/libnx_min/nx/lib\libnx_min.a(svc.o)
                0x000000000002c090                svcCloseHandle
 .text.svcResetSignal
                0x000000000002c098        0x8 C:/Users/RNG/Desktop/Stuff/Smash-Stuff/SMASH-ULTIMATE-MODS-BABY/50xx-the-mod/acmd-edits/code-mod-framework/lib/libnx_min/nx/lib\libnx_min.a(svc.o)
                0x000000000002c098                svcResetSignal
 .text.svcWaitSynchronization
                0x000000000002c0a0       0x14 C:/Users/RNG/Desktop/Stuff/Smash-Stuff/SMASH-ULTIMATE-MODS-BABY/50xx-the-mod/acmd-edits/code-mod-framework/lib/libnx_min/nx/lib\libnx_min.a(svc.o)
                0x000000000002c0a0                svcWaitSynchronization
 .text.svcCancelSynchronization
                0x000000000002c0b4        0x8 C:/Users/RNG/Desktop/Stuff/Smash-Stuff/SMASH-ULTIMATE-MODS-BABY/50xx-the-mod/acmd-edits/code-mod-framework/lib/libnx_min/nx/lib\libnx_min.a(svc.o)
                0x000000000002c0b4                svcCancelSynchronization
 .text.svcArbitrateLock
                0x000000000002c0bc        0x8 C:/Users/RNG/Desktop/Stuff/Smash-Stuff/SMASH-ULTIMATE-MODS-BABY/50xx-the-mod/acmd-edits/code-mod-framework/lib/libnx_min/nx/lib\libnx_min.a(svc.o)
                0x000000000002c0bc                svcArbitrateLock
 .text.svcArbitrateUnlock
                0x000000000002c0c4        0x8 C:/Users/RNG/Desktop/Stuff/Smash-Stuff/SMASH-ULTIMATE-MODS-BABY/50xx-the-mod/acmd-edits/code-mod-framework/lib/libnx_min/nx/lib\libnx_min.a(svc.o)
                0x000000000002c0c4                svcArbitrateUnlock
 .text.svcWaitProcessWideKeyAtomic
                0x000000000002c0cc        0x8 C:/Users/RNG/Desktop/Stuff/Smash-Stuff/SMASH-ULTIMATE-MODS-BABY/50xx-the-mod/acmd-edits/code-mod-framework/lib/libnx_min/nx/lib\libnx_min.a(svc.o)
                0x000000000002c0cc                svcWaitProcessWideKeyAtomic
 .text.svcSignalProcessWideKey
                0x000000000002c0d4        0x8 C:/Users/RNG/Desktop/Stuff/Smash-Stuff/SMASH-ULTIMATE-MODS-BABY/50xx-the-mod/acmd-edits/code-mod-framework/lib/libnx_min/nx/lib\libnx_min.a(svc.o)
                0x000000000002c0d4                svcSignalProcessWideKey
 .text.svcGetSystemTick
                0x000000000002c0dc        0x8 C:/Users/RNG/Desktop/Stuff/Smash-Stuff/SMASH-ULTIMATE-MODS-BABY/50xx-the-mod/acmd-edits/code-mod-framework/lib/libnx_min/nx/lib\libnx_min.a(svc.o)
                0x000000000002c0dc                svcGetSystemTick
 .text.svcConnectToNamedPort
                0x000000000002c0e4       0x14 C:/Users/RNG/Desktop/Stuff/Smash-Stuff/SMASH-ULTIMATE-MODS-BABY/50xx-the-mod/acmd-edits/code-mod-framework/lib/libnx_min/nx/lib\libnx_min.a(svc.o)
                0x000000000002c0e4                svcConnectToNamedPort
 .text.svcSendSyncRequest
                0x000000000002c0f8        0x8 C:/Users/RNG/Desktop/Stuff/Smash-Stuff/SMASH-ULTIMATE-MODS-BABY/50xx-the-mod/acmd-edits/code-mod-framework/lib/libnx_min/nx/lib\libnx_min.a(svc.o)
                0x000000000002c0f8                svcSendSyncRequest
 .text.svcSendSyncRequestWithUserBuffer
                0x000000000002c100        0x8 C:/Users/RNG/Desktop/Stuff/Smash-Stuff/SMASH-ULTIMATE-MODS-BABY/50xx-the-mod/acmd-edits/code-mod-framework/lib/libnx_min/nx/lib\libnx_min.a(svc.o)
                0x000000000002c100                svcSendSyncRequestWithUserBuffer
 .text.svcSendAsyncRequestWithUserBuffer
                0x000000000002c108       0x14 C:/Users/RNG/Desktop/Stuff/Smash-Stuff/SMASH-ULTIMATE-MODS-BABY/50xx-the-mod/acmd-edits/code-mod-framework/lib/libnx_min/nx/lib\libnx_min.a(svc.o)
                0x000000000002c108                svcSendAsyncRequestWithUserBuffer
 .text.svcGetProcessId
                0x000000000002c11c       0x14 C:/Users/RNG/Desktop/Stuff/Smash-Stuff/SMASH-ULTIMATE-MODS-BABY/50xx-the-mod/acmd-edits/code-mod-framework/lib/libnx_min/nx/lib\libnx_min.a(svc.o)
                0x000000000002c11c                svcGetProcessId
 .text.svcGetThreadId
                0x000000000002c130       0x14 C:/Users/RNG/Desktop/Stuff/Smash-Stuff/SMASH-ULTIMATE-MODS-BABY/50xx-the-mod/acmd-edits/code-mod-framework/lib/libnx_min/nx/lib\libnx_min.a(svc.o)
                0x000000000002c130                svcGetThreadId
 .text.svcBreak
                0x000000000002c144        0x8 C:/Users/RNG/Desktop/Stuff/Smash-Stuff/SMASH-ULTIMATE-MODS-BABY/50xx-the-mod/acmd-edits/code-mod-framework/lib/libnx_min/nx/lib\libnx_min.a(svc.o)
                0x000000000002c144                svcBreak
 .text.svcOutputDebugString
                0x000000000002c14c        0x8 C:/Users/RNG/Desktop/Stuff/Smash-Stuff/SMASH-ULTIMATE-MODS-BABY/50xx-the-mod/acmd-edits/code-mod-framework/lib/libnx_min/nx/lib\libnx_min.a(svc.o)
                0x000000000002c14c                svcOutputDebugString
 .text.svcReturnFromException
                0x000000000002c154        0x8 C:/Users/RNG/Desktop/Stuff/Smash-Stuff/SMASH-ULTIMATE-MODS-BABY/50xx-the-mod/acmd-edits/code-mod-framework/lib/libnx_min/nx/lib\libnx_min.a(svc.o)
                0x000000000002c154                svcReturnFromException
 .text.svcGetInfo
                0x000000000002c15c       0x14 C:/Users/RNG/Desktop/Stuff/Smash-Stuff/SMASH-ULTIMATE-MODS-BABY/50xx-the-mod/acmd-edits/code-mod-framework/lib/libnx_min/nx/lib\libnx_min.a(svc.o)
                0x000000000002c15c                svcGetInfo
 .text.svcMapPhysicalMemory
                0x000000000002c170        0x8 C:/Users/RNG/Desktop/Stuff/Smash-Stuff/SMASH-ULTIMATE-MODS-BABY/50xx-the-mod/acmd-edits/code-mod-framework/lib/libnx_min/nx/lib\libnx_min.a(svc.o)
                0x000000000002c170                svcMapPhysicalMemory
 .text.svcUnmapPhysicalMemory
                0x000000000002c178        0x8 C:/Users/RNG/Desktop/Stuff/Smash-Stuff/SMASH-ULTIMATE-MODS-BABY/50xx-the-mod/acmd-edits/code-mod-framework/lib/libnx_min/nx/lib\libnx_min.a(svc.o)
                0x000000000002c178                svcUnmapPhysicalMemory
 .text.svcGetResourceLimitLimitValue
                0x000000000002c180       0x14 C:/Users/RNG/Desktop/Stuff/Smash-Stuff/SMASH-ULTIMATE-MODS-BABY/50xx-the-mod/acmd-edits/code-mod-framework/lib/libnx_min/nx/lib\libnx_min.a(svc.o)
                0x000000000002c180                svcGetResourceLimitLimitValue
 .text.svcGetResourceLimitCurrentValue
                0x000000000002c194       0x14 C:/Users/RNG/Desktop/Stuff/Smash-Stuff/SMASH-ULTIMATE-MODS-BABY/50xx-the-mod/acmd-edits/code-mod-framework/lib/libnx_min/nx/lib\libnx_min.a(svc.o)
                0x000000000002c194                svcGetResourceLimitCurrentValue
 .text.svcSetThreadActivity
                0x000000000002c1a8        0x8 C:/Users/RNG/Desktop/Stuff/Smash-Stuff/SMASH-ULTIMATE-MODS-BABY/50xx-the-mod/acmd-edits/code-mod-framework/lib/libnx_min/nx/lib\libnx_min.a(svc.o)
                0x000000000002c1a8                svcSetThreadActivity
 .text.svcGetThreadContext3
                0x000000000002c1b0        0x8 C:/Users/RNG/Desktop/Stuff/Smash-Stuff/SMASH-ULTIMATE-MODS-BABY/50xx-the-mod/acmd-edits/code-mod-framework/lib/libnx_min/nx/lib\libnx_min.a(svc.o)
                0x000000000002c1b0                svcGetThreadContext3
 .text.svcCreateSession
                0x000000000002c1b8       0x18 C:/Users/RNG/Desktop/Stuff/Smash-Stuff/SMASH-ULTIMATE-MODS-BABY/50xx-the-mod/acmd-edits/code-mod-framework/lib/libnx_min/nx/lib\libnx_min.a(svc.o)
                0x000000000002c1b8                svcCreateSession
 .text.svcAcceptSession
                0x000000000002c1d0       0x14 C:/Users/RNG/Desktop/Stuff/Smash-Stuff/SMASH-ULTIMATE-MODS-BABY/50xx-the-mod/acmd-edits/code-mod-framework/lib/libnx_min/nx/lib\libnx_min.a(svc.o)
                0x000000000002c1d0                svcAcceptSession
 .text.svcReplyAndReceive
                0x000000000002c1e4       0x14 C:/Users/RNG/Desktop/Stuff/Smash-Stuff/SMASH-ULTIMATE-MODS-BABY/50xx-the-mod/acmd-edits/code-mod-framework/lib/libnx_min/nx/lib\libnx_min.a(svc.o)
                0x000000000002c1e4                svcReplyAndReceive
 .text.svcReplyAndReceiveWithUserBuffer
                0x000000000002c1f8       0x14 C:/Users/RNG/Desktop/Stuff/Smash-Stuff/SMASH-ULTIMATE-MODS-BABY/50xx-the-mod/acmd-edits/code-mod-framework/lib/libnx_min/nx/lib\libnx_min.a(svc.o)
                0x000000000002c1f8                svcReplyAndReceiveWithUserBuffer
 .text.svcCreateEvent
                0x000000000002c20c       0x18 C:/Users/RNG/Desktop/Stuff/Smash-Stuff/SMASH-ULTIMATE-MODS-BABY/50xx-the-mod/acmd-edits/code-mod-framework/lib/libnx_min/nx/lib\libnx_min.a(svc.o)
                0x000000000002c20c                svcCreateEvent
 .text.svcMapPhysicalMemoryUnsafe
                0x000000000002c224        0x8 C:/Users/RNG/Desktop/Stuff/Smash-Stuff/SMASH-ULTIMATE-MODS-BABY/50xx-the-mod/acmd-edits/code-mod-framework/lib/libnx_min/nx/lib\libnx_min.a(svc.o)
                0x000000000002c224                svcMapPhysicalMemoryUnsafe
 .text.svcUnmapPhysicalMemoryUnsafe
                0x000000000002c22c        0x8 C:/Users/RNG/Desktop/Stuff/Smash-Stuff/SMASH-ULTIMATE-MODS-BABY/50xx-the-mod/acmd-edits/code-mod-framework/lib/libnx_min/nx/lib\libnx_min.a(svc.o)
                0x000000000002c22c                svcUnmapPhysicalMemoryUnsafe
 .text.svcSetUnsafeLimit
                0x000000000002c234        0x8 C:/Users/RNG/Desktop/Stuff/Smash-Stuff/SMASH-ULTIMATE-MODS-BABY/50xx-the-mod/acmd-edits/code-mod-framework/lib/libnx_min/nx/lib\libnx_min.a(svc.o)
                0x000000000002c234                svcSetUnsafeLimit
 .text.svcCreateCodeMemory
                0x000000000002c23c       0x14 C:/Users/RNG/Desktop/Stuff/Smash-Stuff/SMASH-ULTIMATE-MODS-BABY/50xx-the-mod/acmd-edits/code-mod-framework/lib/libnx_min/nx/lib\libnx_min.a(svc.o)
                0x000000000002c23c                svcCreateCodeMemory
 .text.svcControlCodeMemory
                0x000000000002c250        0x8 C:/Users/RNG/Desktop/Stuff/Smash-Stuff/SMASH-ULTIMATE-MODS-BABY/50xx-the-mod/acmd-edits/code-mod-framework/lib/libnx_min/nx/lib\libnx_min.a(svc.o)
                0x000000000002c250                svcControlCodeMemory
 .text.svcReadWriteRegister
                0x000000000002c258       0x14 C:/Users/RNG/Desktop/Stuff/Smash-Stuff/SMASH-ULTIMATE-MODS-BABY/50xx-the-mod/acmd-edits/code-mod-framework/lib/libnx_min/nx/lib\libnx_min.a(svc.o)
                0x000000000002c258                svcReadWriteRegister
 .text.svcCreateSharedMemory
                0x000000000002c26c       0x14 C:/Users/RNG/Desktop/Stuff/Smash-Stuff/SMASH-ULTIMATE-MODS-BABY/50xx-the-mod/acmd-edits/code-mod-framework/lib/libnx_min/nx/lib\libnx_min.a(svc.o)
                0x000000000002c26c                svcCreateSharedMemory
 .text.svcMapTransferMemory
                0x000000000002c280        0x8 C:/Users/RNG/Desktop/Stuff/Smash-Stuff/SMASH-ULTIMATE-MODS-BABY/50xx-the-mod/acmd-edits/code-mod-framework/lib/libnx_min/nx/lib\libnx_min.a(svc.o)
                0x000000000002c280                svcMapTransferMemory
 .text.svcUnmapTransferMemory
                0x000000000002c288        0x8 C:/Users/RNG/Desktop/Stuff/Smash-Stuff/SMASH-ULTIMATE-MODS-BABY/50xx-the-mod/acmd-edits/code-mod-framework/lib/libnx_min/nx/lib\libnx_min.a(svc.o)
                0x000000000002c288                svcUnmapTransferMemory
 .text.svcCreateInterruptEvent
                0x000000000002c290       0x14 C:/Users/RNG/Desktop/Stuff/Smash-Stuff/SMASH-ULTIMATE-MODS-BABY/50xx-the-mod/acmd-edits/code-mod-framework/lib/libnx_min/nx/lib\libnx_min.a(svc.o)
                0x000000000002c290                svcCreateInterruptEvent
 .text.svcQueryPhysicalAddress
                0x000000000002c2a4       0x18 C:/Users/RNG/Desktop/Stuff/Smash-Stuff/SMASH-ULTIMATE-MODS-BABY/50xx-the-mod/acmd-edits/code-mod-framework/lib/libnx_min/nx/lib\libnx_min.a(svc.o)
                0x000000000002c2a4                svcQueryPhysicalAddress
 .text.svcQueryIoMapping
                0x000000000002c2bc       0x14 C:/Users/RNG/Desktop/Stuff/Smash-Stuff/SMASH-ULTIMATE-MODS-BABY/50xx-the-mod/acmd-edits/code-mod-framework/lib/libnx_min/nx/lib\libnx_min.a(svc.o)
                0x000000000002c2bc                svcQueryIoMapping
 .text.svcCreateDeviceAddressSpace
                0x000000000002c2d0       0x14 C:/Users/RNG/Desktop/Stuff/Smash-Stuff/SMASH-ULTIMATE-MODS-BABY/50xx-the-mod/acmd-edits/code-mod-framework/lib/libnx_min/nx/lib\libnx_min.a(svc.o)
                0x000000000002c2d0                svcCreateDeviceAddressSpace
 .text.svcAttachDeviceAddressSpace
                0x000000000002c2e4        0x8 C:/Users/RNG/Desktop/Stuff/Smash-Stuff/SMASH-ULTIMATE-MODS-BABY/50xx-the-mod/acmd-edits/code-mod-framework/lib/libnx_min/nx/lib\libnx_min.a(svc.o)
                0x000000000002c2e4                svcAttachDeviceAddressSpace
 .text.svcDetachDeviceAddressSpace
                0x000000000002c2ec        0x8 C:/Users/RNG/Desktop/Stuff/Smash-Stuff/SMASH-ULTIMATE-MODS-BABY/50xx-the-mod/acmd-edits/code-mod-framework/lib/libnx_min/nx/lib\libnx_min.a(svc.o)
                0x000000000002c2ec                svcDetachDeviceAddressSpace
 .text.svcMapDeviceAddressSpaceByForce
                0x000000000002c2f4        0x8 C:/Users/RNG/Desktop/Stuff/Smash-Stuff/SMASH-ULTIMATE-MODS-BABY/50xx-the-mod/acmd-edits/code-mod-framework/lib/libnx_min/nx/lib\libnx_min.a(svc.o)
                0x000000000002c2f4                svcMapDeviceAddressSpaceByForce
 .text.svcMapDeviceAddressSpaceAligned
                0x000000000002c2fc        0x8 C:/Users/RNG/Desktop/Stuff/Smash-Stuff/SMASH-ULTIMATE-MODS-BABY/50xx-the-mod/acmd-edits/code-mod-framework/lib/libnx_min/nx/lib\libnx_min.a(svc.o)
                0x000000000002c2fc                svcMapDeviceAddressSpaceAligned
 .text.svcUnmapDeviceAddressSpace
                0x000000000002c304        0x8 C:/Users/RNG/Desktop/Stuff/Smash-Stuff/SMASH-ULTIMATE-MODS-BABY/50xx-the-mod/acmd-edits/code-mod-framework/lib/libnx_min/nx/lib\libnx_min.a(svc.o)
                0x000000000002c304                svcUnmapDeviceAddressSpace
 .text.svcDebugActiveProcess
                0x000000000002c30c       0x14 C:/Users/RNG/Desktop/Stuff/Smash-Stuff/SMASH-ULTIMATE-MODS-BABY/50xx-the-mod/acmd-edits/code-mod-framework/lib/libnx_min/nx/lib\libnx_min.a(svc.o)
                0x000000000002c30c                svcDebugActiveProcess
 .text.svcBreakDebugProcess
                0x000000000002c320        0x8 C:/Users/RNG/Desktop/Stuff/Smash-Stuff/SMASH-ULTIMATE-MODS-BABY/50xx-the-mod/acmd-edits/code-mod-framework/lib/libnx_min/nx/lib\libnx_min.a(svc.o)
                0x000000000002c320                svcBreakDebugProcess
 .text.svcTerminateDebugProcess
                0x000000000002c328        0x8 C:/Users/RNG/Desktop/Stuff/Smash-Stuff/SMASH-ULTIMATE-MODS-BABY/50xx-the-mod/acmd-edits/code-mod-framework/lib/libnx_min/nx/lib\libnx_min.a(svc.o)
                0x000000000002c328                svcTerminateDebugProcess
 .text.svcGetDebugEvent
                0x000000000002c330        0x8 C:/Users/RNG/Desktop/Stuff/Smash-Stuff/SMASH-ULTIMATE-MODS-BABY/50xx-the-mod/acmd-edits/code-mod-framework/lib/libnx_min/nx/lib\libnx_min.a(svc.o)
                0x000000000002c330                svcGetDebugEvent
 .text.svcLegacyContinueDebugEvent
                0x000000000002c338        0x8 C:/Users/RNG/Desktop/Stuff/Smash-Stuff/SMASH-ULTIMATE-MODS-BABY/50xx-the-mod/acmd-edits/code-mod-framework/lib/libnx_min/nx/lib\libnx_min.a(svc.o)
                0x000000000002c338                svcLegacyContinueDebugEvent
 .text.svcContinueDebugEvent
                0x000000000002c340        0x8 C:/Users/RNG/Desktop/Stuff/Smash-Stuff/SMASH-ULTIMATE-MODS-BABY/50xx-the-mod/acmd-edits/code-mod-framework/lib/libnx_min/nx/lib\libnx_min.a(svc.o)
                0x000000000002c340                svcContinueDebugEvent
 .text.svcGetProcessList
                0x000000000002c348       0x14 C:/Users/RNG/Desktop/Stuff/Smash-Stuff/SMASH-ULTIMATE-MODS-BABY/50xx-the-mod/acmd-edits/code-mod-framework/lib/libnx_min/nx/lib\libnx_min.a(svc.o)
                0x000000000002c348                svcGetProcessList
 .text.svcGetThreadList
                0x000000000002c35c       0x14 C:/Users/RNG/Desktop/Stuff/Smash-Stuff/SMASH-ULTIMATE-MODS-BABY/50xx-the-mod/acmd-edits/code-mod-framework/lib/libnx_min/nx/lib\libnx_min.a(svc.o)
                0x000000000002c35c                svcGetThreadList
 .text.svcGetDebugThreadContext
                0x000000000002c370        0x8 C:/Users/RNG/Desktop/Stuff/Smash-Stuff/SMASH-ULTIMATE-MODS-BABY/50xx-the-mod/acmd-edits/code-mod-framework/lib/libnx_min/nx/lib\libnx_min.a(svc.o)
                0x000000000002c370                svcGetDebugThreadContext
 .text.svcSetDebugThreadContext
                0x000000000002c378        0x8 C:/Users/RNG/Desktop/Stuff/Smash-Stuff/SMASH-ULTIMATE-MODS-BABY/50xx-the-mod/acmd-edits/code-mod-framework/lib/libnx_min/nx/lib\libnx_min.a(svc.o)
                0x000000000002c378                svcSetDebugThreadContext
 .text.svcQueryDebugProcessMemory
                0x000000000002c380       0x14 C:/Users/RNG/Desktop/Stuff/Smash-Stuff/SMASH-ULTIMATE-MODS-BABY/50xx-the-mod/acmd-edits/code-mod-framework/lib/libnx_min/nx/lib\libnx_min.a(svc.o)
                0x000000000002c380                svcQueryDebugProcessMemory
 .text.svcReadDebugProcessMemory
                0x000000000002c394        0x8 C:/Users/RNG/Desktop/Stuff/Smash-Stuff/SMASH-ULTIMATE-MODS-BABY/50xx-the-mod/acmd-edits/code-mod-framework/lib/libnx_min/nx/lib\libnx_min.a(svc.o)
                0x000000000002c394                svcReadDebugProcessMemory
 .text.svcWriteDebugProcessMemory
                0x000000000002c39c        0x8 C:/Users/RNG/Desktop/Stuff/Smash-Stuff/SMASH-ULTIMATE-MODS-BABY/50xx-the-mod/acmd-edits/code-mod-framework/lib/libnx_min/nx/lib\libnx_min.a(svc.o)
                0x000000000002c39c                svcWriteDebugProcessMemory
 .text.svcGetDebugThreadParam
                0x000000000002c3a4       0x18 C:/Users/RNG/Desktop/Stuff/Smash-Stuff/SMASH-ULTIMATE-MODS-BABY/50xx-the-mod/acmd-edits/code-mod-framework/lib/libnx_min/nx/lib\libnx_min.a(svc.o)
                0x000000000002c3a4                svcGetDebugThreadParam
 .text.svcGetSystemInfo
                0x000000000002c3bc       0x14 C:/Users/RNG/Desktop/Stuff/Smash-Stuff/SMASH-ULTIMATE-MODS-BABY/50xx-the-mod/acmd-edits/code-mod-framework/lib/libnx_min/nx/lib\libnx_min.a(svc.o)
                0x000000000002c3bc                svcGetSystemInfo
 .text.svcCreatePort
                0x000000000002c3d0       0x18 C:/Users/RNG/Desktop/Stuff/Smash-Stuff/SMASH-ULTIMATE-MODS-BABY/50xx-the-mod/acmd-edits/code-mod-framework/lib/libnx_min/nx/lib\libnx_min.a(svc.o)
                0x000000000002c3d0                svcCreatePort
 .text.svcManageNamedPort
                0x000000000002c3e8       0x14 C:/Users/RNG/Desktop/Stuff/Smash-Stuff/SMASH-ULTIMATE-MODS-BABY/50xx-the-mod/acmd-edits/code-mod-framework/lib/libnx_min/nx/lib\libnx_min.a(svc.o)
                0x000000000002c3e8                svcManageNamedPort
 .text.svcConnectToPort
                0x000000000002c3fc       0x14 C:/Users/RNG/Desktop/Stuff/Smash-Stuff/SMASH-ULTIMATE-MODS-BABY/50xx-the-mod/acmd-edits/code-mod-framework/lib/libnx_min/nx/lib\libnx_min.a(svc.o)
                0x000000000002c3fc                svcConnectToPort
 .text.svcSetProcessMemoryPermission
                0x000000000002c410        0x8 C:/Users/RNG/Desktop/Stuff/Smash-Stuff/SMASH-ULTIMATE-MODS-BABY/50xx-the-mod/acmd-edits/code-mod-framework/lib/libnx_min/nx/lib\libnx_min.a(svc.o)
                0x000000000002c410                svcSetProcessMemoryPermission
 .text.svcMapProcessMemory
                0x000000000002c418        0x8 C:/Users/RNG/Desktop/Stuff/Smash-Stuff/SMASH-ULTIMATE-MODS-BABY/50xx-the-mod/acmd-edits/code-mod-framework/lib/libnx_min/nx/lib\libnx_min.a(svc.o)
                0x000000000002c418                svcMapProcessMemory
 .text.svcUnmapProcessMemory
                0x000000000002c420        0x8 C:/Users/RNG/Desktop/Stuff/Smash-Stuff/SMASH-ULTIMATE-MODS-BABY/50xx-the-mod/acmd-edits/code-mod-framework/lib/libnx_min/nx/lib\libnx_min.a(svc.o)
                0x000000000002c420                svcUnmapProcessMemory
 .text.svcQueryProcessMemory
                0x000000000002c428       0x14 C:/Users/RNG/Desktop/Stuff/Smash-Stuff/SMASH-ULTIMATE-MODS-BABY/50xx-the-mod/acmd-edits/code-mod-framework/lib/libnx_min/nx/lib\libnx_min.a(svc.o)
                0x000000000002c428                svcQueryProcessMemory
 .text.svcMapProcessCodeMemory
                0x000000000002c43c        0x8 C:/Users/RNG/Desktop/Stuff/Smash-Stuff/SMASH-ULTIMATE-MODS-BABY/50xx-the-mod/acmd-edits/code-mod-framework/lib/libnx_min/nx/lib\libnx_min.a(svc.o)
                0x000000000002c43c                svcMapProcessCodeMemory
 .text.svcUnmapProcessCodeMemory
                0x000000000002c444        0x8 C:/Users/RNG/Desktop/Stuff/Smash-Stuff/SMASH-ULTIMATE-MODS-BABY/50xx-the-mod/acmd-edits/code-mod-framework/lib/libnx_min/nx/lib\libnx_min.a(svc.o)
                0x000000000002c444                svcUnmapProcessCodeMemory
 .text.svcCreateProcess
                0x000000000002c44c       0x14 C:/Users/RNG/Desktop/Stuff/Smash-Stuff/SMASH-ULTIMATE-MODS-BABY/50xx-the-mod/acmd-edits/code-mod-framework/lib/libnx_min/nx/lib\libnx_min.a(svc.o)
                0x000000000002c44c                svcCreateProcess
 .text.svcStartProcess
                0x000000000002c460        0x8 C:/Users/RNG/Desktop/Stuff/Smash-Stuff/SMASH-ULTIMATE-MODS-BABY/50xx-the-mod/acmd-edits/code-mod-framework/lib/libnx_min/nx/lib\libnx_min.a(svc.o)
                0x000000000002c460                svcStartProcess
 .text.svcTerminateProcess
                0x000000000002c468        0x8 C:/Users/RNG/Desktop/Stuff/Smash-Stuff/SMASH-ULTIMATE-MODS-BABY/50xx-the-mod/acmd-edits/code-mod-framework/lib/libnx_min/nx/lib\libnx_min.a(svc.o)
                0x000000000002c468                svcTerminateProcess
 .text.svcGetProcessInfo
                0x000000000002c470       0x14 C:/Users/RNG/Desktop/Stuff/Smash-Stuff/SMASH-ULTIMATE-MODS-BABY/50xx-the-mod/acmd-edits/code-mod-framework/lib/libnx_min/nx/lib\libnx_min.a(svc.o)
                0x000000000002c470                svcGetProcessInfo
 .text.svcCreateResourceLimit
                0x000000000002c484       0x14 C:/Users/RNG/Desktop/Stuff/Smash-Stuff/SMASH-ULTIMATE-MODS-BABY/50xx-the-mod/acmd-edits/code-mod-framework/lib/libnx_min/nx/lib\libnx_min.a(svc.o)
                0x000000000002c484                svcCreateResourceLimit
 .text.svcSetResourceLimitLimitValue
                0x000000000002c498        0x8 C:/Users/RNG/Desktop/Stuff/Smash-Stuff/SMASH-ULTIMATE-MODS-BABY/50xx-the-mod/acmd-edits/code-mod-framework/lib/libnx_min/nx/lib\libnx_min.a(svc.o)
                0x000000000002c498                svcSetResourceLimitLimitValue
 .text.svcCallSecureMonitor
                0x000000000002c4a0       0x34 C:/Users/RNG/Desktop/Stuff/Smash-Stuff/SMASH-ULTIMATE-MODS-BABY/50xx-the-mod/acmd-edits/code-mod-framework/lib/libnx_min/nx/lib\libnx_min.a(svc.o)
                0x000000000002c4a0                svcCallSecureMonitor
 .text.__aarch64_read_tp
                0x000000000002c4d4        0xc C:/Users/RNG/Desktop/Stuff/Smash-Stuff/SMASH-ULTIMATE-MODS-BABY/50xx-the-mod/acmd-edits/code-mod-framework/lib/libnx_min/nx/lib\libnx_min.a(readtp.o)
                0x000000000002c4d4                __aarch64_read_tp
 .text._GetRegionFromInfo.isra.1
                0x000000000002c4e0       0x7c C:/Users/RNG/Desktop/Stuff/Smash-Stuff/SMASH-ULTIMATE-MODS-BABY/50xx-the-mod/acmd-edits/code-mod-framework/lib/libnx_min/nx/lib\libnx_min.a(virtmem.o)
 *fill*         0x000000000002c55c        0x4 
 .text.virtmemSetup
                0x000000000002c560      0x114 C:/Users/RNG/Desktop/Stuff/Smash-Stuff/SMASH-ULTIMATE-MODS-BABY/50xx-the-mod/acmd-edits/code-mod-framework/lib/libnx_min/nx/lib\libnx_min.a(virtmem.o)
                0x000000000002c560                virtmemSetup
 *fill*         0x000000000002c674        0xc 
 .text.virtmemReserve
                0x000000000002c680      0x13c C:/Users/RNG/Desktop/Stuff/Smash-Stuff/SMASH-ULTIMATE-MODS-BABY/50xx-the-mod/acmd-edits/code-mod-framework/lib/libnx_min/nx/lib\libnx_min.a(virtmem.o)
                0x000000000002c680                virtmemReserve
 *fill*         0x000000000002c7bc        0x4 
 .text.virtmemFree
                0x000000000002c7c0        0x4 C:/Users/RNG/Desktop/Stuff/Smash-Stuff/SMASH-ULTIMATE-MODS-BABY/50xx-the-mod/acmd-edits/code-mod-framework/lib/libnx_min/nx/lib\libnx_min.a(virtmem.o)
                0x000000000002c7c0                virtmemFree
 *fill*         0x000000000002c7c4        0xc 
 .text.virtmemReserveStack
                0x000000000002c7d0       0xc8 C:/Users/RNG/Desktop/Stuff/Smash-Stuff/SMASH-ULTIMATE-MODS-BABY/50xx-the-mod/acmd-edits/code-mod-framework/lib/libnx_min/nx/lib\libnx_min.a(virtmem.o)
                0x000000000002c7d0                virtmemReserveStack
 *fill*         0x000000000002c898        0x8 
 .text.virtmemFreeStack
                0x000000000002c8a0        0x4 C:/Users/RNG/Desktop/Stuff/Smash-Stuff/SMASH-ULTIMATE-MODS-BABY/50xx-the-mod/acmd-edits/code-mod-framework/lib/libnx_min/nx/lib\libnx_min.a(virtmem.o)
                0x000000000002c8a0                virtmemFreeStack
 *fill*         0x000000000002c8a4        0xc 
 .text.mutexLock
                0x000000000002c8b0       0x8c C:/Users/RNG/Desktop/Stuff/Smash-Stuff/SMASH-ULTIMATE-MODS-BABY/50xx-the-mod/acmd-edits/code-mod-framework/lib/libnx_min/nx/lib\libnx_min.a(mutex.o)
                0x000000000002c8b0                mutexLock
 *fill*         0x000000000002c93c        0x4 
 .text.mutexTryLock
                0x000000000002c940       0x34 C:/Users/RNG/Desktop/Stuff/Smash-Stuff/SMASH-ULTIMATE-MODS-BABY/50xx-the-mod/acmd-edits/code-mod-framework/lib/libnx_min/nx/lib\libnx_min.a(mutex.o)
                0x000000000002c940                mutexTryLock
 *fill*         0x000000000002c974        0xc 
 .text.mutexUnlock
                0x000000000002c980       0x30 C:/Users/RNG/Desktop/Stuff/Smash-Stuff/SMASH-ULTIMATE-MODS-BABY/50xx-the-mod/acmd-edits/code-mod-framework/lib/libnx_min/nx/lib\libnx_min.a(mutex.o)
                0x000000000002c980                mutexUnlock
 .text.rmutexLock
                0x000000000002c9b0       0x4c C:/Users/RNG/Desktop/Stuff/Smash-Stuff/SMASH-ULTIMATE-MODS-BABY/50xx-the-mod/acmd-edits/code-mod-framework/lib/libnx_min/nx/lib\libnx_min.a(mutex.o)
                0x000000000002c9b0                rmutexLock
 *fill*         0x000000000002c9fc        0x4 
 .text.rmutexTryLock
                0x000000000002ca00       0x5c C:/Users/RNG/Desktop/Stuff/Smash-Stuff/SMASH-ULTIMATE-MODS-BABY/50xx-the-mod/acmd-edits/code-mod-framework/lib/libnx_min/nx/lib\libnx_min.a(mutex.o)
                0x000000000002ca00                rmutexTryLock
 *fill*         0x000000000002ca5c        0x4 
 .text.rmutexUnlock
                0x000000000002ca60       0x1c C:/Users/RNG/Desktop/Stuff/Smash-Stuff/SMASH-ULTIMATE-MODS-BABY/50xx-the-mod/acmd-edits/code-mod-framework/lib/libnx_min/nx/lib\libnx_min.a(mutex.o)
                0x000000000002ca60                rmutexUnlock
 *fill*         0x000000000002ca7c        0x4 
 .text.ipcPrepareHeader
                0x000000000002ca80      0x220 C:/Users/RNG/Desktop/Stuff/Smash-Stuff/SMASH-ULTIMATE-MODS-BABY/50xx-the-mod/acmd-edits/code-mod-framework/lib/libnx_min/nx/lib\libnx_min.a(fs.o)
 .text.ipcParse
                0x000000000002cca0      0x22c C:/Users/RNG/Desktop/Stuff/Smash-Stuff/SMASH-ULTIMATE-MODS-BABY/50xx-the-mod/acmd-edits/code-mod-framework/lib/libnx_min/nx/lib\libnx_min.a(fs.o)
 *fill*         0x000000000002cecc        0x4 
 .text.serviceIpcParse
                0x000000000002ced0       0xb0 C:/Users/RNG/Desktop/Stuff/Smash-Stuff/SMASH-ULTIMATE-MODS-BABY/50xx-the-mod/acmd-edits/code-mod-framework/lib/libnx_min/nx/lib\libnx_min.a(fs.o)
 .text.ipcCloseObjectById
                0x000000000002cf80       0x34 C:/Users/RNG/Desktop/Stuff/Smash-Stuff/SMASH-ULTIMATE-MODS-BABY/50xx-the-mod/acmd-edits/code-mod-framework/lib/libnx_min/nx/lib\libnx_min.a(fs.o)
 *fill*         0x000000000002cfb4        0xc 
 .text._fsDeviceOperatorCheckInserted
                0x000000000002cfc0      0x19c C:/Users/RNG/Desktop/Stuff/Smash-Stuff/SMASH-ULTIMATE-MODS-BABY/50xx-the-mod/acmd-edits/code-mod-framework/lib/libnx_min/nx/lib\libnx_min.a(fs.o)
 *fill*         0x000000000002d15c        0x4 
 .text.fsFsQueryEntry.part.12
                0x000000000002d160      0x274 C:/Users/RNG/Desktop/Stuff/Smash-Stuff/SMASH-ULTIMATE-MODS-BABY/50xx-the-mod/acmd-edits/code-mod-framework/lib/libnx_min/nx/lib\libnx_min.a(fs.o)
 *fill*         0x000000000002d3d4        0xc 
 .text.fsInitialize
                0x000000000002d3e0      0x200 C:/Users/RNG/Desktop/Stuff/Smash-Stuff/SMASH-ULTIMATE-MODS-BABY/50xx-the-mod/acmd-edits/code-mod-framework/lib/libnx_min/nx/lib\libnx_min.a(fs.o)
                0x000000000002d3e0                fsInitialize
 .text.fsExit   0x000000000002d5e0       0x9c C:/Users/RNG/Desktop/Stuff/Smash-Stuff/SMASH-ULTIMATE-MODS-BABY/50xx-the-mod/acmd-edits/code-mod-framework/lib/libnx_min/nx/lib\libnx_min.a(fs.o)
                0x000000000002d5e0                fsExit
 *fill*         0x000000000002d67c        0x4 
 .text.fsGetServiceSession
                0x000000000002d680        0xc C:/Users/RNG/Desktop/Stuff/Smash-Stuff/SMASH-ULTIMATE-MODS-BABY/50xx-the-mod/acmd-edits/code-mod-framework/lib/libnx_min/nx/lib\libnx_min.a(fs.o)
                0x000000000002d680                fsGetServiceSession
 *fill*         0x000000000002d68c        0x4 
 .text.fsOpenBisStorage
                0x000000000002d690      0x1ec C:/Users/RNG/Desktop/Stuff/Smash-Stuff/SMASH-ULTIMATE-MODS-BABY/50xx-the-mod/acmd-edits/code-mod-framework/lib/libnx_min/nx/lib\libnx_min.a(fs.o)
                0x000000000002d690                fsOpenBisStorage
 *fill*         0x000000000002d87c        0x4 
 .text.fsOpenBisFileSystem
                0x000000000002d880      0x170 C:/Users/RNG/Desktop/Stuff/Smash-Stuff/SMASH-ULTIMATE-MODS-BABY/50xx-the-mod/acmd-edits/code-mod-framework/lib/libnx_min/nx/lib\libnx_min.a(fs.o)
                0x000000000002d880                fsOpenBisFileSystem
 .text.fsMountSdcard
                0x000000000002d9f0      0x1cc C:/Users/RNG/Desktop/Stuff/Smash-Stuff/SMASH-ULTIMATE-MODS-BABY/50xx-the-mod/acmd-edits/code-mod-framework/lib/libnx_min/nx/lib\libnx_min.a(fs.o)
                0x000000000002d9f0                fsMountSdcard
 *fill*         0x000000000002dbbc        0x4 
 .text.fsMountSaveData
                0x000000000002dbc0      0x208 C:/Users/RNG/Desktop/Stuff/Smash-Stuff/SMASH-ULTIMATE-MODS-BABY/50xx-the-mod/acmd-edits/code-mod-framework/lib/libnx_min/nx/lib\libnx_min.a(fs.o)
                0x000000000002dbc0                fsMountSaveData
 *fill*         0x000000000002ddc8        0x8 
 .text.fsMountSystemSaveData
                0x000000000002ddd0      0x208 C:/Users/RNG/Desktop/Stuff/Smash-Stuff/SMASH-ULTIMATE-MODS-BABY/50xx-the-mod/acmd-edits/code-mod-framework/lib/libnx_min/nx/lib\libnx_min.a(fs.o)
                0x000000000002ddd0                fsMountSystemSaveData
 *fill*         0x000000000002dfd8        0x8 
 .text.fsOpenSaveDataIterator
                0x000000000002dfe0      0x1e0 C:/Users/RNG/Desktop/Stuff/Smash-Stuff/SMASH-ULTIMATE-MODS-BABY/50xx-the-mod/acmd-edits/code-mod-framework/lib/libnx_min/nx/lib\libnx_min.a(fs.o)
                0x000000000002dfe0                fsOpenSaveDataIterator
 .text.fsOpenContentStorageFileSystem
                0x000000000002e1c0      0x1d4 C:/Users/RNG/Desktop/Stuff/Smash-Stuff/SMASH-ULTIMATE-MODS-BABY/50xx-the-mod/acmd-edits/code-mod-framework/lib/libnx_min/nx/lib\libnx_min.a(fs.o)
                0x000000000002e1c0                fsOpenContentStorageFileSystem
 *fill*         0x000000000002e394        0xc 
 .text.fsOpenDataStorageByCurrentProcess
                0x000000000002e3a0      0x1cc C:/Users/RNG/Desktop/Stuff/Smash-Stuff/SMASH-ULTIMATE-MODS-BABY/50xx-the-mod/acmd-edits/code-mod-framework/lib/libnx_min/nx/lib\libnx_min.a(fs.o)
                0x000000000002e3a0                fsOpenDataStorageByCurrentProcess
 *fill*         0x000000000002e56c        0x4 
 .text.fsOpenDataStorageByDataId
                0x000000000002e570      0x200 C:/Users/RNG/Desktop/Stuff/Smash-Stuff/SMASH-ULTIMATE-MODS-BABY/50xx-the-mod/acmd-edits/code-mod-framework/lib/libnx_min/nx/lib\libnx_min.a(fs.o)
                0x000000000002e570                fsOpenDataStorageByDataId
 .text.fsOpenDeviceOperator
                0x000000000002e770      0x1cc C:/Users/RNG/Desktop/Stuff/Smash-Stuff/SMASH-ULTIMATE-MODS-BABY/50xx-the-mod/acmd-edits/code-mod-framework/lib/libnx_min/nx/lib\libnx_min.a(fs.o)
                0x000000000002e770                fsOpenDeviceOperator
 *fill*         0x000000000002e93c        0x4 
 .text.fsOpenSdCardDetectionEventNotifier
                0x000000000002e940      0x1cc C:/Users/RNG/Desktop/Stuff/Smash-Stuff/SMASH-ULTIMATE-MODS-BABY/50xx-the-mod/acmd-edits/code-mod-framework/lib/libnx_min/nx/lib\libnx_min.a(fs.o)
                0x000000000002e940                fsOpenSdCardDetectionEventNotifier
 *fill*         0x000000000002eb0c        0x4 
 .text.fsGetRightsIdByPath
                0x000000000002eb10      0x174 C:/Users/RNG/Desktop/Stuff/Smash-Stuff/SMASH-ULTIMATE-MODS-BABY/50xx-the-mod/acmd-edits/code-mod-framework/lib/libnx_min/nx/lib\libnx_min.a(fs.o)
                0x000000000002eb10                fsGetRightsIdByPath
 *fill*         0x000000000002ec84        0xc 
 .text.fsGetRightsIdAndKeyGenerationByPath
                0x000000000002ec90      0x184 C:/Users/RNG/Desktop/Stuff/Smash-Stuff/SMASH-ULTIMATE-MODS-BABY/50xx-the-mod/acmd-edits/code-mod-framework/lib/libnx_min/nx/lib\libnx_min.a(fs.o)
                0x000000000002ec90                fsGetRightsIdAndKeyGenerationByPath
 *fill*         0x000000000002ee14        0xc 
 .text.fsIsExFatSupported
                0x000000000002ee20      0x138 C:/Users/RNG/Desktop/Stuff/Smash-Stuff/SMASH-ULTIMATE-MODS-BABY/50xx-the-mod/acmd-edits/code-mod-framework/lib/libnx_min/nx/lib\libnx_min.a(fs.o)
                0x000000000002ee20                fsIsExFatSupported
 *fill*         0x000000000002ef58        0x8 
 .text.fsMount_SaveData
                0x000000000002ef60       0x3c C:/Users/RNG/Desktop/Stuff/Smash-Stuff/SMASH-ULTIMATE-MODS-BABY/50xx-the-mod/acmd-edits/code-mod-framework/lib/libnx_min/nx/lib\libnx_min.a(fs.o)
                0x000000000002ef60                fsMount_SaveData
 *fill*         0x000000000002ef9c        0x4 
 .text.fsMount_SystemSaveData
                0x000000000002efa0       0x30 C:/Users/RNG/Desktop/Stuff/Smash-Stuff/SMASH-ULTIMATE-MODS-BABY/50xx-the-mod/acmd-edits/code-mod-framework/lib/libnx_min/nx/lib\libnx_min.a(fs.o)
                0x000000000002efa0                fsMount_SystemSaveData
 .text.fsOpenFileSystemWithId
                0x000000000002efd0      0x248 C:/Users/RNG/Desktop/Stuff/Smash-Stuff/SMASH-ULTIMATE-MODS-BABY/50xx-the-mod/acmd-edits/code-mod-framework/lib/libnx_min/nx/lib\libnx_min.a(fs.o)
                0x000000000002efd0                fsOpenFileSystemWithId
 *fill*         0x000000000002f218        0x8 
 .text.fsOpenFileSystem
                0x000000000002f220       0x10 C:/Users/RNG/Desktop/Stuff/Smash-Stuff/SMASH-ULTIMATE-MODS-BABY/50xx-the-mod/acmd-edits/code-mod-framework/lib/libnx_min/nx/lib\libnx_min.a(fs.o)
                0x000000000002f220                fsOpenFileSystem
 .text.fsOpenFileSystemWithPatch
                0x000000000002f230      0x184 C:/Users/RNG/Desktop/Stuff/Smash-Stuff/SMASH-ULTIMATE-MODS-BABY/50xx-the-mod/acmd-edits/code-mod-framework/lib/libnx_min/nx/lib\libnx_min.a(fs.o)
                0x000000000002f230                fsOpenFileSystemWithPatch
 *fill*         0x000000000002f3b4        0xc 
 .text.fsFsCreateFile
                0x000000000002f3c0      0x1a4 C:/Users/RNG/Desktop/Stuff/Smash-Stuff/SMASH-ULTIMATE-MODS-BABY/50xx-the-mod/acmd-edits/code-mod-framework/lib/libnx_min/nx/lib\libnx_min.a(fs.o)
                0x000000000002f3c0                fsFsCreateFile
 *fill*         0x000000000002f564        0xc 
 .text.fsFsDeleteFile
                0x000000000002f570      0x19c C:/Users/RNG/Desktop/Stuff/Smash-Stuff/SMASH-ULTIMATE-MODS-BABY/50xx-the-mod/acmd-edits/code-mod-framework/lib/libnx_min/nx/lib\libnx_min.a(fs.o)
                0x000000000002f570                fsFsDeleteFile
 *fill*         0x000000000002f70c        0x4 
 .text.fsFsCreateDirectory
                0x000000000002f710      0x19c C:/Users/RNG/Desktop/Stuff/Smash-Stuff/SMASH-ULTIMATE-MODS-BABY/50xx-the-mod/acmd-edits/code-mod-framework/lib/libnx_min/nx/lib\libnx_min.a(fs.o)
                0x000000000002f710                fsFsCreateDirectory
 *fill*         0x000000000002f8ac        0x4 
 .text.fsFsDeleteDirectory
                0x000000000002f8b0      0x19c C:/Users/RNG/Desktop/Stuff/Smash-Stuff/SMASH-ULTIMATE-MODS-BABY/50xx-the-mod/acmd-edits/code-mod-framework/lib/libnx_min/nx/lib\libnx_min.a(fs.o)
                0x000000000002f8b0                fsFsDeleteDirectory
 *fill*         0x000000000002fa4c        0x4 
 .text.fsFsDeleteDirectoryRecursively
                0x000000000002fa50      0x19c C:/Users/RNG/Desktop/Stuff/Smash-Stuff/SMASH-ULTIMATE-MODS-BABY/50xx-the-mod/acmd-edits/code-mod-framework/lib/libnx_min/nx/lib\libnx_min.a(fs.o)
                0x000000000002fa50                fsFsDeleteDirectoryRecursively
 *fill*         0x000000000002fbec        0x4 
 .text.fsFsRenameFile
                0x000000000002fbf0      0x214 C:/Users/RNG/Desktop/Stuff/Smash-Stuff/SMASH-ULTIMATE-MODS-BABY/50xx-the-mod/acmd-edits/code-mod-framework/lib/libnx_min/nx/lib\libnx_min.a(fs.o)
                0x000000000002fbf0                fsFsRenameFile
 *fill*         0x000000000002fe04        0xc 
 .text.fsFsRenameDirectory
                0x000000000002fe10      0x214 C:/Users/RNG/Desktop/Stuff/Smash-Stuff/SMASH-ULTIMATE-MODS-BABY/50xx-the-mod/acmd-edits/code-mod-framework/lib/libnx_min/nx/lib\libnx_min.a(fs.o)
                0x000000000002fe10                fsFsRenameDirectory
 *fill*         0x0000000000030024        0xc 
 .text.fsFsGetEntryType
                0x0000000000030030      0x1b0 C:/Users/RNG/Desktop/Stuff/Smash-Stuff/SMASH-ULTIMATE-MODS-BABY/50xx-the-mod/acmd-edits/code-mod-framework/lib/libnx_min/nx/lib\libnx_min.a(fs.o)
                0x0000000000030030                fsFsGetEntryType
 .text.fsFsOpenFile
                0x00000000000301e0      0x1e4 C:/Users/RNG/Desktop/Stuff/Smash-Stuff/SMASH-ULTIMATE-MODS-BABY/50xx-the-mod/acmd-edits/code-mod-framework/lib/libnx_min/nx/lib\libnx_min.a(fs.o)
                0x00000000000301e0                fsFsOpenFile
 *fill*         0x00000000000303c4        0xc 
 .text.fsFsOpenDirectory
                0x00000000000303d0      0x1f8 C:/Users/RNG/Desktop/Stuff/Smash-Stuff/SMASH-ULTIMATE-MODS-BABY/50xx-the-mod/acmd-edits/code-mod-framework/lib/libnx_min/nx/lib\libnx_min.a(fs.o)
                0x00000000000303d0                fsFsOpenDirectory
 *fill*         0x00000000000305c8        0x8 
 .text.fsFsCommit
                0x00000000000305d0      0x17c C:/Users/RNG/Desktop/Stuff/Smash-Stuff/SMASH-ULTIMATE-MODS-BABY/50xx-the-mod/acmd-edits/code-mod-framework/lib/libnx_min/nx/lib\libnx_min.a(fs.o)
                0x00000000000305d0                fsFsCommit
 *fill*         0x000000000003074c        0x4 
 .text.fsFsGetFreeSpace
                0x0000000000030750      0x1b0 C:/Users/RNG/Desktop/Stuff/Smash-Stuff/SMASH-ULTIMATE-MODS-BABY/50xx-the-mod/acmd-edits/code-mod-framework/lib/libnx_min/nx/lib\libnx_min.a(fs.o)
                0x0000000000030750                fsFsGetFreeSpace
 .text.fsFsGetTotalSpace
                0x0000000000030900      0x1b0 C:/Users/RNG/Desktop/Stuff/Smash-Stuff/SMASH-ULTIMATE-MODS-BABY/50xx-the-mod/acmd-edits/code-mod-framework/lib/libnx_min/nx/lib\libnx_min.a(fs.o)
                0x0000000000030900                fsFsGetTotalSpace
 .text.fsFsCleanDirectoryRecursively
                0x0000000000030ab0      0x140 C:/Users/RNG/Desktop/Stuff/Smash-Stuff/SMASH-ULTIMATE-MODS-BABY/50xx-the-mod/acmd-edits/code-mod-framework/lib/libnx_min/nx/lib\libnx_min.a(fs.o)
                0x0000000000030ab0                fsFsCleanDirectoryRecursively
 .text.fsFsGetFileTimeStampRaw
                0x0000000000030bf0      0x194 C:/Users/RNG/Desktop/Stuff/Smash-Stuff/SMASH-ULTIMATE-MODS-BABY/50xx-the-mod/acmd-edits/code-mod-framework/lib/libnx_min/nx/lib\libnx_min.a(fs.o)
                0x0000000000030bf0                fsFsGetFileTimeStampRaw
 *fill*         0x0000000000030d84        0xc 
 .text.fsFsQueryEntry
                0x0000000000030d90       0x60 C:/Users/RNG/Desktop/Stuff/Smash-Stuff/SMASH-ULTIMATE-MODS-BABY/50xx-the-mod/acmd-edits/code-mod-framework/lib/libnx_min/nx/lib\libnx_min.a(fs.o)
                0x0000000000030d90                fsFsQueryEntry
 .text.fsFsSetArchiveBit
                0x0000000000030df0       0x1c C:/Users/RNG/Desktop/Stuff/Smash-Stuff/SMASH-ULTIMATE-MODS-BABY/50xx-the-mod/acmd-edits/code-mod-framework/lib/libnx_min/nx/lib\libnx_min.a(fs.o)
                0x0000000000030df0                fsFsSetArchiveBit
 *fill*         0x0000000000030e0c        0x4 
 .text.fsFsClose
                0x0000000000030e10       0x6c C:/Users/RNG/Desktop/Stuff/Smash-Stuff/SMASH-ULTIMATE-MODS-BABY/50xx-the-mod/acmd-edits/code-mod-framework/lib/libnx_min/nx/lib\libnx_min.a(fs.o)
                0x0000000000030e10                fsFsClose
 *fill*         0x0000000000030e7c        0x4 
 .text.fsFileRead
                0x0000000000030e80      0x1f8 C:/Users/RNG/Desktop/Stuff/Smash-Stuff/SMASH-ULTIMATE-MODS-BABY/50xx-the-mod/acmd-edits/code-mod-framework/lib/libnx_min/nx/lib\libnx_min.a(fs.o)
                0x0000000000030e80                fsFileRead
 *fill*         0x0000000000031078        0x8 
 .text.fsFileWrite
                0x0000000000031080      0x1cc C:/Users/RNG/Desktop/Stuff/Smash-Stuff/SMASH-ULTIMATE-MODS-BABY/50xx-the-mod/acmd-edits/code-mod-framework/lib/libnx_min/nx/lib\libnx_min.a(fs.o)
                0x0000000000031080                fsFileWrite
 *fill*         0x000000000003124c        0x4 
 .text.fsFileFlush
                0x0000000000031250      0x17c C:/Users/RNG/Desktop/Stuff/Smash-Stuff/SMASH-ULTIMATE-MODS-BABY/50xx-the-mod/acmd-edits/code-mod-framework/lib/libnx_min/nx/lib\libnx_min.a(fs.o)
                0x0000000000031250                fsFileFlush
 *fill*         0x00000000000313cc        0x4 
 .text.fsFileSetSize
                0x00000000000313d0      0x18c C:/Users/RNG/Desktop/Stuff/Smash-Stuff/SMASH-ULTIMATE-MODS-BABY/50xx-the-mod/acmd-edits/code-mod-framework/lib/libnx_min/nx/lib\libnx_min.a(fs.o)
                0x00000000000313d0                fsFileSetSize
 *fill*         0x000000000003155c        0x4 
 .text.fsFileGetSize
                0x0000000000031560      0x194 C:/Users/RNG/Desktop/Stuff/Smash-Stuff/SMASH-ULTIMATE-MODS-BABY/50xx-the-mod/acmd-edits/code-mod-framework/lib/libnx_min/nx/lib\libnx_min.a(fs.o)
                0x0000000000031560                fsFileGetSize
 *fill*         0x00000000000316f4        0xc 
 .text.fsFileOperateRange
                0x0000000000031700      0x180 C:/Users/RNG/Desktop/Stuff/Smash-Stuff/SMASH-ULTIMATE-MODS-BABY/50xx-the-mod/acmd-edits/code-mod-framework/lib/libnx_min/nx/lib\libnx_min.a(fs.o)
                0x0000000000031700                fsFileOperateRange
 .text.fsFileClose
                0x0000000000031880       0x6c C:/Users/RNG/Desktop/Stuff/Smash-Stuff/SMASH-ULTIMATE-MODS-BABY/50xx-the-mod/acmd-edits/code-mod-framework/lib/libnx_min/nx/lib\libnx_min.a(fs.o)
                0x0000000000031880                fsFileClose
 *fill*         0x00000000000318ec        0x4 
 .text.fsDirClose
                0x00000000000318f0       0x6c C:/Users/RNG/Desktop/Stuff/Smash-Stuff/SMASH-ULTIMATE-MODS-BABY/50xx-the-mod/acmd-edits/code-mod-framework/lib/libnx_min/nx/lib\libnx_min.a(fs.o)
                0x00000000000318f0                fsDirClose
 *fill*         0x000000000003195c        0x4 
 .text.fsDirRead
                0x0000000000031960      0x1ec C:/Users/RNG/Desktop/Stuff/Smash-Stuff/SMASH-ULTIMATE-MODS-BABY/50xx-the-mod/acmd-edits/code-mod-framework/lib/libnx_min/nx/lib\libnx_min.a(fs.o)
                0x0000000000031960                fsDirRead
 *fill*         0x0000000000031b4c        0x4 
 .text.fsDirGetEntryCount
                0x0000000000031b50      0x198 C:/Users/RNG/Desktop/Stuff/Smash-Stuff/SMASH-ULTIMATE-MODS-BABY/50xx-the-mod/acmd-edits/code-mod-framework/lib/libnx_min/nx/lib\libnx_min.a(fs.o)
                0x0000000000031b50                fsDirGetEntryCount
 *fill*         0x0000000000031ce8        0x8 
 .text.fsStorageRead
                0x0000000000031cf0      0x1d0 C:/Users/RNG/Desktop/Stuff/Smash-Stuff/SMASH-ULTIMATE-MODS-BABY/50xx-the-mod/acmd-edits/code-mod-framework/lib/libnx_min/nx/lib\libnx_min.a(fs.o)
                0x0000000000031cf0                fsStorageRead
 .text.fsStorageWrite
                0x0000000000031ec0      0x1d0 C:/Users/RNG/Desktop/Stuff/Smash-Stuff/SMASH-ULTIMATE-MODS-BABY/50xx-the-mod/acmd-edits/code-mod-framework/lib/libnx_min/nx/lib\libnx_min.a(fs.o)
                0x0000000000031ec0                fsStorageWrite
 .text.fsStorageFlush
                0x0000000000032090      0x17c C:/Users/RNG/Desktop/Stuff/Smash-Stuff/SMASH-ULTIMATE-MODS-BABY/50xx-the-mod/acmd-edits/code-mod-framework/lib/libnx_min/nx/lib\libnx_min.a(fs.o)
                0x0000000000032090                fsStorageFlush
 *fill*         0x000000000003220c        0x4 
 .text.fsStorageSetSize
                0x0000000000032210      0x18c C:/Users/RNG/Desktop/Stuff/Smash-Stuff/SMASH-ULTIMATE-MODS-BABY/50xx-the-mod/acmd-edits/code-mod-framework/lib/libnx_min/nx/lib\libnx_min.a(fs.o)
                0x0000000000032210                fsStorageSetSize
 *fill*         0x000000000003239c        0x4 
 .text.fsStorageGetSize
                0x00000000000323a0      0x194 C:/Users/RNG/Desktop/Stuff/Smash-Stuff/SMASH-ULTIMATE-MODS-BABY/50xx-the-mod/acmd-edits/code-mod-framework/lib/libnx_min/nx/lib\libnx_min.a(fs.o)
                0x00000000000323a0                fsStorageGetSize
 *fill*         0x0000000000032534        0xc 
 .text.fsStorageOperateRange
                0x0000000000032540      0x180 C:/Users/RNG/Desktop/Stuff/Smash-Stuff/SMASH-ULTIMATE-MODS-BABY/50xx-the-mod/acmd-edits/code-mod-framework/lib/libnx_min/nx/lib\libnx_min.a(fs.o)
                0x0000000000032540                fsStorageOperateRange
 .text.fsStorageClose
                0x00000000000326c0       0x6c C:/Users/RNG/Desktop/Stuff/Smash-Stuff/SMASH-ULTIMATE-MODS-BABY/50xx-the-mod/acmd-edits/code-mod-framework/lib/libnx_min/nx/lib\libnx_min.a(fs.o)
                0x00000000000326c0                fsStorageClose
 *fill*         0x000000000003272c        0x4 
 .text.fsSaveDataIteratorRead
                0x0000000000032730      0x1d0 C:/Users/RNG/Desktop/Stuff/Smash-Stuff/SMASH-ULTIMATE-MODS-BABY/50xx-the-mod/acmd-edits/code-mod-framework/lib/libnx_min/nx/lib\libnx_min.a(fs.o)
                0x0000000000032730                fsSaveDataIteratorRead
 .text.fsSaveDataIteratorClose
                0x0000000000032900       0x6c C:/Users/RNG/Desktop/Stuff/Smash-Stuff/SMASH-ULTIMATE-MODS-BABY/50xx-the-mod/acmd-edits/code-mod-framework/lib/libnx_min/nx/lib\libnx_min.a(fs.o)
                0x0000000000032900                fsSaveDataIteratorClose
 *fill*         0x000000000003296c        0x4 
 .text.fsEventNotifierGetEventHandle
                0x0000000000032970      0x188 C:/Users/RNG/Desktop/Stuff/Smash-Stuff/SMASH-ULTIMATE-MODS-BABY/50xx-the-mod/acmd-edits/code-mod-framework/lib/libnx_min/nx/lib\libnx_min.a(fs.o)
                0x0000000000032970                fsEventNotifierGetEventHandle
 *fill*         0x0000000000032af8        0x8 
 .text.fsEventNotifierClose
                0x0000000000032b00       0x6c C:/Users/RNG/Desktop/Stuff/Smash-Stuff/SMASH-ULTIMATE-MODS-BABY/50xx-the-mod/acmd-edits/code-mod-framework/lib/libnx_min/nx/lib\libnx_min.a(fs.o)
                0x0000000000032b00                fsEventNotifierClose
 *fill*         0x0000000000032b6c        0x4 
 .text.fsDeviceOperatorIsSdCardInserted
                0x0000000000032b70        0xc C:/Users/RNG/Desktop/Stuff/Smash-Stuff/SMASH-ULTIMATE-MODS-BABY/50xx-the-mod/acmd-edits/code-mod-framework/lib/libnx_min/nx/lib\libnx_min.a(fs.o)
                0x0000000000032b70                fsDeviceOperatorIsSdCardInserted
 *fill*         0x0000000000032b7c        0x4 
 .text.fsDeviceOperatorIsGameCardInserted
                0x0000000000032b80        0xc C:/Users/RNG/Desktop/Stuff/Smash-Stuff/SMASH-ULTIMATE-MODS-BABY/50xx-the-mod/acmd-edits/code-mod-framework/lib/libnx_min/nx/lib\libnx_min.a(fs.o)
                0x0000000000032b80                fsDeviceOperatorIsGameCardInserted
 *fill*         0x0000000000032b8c        0x4 
 .text.fsDeviceOperatorGetGameCardHandle
                0x0000000000032b90      0x190 C:/Users/RNG/Desktop/Stuff/Smash-Stuff/SMASH-ULTIMATE-MODS-BABY/50xx-the-mod/acmd-edits/code-mod-framework/lib/libnx_min/nx/lib\libnx_min.a(fs.o)
                0x0000000000032b90                fsDeviceOperatorGetGameCardHandle
 .text.fsDeviceOperatorGetGameCardAttribute
                0x0000000000032d20      0x18c C:/Users/RNG/Desktop/Stuff/Smash-Stuff/SMASH-ULTIMATE-MODS-BABY/50xx-the-mod/acmd-edits/code-mod-framework/lib/libnx_min/nx/lib\libnx_min.a(fs.o)
                0x0000000000032d20                fsDeviceOperatorGetGameCardAttribute
 *fill*         0x0000000000032eac        0x4 
 .text.fsDeviceOperatorClose
                0x0000000000032eb0       0x6c C:/Users/RNG/Desktop/Stuff/Smash-Stuff/SMASH-ULTIMATE-MODS-BABY/50xx-the-mod/acmd-edits/code-mod-framework/lib/libnx_min/nx/lib\libnx_min.a(fs.o)
                0x0000000000032eb0                fsDeviceOperatorClose
 *fill*         0x0000000000032f1c        0x4 
 .text.ipcCloseObjectById
                0x0000000000032f20       0x34 C:/Users/RNG/Desktop/Stuff/Smash-Stuff/SMASH-ULTIMATE-MODS-BABY/50xx-the-mod/acmd-edits/code-mod-framework/lib/libnx_min/nx/lib\libnx_min.a(set.o)
 *fill*         0x0000000000032f54        0xc 
 .text._setMakeLanguageCode
                0x0000000000032f60       0xf4 C:/Users/RNG/Desktop/Stuff/Smash-Stuff/SMASH-ULTIMATE-MODS-BABY/50xx-the-mod/acmd-edits/code-mod-framework/lib/libnx_min/nx/lib\libnx_min.a(set.o)
 *fill*         0x0000000000033054        0xc 
 .text._setsysGetFirmwareVersionImpl
                0x0000000000033060      0x1d4 C:/Users/RNG/Desktop/Stuff/Smash-Stuff/SMASH-ULTIMATE-MODS-BABY/50xx-the-mod/acmd-edits/code-mod-framework/lib/libnx_min/nx/lib\libnx_min.a(set.o)
 *fill*         0x0000000000033234        0xc 
 .text.setInitialize
                0x0000000000033240       0x44 C:/Users/RNG/Desktop/Stuff/Smash-Stuff/SMASH-ULTIMATE-MODS-BABY/50xx-the-mod/acmd-edits/code-mod-framework/lib/libnx_min/nx/lib\libnx_min.a(set.o)
                0x0000000000033240                setInitialize
 *fill*         0x0000000000033284        0xc 
 .text.setExit  0x0000000000033290       0x9c C:/Users/RNG/Desktop/Stuff/Smash-Stuff/SMASH-ULTIMATE-MODS-BABY/50xx-the-mod/acmd-edits/code-mod-framework/lib/libnx_min/nx/lib\libnx_min.a(set.o)
                0x0000000000033290                setExit
 *fill*         0x000000000003332c        0x4 
 .text.setsysInitialize
                0x0000000000033330       0x3c C:/Users/RNG/Desktop/Stuff/Smash-Stuff/SMASH-ULTIMATE-MODS-BABY/50xx-the-mod/acmd-edits/code-mod-framework/lib/libnx_min/nx/lib\libnx_min.a(set.o)
                0x0000000000033330                setsysInitialize
 *fill*         0x000000000003336c        0x4 
 .text.setsysExit
                0x0000000000033370       0x9c C:/Users/RNG/Desktop/Stuff/Smash-Stuff/SMASH-ULTIMATE-MODS-BABY/50xx-the-mod/acmd-edits/code-mod-framework/lib/libnx_min/nx/lib\libnx_min.a(set.o)
                0x0000000000033370                setsysExit
 *fill*         0x000000000003340c        0x4 
 .text.setGetLanguageCode
                0x0000000000033410       0xec C:/Users/RNG/Desktop/Stuff/Smash-Stuff/SMASH-ULTIMATE-MODS-BABY/50xx-the-mod/acmd-edits/code-mod-framework/lib/libnx_min/nx/lib\libnx_min.a(set.o)
                0x0000000000033410                setGetLanguageCode
 *fill*         0x00000000000334fc        0x4 
 .text.setGetSystemLanguage
                0x0000000000033500        0x4 C:/Users/RNG/Desktop/Stuff/Smash-Stuff/SMASH-ULTIMATE-MODS-BABY/50xx-the-mod/acmd-edits/code-mod-framework/lib/libnx_min/nx/lib\libnx_min.a(set.o)
                0x0000000000033500                setGetSystemLanguage
 *fill*         0x0000000000033504        0xc 
 .text.setGetAvailableLanguageCodeCount
                0x0000000000033510      0x10c C:/Users/RNG/Desktop/Stuff/Smash-Stuff/SMASH-ULTIMATE-MODS-BABY/50xx-the-mod/acmd-edits/code-mod-framework/lib/libnx_min/nx/lib\libnx_min.a(set.o)
                0x0000000000033510                setGetAvailableLanguageCodeCount
 *fill*         0x000000000003361c        0x4 
 .text.setGetAvailableLanguageCodes
                0x0000000000033620      0x1b4 C:/Users/RNG/Desktop/Stuff/Smash-Stuff/SMASH-ULTIMATE-MODS-BABY/50xx-the-mod/acmd-edits/code-mod-framework/lib/libnx_min/nx/lib\libnx_min.a(set.o)
                0x0000000000033620                setGetAvailableLanguageCodes
 *fill*         0x00000000000337d4        0xc 
 .text.setInitializeLanguageCodesCache
                0x00000000000337e0       0x70 C:/Users/RNG/Desktop/Stuff/Smash-Stuff/SMASH-ULTIMATE-MODS-BABY/50xx-the-mod/acmd-edits/code-mod-framework/lib/libnx_min/nx/lib\libnx_min.a(set.o)
 .text.setMakeLanguage
                0x0000000000033850       0x8c C:/Users/RNG/Desktop/Stuff/Smash-Stuff/SMASH-ULTIMATE-MODS-BABY/50xx-the-mod/acmd-edits/code-mod-framework/lib/libnx_min/nx/lib\libnx_min.a(set.o)
                0x0000000000033850                setMakeLanguage
 *fill*         0x00000000000338dc        0x4 
 .text.setMakeLanguageCode
                0x00000000000338e0       0x80 C:/Users/RNG/Desktop/Stuff/Smash-Stuff/SMASH-ULTIMATE-MODS-BABY/50xx-the-mod/acmd-edits/code-mod-framework/lib/libnx_min/nx/lib\libnx_min.a(set.o)
                0x00000000000338e0                setMakeLanguageCode
 .text.setGetRegionCode
                0x0000000000033960       0xf0 C:/Users/RNG/Desktop/Stuff/Smash-Stuff/SMASH-ULTIMATE-MODS-BABY/50xx-the-mod/acmd-edits/code-mod-framework/lib/libnx_min/nx/lib\libnx_min.a(set.o)
                0x0000000000033960                setGetRegionCode
 .text.setsysGetColorSetId
                0x0000000000033a50       0xe4 C:/Users/RNG/Desktop/Stuff/Smash-Stuff/SMASH-ULTIMATE-MODS-BABY/50xx-the-mod/acmd-edits/code-mod-framework/lib/libnx_min/nx/lib\libnx_min.a(set.o)
                0x0000000000033a50                setsysGetColorSetId
 *fill*         0x0000000000033b34        0xc 
 .text.setsysSetColorSetId
                0x0000000000033b40       0xd0 C:/Users/RNG/Desktop/Stuff/Smash-Stuff/SMASH-ULTIMATE-MODS-BABY/50xx-the-mod/acmd-edits/code-mod-framework/lib/libnx_min/nx/lib\libnx_min.a(set.o)
                0x0000000000033b40                setsysSetColorSetId
 .text.setsysGetSettingsItemValue
                0x0000000000033c10      0x19c C:/Users/RNG/Desktop/Stuff/Smash-Stuff/SMASH-ULTIMATE-MODS-BABY/50xx-the-mod/acmd-edits/code-mod-framework/lib/libnx_min/nx/lib\libnx_min.a(set.o)
                0x0000000000033c10                setsysGetSettingsItemValue
 *fill*         0x0000000000033dac        0x4 
 .text.setsysGetSettingsItemValueSize
                0x0000000000033db0      0x198 C:/Users/RNG/Desktop/Stuff/Smash-Stuff/SMASH-ULTIMATE-MODS-BABY/50xx-the-mod/acmd-edits/code-mod-framework/lib/libnx_min/nx/lib\libnx_min.a(set.o)
                0x0000000000033db0                setsysGetSettingsItemValueSize
 *fill*         0x0000000000033f48        0x8 
 .text.setsysGetSerialNumber
                0x0000000000033f50      0x108 C:/Users/RNG/Desktop/Stuff/Smash-Stuff/SMASH-ULTIMATE-MODS-BABY/50xx-the-mod/acmd-edits/code-mod-framework/lib/libnx_min/nx/lib\libnx_min.a(set.o)
                0x0000000000033f50                setsysGetSerialNumber
 *fill*         0x0000000000034058        0x8 
 .text.setsysGetFlag
                0x0000000000034060       0xec C:/Users/RNG/Desktop/Stuff/Smash-Stuff/SMASH-ULTIMATE-MODS-BABY/50xx-the-mod/acmd-edits/code-mod-framework/lib/libnx_min/nx/lib\libnx_min.a(set.o)
                0x0000000000034060                setsysGetFlag
 *fill*         0x000000000003414c        0x4 
 .text.setsysSetFlag
                0x0000000000034150       0xd0 C:/Users/RNG/Desktop/Stuff/Smash-Stuff/SMASH-ULTIMATE-MODS-BABY/50xx-the-mod/acmd-edits/code-mod-framework/lib/libnx_min/nx/lib\libnx_min.a(set.o)
                0x0000000000034150                setsysSetFlag
 .text.setsysGetFirmwareVersion
                0x0000000000034220       0x44 C:/Users/RNG/Desktop/Stuff/Smash-Stuff/SMASH-ULTIMATE-MODS-BABY/50xx-the-mod/acmd-edits/code-mod-framework/lib/libnx_min/nx/lib\libnx_min.a(set.o)
                0x0000000000034220                setsysGetFirmwareVersion
 *fill*         0x0000000000034264        0xc 
 .text.setsysBindFatalDirtyFlagEvent
                0x0000000000034270      0x13c C:/Users/RNG/Desktop/Stuff/Smash-Stuff/SMASH-ULTIMATE-MODS-BABY/50xx-the-mod/acmd-edits/code-mod-framework/lib/libnx_min/nx/lib\libnx_min.a(set.o)
                0x0000000000034270                setsysBindFatalDirtyFlagEvent
 *fill*         0x00000000000343ac        0x4 
 .text.setsysGetFatalDirtyFlags
                0x00000000000343b0       0xf8 C:/Users/RNG/Desktop/Stuff/Smash-Stuff/SMASH-ULTIMATE-MODS-BABY/50xx-the-mod/acmd-edits/code-mod-framework/lib/libnx_min/nx/lib\libnx_min.a(set.o)
                0x00000000000343b0                setsysGetFatalDirtyFlags
 *fill*         0x00000000000344a8        0x8 
 .text.setsysGetDeviceNickname
                0x00000000000344b0       0xf8 C:/Users/RNG/Desktop/Stuff/Smash-Stuff/SMASH-ULTIMATE-MODS-BABY/50xx-the-mod/acmd-edits/code-mod-framework/lib/libnx_min/nx/lib\libnx_min.a(set.o)
                0x00000000000344b0                setsysGetDeviceNickname
 *fill*         0x00000000000345a8        0x8 
 .text.setsysSetDeviceNickname
                0x00000000000345b0      0x134 C:/Users/RNG/Desktop/Stuff/Smash-Stuff/SMASH-ULTIMATE-MODS-BABY/50xx-the-mod/acmd-edits/code-mod-framework/lib/libnx_min/nx/lib\libnx_min.a(set.o)
                0x00000000000345b0                setsysSetDeviceNickname
 *fill*         0x00000000000346e4        0xc 
 .text._fatalImpl
                0x00000000000346f0      0x140 C:/Users/RNG/Desktop/Stuff/Smash-Stuff/SMASH-ULTIMATE-MODS-BABY/50xx-the-mod/acmd-edits/code-mod-framework/lib/libnx_min/nx/lib\libnx_min.a(fatal.o)
 .text.fatalWithType
                0x0000000000034830       0x14 C:/Users/RNG/Desktop/Stuff/Smash-Stuff/SMASH-ULTIMATE-MODS-BABY/50xx-the-mod/acmd-edits/code-mod-framework/lib/libnx_min/nx/lib\libnx_min.a(fatal.o)
                0x0000000000034830                fatalWithType
 *fill*         0x0000000000034844        0xc 
 .text.fatalSimple
                0x0000000000034850       0x14 C:/Users/RNG/Desktop/Stuff/Smash-Stuff/SMASH-ULTIMATE-MODS-BABY/50xx-the-mod/acmd-edits/code-mod-framework/lib/libnx_min/nx/lib\libnx_min.a(fatal.o)
                0x0000000000034850                fatalSimple
 *fill*         0x0000000000034864        0xc 
 .text.fatalWithContext
                0x0000000000034870       0x14 C:/Users/RNG/Desktop/Stuff/Smash-Stuff/SMASH-ULTIMATE-MODS-BABY/50xx-the-mod/acmd-edits/code-mod-framework/lib/libnx_min/nx/lib\libnx_min.a(fatal.o)
                0x0000000000034870                fatalWithContext
 *fill*         0x0000000000034884        0xc 
 .text.ipcCloseObjectById
                0x0000000000034890       0x34 C:/Users/RNG/Desktop/Stuff/Smash-Stuff/SMASH-ULTIMATE-MODS-BABY/50xx-the-mod/acmd-edits/code-mod-framework/lib/libnx_min/nx/lib\libnx_min.a(sm.o)
 *fill*         0x00000000000348c4        0xc 
 .text.smAddOverrideHandle
                0x00000000000348d0       0x44 C:/Users/RNG/Desktop/Stuff/Smash-Stuff/SMASH-ULTIMATE-MODS-BABY/50xx-the-mod/acmd-edits/code-mod-framework/lib/libnx_min/nx/lib\libnx_min.a(sm.o)
                0x00000000000348d0                smAddOverrideHandle
 *fill*         0x0000000000034914        0xc 
 .text.smGetServiceOverride
                0x0000000000034920       0x60 C:/Users/RNG/Desktop/Stuff/Smash-Stuff/SMASH-ULTIMATE-MODS-BABY/50xx-the-mod/acmd-edits/code-mod-framework/lib/libnx_min/nx/lib\libnx_min.a(sm.o)
                0x0000000000034920                smGetServiceOverride
 .text.smHasInitialized
                0x0000000000034980       0x14 C:/Users/RNG/Desktop/Stuff/Smash-Stuff/SMASH-ULTIMATE-MODS-BABY/50xx-the-mod/acmd-edits/code-mod-framework/lib/libnx_min/nx/lib\libnx_min.a(sm.o)
                0x0000000000034980                smHasInitialized
 *fill*         0x0000000000034994        0xc 
 .text.smExit   0x00000000000349a0       0x9c C:/Users/RNG/Desktop/Stuff/Smash-Stuff/SMASH-ULTIMATE-MODS-BABY/50xx-the-mod/acmd-edits/code-mod-framework/lib/libnx_min/nx/lib\libnx_min.a(sm.o)
                0x00000000000349a0                smExit
 *fill*         0x0000000000034a3c        0x4 
 .text.smGetServiceSession
                0x0000000000034a40        0xc C:/Users/RNG/Desktop/Stuff/Smash-Stuff/SMASH-ULTIMATE-MODS-BABY/50xx-the-mod/acmd-edits/code-mod-framework/lib/libnx_min/nx/lib\libnx_min.a(sm.o)
                0x0000000000034a40                smGetServiceSession
 *fill*         0x0000000000034a4c        0x4 
 .text.smEncodeName
                0x0000000000034a50       0x38 C:/Users/RNG/Desktop/Stuff/Smash-Stuff/SMASH-ULTIMATE-MODS-BABY/50xx-the-mod/acmd-edits/code-mod-framework/lib/libnx_min/nx/lib\libnx_min.a(sm.o)
                0x0000000000034a50                smEncodeName
 *fill*         0x0000000000034a88        0x8 
 .text.smGetServiceOriginal
                0x0000000000034a90      0x22c C:/Users/RNG/Desktop/Stuff/Smash-Stuff/SMASH-ULTIMATE-MODS-BABY/50xx-the-mod/acmd-edits/code-mod-framework/lib/libnx_min/nx/lib\libnx_min.a(sm.o)
                0x0000000000034a90                smGetServiceOriginal
 *fill*         0x0000000000034cbc        0x4 
 .text.smInitialize
                0x0000000000034cc0      0x27c C:/Users/RNG/Desktop/Stuff/Smash-Stuff/SMASH-ULTIMATE-MODS-BABY/50xx-the-mod/acmd-edits/code-mod-framework/lib/libnx_min/nx/lib\libnx_min.a(sm.o)
                0x0000000000034cc0                smInitialize
 *fill*         0x0000000000034f3c        0x4 
 .text.smGetService
                0x0000000000034f40       0x74 C:/Users/RNG/Desktop/Stuff/Smash-Stuff/SMASH-ULTIMATE-MODS-BABY/50xx-the-mod/acmd-edits/code-mod-framework/lib/libnx_min/nx/lib\libnx_min.a(sm.o)
                0x0000000000034f40                smGetService
 *fill*         0x0000000000034fb4        0xc 
 .text.smRegisterService
                0x0000000000034fc0      0x25c C:/Users/RNG/Desktop/Stuff/Smash-Stuff/SMASH-ULTIMATE-MODS-BABY/50xx-the-mod/acmd-edits/code-mod-framework/lib/libnx_min/nx/lib\libnx_min.a(sm.o)
                0x0000000000034fc0                smRegisterService
 *fill*         0x000000000003521c        0x4 
 .text.smUnregisterService
                0x0000000000035220      0x1ac C:/Users/RNG/Desktop/Stuff/Smash-Stuff/SMASH-ULTIMATE-MODS-BABY/50xx-the-mod/acmd-edits/code-mod-framework/lib/libnx_min/nx/lib\libnx_min.a(sm.o)
                0x0000000000035220                smUnregisterService
 *fill*         0x00000000000353cc        0x4 
 .text._hidGetDeviceHandles.part.7
                0x00000000000353d0       0xec C:/Users/RNG/Desktop/Stuff/Smash-Stuff/SMASH-ULTIMATE-MODS-BABY/50xx-the-mod/acmd-edits/code-mod-framework/lib/libnx_min/nx/lib\libnx_min.a(hid.o)
 *fill*         0x00000000000354bc        0x4 
 .text.ipcCloseObjectById
                0x00000000000354c0       0x34 C:/Users/RNG/Desktop/Stuff/Smash-Stuff/SMASH-ULTIMATE-MODS-BABY/50xx-the-mod/acmd-edits/code-mod-framework/lib/libnx_min/nx/lib\libnx_min.a(hid.o)
 *fill*         0x00000000000354f4        0xc 
 .text._hidActivateVibrationDevice
                0x0000000000035500       0xc8 C:/Users/RNG/Desktop/Stuff/Smash-Stuff/SMASH-ULTIMATE-MODS-BABY/50xx-the-mod/acmd-edits/code-mod-framework/lib/libnx_min/nx/lib\libnx_min.a(hid.o)
 *fill*         0x00000000000355c8        0x8 
 .text._hidGetSharedMemoryHandle.constprop.17
                0x00000000000355d0      0x124 C:/Users/RNG/Desktop/Stuff/Smash-Stuff/SMASH-ULTIMATE-MODS-BABY/50xx-the-mod/acmd-edits/code-mod-framework/lib/libnx_min/nx/lib\libnx_min.a(hid.o)
 *fill*         0x00000000000356f4        0xc 
 .text._hidCreateActiveVibrationDeviceList
                0x0000000000035700      0x134 C:/Users/RNG/Desktop/Stuff/Smash-Stuff/SMASH-ULTIMATE-MODS-BABY/50xx-the-mod/acmd-edits/code-mod-framework/lib/libnx_min/nx/lib\libnx_min.a(hid.o)
 *fill*         0x0000000000035834        0xc 
 .text._hidCmdWithNoInput
                0x0000000000035840      0x100 C:/Users/RNG/Desktop/Stuff/Smash-Stuff/SMASH-ULTIMATE-MODS-BABY/50xx-the-mod/acmd-edits/code-mod-framework/lib/libnx_min/nx/lib\libnx_min.a(hid.o)
 .text._hidCreateAppletResource.constprop.16
                0x0000000000035940      0x134 C:/Users/RNG/Desktop/Stuff/Smash-Stuff/SMASH-ULTIMATE-MODS-BABY/50xx-the-mod/acmd-edits/code-mod-framework/lib/libnx_min/nx/lib\libnx_min.a(hid.o)
 *fill*         0x0000000000035a74        0xc 
 .text._hidCmdWithInputU32
                0x0000000000035a80      0x10c C:/Users/RNG/Desktop/Stuff/Smash-Stuff/SMASH-ULTIMATE-MODS-BABY/50xx-the-mod/acmd-edits/code-mod-framework/lib/libnx_min/nx/lib\libnx_min.a(hid.o)
 *fill*         0x0000000000035b8c        0x4 
 .text._hidCmdWithInputU64.constprop.18
                0x0000000000035b90      0x108 C:/Users/RNG/Desktop/Stuff/Smash-Stuff/SMASH-ULTIMATE-MODS-BABY/50xx-the-mod/acmd-edits/code-mod-framework/lib/libnx_min/nx/lib\libnx_min.a(hid.o)
 *fill*         0x0000000000035c98        0x8 
 .text._hidInitializeSevenSixAxisSensor.isra.11.constprop.19
                0x0000000000035ca0      0x1f8 C:/Users/RNG/Desktop/Stuff/Smash-Stuff/SMASH-ULTIMATE-MODS-BABY/50xx-the-mod/acmd-edits/code-mod-framework/lib/libnx_min/nx/lib\libnx_min.a(hid.o)
 *fill*         0x0000000000035e98        0x8 
 .text.hidReset
                0x0000000000035ea0      0x1f8 C:/Users/RNG/Desktop/Stuff/Smash-Stuff/SMASH-ULTIMATE-MODS-BABY/50xx-the-mod/acmd-edits/code-mod-framework/lib/libnx_min/nx/lib\libnx_min.a(hid.o)
                0x0000000000035ea0                hidReset
 *fill*         0x0000000000036098        0x8 
 .text.hidGetSessionService
                0x00000000000360a0        0xc C:/Users/RNG/Desktop/Stuff/Smash-Stuff/SMASH-ULTIMATE-MODS-BABY/50xx-the-mod/acmd-edits/code-mod-framework/lib/libnx_min/nx/lib\libnx_min.a(hid.o)
                0x00000000000360a0                hidGetSessionService
 *fill*         0x00000000000360ac        0x4 
 .text.hidGetSharedmemAddr
                0x00000000000360b0        0xc C:/Users/RNG/Desktop/Stuff/Smash-Stuff/SMASH-ULTIMATE-MODS-BABY/50xx-the-mod/acmd-edits/code-mod-framework/lib/libnx_min/nx/lib\libnx_min.a(hid.o)
                0x00000000000360b0                hidGetSharedmemAddr
 *fill*         0x00000000000360bc        0x4 
 .text.hidSetControllerLayout
                0x00000000000360c0       0x54 C:/Users/RNG/Desktop/Stuff/Smash-Stuff/SMASH-ULTIMATE-MODS-BABY/50xx-the-mod/acmd-edits/code-mod-framework/lib/libnx_min/nx/lib\libnx_min.a(hid.o)
                0x00000000000360c0                hidSetControllerLayout
 *fill*         0x0000000000036114        0xc 
 .text.hidGetControllerLayout
                0x0000000000036120       0x50 C:/Users/RNG/Desktop/Stuff/Smash-Stuff/SMASH-ULTIMATE-MODS-BABY/50xx-the-mod/acmd-edits/code-mod-framework/lib/libnx_min/nx/lib\libnx_min.a(hid.o)
                0x0000000000036120                hidGetControllerLayout
 .text.hidGetControllerType
                0x0000000000036170       0x78 C:/Users/RNG/Desktop/Stuff/Smash-Stuff/SMASH-ULTIMATE-MODS-BABY/50xx-the-mod/acmd-edits/code-mod-framework/lib/libnx_min/nx/lib\libnx_min.a(hid.o)
                0x0000000000036170                hidGetControllerType
 *fill*         0x00000000000361e8        0x8 
 .text.hidGetControllerColors
                0x00000000000361f0       0xd4 C:/Users/RNG/Desktop/Stuff/Smash-Stuff/SMASH-ULTIMATE-MODS-BABY/50xx-the-mod/acmd-edits/code-mod-framework/lib/libnx_min/nx/lib\libnx_min.a(hid.o)
                0x00000000000361f0                hidGetControllerColors
 *fill*         0x00000000000362c4        0xc 
 .text.hidIsControllerConnected
                0x00000000000362d0       0x7c C:/Users/RNG/Desktop/Stuff/Smash-Stuff/SMASH-ULTIMATE-MODS-BABY/50xx-the-mod/acmd-edits/code-mod-framework/lib/libnx_min/nx/lib\libnx_min.a(hid.o)
                0x00000000000362d0                hidIsControllerConnected
 *fill*         0x000000000003634c        0x4 
 .text.hidGetControllerDeviceType
                0x0000000000036350       0x70 C:/Users/RNG/Desktop/Stuff/Smash-Stuff/SMASH-ULTIMATE-MODS-BABY/50xx-the-mod/acmd-edits/code-mod-framework/lib/libnx_min/nx/lib\libnx_min.a(hid.o)
                0x0000000000036350                hidGetControllerDeviceType
 .text.hidGetControllerFlags
                0x00000000000363c0       0x90 C:/Users/RNG/Desktop/Stuff/Smash-Stuff/SMASH-ULTIMATE-MODS-BABY/50xx-the-mod/acmd-edits/code-mod-framework/lib/libnx_min/nx/lib\libnx_min.a(hid.o)
                0x00000000000363c0                hidGetControllerFlags
 .text.hidGetControllerPowerInfo
                0x0000000000036450      0x114 C:/Users/RNG/Desktop/Stuff/Smash-Stuff/SMASH-ULTIMATE-MODS-BABY/50xx-the-mod/acmd-edits/code-mod-framework/lib/libnx_min/nx/lib\libnx_min.a(hid.o)
                0x0000000000036450                hidGetControllerPowerInfo
 *fill*         0x0000000000036564        0xc 
 .text.hidKeysHeld
                0x0000000000036570       0x6c C:/Users/RNG/Desktop/Stuff/Smash-Stuff/SMASH-ULTIMATE-MODS-BABY/50xx-the-mod/acmd-edits/code-mod-framework/lib/libnx_min/nx/lib\libnx_min.a(hid.o)
                0x0000000000036570                hidKeysHeld
 *fill*         0x00000000000365dc        0x4 
 .text.hidKeysDown
                0x00000000000365e0       0x6c C:/Users/RNG/Desktop/Stuff/Smash-Stuff/SMASH-ULTIMATE-MODS-BABY/50xx-the-mod/acmd-edits/code-mod-framework/lib/libnx_min/nx/lib\libnx_min.a(hid.o)
                0x00000000000365e0                hidKeysDown
 *fill*         0x000000000003664c        0x4 
 .text.hidKeysUp
                0x0000000000036650       0x6c C:/Users/RNG/Desktop/Stuff/Smash-Stuff/SMASH-ULTIMATE-MODS-BABY/50xx-the-mod/acmd-edits/code-mod-framework/lib/libnx_min/nx/lib\libnx_min.a(hid.o)
                0x0000000000036650                hidKeysUp
 *fill*         0x00000000000366bc        0x4 
 .text.hidMouseButtonsHeld
                0x00000000000366c0       0x3c C:/Users/RNG/Desktop/Stuff/Smash-Stuff/SMASH-ULTIMATE-MODS-BABY/50xx-the-mod/acmd-edits/code-mod-framework/lib/libnx_min/nx/lib\libnx_min.a(hid.o)
                0x00000000000366c0                hidMouseButtonsHeld
 *fill*         0x00000000000366fc        0x4 
 .text.hidMouseButtonsDown
                0x0000000000036700       0x3c C:/Users/RNG/Desktop/Stuff/Smash-Stuff/SMASH-ULTIMATE-MODS-BABY/50xx-the-mod/acmd-edits/code-mod-framework/lib/libnx_min/nx/lib\libnx_min.a(hid.o)
                0x0000000000036700                hidMouseButtonsDown
 *fill*         0x000000000003673c        0x4 
 .text.hidMouseButtonsUp
                0x0000000000036740       0x3c C:/Users/RNG/Desktop/Stuff/Smash-Stuff/SMASH-ULTIMATE-MODS-BABY/50xx-the-mod/acmd-edits/code-mod-framework/lib/libnx_min/nx/lib\libnx_min.a(hid.o)
                0x0000000000036740                hidMouseButtonsUp
 *fill*         0x000000000003677c        0x4 
 .text.hidMouseRead
                0x0000000000036780       0x48 C:/Users/RNG/Desktop/Stuff/Smash-Stuff/SMASH-ULTIMATE-MODS-BABY/50xx-the-mod/acmd-edits/code-mod-framework/lib/libnx_min/nx/lib\libnx_min.a(hid.o)
                0x0000000000036780                hidMouseRead
 *fill*         0x00000000000367c8        0x8 
 .text.hidMouseMultiRead
                0x00000000000367d0      0x150 C:/Users/RNG/Desktop/Stuff/Smash-Stuff/SMASH-ULTIMATE-MODS-BABY/50xx-the-mod/acmd-edits/code-mod-framework/lib/libnx_min/nx/lib\libnx_min.a(hid.o)
                0x00000000000367d0                hidMouseMultiRead
 .text.hidKeyboardModifierHeld
                0x0000000000036920       0x48 C:/Users/RNG/Desktop/Stuff/Smash-Stuff/SMASH-ULTIMATE-MODS-BABY/50xx-the-mod/acmd-edits/code-mod-framework/lib/libnx_min/nx/lib\libnx_min.a(hid.o)
                0x0000000000036920                hidKeyboardModifierHeld
 *fill*         0x0000000000036968        0x8 
 .text.hidKeyboardModifierDown
                0x0000000000036970       0x48 C:/Users/RNG/Desktop/Stuff/Smash-Stuff/SMASH-ULTIMATE-MODS-BABY/50xx-the-mod/acmd-edits/code-mod-framework/lib/libnx_min/nx/lib\libnx_min.a(hid.o)
                0x0000000000036970                hidKeyboardModifierDown
 *fill*         0x00000000000369b8        0x8 
 .text.hidKeyboardModifierUp
                0x00000000000369c0       0x48 C:/Users/RNG/Desktop/Stuff/Smash-Stuff/SMASH-ULTIMATE-MODS-BABY/50xx-the-mod/acmd-edits/code-mod-framework/lib/libnx_min/nx/lib\libnx_min.a(hid.o)
                0x00000000000369c0                hidKeyboardModifierUp
 *fill*         0x0000000000036a08        0x8 
 .text.hidKeyboardHeld
                0x0000000000036a10       0x60 C:/Users/RNG/Desktop/Stuff/Smash-Stuff/SMASH-ULTIMATE-MODS-BABY/50xx-the-mod/acmd-edits/code-mod-framework/lib/libnx_min/nx/lib\libnx_min.a(hid.o)
                0x0000000000036a10                hidKeyboardHeld
 .text.hidKeyboardDown
                0x0000000000036a70       0x60 C:/Users/RNG/Desktop/Stuff/Smash-Stuff/SMASH-ULTIMATE-MODS-BABY/50xx-the-mod/acmd-edits/code-mod-framework/lib/libnx_min/nx/lib\libnx_min.a(hid.o)
                0x0000000000036a70                hidKeyboardDown
 .text.hidKeyboardUp
                0x0000000000036ad0       0x60 C:/Users/RNG/Desktop/Stuff/Smash-Stuff/SMASH-ULTIMATE-MODS-BABY/50xx-the-mod/acmd-edits/code-mod-framework/lib/libnx_min/nx/lib\libnx_min.a(hid.o)
                0x0000000000036ad0                hidKeyboardUp
 .text.hidTouchCount
                0x0000000000036b30        0xc C:/Users/RNG/Desktop/Stuff/Smash-Stuff/SMASH-ULTIMATE-MODS-BABY/50xx-the-mod/acmd-edits/code-mod-framework/lib/libnx_min/nx/lib\libnx_min.a(hid.o)
                0x0000000000036b30                hidTouchCount
 *fill*         0x0000000000036b3c        0x4 
 .text.hidScanInput
                0x0000000000036b40      0x598 C:/Users/RNG/Desktop/Stuff/Smash-Stuff/SMASH-ULTIMATE-MODS-BABY/50xx-the-mod/acmd-edits/code-mod-framework/lib/libnx_min/nx/lib\libnx_min.a(hid.o)
                0x0000000000036b40                hidScanInput
 *fill*         0x00000000000370d8        0x8 
 .text.hidTouchRead
                0x00000000000370e0       0x54 C:/Users/RNG/Desktop/Stuff/Smash-Stuff/SMASH-ULTIMATE-MODS-BABY/50xx-the-mod/acmd-edits/code-mod-framework/lib/libnx_min/nx/lib\libnx_min.a(hid.o)
                0x00000000000370e0                hidTouchRead
 *fill*         0x0000000000037134        0xc 
 .text.hidJoystickRead
                0x0000000000037140       0xac C:/Users/RNG/Desktop/Stuff/Smash-Stuff/SMASH-ULTIMATE-MODS-BABY/50xx-the-mod/acmd-edits/code-mod-framework/lib/libnx_min/nx/lib\libnx_min.a(hid.o)
                0x0000000000037140                hidJoystickRead
 *fill*         0x00000000000371ec        0x4 
 .text.hidSixAxisSensorValuesRead
                0x00000000000371f0      0x214 C:/Users/RNG/Desktop/Stuff/Smash-Stuff/SMASH-ULTIMATE-MODS-BABY/50xx-the-mod/acmd-edits/code-mod-framework/lib/libnx_min/nx/lib\libnx_min.a(hid.o)
                0x00000000000371f0                hidSixAxisSensorValuesRead
 *fill*         0x0000000000037404        0xc 
 .text.hidGetHandheldMode
                0x0000000000037410       0x14 C:/Users/RNG/Desktop/Stuff/Smash-Stuff/SMASH-ULTIMATE-MODS-BABY/50xx-the-mod/acmd-edits/code-mod-framework/lib/libnx_min/nx/lib\libnx_min.a(hid.o)
                0x0000000000037410                hidGetHandheldMode
 *fill*         0x0000000000037424        0xc 
 .text.hidSetSupportedNpadIdType
                0x0000000000037430      0x198 C:/Users/RNG/Desktop/Stuff/Smash-Stuff/SMASH-ULTIMATE-MODS-BABY/50xx-the-mod/acmd-edits/code-mod-framework/lib/libnx_min/nx/lib\libnx_min.a(hid.o)
                0x0000000000037430                hidSetSupportedNpadIdType
 *fill*         0x00000000000375c8        0x8 
 .text.hidSetSupportedNpadStyleSet
                0x00000000000375d0        0xc C:/Users/RNG/Desktop/Stuff/Smash-Stuff/SMASH-ULTIMATE-MODS-BABY/50xx-the-mod/acmd-edits/code-mod-framework/lib/libnx_min/nx/lib\libnx_min.a(hid.o)
                0x00000000000375d0                hidSetSupportedNpadStyleSet
 *fill*         0x00000000000375dc        0x4 
 .text.hidAcquireNpadStyleSetUpdateEventHandle
                0x00000000000375e0      0x194 C:/Users/RNG/Desktop/Stuff/Smash-Stuff/SMASH-ULTIMATE-MODS-BABY/50xx-the-mod/acmd-edits/code-mod-framework/lib/libnx_min/nx/lib\libnx_min.a(hid.o)
                0x00000000000375e0                hidAcquireNpadStyleSetUpdateEventHandle
 *fill*         0x0000000000037774        0xc 
 .text.hidSetNpadJoyHoldType
                0x0000000000037780        0x8 C:/Users/RNG/Desktop/Stuff/Smash-Stuff/SMASH-ULTIMATE-MODS-BABY/50xx-the-mod/acmd-edits/code-mod-framework/lib/libnx_min/nx/lib\libnx_min.a(hid.o)
                0x0000000000037780                hidSetNpadJoyHoldType
 *fill*         0x0000000000037788        0x8 
 .text.hidSetNpadJoyAssignmentModeSingleByDefault
                0x0000000000037790        0xc C:/Users/RNG/Desktop/Stuff/Smash-Stuff/SMASH-ULTIMATE-MODS-BABY/50xx-the-mod/acmd-edits/code-mod-framework/lib/libnx_min/nx/lib\libnx_min.a(hid.o)
                0x0000000000037790                hidSetNpadJoyAssignmentModeSingleByDefault
 *fill*         0x000000000003779c        0x4 
 .text.hidSetNpadJoyAssignmentModeDual
                0x00000000000377a0        0xc C:/Users/RNG/Desktop/Stuff/Smash-Stuff/SMASH-ULTIMATE-MODS-BABY/50xx-the-mod/acmd-edits/code-mod-framework/lib/libnx_min/nx/lib\libnx_min.a(hid.o)
                0x00000000000377a0                hidSetNpadJoyAssignmentModeDual
 *fill*         0x00000000000377ac        0x4 
 .text.hidMergeSingleJoyAsDualJoy
                0x00000000000377b0      0x110 C:/Users/RNG/Desktop/Stuff/Smash-Stuff/SMASH-ULTIMATE-MODS-BABY/50xx-the-mod/acmd-edits/code-mod-framework/lib/libnx_min/nx/lib\libnx_min.a(hid.o)
                0x00000000000377b0                hidMergeSingleJoyAsDualJoy
 .text.hidGetVibrationDeviceInfo
                0x00000000000378c0       0xf8 C:/Users/RNG/Desktop/Stuff/Smash-Stuff/SMASH-ULTIMATE-MODS-BABY/50xx-the-mod/acmd-edits/code-mod-framework/lib/libnx_min/nx/lib\libnx_min.a(hid.o)
                0x00000000000378c0                hidGetVibrationDeviceInfo
 *fill*         0x00000000000379b8        0x8 
 .text.hidSendVibrationValue
                0x00000000000379c0      0x120 C:/Users/RNG/Desktop/Stuff/Smash-Stuff/SMASH-ULTIMATE-MODS-BABY/50xx-the-mod/acmd-edits/code-mod-framework/lib/libnx_min/nx/lib\libnx_min.a(hid.o)
                0x00000000000379c0                hidSendVibrationValue
 .text.hidGetActualVibrationValue
                0x0000000000037ae0      0x128 C:/Users/RNG/Desktop/Stuff/Smash-Stuff/SMASH-ULTIMATE-MODS-BABY/50xx-the-mod/acmd-edits/code-mod-framework/lib/libnx_min/nx/lib\libnx_min.a(hid.o)
                0x0000000000037ae0                hidGetActualVibrationValue
 *fill*         0x0000000000037c08        0x8 
 .text.hidPermitVibration
                0x0000000000037c10       0xd0 C:/Users/RNG/Desktop/Stuff/Smash-Stuff/SMASH-ULTIMATE-MODS-BABY/50xx-the-mod/acmd-edits/code-mod-framework/lib/libnx_min/nx/lib\libnx_min.a(hid.o)
                0x0000000000037c10                hidPermitVibration
 .text.hidIsVibrationPermitted
                0x0000000000037ce0       0xf4 C:/Users/RNG/Desktop/Stuff/Smash-Stuff/SMASH-ULTIMATE-MODS-BABY/50xx-the-mod/acmd-edits/code-mod-framework/lib/libnx_min/nx/lib\libnx_min.a(hid.o)
                0x0000000000037ce0                hidIsVibrationPermitted
 *fill*         0x0000000000037dd4        0xc 
 .text.hidSendVibrationValues
                0x0000000000037de0      0x144 C:/Users/RNG/Desktop/Stuff/Smash-Stuff/SMASH-ULTIMATE-MODS-BABY/50xx-the-mod/acmd-edits/code-mod-framework/lib/libnx_min/nx/lib\libnx_min.a(hid.o)
                0x0000000000037de0                hidSendVibrationValues
 *fill*         0x0000000000037f24        0xc 
 .text.hidInitializeVibrationDevices
                0x0000000000037f30      0x114 C:/Users/RNG/Desktop/Stuff/Smash-Stuff/SMASH-ULTIMATE-MODS-BABY/50xx-the-mod/acmd-edits/code-mod-framework/lib/libnx_min/nx/lib\libnx_min.a(hid.o)
                0x0000000000037f30                hidInitializeVibrationDevices
 *fill*         0x0000000000038044        0xc 
 .text.hidGetSixAxisSensorHandles
                0x0000000000038050       0x2c C:/Users/RNG/Desktop/Stuff/Smash-Stuff/SMASH-ULTIMATE-MODS-BABY/50xx-the-mod/acmd-edits/code-mod-framework/lib/libnx_min/nx/lib\libnx_min.a(hid.o)
                0x0000000000038050                hidGetSixAxisSensorHandles
 *fill*         0x000000000003807c        0x4 
 .text.hidStartSixAxisSensor
                0x0000000000038080       0x84 C:/Users/RNG/Desktop/Stuff/Smash-Stuff/SMASH-ULTIMATE-MODS-BABY/50xx-the-mod/acmd-edits/code-mod-framework/lib/libnx_min/nx/lib\libnx_min.a(hid.o)
                0x0000000000038080                hidStartSixAxisSensor
 *fill*         0x0000000000038104        0xc 
 .text.hidStopSixAxisSensor
                0x0000000000038110       0x80 C:/Users/RNG/Desktop/Stuff/Smash-Stuff/SMASH-ULTIMATE-MODS-BABY/50xx-the-mod/acmd-edits/code-mod-framework/lib/libnx_min/nx/lib\libnx_min.a(hid.o)
                0x0000000000038110                hidStopSixAxisSensor
 .text.hidStartSevenSixAxisSensor
                0x0000000000038190       0x30 C:/Users/RNG/Desktop/Stuff/Smash-Stuff/SMASH-ULTIMATE-MODS-BABY/50xx-the-mod/acmd-edits/code-mod-framework/lib/libnx_min/nx/lib\libnx_min.a(hid.o)
                0x0000000000038190                hidStartSevenSixAxisSensor
 .text.hidStopSevenSixAxisSensor
                0x00000000000381c0       0x30 C:/Users/RNG/Desktop/Stuff/Smash-Stuff/SMASH-ULTIMATE-MODS-BABY/50xx-the-mod/acmd-edits/code-mod-framework/lib/libnx_min/nx/lib\libnx_min.a(hid.o)
                0x00000000000381c0                hidStopSevenSixAxisSensor
 .text.hidFinalizeSevenSixAxisSensor
                0x00000000000381f0       0x80 C:/Users/RNG/Desktop/Stuff/Smash-Stuff/SMASH-ULTIMATE-MODS-BABY/50xx-the-mod/acmd-edits/code-mod-framework/lib/libnx_min/nx/lib\libnx_min.a(hid.o)
                0x00000000000381f0                hidFinalizeSevenSixAxisSensor
 .text.hidExit  0x0000000000038270      0x134 C:/Users/RNG/Desktop/Stuff/Smash-Stuff/SMASH-ULTIMATE-MODS-BABY/50xx-the-mod/acmd-edits/code-mod-framework/lib/libnx_min/nx/lib\libnx_min.a(hid.o)
                0x0000000000038270                hidExit
 *fill*         0x00000000000383a4        0xc 
 .text.hidInitialize
                0x00000000000383b0      0x168 C:/Users/RNG/Desktop/Stuff/Smash-Stuff/SMASH-ULTIMATE-MODS-BABY/50xx-the-mod/acmd-edits/code-mod-framework/lib/libnx_min/nx/lib\libnx_min.a(hid.o)
                0x00000000000383b0                hidInitialize
 *fill*         0x0000000000038518        0x8 
 .text.hidInitializeSevenSixAxisSensor
                0x0000000000038520      0x130 C:/Users/RNG/Desktop/Stuff/Smash-Stuff/SMASH-ULTIMATE-MODS-BABY/50xx-the-mod/acmd-edits/code-mod-framework/lib/libnx_min/nx/lib\libnx_min.a(hid.o)
                0x0000000000038520                hidInitializeSevenSixAxisSensor
 .text.hidSetSevenSixAxisSensorFusionStrength
                0x0000000000038650      0x1f8 C:/Users/RNG/Desktop/Stuff/Smash-Stuff/SMASH-ULTIMATE-MODS-BABY/50xx-the-mod/acmd-edits/code-mod-framework/lib/libnx_min/nx/lib\libnx_min.a(hid.o)
                0x0000000000038650                hidSetSevenSixAxisSensorFusionStrength
 *fill*         0x0000000000038848        0x8 
 .text.hidGetSevenSixAxisSensorFusionStrength
                0x0000000000038850      0x1fc C:/Users/RNG/Desktop/Stuff/Smash-Stuff/SMASH-ULTIMATE-MODS-BABY/50xx-the-mod/acmd-edits/code-mod-framework/lib/libnx_min/nx/lib\libnx_min.a(hid.o)
                0x0000000000038850                hidGetSevenSixAxisSensorFusionStrength
 *fill*         0x0000000000038a4c        0x4 
 .text.hidResetSevenSixAxisSensorTimestamp
                0x0000000000038a50       0x30 C:/Users/RNG/Desktop/Stuff/Smash-Stuff/SMASH-ULTIMATE-MODS-BABY/50xx-the-mod/acmd-edits/code-mod-framework/lib/libnx_min/nx/lib\libnx_min.a(hid.o)
                0x0000000000038a50                hidResetSevenSixAxisSensorTimestamp
 .text.ipcCloseObjectById
                0x0000000000038a80       0x34 C:/Users/RNG/Desktop/Stuff/Smash-Stuff/SMASH-ULTIMATE-MODS-BABY/50xx-the-mod/acmd-edits/code-mod-framework/lib/libnx_min/nx/lib\libnx_min.a(time.o)
 *fill*         0x0000000000038ab4        0xc 
 .text._timeGetSession
                0x0000000000038ac0      0x12c C:/Users/RNG/Desktop/Stuff/Smash-Stuff/SMASH-ULTIMATE-MODS-BABY/50xx-the-mod/acmd-edits/code-mod-framework/lib/libnx_min/nx/lib\libnx_min.a(time.o)
 *fill*         0x0000000000038bec        0x4 
 .text.timeExit
                0x0000000000038bf0      0x1ec C:/Users/RNG/Desktop/Stuff/Smash-Stuff/SMASH-ULTIMATE-MODS-BABY/50xx-the-mod/acmd-edits/code-mod-framework/lib/libnx_min/nx/lib\libnx_min.a(time.o)
                0x0000000000038bf0                timeExit
 *fill*         0x0000000000038ddc        0x4 
 .text.timeInitialize
                0x0000000000038de0       0xd8 C:/Users/RNG/Desktop/Stuff/Smash-Stuff/SMASH-ULTIMATE-MODS-BABY/50xx-the-mod/acmd-edits/code-mod-framework/lib/libnx_min/nx/lib\libnx_min.a(time.o)
                0x0000000000038de0                timeInitialize
 *fill*         0x0000000000038eb8        0x8 
 .text.timeGetSessionService
                0x0000000000038ec0        0xc C:/Users/RNG/Desktop/Stuff/Smash-Stuff/SMASH-ULTIMATE-MODS-BABY/50xx-the-mod/acmd-edits/code-mod-framework/lib/libnx_min/nx/lib\libnx_min.a(time.o)
                0x0000000000038ec0                timeGetSessionService
 *fill*         0x0000000000038ecc        0x4 
 .text.timeGetCurrentTime
                0x0000000000038ed0      0x124 C:/Users/RNG/Desktop/Stuff/Smash-Stuff/SMASH-ULTIMATE-MODS-BABY/50xx-the-mod/acmd-edits/code-mod-framework/lib/libnx_min/nx/lib\libnx_min.a(time.o)
                0x0000000000038ed0                timeGetCurrentTime
 *fill*         0x0000000000038ff4        0xc 
 .text.timeSetCurrentTime
                0x0000000000039000      0x104 C:/Users/RNG/Desktop/Stuff/Smash-Stuff/SMASH-ULTIMATE-MODS-BABY/50xx-the-mod/acmd-edits/code-mod-framework/lib/libnx_min/nx/lib\libnx_min.a(time.o)
                0x0000000000039000                timeSetCurrentTime
 *fill*         0x0000000000039104        0xc 
 .text.timeToCalendarTimeWithMyRule
                0x0000000000039110      0x118 C:/Users/RNG/Desktop/Stuff/Smash-Stuff/SMASH-ULTIMATE-MODS-BABY/50xx-the-mod/acmd-edits/code-mod-framework/lib/libnx_min/nx/lib\libnx_min.a(time.o)
                0x0000000000039110                timeToCalendarTimeWithMyRule
 *fill*         0x0000000000039228        0x8 
 .text.ipcPrepareHeader
                0x0000000000039230      0x220 C:/Users/RNG/Desktop/Stuff/Smash-Stuff/SMASH-ULTIMATE-MODS-BABY/50xx-the-mod/acmd-edits/code-mod-framework/lib/libnx_min/nx/lib\libnx_min.a(applet.o)
 .text.ipcParse
                0x0000000000039450      0x22c C:/Users/RNG/Desktop/Stuff/Smash-Stuff/SMASH-ULTIMATE-MODS-BABY/50xx-the-mod/acmd-edits/code-mod-framework/lib/libnx_min/nx/lib\libnx_min.a(applet.o)
 *fill*         0x000000000003967c        0x4 
 .text.serviceIpcParse
                0x0000000000039680       0xb0 C:/Users/RNG/Desktop/Stuff/Smash-Stuff/SMASH-ULTIMATE-MODS-BABY/50xx-the-mod/acmd-edits/code-mod-framework/lib/libnx_min/nx/lib\libnx_min.a(applet.o)
 .text.ipcConvertSessionToDomain
                0x0000000000039730       0x78 C:/Users/RNG/Desktop/Stuff/Smash-Stuff/SMASH-ULTIMATE-MODS-BABY/50xx-the-mod/acmd-edits/code-mod-framework/lib/libnx_min/nx/lib\libnx_min.a(applet.o)
 *fill*         0x00000000000397a8        0x8 
 .text.ipcQueryPointerBufferSize
                0x00000000000397b0       0x7c C:/Users/RNG/Desktop/Stuff/Smash-Stuff/SMASH-ULTIMATE-MODS-BABY/50xx-the-mod/acmd-edits/code-mod-framework/lib/libnx_min/nx/lib\libnx_min.a(applet.o)
 *fill*         0x000000000003982c        0x4 
 .text.ipcCloneSession.constprop.52
                0x0000000000039830       0x84 C:/Users/RNG/Desktop/Stuff/Smash-Stuff/SMASH-ULTIMATE-MODS-BABY/50xx-the-mod/acmd-edits/code-mod-framework/lib/libnx_min/nx/lib\libnx_min.a(applet.o)
 *fill*         0x00000000000398b4        0xc 
 .text.ipcCloseObjectById
                0x00000000000398c0       0x34 C:/Users/RNG/Desktop/Stuff/Smash-Stuff/SMASH-ULTIMATE-MODS-BABY/50xx-the-mod/acmd-edits/code-mod-framework/lib/libnx_min/nx/lib\libnx_min.a(applet.o)
 *fill*         0x00000000000398f4        0xc 
 .text.serviceClose
                0x0000000000039900       0x6c C:/Users/RNG/Desktop/Stuff/Smash-Stuff/SMASH-ULTIMATE-MODS-BABY/50xx-the-mod/acmd-edits/code-mod-framework/lib/libnx_min/nx/lib\libnx_min.a(applet.o)
 *fill*         0x000000000003996c        0x4 
 .text._appletCmdInHandle64
                0x0000000000039970      0x204 C:/Users/RNG/Desktop/Stuff/Smash-Stuff/SMASH-ULTIMATE-MODS-BABY/50xx-the-mod/acmd-edits/code-mod-framework/lib/libnx_min/nx/lib\libnx_min.a(applet.o)
 *fill*         0x0000000000039b74        0xc 
 .text._appletReceiveMessage
                0x0000000000039b80      0x19c C:/Users/RNG/Desktop/Stuff/Smash-Stuff/SMASH-ULTIMATE-MODS-BABY/50xx-the-mod/acmd-edits/code-mod-framework/lib/libnx_min/nx/lib\libnx_min.a(applet.o)
 *fill*         0x0000000000039d1c        0x4 
 .text._appletCmdNoIO
                0x0000000000039d20      0x164 C:/Users/RNG/Desktop/Stuff/Smash-Stuff/SMASH-ULTIMATE-MODS-BABY/50xx-the-mod/acmd-edits/code-mod-framework/lib/libnx_min/nx/lib\libnx_min.a(applet.o)
 *fill*         0x0000000000039e84        0xc 
 .text._appletGetOperationMode.constprop.43
                0x0000000000039e90      0x18c C:/Users/RNG/Desktop/Stuff/Smash-Stuff/SMASH-ULTIMATE-MODS-BABY/50xx-the-mod/acmd-edits/code-mod-framework/lib/libnx_min/nx/lib\libnx_min.a(applet.o)
 *fill*         0x000000000003a01c        0x4 
 .text._appletGetCurrentFocusState.constprop.45
                0x000000000003a020      0x18c C:/Users/RNG/Desktop/Stuff/Smash-Stuff/SMASH-ULTIMATE-MODS-BABY/50xx-the-mod/acmd-edits/code-mod-framework/lib/libnx_min/nx/lib\libnx_min.a(applet.o)
 *fill*         0x000000000003a1ac        0x4 
 .text._appletGetPerformanceMode.constprop.44
                0x000000000003a1b0      0x18c C:/Users/RNG/Desktop/Stuff/Smash-Stuff/SMASH-ULTIMATE-MODS-BABY/50xx-the-mod/acmd-edits/code-mod-framework/lib/libnx_min/nx/lib\libnx_min.a(applet.o)
 *fill*         0x000000000003a33c        0x4 
 .text._appletCmdNoInOutBool
                0x000000000003a340      0x184 C:/Users/RNG/Desktop/Stuff/Smash-Stuff/SMASH-ULTIMATE-MODS-BABY/50xx-the-mod/acmd-edits/code-mod-framework/lib/libnx_min/nx/lib\libnx_min.a(applet.o)
 *fill*         0x000000000003a4c4        0xc 
 .text._appletGetSession
                0x000000000003a4d0      0x1d8 C:/Users/RNG/Desktop/Stuff/Smash-Stuff/SMASH-ULTIMATE-MODS-BABY/50xx-the-mod/acmd-edits/code-mod-framework/lib/libnx_min/nx/lib\libnx_min.a(applet.o)
 *fill*         0x000000000003a6a8        0x8 
 .text._appletCmdNoInOut64
                0x000000000003a6b0      0x17c C:/Users/RNG/Desktop/Stuff/Smash-Stuff/SMASH-ULTIMATE-MODS-BABY/50xx-the-mod/acmd-edits/code-mod-framework/lib/libnx_min/nx/lib\libnx_min.a(applet.o)
 *fill*         0x000000000003a82c        0x4 
 .text._appletSetOperationModeChangedNotification.constprop.46
                0x000000000003a830      0x164 C:/Users/RNG/Desktop/Stuff/Smash-Stuff/SMASH-ULTIMATE-MODS-BABY/50xx-the-mod/acmd-edits/code-mod-framework/lib/libnx_min/nx/lib\libnx_min.a(applet.o)
 *fill*         0x000000000003a994        0xc 
 .text._appletCmdInU8
                0x000000000003a9a0      0x17c C:/Users/RNG/Desktop/Stuff/Smash-Stuff/SMASH-ULTIMATE-MODS-BABY/50xx-the-mod/acmd-edits/code-mod-framework/lib/libnx_min/nx/lib\libnx_min.a(applet.o)
 *fill*         0x000000000003ab1c        0x4 
 .text._appletSetOutOfFocusSuspendingEnabled
                0x000000000003ab20      0x16c C:/Users/RNG/Desktop/Stuff/Smash-Stuff/SMASH-ULTIMATE-MODS-BABY/50xx-the-mod/acmd-edits/code-mod-framework/lib/libnx_min/nx/lib\libnx_min.a(applet.o)
 *fill*         0x000000000003ac8c        0x4 
 .text._appletSetPerformanceModeChangedNotification.constprop.47
                0x000000000003ac90      0x164 C:/Users/RNG/Desktop/Stuff/Smash-Stuff/SMASH-ULTIMATE-MODS-BABY/50xx-the-mod/acmd-edits/code-mod-framework/lib/libnx_min/nx/lib\libnx_min.a(applet.o)
 *fill*         0x000000000003adf4        0xc 
 .text._appletCmdInU64.constprop.37
                0x000000000003ae00      0x16c C:/Users/RNG/Desktop/Stuff/Smash-Stuff/SMASH-ULTIMATE-MODS-BABY/50xx-the-mod/acmd-edits/code-mod-framework/lib/libnx_min/nx/lib\libnx_min.a(applet.o)
 *fill*         0x000000000003af6c        0x4 
 .text._appletCmdInU32.constprop.48
                0x000000000003af70      0x16c C:/Users/RNG/Desktop/Stuff/Smash-Stuff/SMASH-ULTIMATE-MODS-BABY/50xx-the-mod/acmd-edits/code-mod-framework/lib/libnx_min/nx/lib\libnx_min.a(applet.o)
 *fill*         0x000000000003b0dc        0x4 
 .text._appletSetFocusHandlingMode
                0x000000000003b0e0      0x17c C:/Users/RNG/Desktop/Stuff/Smash-Stuff/SMASH-ULTIMATE-MODS-BABY/50xx-the-mod/acmd-edits/code-mod-framework/lib/libnx_min/nx/lib\libnx_min.a(applet.o)
 *fill*         0x000000000003b25c        0x4 
 .text._appletGetHandle.constprop.42
                0x000000000003b260      0x178 C:/Users/RNG/Desktop/Stuff/Smash-Stuff/SMASH-ULTIMATE-MODS-BABY/50xx-the-mod/acmd-edits/code-mod-framework/lib/libnx_min/nx/lib\libnx_min.a(applet.o)
 *fill*         0x000000000003b3d8        0x8 
 .text._appletGetEvent.constprop.41
                0x000000000003b3e0       0x54 C:/Users/RNG/Desktop/Stuff/Smash-Stuff/SMASH-ULTIMATE-MODS-BABY/50xx-the-mod/acmd-edits/code-mod-framework/lib/libnx_min/nx/lib\libnx_min.a(applet.o)
 *fill*         0x000000000003b434        0xc 
 .text._appletWaitLibraryAppletLaunchableEvent
                0x000000000003b440       0x50 C:/Users/RNG/Desktop/Stuff/Smash-Stuff/SMASH-ULTIMATE-MODS-BABY/50xx-the-mod/acmd-edits/code-mod-framework/lib/libnx_min/nx/lib\libnx_min.a(applet.o)
 .text._appletCreateApplicationAndRequestToStartForQuest.isra.20
                0x000000000003b490      0x17c C:/Users/RNG/Desktop/Stuff/Smash-Stuff/SMASH-ULTIMATE-MODS-BABY/50xx-the-mod/acmd-edits/code-mod-framework/lib/libnx_min/nx/lib\libnx_min.a(applet.o)
 *fill*         0x000000000003b60c        0x4 
 .text._appletCreateApplicationAndPushAndRequestToStart
                0x000000000003b610      0x1e0 C:/Users/RNG/Desktop/Stuff/Smash-Stuff/SMASH-ULTIMATE-MODS-BABY/50xx-the-mod/acmd-edits/code-mod-framework/lib/libnx_min/nx/lib\libnx_min.a(applet.o)
 .text._appletCmdNoInOut32.constprop.38
                0x000000000003b7f0      0x194 C:/Users/RNG/Desktop/Stuff/Smash-Stuff/SMASH-ULTIMATE-MODS-BABY/50xx-the-mod/acmd-edits/code-mod-framework/lib/libnx_min/nx/lib\libnx_min.a(applet.o)
 *fill*         0x000000000003b984        0xc 
 .text._appletCmdInSession
                0x000000000003b990      0x1d8 C:/Users/RNG/Desktop/Stuff/Smash-Stuff/SMASH-ULTIMATE-MODS-BABY/50xx-the-mod/acmd-edits/code-mod-framework/lib/libnx_min/nx/lib\libnx_min.a(applet.o)
 *fill*         0x000000000003bb68        0x8 
 .text._appletStorageGetHandle
                0x000000000003bb70      0x19c C:/Users/RNG/Desktop/Stuff/Smash-Stuff/SMASH-ULTIMATE-MODS-BABY/50xx-the-mod/acmd-edits/code-mod-framework/lib/libnx_min/nx/lib\libnx_min.a(applet.o)
 *fill*         0x000000000003bd0c        0x4 
 .text._appletCreateApplicationAndPushAndRequestToStartForQuest.isra.21
                0x000000000003bd10      0x1e8 C:/Users/RNG/Desktop/Stuff/Smash-Stuff/SMASH-ULTIMATE-MODS-BABY/50xx-the-mod/acmd-edits/code-mod-framework/lib/libnx_min/nx/lib\libnx_min.a(applet.o)
 *fill*         0x000000000003bef8        0x8 
 .text._appletCreateTransferMemoryStorage.isra.25
                0x000000000003bf00      0x1e4 C:/Users/RNG/Desktop/Stuff/Smash-Stuff/SMASH-ULTIMATE-MODS-BABY/50xx-the-mod/acmd-edits/code-mod-framework/lib/libnx_min/nx/lib\libnx_min.a(applet.o)
 *fill*         0x000000000003c0e4        0xc 
 .text._appletGetSessionIn64.constprop.39
                0x000000000003c0f0      0x1c4 C:/Users/RNG/Desktop/Stuff/Smash-Stuff/SMASH-ULTIMATE-MODS-BABY/50xx-the-mod/acmd-edits/code-mod-framework/lib/libnx_min/nx/lib\libnx_min.a(applet.o)
 *fill*         0x000000000003c2b4        0xc 
 .text._appletStorageAccessorRW
                0x000000000003c2c0      0x314 C:/Users/RNG/Desktop/Stuff/Smash-Stuff/SMASH-ULTIMATE-MODS-BABY/50xx-the-mod/acmd-edits/code-mod-framework/lib/libnx_min/nx/lib\libnx_min.a(applet.o)
 *fill*         0x000000000003c5d4        0xc 
 .text._appletStorageRW
                0x000000000003c5e0      0x108 C:/Users/RNG/Desktop/Stuff/Smash-Stuff/SMASH-ULTIMATE-MODS-BABY/50xx-the-mod/acmd-edits/code-mod-framework/lib/libnx_min/nx/lib\libnx_min.a(applet.o)
 *fill*         0x000000000003c6e8        0x8 
 .text._appletCreateLibraryApplet
                0x000000000003c6f0      0x1c4 C:/Users/RNG/Desktop/Stuff/Smash-Stuff/SMASH-ULTIMATE-MODS-BABY/50xx-the-mod/acmd-edits/code-mod-framework/lib/libnx_min/nx/lib\libnx_min.a(applet.o)
 *fill*         0x000000000003c8b4        0xc 
 .text._appletGetSessionProxy.constprop.40
                0x000000000003c8c0      0x1f0 C:/Users/RNG/Desktop/Stuff/Smash-Stuff/SMASH-ULTIMATE-MODS-BABY/50xx-the-mod/acmd-edits/code-mod-framework/lib/libnx_min/nx/lib\libnx_min.a(applet.o)
 .text.appletGetAppletType
                0x000000000003cab0       0x10 C:/Users/RNG/Desktop/Stuff/Smash-Stuff/SMASH-ULTIMATE-MODS-BABY/50xx-the-mod/acmd-edits/code-mod-framework/lib/libnx_min/nx/lib\libnx_min.a(applet.o)
                0x000000000003cab0                appletGetAppletType
 .text.appletHook
                0x000000000003cac0       0x28 C:/Users/RNG/Desktop/Stuff/Smash-Stuff/SMASH-ULTIMATE-MODS-BABY/50xx-the-mod/acmd-edits/code-mod-framework/lib/libnx_min/nx/lib\libnx_min.a(applet.o)
                0x000000000003cac0                appletHook
 *fill*         0x000000000003cae8        0x8 
 .text.appletUnhook
                0x000000000003caf0       0x34 C:/Users/RNG/Desktop/Stuff/Smash-Stuff/SMASH-ULTIMATE-MODS-BABY/50xx-the-mod/acmd-edits/code-mod-framework/lib/libnx_min/nx/lib\libnx_min.a(applet.o)
                0x000000000003caf0                appletUnhook
 *fill*         0x000000000003cb24        0xc 
 .text.appletSetThemeColorType
                0x000000000003cb30        0xc C:/Users/RNG/Desktop/Stuff/Smash-Stuff/SMASH-ULTIMATE-MODS-BABY/50xx-the-mod/acmd-edits/code-mod-framework/lib/libnx_min/nx/lib\libnx_min.a(applet.o)
                0x000000000003cb30                appletSetThemeColorType
 *fill*         0x000000000003cb3c        0x4 
 .text.appletGetThemeColorType
                0x000000000003cb40        0xc C:/Users/RNG/Desktop/Stuff/Smash-Stuff/SMASH-ULTIMATE-MODS-BABY/50xx-the-mod/acmd-edits/code-mod-framework/lib/libnx_min/nx/lib\libnx_min.a(applet.o)
                0x000000000003cb40                appletGetThemeColorType
 *fill*         0x000000000003cb4c        0x4 
 .text.appletSetFocusHandlingMode
                0x000000000003cb50       0xf0 C:/Users/RNG/Desktop/Stuff/Smash-Stuff/SMASH-ULTIMATE-MODS-BABY/50xx-the-mod/acmd-edits/code-mod-framework/lib/libnx_min/nx/lib\libnx_min.a(applet.o)
                0x000000000003cb50                appletSetFocusHandlingMode
 .text.appletGetAppletResourceUserId
                0x000000000003cc40       0x28 C:/Users/RNG/Desktop/Stuff/Smash-Stuff/SMASH-ULTIMATE-MODS-BABY/50xx-the-mod/acmd-edits/code-mod-framework/lib/libnx_min/nx/lib\libnx_min.a(applet.o)
                0x000000000003cc40                appletGetAppletResourceUserId
 *fill*         0x000000000003cc68        0x8 
 .text._appletGetIndirectLayerConsumerHandle
                0x000000000003cc70      0x12c C:/Users/RNG/Desktop/Stuff/Smash-Stuff/SMASH-ULTIMATE-MODS-BABY/50xx-the-mod/acmd-edits/code-mod-framework/lib/libnx_min/nx/lib\libnx_min.a(applet.o)
 *fill*         0x000000000003cd9c        0x4 
 .text._appletHolderCreate
                0x000000000003cda0       0xc0 C:/Users/RNG/Desktop/Stuff/Smash-Stuff/SMASH-ULTIMATE-MODS-BABY/50xx-the-mod/acmd-edits/code-mod-framework/lib/libnx_min/nx/lib\libnx_min.a(applet.o)
 .text.appletPopLaunchParameter
                0x000000000003ce60      0x194 C:/Users/RNG/Desktop/Stuff/Smash-Stuff/SMASH-ULTIMATE-MODS-BABY/50xx-the-mod/acmd-edits/code-mod-framework/lib/libnx_min/nx/lib\libnx_min.a(applet.o)
                0x000000000003ce60                appletPopLaunchParameter
 *fill*         0x000000000003cff4        0xc 
 .text.appletGetDesiredLanguage
                0x000000000003d000       0x3c C:/Users/RNG/Desktop/Stuff/Smash-Stuff/SMASH-ULTIMATE-MODS-BABY/50xx-the-mod/acmd-edits/code-mod-framework/lib/libnx_min/nx/lib\libnx_min.a(applet.o)
                0x000000000003d000                appletGetDesiredLanguage
 *fill*         0x000000000003d03c        0x4 
 .text.appletSetTerminateResult
                0x000000000003d040      0x14c C:/Users/RNG/Desktop/Stuff/Smash-Stuff/SMASH-ULTIMATE-MODS-BABY/50xx-the-mod/acmd-edits/code-mod-framework/lib/libnx_min/nx/lib\libnx_min.a(applet.o)
                0x000000000003d040                appletSetTerminateResult
 *fill*         0x000000000003d18c        0x4 
 .text.appletSetMediaPlaybackState
                0x000000000003d190       0x4c C:/Users/RNG/Desktop/Stuff/Smash-Stuff/SMASH-ULTIMATE-MODS-BABY/50xx-the-mod/acmd-edits/code-mod-framework/lib/libnx_min/nx/lib\libnx_min.a(applet.o)
                0x000000000003d190                appletSetMediaPlaybackState
 *fill*         0x000000000003d1dc        0x4 
 .text.appletBeginBlockingHomeButton
                0x000000000003d1e0      0x14c C:/Users/RNG/Desktop/Stuff/Smash-Stuff/SMASH-ULTIMATE-MODS-BABY/50xx-the-mod/acmd-edits/code-mod-framework/lib/libnx_min/nx/lib\libnx_min.a(applet.o)
                0x000000000003d1e0                appletBeginBlockingHomeButton
 *fill*         0x000000000003d32c        0x4 
 .text.appletEndBlockingHomeButton
                0x000000000003d330       0x38 C:/Users/RNG/Desktop/Stuff/Smash-Stuff/SMASH-ULTIMATE-MODS-BABY/50xx-the-mod/acmd-edits/code-mod-framework/lib/libnx_min/nx/lib\libnx_min.a(applet.o)
                0x000000000003d330                appletEndBlockingHomeButton
 *fill*         0x000000000003d368        0x8 
 .text.appletNotifyRunning
                0x000000000003d370      0x174 C:/Users/RNG/Desktop/Stuff/Smash-Stuff/SMASH-ULTIMATE-MODS-BABY/50xx-the-mod/acmd-edits/code-mod-framework/lib/libnx_min/nx/lib\libnx_min.a(applet.o)
                0x000000000003d370                appletNotifyRunning
 *fill*         0x000000000003d4e4        0xc 
 .text.appletIsGamePlayRecordingSupported
                0x000000000003d4f0      0x168 C:/Users/RNG/Desktop/Stuff/Smash-Stuff/SMASH-ULTIMATE-MODS-BABY/50xx-the-mod/acmd-edits/code-mod-framework/lib/libnx_min/nx/lib\libnx_min.a(applet.o)
                0x000000000003d4f0                appletIsGamePlayRecordingSupported
 *fill*         0x000000000003d658        0x8 
 .text.appletSetGamePlayRecordingState
                0x000000000003d660      0x158 C:/Users/RNG/Desktop/Stuff/Smash-Stuff/SMASH-ULTIMATE-MODS-BABY/50xx-the-mod/acmd-edits/code-mod-framework/lib/libnx_min/nx/lib\libnx_min.a(applet.o)
                0x000000000003d660                appletSetGamePlayRecordingState
 *fill*         0x000000000003d7b8        0x8 
 .text.appletInitializeGamePlayRecording
                0x000000000003d7c0      0x138 C:/Users/RNG/Desktop/Stuff/Smash-Stuff/SMASH-ULTIMATE-MODS-BABY/50xx-the-mod/acmd-edits/code-mod-framework/lib/libnx_min/nx/lib\libnx_min.a(applet.o)
                0x000000000003d7c0                appletInitializeGamePlayRecording
 *fill*         0x000000000003d8f8        0x8 
 .text.appletQueryApplicationPlayStatistics
                0x000000000003d900      0x1c0 C:/Users/RNG/Desktop/Stuff/Smash-Stuff/SMASH-ULTIMATE-MODS-BABY/50xx-the-mod/acmd-edits/code-mod-framework/lib/libnx_min/nx/lib\libnx_min.a(applet.o)
                0x000000000003d900                appletQueryApplicationPlayStatistics
 .text.appletBeginToWatchShortHomeButtonMessage
                0x000000000003dac0       0x2c C:/Users/RNG/Desktop/Stuff/Smash-Stuff/SMASH-ULTIMATE-MODS-BABY/50xx-the-mod/acmd-edits/code-mod-framework/lib/libnx_min/nx/lib\libnx_min.a(applet.o)
                0x000000000003dac0                appletBeginToWatchShortHomeButtonMessage
 *fill*         0x000000000003daec        0x4 
 .text.appletEndToWatchShortHomeButtonMessage
                0x000000000003daf0       0x2c C:/Users/RNG/Desktop/Stuff/Smash-Stuff/SMASH-ULTIMATE-MODS-BABY/50xx-the-mod/acmd-edits/code-mod-framework/lib/libnx_min/nx/lib\libnx_min.a(applet.o)
                0x000000000003daf0                appletEndToWatchShortHomeButtonMessage
 *fill*         0x000000000003db1c        0x4 
 .text.appletHomeButtonReaderLockAccessorGetEvent
                0x000000000003db20       0xc8 C:/Users/RNG/Desktop/Stuff/Smash-Stuff/SMASH-ULTIMATE-MODS-BABY/50xx-the-mod/acmd-edits/code-mod-framework/lib/libnx_min/nx/lib\libnx_min.a(applet.o)
                0x000000000003db20                appletHomeButtonReaderLockAccessorGetEvent
 *fill*         0x000000000003dbe8        0x8 
 .text.appletIsVrModeEnabled
                0x000000000003dbf0       0x4c C:/Users/RNG/Desktop/Stuff/Smash-Stuff/SMASH-ULTIMATE-MODS-BABY/50xx-the-mod/acmd-edits/code-mod-framework/lib/libnx_min/nx/lib\libnx_min.a(applet.o)
                0x000000000003dbf0                appletIsVrModeEnabled
 *fill*         0x000000000003dc3c        0x4 
 .text.appletSetVrModeEnabled
                0x000000000003dc40       0x78 C:/Users/RNG/Desktop/Stuff/Smash-Stuff/SMASH-ULTIMATE-MODS-BABY/50xx-the-mod/acmd-edits/code-mod-framework/lib/libnx_min/nx/lib\libnx_min.a(applet.o)
                0x000000000003dc40                appletSetVrModeEnabled
 *fill*         0x000000000003dcb8        0x8 
 .text.appletSetCpuBoostMode
                0x000000000003dcc0       0x50 C:/Users/RNG/Desktop/Stuff/Smash-Stuff/SMASH-ULTIMATE-MODS-BABY/50xx-the-mod/acmd-edits/code-mod-framework/lib/libnx_min/nx/lib\libnx_min.a(applet.o)
                0x000000000003dcc0                appletSetCpuBoostMode
 .text.appletExit
                0x000000000003dd10      0x5dc C:/Users/RNG/Desktop/Stuff/Smash-Stuff/SMASH-ULTIMATE-MODS-BABY/50xx-the-mod/acmd-edits/code-mod-framework/lib/libnx_min/nx/lib\libnx_min.a(applet.o)
                0x000000000003dd10                appletExit
 *fill*         0x000000000003e2ec        0x4 
 .text.appletInitialize
                0x000000000003e2f0      0x4f0 C:/Users/RNG/Desktop/Stuff/Smash-Stuff/SMASH-ULTIMATE-MODS-BABY/50xx-the-mod/acmd-edits/code-mod-framework/lib/libnx_min/nx/lib\libnx_min.a(applet.o)
                0x000000000003e2f0                appletInitialize
 .text._appletExitProcess
                0x000000000003e7e0       0x10 C:/Users/RNG/Desktop/Stuff/Smash-Stuff/SMASH-ULTIMATE-MODS-BABY/50xx-the-mod/acmd-edits/code-mod-framework/lib/libnx_min/nx/lib\libnx_min.a(applet.o)
 .text.appletGetCurrentPerformanceConfiguration
                0x000000000003e7f0       0x40 C:/Users/RNG/Desktop/Stuff/Smash-Stuff/SMASH-ULTIMATE-MODS-BABY/50xx-the-mod/acmd-edits/code-mod-framework/lib/libnx_min/nx/lib\libnx_min.a(applet.o)
                0x000000000003e7f0                appletGetCurrentPerformanceConfiguration
 .text.appletLockExit
                0x000000000003e830       0x10 C:/Users/RNG/Desktop/Stuff/Smash-Stuff/SMASH-ULTIMATE-MODS-BABY/50xx-the-mod/acmd-edits/code-mod-framework/lib/libnx_min/nx/lib\libnx_min.a(applet.o)
                0x000000000003e830                appletLockExit
 .text.appletUnlockExit
                0x000000000003e840       0x10 C:/Users/RNG/Desktop/Stuff/Smash-Stuff/SMASH-ULTIMATE-MODS-BABY/50xx-the-mod/acmd-edits/code-mod-framework/lib/libnx_min/nx/lib\libnx_min.a(applet.o)
                0x000000000003e840                appletUnlockExit
 .text.appletSetScreenShotPermission
                0x000000000003e850      0x16c C:/Users/RNG/Desktop/Stuff/Smash-Stuff/SMASH-ULTIMATE-MODS-BABY/50xx-the-mod/acmd-edits/code-mod-framework/lib/libnx_min/nx/lib\libnx_min.a(applet.o)
                0x000000000003e850                appletSetScreenShotPermission
 *fill*         0x000000000003e9bc        0x4 
 .text.appletSetScreenShotImageOrientation
                0x000000000003e9c0      0x1c4 C:/Users/RNG/Desktop/Stuff/Smash-Stuff/SMASH-ULTIMATE-MODS-BABY/50xx-the-mod/acmd-edits/code-mod-framework/lib/libnx_min/nx/lib\libnx_min.a(applet.o)
                0x000000000003e9c0                appletSetScreenShotImageOrientation
 *fill*         0x000000000003eb84        0xc 
 .text.appletCreateManagedDisplayLayer
                0x000000000003eb90       0x14 C:/Users/RNG/Desktop/Stuff/Smash-Stuff/SMASH-ULTIMATE-MODS-BABY/50xx-the-mod/acmd-edits/code-mod-framework/lib/libnx_min/nx/lib\libnx_min.a(applet.o)
                0x000000000003eb90                appletCreateManagedDisplayLayer
 *fill*         0x000000000003eba4        0xc 
 .text.appletGetCurrentIlluminance
                0x000000000003ebb0      0x168 C:/Users/RNG/Desktop/Stuff/Smash-Stuff/SMASH-ULTIMATE-MODS-BABY/50xx-the-mod/acmd-edits/code-mod-framework/lib/libnx_min/nx/lib\libnx_min.a(applet.o)
                0x000000000003ebb0                appletGetCurrentIlluminance
 *fill*         0x000000000003ed18        0x8 
 .text.appletIsIlluminanceAvailable
                0x000000000003ed20       0x4c C:/Users/RNG/Desktop/Stuff/Smash-Stuff/SMASH-ULTIMATE-MODS-BABY/50xx-the-mod/acmd-edits/code-mod-framework/lib/libnx_min/nx/lib\libnx_min.a(applet.o)
                0x000000000003ed20                appletIsIlluminanceAvailable
 *fill*         0x000000000003ed6c        0x4 
 .text.appletGetCurrentIlluminanceEx
                0x000000000003ed70      0x19c C:/Users/RNG/Desktop/Stuff/Smash-Stuff/SMASH-ULTIMATE-MODS-BABY/50xx-the-mod/acmd-edits/code-mod-framework/lib/libnx_min/nx/lib\libnx_min.a(applet.o)
                0x000000000003ed70                appletGetCurrentIlluminanceEx
 *fill*         0x000000000003ef0c        0x4 
 .text.appletCreateLibraryApplet
                0x000000000003ef10        0x8 C:/Users/RNG/Desktop/Stuff/Smash-Stuff/SMASH-ULTIMATE-MODS-BABY/50xx-the-mod/acmd-edits/code-mod-framework/lib/libnx_min/nx/lib\libnx_min.a(applet.o)
                0x000000000003ef10                appletCreateLibraryApplet
 *fill*         0x000000000003ef18        0x8 
 .text.appletCreateLibraryAppletSelf
                0x000000000003ef20        0x8 C:/Users/RNG/Desktop/Stuff/Smash-Stuff/SMASH-ULTIMATE-MODS-BABY/50xx-the-mod/acmd-edits/code-mod-framework/lib/libnx_min/nx/lib\libnx_min.a(applet.o)
                0x000000000003ef20                appletCreateLibraryAppletSelf
 *fill*         0x000000000003ef28        0x8 
 .text.appletHolderClose
                0x000000000003ef30       0x94 C:/Users/RNG/Desktop/Stuff/Smash-Stuff/SMASH-ULTIMATE-MODS-BABY/50xx-the-mod/acmd-edits/code-mod-framework/lib/libnx_min/nx/lib\libnx_min.a(applet.o)
                0x000000000003ef30                appletHolderClose
 *fill*         0x000000000003efc4        0xc 
 .text.appletHolderActive
                0x000000000003efd0       0x10 C:/Users/RNG/Desktop/Stuff/Smash-Stuff/SMASH-ULTIMATE-MODS-BABY/50xx-the-mod/acmd-edits/code-mod-framework/lib/libnx_min/nx/lib\libnx_min.a(applet.o)
                0x000000000003efd0                appletHolderActive
 .text.appletHolderGetIndirectLayerConsumerHandle
                0x000000000003efe0       0x74 C:/Users/RNG/Desktop/Stuff/Smash-Stuff/SMASH-ULTIMATE-MODS-BABY/50xx-the-mod/acmd-edits/code-mod-framework/lib/libnx_min/nx/lib\libnx_min.a(applet.o)
                0x000000000003efe0                appletHolderGetIndirectLayerConsumerHandle
 *fill*         0x000000000003f054        0xc 
 .text.appletHolderStart
                0x000000000003f060       0x50 C:/Users/RNG/Desktop/Stuff/Smash-Stuff/SMASH-ULTIMATE-MODS-BABY/50xx-the-mod/acmd-edits/code-mod-framework/lib/libnx_min/nx/lib\libnx_min.a(applet.o)
                0x000000000003f060                appletHolderStart
 .text.appletHolderJoin
                0x000000000003f0b0       0x80 C:/Users/RNG/Desktop/Stuff/Smash-Stuff/SMASH-ULTIMATE-MODS-BABY/50xx-the-mod/acmd-edits/code-mod-framework/lib/libnx_min/nx/lib\libnx_min.a(applet.o)
                0x000000000003f0b0                appletHolderJoin
 .text.appletHolderCheckFinished
                0x000000000003f130       0x24 C:/Users/RNG/Desktop/Stuff/Smash-Stuff/SMASH-ULTIMATE-MODS-BABY/50xx-the-mod/acmd-edits/code-mod-framework/lib/libnx_min/nx/lib\libnx_min.a(applet.o)
                0x000000000003f130                appletHolderCheckFinished
 *fill*         0x000000000003f154        0xc 
 .text.appletHolderRequestExit
                0x000000000003f160       0x50 C:/Users/RNG/Desktop/Stuff/Smash-Stuff/SMASH-ULTIMATE-MODS-BABY/50xx-the-mod/acmd-edits/code-mod-framework/lib/libnx_min/nx/lib\libnx_min.a(applet.o)
                0x000000000003f160                appletHolderRequestExit
 .text.appletHolderGetExitReason
                0x000000000003f1b0        0x8 C:/Users/RNG/Desktop/Stuff/Smash-Stuff/SMASH-ULTIMATE-MODS-BABY/50xx-the-mod/acmd-edits/code-mod-framework/lib/libnx_min/nx/lib\libnx_min.a(applet.o)
                0x000000000003f1b0                appletHolderGetExitReason
 *fill*         0x000000000003f1b8        0x8 
 .text.appletHolderWaitInteractiveOut
                0x000000000003f1c0       0x88 C:/Users/RNG/Desktop/Stuff/Smash-Stuff/SMASH-ULTIMATE-MODS-BABY/50xx-the-mod/acmd-edits/code-mod-framework/lib/libnx_min/nx/lib\libnx_min.a(applet.o)
                0x000000000003f1c0                appletHolderWaitInteractiveOut
 *fill*         0x000000000003f248        0x8 
 .text.appletHolderPopOutData
                0x000000000003f250       0x18 C:/Users/RNG/Desktop/Stuff/Smash-Stuff/SMASH-ULTIMATE-MODS-BABY/50xx-the-mod/acmd-edits/code-mod-framework/lib/libnx_min/nx/lib\libnx_min.a(applet.o)
                0x000000000003f250                appletHolderPopOutData
 *fill*         0x000000000003f268        0x8 
 .text.appletHolderPopInteractiveOutData
                0x000000000003f270       0x18 C:/Users/RNG/Desktop/Stuff/Smash-Stuff/SMASH-ULTIMATE-MODS-BABY/50xx-the-mod/acmd-edits/code-mod-framework/lib/libnx_min/nx/lib\libnx_min.a(applet.o)
                0x000000000003f270                appletHolderPopInteractiveOutData
 *fill*         0x000000000003f288        0x8 
 .text.appletCreateStorage
                0x000000000003f290       0x14 C:/Users/RNG/Desktop/Stuff/Smash-Stuff/SMASH-ULTIMATE-MODS-BABY/50xx-the-mod/acmd-edits/code-mod-framework/lib/libnx_min/nx/lib\libnx_min.a(applet.o)
                0x000000000003f290                appletCreateStorage
 *fill*         0x000000000003f2a4        0xc 
 .text.appletCreateTransferMemoryStorage
                0x000000000003f2b0       0xa8 C:/Users/RNG/Desktop/Stuff/Smash-Stuff/SMASH-ULTIMATE-MODS-BABY/50xx-the-mod/acmd-edits/code-mod-framework/lib/libnx_min/nx/lib\libnx_min.a(applet.o)
                0x000000000003f2b0                appletCreateTransferMemoryStorage
 *fill*         0x000000000003f358        0x8 
 .text.appletCreateHandleStorage
                0x000000000003f360       0x64 C:/Users/RNG/Desktop/Stuff/Smash-Stuff/SMASH-ULTIMATE-MODS-BABY/50xx-the-mod/acmd-edits/code-mod-framework/lib/libnx_min/nx/lib\libnx_min.a(applet.o)
                0x000000000003f360                appletCreateHandleStorage
 *fill*         0x000000000003f3c4        0xc 
 .text.appletCreateHandleStorageTmem
                0x000000000003f3d0       0xa0 C:/Users/RNG/Desktop/Stuff/Smash-Stuff/SMASH-ULTIMATE-MODS-BABY/50xx-the-mod/acmd-edits/code-mod-framework/lib/libnx_min/nx/lib\libnx_min.a(applet.o)
                0x000000000003f3d0                appletCreateHandleStorageTmem
 .text.appletStorageClose
                0x000000000003f470       0x6c C:/Users/RNG/Desktop/Stuff/Smash-Stuff/SMASH-ULTIMATE-MODS-BABY/50xx-the-mod/acmd-edits/code-mod-framework/lib/libnx_min/nx/lib\libnx_min.a(applet.o)
                0x000000000003f470                appletStorageClose
 *fill*         0x000000000003f4dc        0x4 
 .text.appletRequestLaunchApplication
                0x000000000003f4e0      0x188 C:/Users/RNG/Desktop/Stuff/Smash-Stuff/SMASH-ULTIMATE-MODS-BABY/50xx-the-mod/acmd-edits/code-mod-framework/lib/libnx_min/nx/lib\libnx_min.a(applet.o)
                0x000000000003f4e0                appletRequestLaunchApplication
 *fill*         0x000000000003f668        0x8 
 .text.appletRequestLaunchApplicationForQuest
                0x000000000003f670      0x168 C:/Users/RNG/Desktop/Stuff/Smash-Stuff/SMASH-ULTIMATE-MODS-BABY/50xx-the-mod/acmd-edits/code-mod-framework/lib/libnx_min/nx/lib\libnx_min.a(applet.o)
                0x000000000003f670                appletRequestLaunchApplicationForQuest
 *fill*         0x000000000003f7d8        0x8 
 .text.appletHolderPushInteractiveInData
                0x000000000003f7e0       0x40 C:/Users/RNG/Desktop/Stuff/Smash-Stuff/SMASH-ULTIMATE-MODS-BABY/50xx-the-mod/acmd-edits/code-mod-framework/lib/libnx_min/nx/lib\libnx_min.a(applet.o)
                0x000000000003f7e0                appletHolderPushInteractiveInData
 .text.appletPushToGeneralChannel
                0x000000000003f820       0x4c C:/Users/RNG/Desktop/Stuff/Smash-Stuff/SMASH-ULTIMATE-MODS-BABY/50xx-the-mod/acmd-edits/code-mod-framework/lib/libnx_min/nx/lib\libnx_min.a(applet.o)
                0x000000000003f820                appletPushToGeneralChannel
 *fill*         0x000000000003f86c        0x4 
 .text.appletHolderPushInData
                0x000000000003f870       0x40 C:/Users/RNG/Desktop/Stuff/Smash-Stuff/SMASH-ULTIMATE-MODS-BABY/50xx-the-mod/acmd-edits/code-mod-framework/lib/libnx_min/nx/lib\libnx_min.a(applet.o)
                0x000000000003f870                appletHolderPushInData
 .text.appletHolderPushExtraStorage
                0x000000000003f8b0       0x40 C:/Users/RNG/Desktop/Stuff/Smash-Stuff/SMASH-ULTIMATE-MODS-BABY/50xx-the-mod/acmd-edits/code-mod-framework/lib/libnx_min/nx/lib\libnx_min.a(applet.o)
                0x000000000003f8b0                appletHolderPushExtraStorage
 .text.appletStorageCloseTmem
                0x000000000003f8f0        0x8 C:/Users/RNG/Desktop/Stuff/Smash-Stuff/SMASH-ULTIMATE-MODS-BABY/50xx-the-mod/acmd-edits/code-mod-framework/lib/libnx_min/nx/lib\libnx_min.a(applet.o)
                0x000000000003f8f0                appletStorageCloseTmem
 *fill*         0x000000000003f8f8        0x8 
 .text.appletStorageGetSize
                0x000000000003f900       0xc4 C:/Users/RNG/Desktop/Stuff/Smash-Stuff/SMASH-ULTIMATE-MODS-BABY/50xx-the-mod/acmd-edits/code-mod-framework/lib/libnx_min/nx/lib\libnx_min.a(applet.o)
                0x000000000003f900                appletStorageGetSize
 *fill*         0x000000000003f9c4        0xc 
 .text.appletStorageWrite
                0x000000000003f9d0        0x8 C:/Users/RNG/Desktop/Stuff/Smash-Stuff/SMASH-ULTIMATE-MODS-BABY/50xx-the-mod/acmd-edits/code-mod-framework/lib/libnx_min/nx/lib\libnx_min.a(applet.o)
                0x000000000003f9d0                appletStorageWrite
 *fill*         0x000000000003f9d8        0x8 
 .text.appletStorageRead
                0x000000000003f9e0        0x8 C:/Users/RNG/Desktop/Stuff/Smash-Stuff/SMASH-ULTIMATE-MODS-BABY/50xx-the-mod/acmd-edits/code-mod-framework/lib/libnx_min/nx/lib\libnx_min.a(applet.o)
                0x000000000003f9e0                appletStorageRead
 *fill*         0x000000000003f9e8        0x8 
 .text.appletStorageGetHandle
                0x000000000003f9f0       0xfc C:/Users/RNG/Desktop/Stuff/Smash-Stuff/SMASH-ULTIMATE-MODS-BABY/50xx-the-mod/acmd-edits/code-mod-framework/lib/libnx_min/nx/lib\libnx_min.a(applet.o)
                0x000000000003f9f0                appletStorageGetHandle
 *fill*         0x000000000003faec        0x4 
 .text.appletStorageMap
                0x000000000003faf0       0xcc C:/Users/RNG/Desktop/Stuff/Smash-Stuff/SMASH-ULTIMATE-MODS-BABY/50xx-the-mod/acmd-edits/code-mod-framework/lib/libnx_min/nx/lib\libnx_min.a(applet.o)
                0x000000000003faf0                appletStorageMap
 *fill*         0x000000000003fbbc        0x4 
 .text.appletGetOperationMode
                0x000000000003fbc0        0xc C:/Users/RNG/Desktop/Stuff/Smash-Stuff/SMASH-ULTIMATE-MODS-BABY/50xx-the-mod/acmd-edits/code-mod-framework/lib/libnx_min/nx/lib\libnx_min.a(applet.o)
                0x000000000003fbc0                appletGetOperationMode
 *fill*         0x000000000003fbcc        0x4 
 .text.appletGetPerformanceMode
                0x000000000003fbd0        0xc C:/Users/RNG/Desktop/Stuff/Smash-Stuff/SMASH-ULTIMATE-MODS-BABY/50xx-the-mod/acmd-edits/code-mod-framework/lib/libnx_min/nx/lib\libnx_min.a(applet.o)
                0x000000000003fbd0                appletGetPerformanceMode
 *fill*         0x000000000003fbdc        0x4 
 .text.appletGetFocusState
                0x000000000003fbe0        0xc C:/Users/RNG/Desktop/Stuff/Smash-Stuff/SMASH-ULTIMATE-MODS-BABY/50xx-the-mod/acmd-edits/code-mod-framework/lib/libnx_min/nx/lib\libnx_min.a(applet.o)
                0x000000000003fbe0                appletGetFocusState
 *fill*         0x000000000003fbec        0x4 
 .text.appletGetMessage
                0x000000000003fbf0       0x5c C:/Users/RNG/Desktop/Stuff/Smash-Stuff/SMASH-ULTIMATE-MODS-BABY/50xx-the-mod/acmd-edits/code-mod-framework/lib/libnx_min/nx/lib\libnx_min.a(applet.o)
                0x000000000003fbf0                appletGetMessage
 *fill*         0x000000000003fc4c        0x4 
 .text.appletProcessMessage
                0x000000000003fc50      0x118 C:/Users/RNG/Desktop/Stuff/Smash-Stuff/SMASH-ULTIMATE-MODS-BABY/50xx-the-mod/acmd-edits/code-mod-framework/lib/libnx_min/nx/lib\libnx_min.a(applet.o)
                0x000000000003fc50                appletProcessMessage
 *fill*         0x000000000003fd68        0x8 
 .text.appletMainLoop
                0x000000000003fd70       0x34 C:/Users/RNG/Desktop/Stuff/Smash-Stuff/SMASH-ULTIMATE-MODS-BABY/50xx-the-mod/acmd-edits/code-mod-framework/lib/libnx_min/nx/lib\libnx_min.a(applet.o)
                0x000000000003fd70                appletMainLoop
 *fill*         0x000000000003fda4        0xc 
 .text.__syscall_exit
                0x000000000003fdb0       0x1c C:/Users/RNG/Desktop/Stuff/Smash-Stuff/SMASH-ULTIMATE-MODS-BABY/50xx-the-mod/acmd-edits/code-mod-framework/lib/libnx_min/nx/lib\libnx_min.a(newlib.o)
                0x000000000003fdb0                __syscall_exit
 *fill*         0x000000000003fdcc        0x4 
 .text.__syscall_getreent
                0x000000000003fdd0       0x10 C:/Users/RNG/Desktop/Stuff/Smash-Stuff/SMASH-ULTIMATE-MODS-BABY/50xx-the-mod/acmd-edits/code-mod-framework/lib/libnx_min/nx/lib\libnx_min.a(newlib.o)
                0x000000000003fdd0                __syscall_getreent
 .text.__syscall_lock_acquire
                0x000000000003fde0        0x4 C:/Users/RNG/Desktop/Stuff/Smash-Stuff/SMASH-ULTIMATE-MODS-BABY/50xx-the-mod/acmd-edits/code-mod-framework/lib/libnx_min/nx/lib\libnx_min.a(newlib.o)
                0x000000000003fde0                __syscall_lock_acquire
 *fill*         0x000000000003fde4        0xc 
 .text.__syscall_lock_try_acquire
                0x000000000003fdf0       0x1c C:/Users/RNG/Desktop/Stuff/Smash-Stuff/SMASH-ULTIMATE-MODS-BABY/50xx-the-mod/acmd-edits/code-mod-framework/lib/libnx_min/nx/lib\libnx_min.a(newlib.o)
                0x000000000003fdf0                __syscall_lock_try_acquire
 *fill*         0x000000000003fe0c        0x4 
 .text.__syscall_lock_release
                0x000000000003fe10        0x4 C:/Users/RNG/Desktop/Stuff/Smash-Stuff/SMASH-ULTIMATE-MODS-BABY/50xx-the-mod/acmd-edits/code-mod-framework/lib/libnx_min/nx/lib\libnx_min.a(newlib.o)
                0x000000000003fe10                __syscall_lock_release
 *fill*         0x000000000003fe14        0xc 
 .text.__syscall_lock_acquire_recursive
                0x000000000003fe20        0x4 C:/Users/RNG/Desktop/Stuff/Smash-Stuff/SMASH-ULTIMATE-MODS-BABY/50xx-the-mod/acmd-edits/code-mod-framework/lib/libnx_min/nx/lib\libnx_min.a(newlib.o)
                0x000000000003fe20                __syscall_lock_acquire_recursive
 *fill*         0x000000000003fe24        0xc 
 .text.__syscall_lock_try_acquire_recursive
                0x000000000003fe30       0x1c C:/Users/RNG/Desktop/Stuff/Smash-Stuff/SMASH-ULTIMATE-MODS-BABY/50xx-the-mod/acmd-edits/code-mod-framework/lib/libnx_min/nx/lib\libnx_min.a(newlib.o)
                0x000000000003fe30                __syscall_lock_try_acquire_recursive
 *fill*         0x000000000003fe4c        0x4 
 .text.__syscall_lock_release_recursive
                0x000000000003fe50        0x4 C:/Users/RNG/Desktop/Stuff/Smash-Stuff/SMASH-ULTIMATE-MODS-BABY/50xx-the-mod/acmd-edits/code-mod-framework/lib/libnx_min/nx/lib\libnx_min.a(newlib.o)
                0x000000000003fe50                __syscall_lock_release_recursive
 *fill*         0x000000000003fe54        0xc 
 .text.__syscall_cond_signal
                0x000000000003fe60       0x40 C:/Users/RNG/Desktop/Stuff/Smash-Stuff/SMASH-ULTIMATE-MODS-BABY/50xx-the-mod/acmd-edits/code-mod-framework/lib/libnx_min/nx/lib\libnx_min.a(newlib.o)
                0x000000000003fe60                __syscall_cond_signal
 .text.__syscall_cond_broadcast
                0x000000000003fea0       0x40 C:/Users/RNG/Desktop/Stuff/Smash-Stuff/SMASH-ULTIMATE-MODS-BABY/50xx-the-mod/acmd-edits/code-mod-framework/lib/libnx_min/nx/lib\libnx_min.a(newlib.o)
                0x000000000003fea0                __syscall_cond_broadcast
 .text.__syscall_cond_wait
                0x000000000003fee0       0x3c C:/Users/RNG/Desktop/Stuff/Smash-Stuff/SMASH-ULTIMATE-MODS-BABY/50xx-the-mod/acmd-edits/code-mod-framework/lib/libnx_min/nx/lib\libnx_min.a(newlib.o)
                0x000000000003fee0                __syscall_cond_wait
 *fill*         0x000000000003ff1c        0x4 
 .text.__syscall_cond_wait_recursive
                0x000000000003ff20       0x64 C:/Users/RNG/Desktop/Stuff/Smash-Stuff/SMASH-ULTIMATE-MODS-BABY/50xx-the-mod/acmd-edits/code-mod-framework/lib/libnx_min/nx/lib\libnx_min.a(newlib.o)
                0x000000000003ff20                __syscall_cond_wait_recursive
 *fill*         0x000000000003ff84        0xc 
 .text.__syscall_thread_self
                0x000000000003ff90       0x14 C:/Users/RNG/Desktop/Stuff/Smash-Stuff/SMASH-ULTIMATE-MODS-BABY/50xx-the-mod/acmd-edits/code-mod-framework/lib/libnx_min/nx/lib\libnx_min.a(newlib.o)
                0x000000000003ff90                __syscall_thread_self
 *fill*         0x000000000003ffa4        0xc 
 .text.__syscall_thread_exit
                0x000000000003ffb0       0x2c C:/Users/RNG/Desktop/Stuff/Smash-Stuff/SMASH-ULTIMATE-MODS-BABY/50xx-the-mod/acmd-edits/code-mod-framework/lib/libnx_min/nx/lib\libnx_min.a(newlib.o)
                0x000000000003ffb0                __syscall_thread_exit
 *fill*         0x000000000003ffdc        0x4 
 .text.__thread_entry
                0x000000000003ffe0       0x58 C:/Users/RNG/Desktop/Stuff/Smash-Stuff/SMASH-ULTIMATE-MODS-BABY/50xx-the-mod/acmd-edits/code-mod-framework/lib/libnx_min/nx/lib\libnx_min.a(newlib.o)
 *fill*         0x0000000000040038        0x8 
 .text.__syscall_thread_create
                0x0000000000040040      0x15c C:/Users/RNG/Desktop/Stuff/Smash-Stuff/SMASH-ULTIMATE-MODS-BABY/50xx-the-mod/acmd-edits/code-mod-framework/lib/libnx_min/nx/lib\libnx_min.a(newlib.o)
                0x0000000000040040                __syscall_thread_create
 *fill*         0x000000000004019c        0x4 
 .text.__syscall_thread_join
                0x00000000000401a0       0x58 C:/Users/RNG/Desktop/Stuff/Smash-Stuff/SMASH-ULTIMATE-MODS-BABY/50xx-the-mod/acmd-edits/code-mod-framework/lib/libnx_min/nx/lib\libnx_min.a(newlib.o)
                0x00000000000401a0                __syscall_thread_join
 *fill*         0x00000000000401f8        0x8 
 .text.__syscall_tls_create
                0x0000000000040200       0x44 C:/Users/RNG/Desktop/Stuff/Smash-Stuff/SMASH-ULTIMATE-MODS-BABY/50xx-the-mod/acmd-edits/code-mod-framework/lib/libnx_min/nx/lib\libnx_min.a(newlib.o)
                0x0000000000040200                __syscall_tls_create
 *fill*         0x0000000000040244        0xc 
 .text.__syscall_tls_set
                0x0000000000040250       0x18 C:/Users/RNG/Desktop/Stuff/Smash-Stuff/SMASH-ULTIMATE-MODS-BABY/50xx-the-mod/acmd-edits/code-mod-framework/lib/libnx_min/nx/lib\libnx_min.a(newlib.o)
                0x0000000000040250                __syscall_tls_set
 *fill*         0x0000000000040268        0x8 
 .text.__syscall_tls_get
                0x0000000000040270        0x4 C:/Users/RNG/Desktop/Stuff/Smash-Stuff/SMASH-ULTIMATE-MODS-BABY/50xx-the-mod/acmd-edits/code-mod-framework/lib/libnx_min/nx/lib\libnx_min.a(newlib.o)
                0x0000000000040270                __syscall_tls_get
 *fill*         0x0000000000040274        0xc 
 .text.__syscall_tls_delete
                0x0000000000040280       0x18 C:/Users/RNG/Desktop/Stuff/Smash-Stuff/SMASH-ULTIMATE-MODS-BABY/50xx-the-mod/acmd-edits/code-mod-framework/lib/libnx_min/nx/lib\libnx_min.a(newlib.o)
                0x0000000000040280                __syscall_tls_delete
 *fill*         0x0000000000040298        0x8 
 .text.sched_yield
                0x00000000000402a0       0x1c C:/Users/RNG/Desktop/Stuff/Smash-Stuff/SMASH-ULTIMATE-MODS-BABY/50xx-the-mod/acmd-edits/code-mod-framework/lib/libnx_min/nx/lib\libnx_min.a(newlib.o)
                0x00000000000402a0                sched_yield
 *fill*         0x00000000000402bc        0x4 
 .text.sched_getcpu
                0x00000000000402c0        0x4 C:/Users/RNG/Desktop/Stuff/Smash-Stuff/SMASH-ULTIMATE-MODS-BABY/50xx-the-mod/acmd-edits/code-mod-framework/lib/libnx_min/nx/lib\libnx_min.a(newlib.o)
                0x00000000000402c0                sched_getcpu
 *fill*         0x00000000000402c4        0xc 
 .text.__libnx_init_time
                0x00000000000402d0      0x27c C:/Users/RNG/Desktop/Stuff/Smash-Stuff/SMASH-ULTIMATE-MODS-BABY/50xx-the-mod/acmd-edits/code-mod-framework/lib/libnx_min/nx/lib\libnx_min.a(newlib.o)
                0x00000000000402d0                __libnx_init_time
 *fill*         0x000000000004054c        0x4 
 .text.__syscall_clock_getres
                0x0000000000040550       0x58 C:/Users/RNG/Desktop/Stuff/Smash-Stuff/SMASH-ULTIMATE-MODS-BABY/50xx-the-mod/acmd-edits/code-mod-framework/lib/libnx_min/nx/lib\libnx_min.a(newlib.o)
                0x0000000000040550                __syscall_clock_getres
 *fill*         0x00000000000405a8        0x8 
 .text.__syscall_clock_gettime
                0x00000000000405b0       0xf8 C:/Users/RNG/Desktop/Stuff/Smash-Stuff/SMASH-ULTIMATE-MODS-BABY/50xx-the-mod/acmd-edits/code-mod-framework/lib/libnx_min/nx/lib\libnx_min.a(newlib.o)
                0x00000000000405b0                __syscall_clock_gettime
 *fill*         0x00000000000406a8        0x8 
 .text.__syscall_gettod_r
                0x00000000000406b0       0x8c C:/Users/RNG/Desktop/Stuff/Smash-Stuff/SMASH-ULTIMATE-MODS-BABY/50xx-the-mod/acmd-edits/code-mod-framework/lib/libnx_min/nx/lib\libnx_min.a(newlib.o)
                0x00000000000406b0                __syscall_gettod_r
 *fill*         0x000000000004073c        0x4 
 .text.__syscall_nanosleep
                0x0000000000040740       0x5c C:/Users/RNG/Desktop/Stuff/Smash-Stuff/SMASH-ULTIMATE-MODS-BABY/50xx-the-mod/acmd-edits/code-mod-framework/lib/libnx_min/nx/lib\libnx_min.a(newlib.o)
                0x0000000000040740                __syscall_nanosleep
 *fill*         0x000000000004079c        0x4 
 .text.newlibSetup
                0x00000000000407a0       0x74 C:/Users/RNG/Desktop/Stuff/Smash-Stuff/SMASH-ULTIMATE-MODS-BABY/50xx-the-mod/acmd-edits/code-mod-framework/lib/libnx_min/nx/lib\libnx_min.a(newlib.o)
                0x00000000000407a0                newlibSetup
 *fill*         0x0000000000040814        0xc 
 .text.threadCreate
                0x0000000000040820      0x1fc C:/Users/RNG/Desktop/Stuff/Smash-Stuff/SMASH-ULTIMATE-MODS-BABY/50xx-the-mod/acmd-edits/code-mod-framework/lib/libnx_min/nx/lib\libnx_min.a(thread.o)
                0x0000000000040820                threadCreate
 *fill*         0x0000000000040a1c        0x4 
 .text.threadExit
                0x0000000000040a20       0xb0 C:/Users/RNG/Desktop/Stuff/Smash-Stuff/SMASH-ULTIMATE-MODS-BABY/50xx-the-mod/acmd-edits/code-mod-framework/lib/libnx_min/nx/lib\libnx_min.a(thread.o)
                0x0000000000040a20                threadExit
 .text._EntryWrap
                0x0000000000040ad0       0x90 C:/Users/RNG/Desktop/Stuff/Smash-Stuff/SMASH-ULTIMATE-MODS-BABY/50xx-the-mod/acmd-edits/code-mod-framework/lib/libnx_min/nx/lib\libnx_min.a(thread.o)
 .text.threadStart
                0x0000000000040b60        0x8 C:/Users/RNG/Desktop/Stuff/Smash-Stuff/SMASH-ULTIMATE-MODS-BABY/50xx-the-mod/acmd-edits/code-mod-framework/lib/libnx_min/nx/lib\libnx_min.a(thread.o)
                0x0000000000040b60                threadStart
 *fill*         0x0000000000040b68        0x8 
 .text.threadWaitForExit
                0x0000000000040b70       0x2c C:/Users/RNG/Desktop/Stuff/Smash-Stuff/SMASH-ULTIMATE-MODS-BABY/50xx-the-mod/acmd-edits/code-mod-framework/lib/libnx_min/nx/lib\libnx_min.a(thread.o)
                0x0000000000040b70                threadWaitForExit
 *fill*         0x0000000000040b9c        0x4 
 .text.threadClose
                0x0000000000040ba0       0x54 C:/Users/RNG/Desktop/Stuff/Smash-Stuff/SMASH-ULTIMATE-MODS-BABY/50xx-the-mod/acmd-edits/code-mod-framework/lib/libnx_min/nx/lib\libnx_min.a(thread.o)
                0x0000000000040ba0                threadClose
 *fill*         0x0000000000040bf4        0xc 
 .text.threadPause
                0x0000000000040c00        0xc C:/Users/RNG/Desktop/Stuff/Smash-Stuff/SMASH-ULTIMATE-MODS-BABY/50xx-the-mod/acmd-edits/code-mod-framework/lib/libnx_min/nx/lib\libnx_min.a(thread.o)
                0x0000000000040c00                threadPause
 *fill*         0x0000000000040c0c        0x4 
 .text.threadResume
                0x0000000000040c10        0xc C:/Users/RNG/Desktop/Stuff/Smash-Stuff/SMASH-ULTIMATE-MODS-BABY/50xx-the-mod/acmd-edits/code-mod-framework/lib/libnx_min/nx/lib\libnx_min.a(thread.o)
                0x0000000000040c10                threadResume
 *fill*         0x0000000000040c1c        0x4 
 .text.threadDumpContext
                0x0000000000040c20        0x8 C:/Users/RNG/Desktop/Stuff/Smash-Stuff/SMASH-ULTIMATE-MODS-BABY/50xx-the-mod/acmd-edits/code-mod-framework/lib/libnx_min/nx/lib\libnx_min.a(thread.o)
                0x0000000000040c20                threadDumpContext
 *fill*         0x0000000000040c28        0x8 
 .text.threadGetCurHandle
                0x0000000000040c30        0xc C:/Users/RNG/Desktop/Stuff/Smash-Stuff/SMASH-ULTIMATE-MODS-BABY/50xx-the-mod/acmd-edits/code-mod-framework/lib/libnx_min/nx/lib\libnx_min.a(thread.o)
                0x0000000000040c30                threadGetCurHandle
 *fill*         0x0000000000040c3c        0x4 
 .text.threadTlsGet
                0x0000000000040c40       0x10 C:/Users/RNG/Desktop/Stuff/Smash-Stuff/SMASH-ULTIMATE-MODS-BABY/50xx-the-mod/acmd-edits/code-mod-framework/lib/libnx_min/nx/lib\libnx_min.a(thread.o)
                0x0000000000040c40                threadTlsGet
 .text.threadTlsSet
                0x0000000000040c50       0x10 C:/Users/RNG/Desktop/Stuff/Smash-Stuff/SMASH-ULTIMATE-MODS-BABY/50xx-the-mod/acmd-edits/code-mod-framework/lib/libnx_min/nx/lib\libnx_min.a(thread.o)
                0x0000000000040c50                threadTlsSet
 .text.threadTlsAlloc
                0x0000000000040c60       0xd8 C:/Users/RNG/Desktop/Stuff/Smash-Stuff/SMASH-ULTIMATE-MODS-BABY/50xx-the-mod/acmd-edits/code-mod-framework/lib/libnx_min/nx/lib\libnx_min.a(thread.o)
                0x0000000000040c60                threadTlsAlloc
 *fill*         0x0000000000040d38        0x8 
 .text.threadTlsFree
                0x0000000000040d40       0x48 C:/Users/RNG/Desktop/Stuff/Smash-Stuff/SMASH-ULTIMATE-MODS-BABY/50xx-the-mod/acmd-edits/code-mod-framework/lib/libnx_min/nx/lib\libnx_min.a(thread.o)
                0x0000000000040d40                threadTlsFree
 *fill*         0x0000000000040d88        0x8 
 .text.condvarWaitTimeout
                0x0000000000040d90       0x60 C:/Users/RNG/Desktop/Stuff/Smash-Stuff/SMASH-ULTIMATE-MODS-BABY/50xx-the-mod/acmd-edits/code-mod-framework/lib/libnx_min/nx/lib\libnx_min.a(condvar.o)
                0x0000000000040d90                condvarWaitTimeout
 .text.eventCreate
                0x0000000000040df0       0x38 C:/Users/RNG/Desktop/Stuff/Smash-Stuff/SMASH-ULTIMATE-MODS-BABY/50xx-the-mod/acmd-edits/code-mod-framework/lib/libnx_min/nx/lib\libnx_min.a(event.o)
                0x0000000000040df0                eventCreate
 *fill*         0x0000000000040e28        0x8 
 .text.eventLoadRemote
                0x0000000000040e30        0xc C:/Users/RNG/Desktop/Stuff/Smash-Stuff/SMASH-ULTIMATE-MODS-BABY/50xx-the-mod/acmd-edits/code-mod-framework/lib/libnx_min/nx/lib\libnx_min.a(event.o)
                0x0000000000040e30                eventLoadRemote
 *fill*         0x0000000000040e3c        0x4 
 .text.eventWait
                0x0000000000040e40       0x38 C:/Users/RNG/Desktop/Stuff/Smash-Stuff/SMASH-ULTIMATE-MODS-BABY/50xx-the-mod/acmd-edits/code-mod-framework/lib/libnx_min/nx/lib\libnx_min.a(event.o)
                0x0000000000040e40                eventWait
 *fill*         0x0000000000040e78        0x8 
 .text.eventFire
                0x0000000000040e80       0x14 C:/Users/RNG/Desktop/Stuff/Smash-Stuff/SMASH-ULTIMATE-MODS-BABY/50xx-the-mod/acmd-edits/code-mod-framework/lib/libnx_min/nx/lib\libnx_min.a(event.o)
                0x0000000000040e80                eventFire
 *fill*         0x0000000000040e94        0xc 
 .text.eventClear
                0x0000000000040ea0       0x24 C:/Users/RNG/Desktop/Stuff/Smash-Stuff/SMASH-ULTIMATE-MODS-BABY/50xx-the-mod/acmd-edits/code-mod-framework/lib/libnx_min/nx/lib\libnx_min.a(event.o)
                0x0000000000040ea0                eventClear
 *fill*         0x0000000000040ec4        0xc 
 .text.eventClose
                0x0000000000040ed0       0x50 C:/Users/RNG/Desktop/Stuff/Smash-Stuff/SMASH-ULTIMATE-MODS-BABY/50xx-the-mod/acmd-edits/code-mod-framework/lib/libnx_min/nx/lib\libnx_min.a(event.o)
                0x0000000000040ed0                eventClose
 .text.tmemCreate
                0x0000000000040f20       0xa8 C:/Users/RNG/Desktop/Stuff/Smash-Stuff/SMASH-ULTIMATE-MODS-BABY/50xx-the-mod/acmd-edits/code-mod-framework/lib/libnx_min/nx/lib\libnx_min.a(tmem.o)
                0x0000000000040f20                tmemCreate
 *fill*         0x0000000000040fc8        0x8 
 .text.tmemCreateFromMemory
                0x0000000000040fd0       0x2c C:/Users/RNG/Desktop/Stuff/Smash-Stuff/SMASH-ULTIMATE-MODS-BABY/50xx-the-mod/acmd-edits/code-mod-framework/lib/libnx_min/nx/lib\libnx_min.a(tmem.o)
                0x0000000000040fd0                tmemCreateFromMemory
 *fill*         0x0000000000040ffc        0x4 
 .text.tmemLoadRemote
                0x0000000000041000       0x14 C:/Users/RNG/Desktop/Stuff/Smash-Stuff/SMASH-ULTIMATE-MODS-BABY/50xx-the-mod/acmd-edits/code-mod-framework/lib/libnx_min/nx/lib\libnx_min.a(tmem.o)
                0x0000000000041000                tmemLoadRemote
 *fill*         0x0000000000041014        0xc 
 .text.tmemMap  0x0000000000041020       0x84 C:/Users/RNG/Desktop/Stuff/Smash-Stuff/SMASH-ULTIMATE-MODS-BABY/50xx-the-mod/acmd-edits/code-mod-framework/lib/libnx_min/nx/lib\libnx_min.a(tmem.o)
                0x0000000000041020                tmemMap
 *fill*         0x00000000000410a4        0xc 
 .text.tmemUnmap
                0x00000000000410b0       0x58 C:/Users/RNG/Desktop/Stuff/Smash-Stuff/SMASH-ULTIMATE-MODS-BABY/50xx-the-mod/acmd-edits/code-mod-framework/lib/libnx_min/nx/lib\libnx_min.a(tmem.o)
                0x00000000000410b0                tmemUnmap
 *fill*         0x0000000000041108        0x8 
 .text.tmemClose
                0x0000000000041110       0x68 C:/Users/RNG/Desktop/Stuff/Smash-Stuff/SMASH-ULTIMATE-MODS-BABY/50xx-the-mod/acmd-edits/code-mod-framework/lib/libnx_min/nx/lib\libnx_min.a(tmem.o)
                0x0000000000041110                tmemClose
 *fill*         0x0000000000041178        0x8 
 .text.rwlockInit
                0x0000000000041180        0x8 C:/Users/RNG/Desktop/Stuff/Smash-Stuff/SMASH-ULTIMATE-MODS-BABY/50xx-the-mod/acmd-edits/code-mod-framework/lib/libnx_min/nx/lib\libnx_min.a(rwlock.o)
                0x0000000000041180                rwlockInit
 *fill*         0x0000000000041188        0x8 
 .text.rwlockReadLock
                0x0000000000041190       0x58 C:/Users/RNG/Desktop/Stuff/Smash-Stuff/SMASH-ULTIMATE-MODS-BABY/50xx-the-mod/acmd-edits/code-mod-framework/lib/libnx_min/nx/lib\libnx_min.a(rwlock.o)
                0x0000000000041190                rwlockReadLock
 *fill*         0x00000000000411e8        0x8 
 .text.rwlockReadUnlock
                0x00000000000411f0       0x5c C:/Users/RNG/Desktop/Stuff/Smash-Stuff/SMASH-ULTIMATE-MODS-BABY/50xx-the-mod/acmd-edits/code-mod-framework/lib/libnx_min/nx/lib\libnx_min.a(rwlock.o)
                0x00000000000411f0                rwlockReadUnlock
 *fill*         0x000000000004124c        0x4 
 .text.rwlockWriteLock
                0x0000000000041250       0x84 C:/Users/RNG/Desktop/Stuff/Smash-Stuff/SMASH-ULTIMATE-MODS-BABY/50xx-the-mod/acmd-edits/code-mod-framework/lib/libnx_min/nx/lib\libnx_min.a(rwlock.o)
                0x0000000000041250                rwlockWriteLock
 *fill*         0x00000000000412d4        0xc 
 .text.rwlockWriteUnlock
                0x00000000000412e0       0x3c C:/Users/RNG/Desktop/Stuff/Smash-Stuff/SMASH-ULTIMATE-MODS-BABY/50xx-the-mod/acmd-edits/code-mod-framework/lib/libnx_min/nx/lib\libnx_min.a(rwlock.o)
                0x00000000000412e0                rwlockWriteUnlock
 *fill*         0x000000000004131c        0x4 
 .text._waitLoop
                0x0000000000041320      0x104 C:/Users/RNG/Desktop/Stuff/Smash-Stuff/SMASH-ULTIMATE-MODS-BABY/50xx-the-mod/acmd-edits/code-mod-framework/lib/libnx_min/nx/lib\libnx_min.a(wait.o)
 *fill*         0x0000000000041424        0xc 
 .text._waitObjectsImpl
                0x0000000000041430      0x338 C:/Users/RNG/Desktop/Stuff/Smash-Stuff/SMASH-ULTIMATE-MODS-BABY/50xx-the-mod/acmd-edits/code-mod-framework/lib/libnx_min/nx/lib\libnx_min.a(wait.o)
 *fill*         0x0000000000041768        0x8 
 .text.waitObjects
                0x0000000000041770        0xc C:/Users/RNG/Desktop/Stuff/Smash-Stuff/SMASH-ULTIMATE-MODS-BABY/50xx-the-mod/acmd-edits/code-mod-framework/lib/libnx_min/nx/lib\libnx_min.a(wait.o)
                0x0000000000041770                waitObjects
 *fill*         0x000000000004177c        0x4 
 .text.waitHandles
                0x0000000000041780        0xc C:/Users/RNG/Desktop/Stuff/Smash-Stuff/SMASH-ULTIMATE-MODS-BABY/50xx-the-mod/acmd-edits/code-mod-framework/lib/libnx_min/nx/lib\libnx_min.a(wait.o)
                0x0000000000041780                waitHandles
 *fill*         0x000000000004178c        0x4 
 .text.shmemCreate
                0x0000000000041790       0x14 C:/Users/RNG/Desktop/Stuff/Smash-Stuff/SMASH-ULTIMATE-MODS-BABY/50xx-the-mod/acmd-edits/code-mod-framework/lib/libnx_min/nx/lib\libnx_min.a(shmem.o)
                0x0000000000041790                shmemCreate
 *fill*         0x00000000000417a4        0xc 
 .text.shmemLoadRemote
                0x00000000000417b0       0x14 C:/Users/RNG/Desktop/Stuff/Smash-Stuff/SMASH-ULTIMATE-MODS-BABY/50xx-the-mod/acmd-edits/code-mod-framework/lib/libnx_min/nx/lib\libnx_min.a(shmem.o)
                0x00000000000417b0                shmemLoadRemote
 *fill*         0x00000000000417c4        0xc 
 .text.shmemMap
                0x00000000000417d0       0x84 C:/Users/RNG/Desktop/Stuff/Smash-Stuff/SMASH-ULTIMATE-MODS-BABY/50xx-the-mod/acmd-edits/code-mod-framework/lib/libnx_min/nx/lib\libnx_min.a(shmem.o)
                0x00000000000417d0                shmemMap
 *fill*         0x0000000000041854        0xc 
 .text.shmemUnmap
                0x0000000000041860       0x58 C:/Users/RNG/Desktop/Stuff/Smash-Stuff/SMASH-ULTIMATE-MODS-BABY/50xx-the-mod/acmd-edits/code-mod-framework/lib/libnx_min/nx/lib\libnx_min.a(shmem.o)
                0x0000000000041860                shmemUnmap
 *fill*         0x00000000000418b8        0x8 
 .text.shmemClose
                0x00000000000418c0       0x44 C:/Users/RNG/Desktop/Stuff/Smash-Stuff/SMASH-ULTIMATE-MODS-BABY/50xx-the-mod/acmd-edits/code-mod-framework/lib/libnx_min/nx/lib\libnx_min.a(shmem.o)
                0x00000000000418c0                shmemClose
 *fill*         0x0000000000041904        0xc 
 .text.detectKernelVersion
                0x0000000000041910      0x17c C:/Users/RNG/Desktop/Stuff/Smash-Stuff/SMASH-ULTIMATE-MODS-BABY/50xx-the-mod/acmd-edits/code-mod-framework/lib/libnx_min/nx/lib\libnx_min.a(detect.o)
                0x0000000000041910                detectKernelVersion
 *fill*         0x0000000000041a8c        0x4 
 .text.detectDebugger
                0x0000000000041a90       0x30 C:/Users/RNG/Desktop/Stuff/Smash-Stuff/SMASH-ULTIMATE-MODS-BABY/50xx-the-mod/acmd-edits/code-mod-framework/lib/libnx_min/nx/lib\libnx_min.a(detect.o)
                0x0000000000041a90                detectDebugger
 .text.detectJitKernelPatch
                0x0000000000041ac0       0xdc C:/Users/RNG/Desktop/Stuff/Smash-Stuff/SMASH-ULTIMATE-MODS-BABY/50xx-the-mod/acmd-edits/code-mod-framework/lib/libnx_min/nx/lib\libnx_min.a(detect.o)
                0x0000000000041ac0                detectJitKernelPatch
 *fill*         0x0000000000041b9c        0x4 
 .text.detectIgnoreJitKernelPatch
                0x0000000000041ba0       0x44 C:/Users/RNG/Desktop/Stuff/Smash-Stuff/SMASH-ULTIMATE-MODS-BABY/50xx-the-mod/acmd-edits/code-mod-framework/lib/libnx_min/nx/lib\libnx_min.a(detect.o)
                0x0000000000041ba0                detectIgnoreJitKernelPatch
 *fill*         0x0000000000041be4        0xc 
 .text.ipcCloseObjectById
                0x0000000000041bf0       0x34 C:/Users/RNG/Desktop/Stuff/Smash-Stuff/SMASH-ULTIMATE-MODS-BABY/50xx-the-mod/acmd-edits/code-mod-framework/lib/libnx_min/nx/lib\libnx_min.a(apm.o)
 *fill*         0x0000000000041c24        0xc 
 .text._apmGetSession.constprop.4
                0x0000000000041c30      0x124 C:/Users/RNG/Desktop/Stuff/Smash-Stuff/SMASH-ULTIMATE-MODS-BABY/50xx-the-mod/acmd-edits/code-mod-framework/lib/libnx_min/nx/lib\libnx_min.a(apm.o)
 *fill*         0x0000000000041d54        0xc 
 .text.apmExit  0x0000000000041d60       0xf0 C:/Users/RNG/Desktop/Stuff/Smash-Stuff/SMASH-ULTIMATE-MODS-BABY/50xx-the-mod/acmd-edits/code-mod-framework/lib/libnx_min/nx/lib\libnx_min.a(apm.o)
                0x0000000000041d60                apmExit
 .text.apmInitialize
                0x0000000000041e50       0x70 C:/Users/RNG/Desktop/Stuff/Smash-Stuff/SMASH-ULTIMATE-MODS-BABY/50xx-the-mod/acmd-edits/code-mod-framework/lib/libnx_min/nx/lib\libnx_min.a(apm.o)
                0x0000000000041e50                apmInitialize
 .text.apmSetPerformanceConfiguration
                0x0000000000041ec0       0xcc C:/Users/RNG/Desktop/Stuff/Smash-Stuff/SMASH-ULTIMATE-MODS-BABY/50xx-the-mod/acmd-edits/code-mod-framework/lib/libnx_min/nx/lib\libnx_min.a(apm.o)
                0x0000000000041ec0                apmSetPerformanceConfiguration
 *fill*         0x0000000000041f8c        0x4 
 .text.apmGetPerformanceConfiguration
                0x0000000000041f90       0xf4 C:/Users/RNG/Desktop/Stuff/Smash-Stuff/SMASH-ULTIMATE-MODS-BABY/50xx-the-mod/acmd-edits/code-mod-framework/lib/libnx_min/nx/lib\libnx_min.a(apm.o)
                0x0000000000041f90                apmGetPerformanceConfiguration
 *fill*         0x0000000000042084        0x4 
 .text.bsearch  0x0000000000042088       0xb8 c:/devkitpro/devkita64/bin/../lib/gcc/aarch64-none-elf/8.3.0/../../../../aarch64-none-elf/lib/pic\libg.a(lib_a-bsearch.o)
                0x0000000000042088                bsearch
 .text.__set_ctype
                0x0000000000042140       0x10 c:/devkitpro/devkita64/bin/../lib/gcc/aarch64-none-elf/8.3.0/../../../../aarch64-none-elf/lib/pic\libg.a(lib_a-ctype_.o)
                0x0000000000042140                __set_ctype
 .text.__errno  0x0000000000042150       0x14 c:/devkitpro/devkita64/bin/../lib/gcc/aarch64-none-elf/8.3.0/../../../../aarch64-none-elf/lib/pic\libg.a(lib_a-errno.o)
                0x0000000000042150                __errno
 *fill*         0x0000000000042164        0x4 
 .text.__libc_fini_array
                0x0000000000042168       0x44 c:/devkitpro/devkita64/bin/../lib/gcc/aarch64-none-elf/8.3.0/../../../../aarch64-none-elf/lib/pic\libg.a(lib_a-fini.o)
                0x0000000000042168                __libc_fini_array
 *fill*         0x00000000000421ac        0x4 
 .text.__libc_init_array
                0x00000000000421b0       0x8c c:/devkitpro/devkita64/bin/../lib/gcc/aarch64-none-elf/8.3.0/../../../../aarch64-none-elf/lib/pic\libg.a(lib_a-init.o)
                0x00000000000421b0                __libc_init_array
 *fill*         0x000000000004223c        0x4 
 .text.memalign
                0x0000000000042240       0x30 c:/devkitpro/devkita64/bin/../lib/gcc/aarch64-none-elf/8.3.0/../../../../aarch64-none-elf/lib/pic\libg.a(lib_a-malign.o)
                0x0000000000042240                memalign
 .text._memalign_r
                0x0000000000042270      0x198 c:/devkitpro/devkita64/bin/../lib/gcc/aarch64-none-elf/8.3.0/../../../../aarch64-none-elf/lib/pic\libg.a(lib_a-malignr.o)
                0x0000000000042270                _memalign_r
 .text.malloc   0x0000000000042408       0x1c c:/devkitpro/devkita64/bin/../lib/gcc/aarch64-none-elf/8.3.0/../../../../aarch64-none-elf/lib/pic\libg.a(lib_a-malloc.o)
                0x0000000000042408                malloc
 *fill*         0x0000000000042424        0x4 
 .text.free     0x0000000000042428       0x1c c:/devkitpro/devkita64/bin/../lib/gcc/aarch64-none-elf/8.3.0/../../../../aarch64-none-elf/lib/pic\libg.a(lib_a-malloc.o)
                0x0000000000042428                free
 *fill*         0x0000000000042444        0x4 
 .text._malloc_r
                0x0000000000042448      0x87c c:/devkitpro/devkita64/bin/../lib/gcc/aarch64-none-elf/8.3.0/../../../../aarch64-none-elf/lib/pic\libg.a(lib_a-mallocr.o)
                0x0000000000042448                _malloc_r
 *fill*         0x0000000000042cc4       0x3c 
 .text          0x0000000000042d00      0x16c c:/devkitpro/devkita64/bin/../lib/gcc/aarch64-none-elf/8.3.0/../../../../aarch64-none-elf/lib/pic\libg.a(lib_a-memcpy.o)
                0x0000000000042d00                memcpy
 *fill*         0x0000000000042e6c       0x14 
 .text          0x0000000000042e80      0x1dc c:/devkitpro/devkita64/bin/../lib/gcc/aarch64-none-elf/8.3.0/../../../../aarch64-none-elf/lib/pic\libg.a(lib_a-memset.o)
                0x0000000000042e80                memset
 *fill*         0x000000000004305c        0x4 
 .text.__malloc_lock
                0x0000000000043060        0xc c:/devkitpro/devkita64/bin/../lib/gcc/aarch64-none-elf/8.3.0/../../../../aarch64-none-elf/lib/pic\libg.a(lib_a-mlock.o)
                0x0000000000043060                __malloc_lock
 *fill*         0x000000000004306c        0x4 
 .text.__malloc_unlock
                0x0000000000043070        0xc c:/devkitpro/devkita64/bin/../lib/gcc/aarch64-none-elf/8.3.0/../../../../aarch64-none-elf/lib/pic\libg.a(lib_a-mlock.o)
                0x0000000000043070                __malloc_unlock
 *fill*         0x000000000004307c        0x4 
 .text.setenv   0x0000000000043080       0x3c c:/devkitpro/devkita64/bin/../lib/gcc/aarch64-none-elf/8.3.0/../../../../aarch64-none-elf/lib/pic\libg.a(lib_a-setenv.o)
                0x0000000000043080                setenv
 *fill*         0x00000000000430bc        0x4 
 .text.unsetenv
                0x00000000000430c0       0x1c c:/devkitpro/devkita64/bin/../lib/gcc/aarch64-none-elf/8.3.0/../../../../aarch64-none-elf/lib/pic\libg.a(lib_a-setenv.o)
                0x00000000000430c0                unsetenv
 *fill*         0x00000000000430dc        0x4 
 .text._setenv_r
                0x00000000000430e0      0x264 c:/devkitpro/devkita64/bin/../lib/gcc/aarch64-none-elf/8.3.0/../../../../aarch64-none-elf/lib/pic\libg.a(lib_a-setenv_r.o)
                0x00000000000430e0                _setenv_r
 *fill*         0x0000000000043344        0x4 
 .text._unsetenv_r
                0x0000000000043348       0xd4 c:/devkitpro/devkita64/bin/../lib/gcc/aarch64-none-elf/8.3.0/../../../../aarch64-none-elf/lib/pic\libg.a(lib_a-setenv_r.o)
                0x0000000000043348                _unsetenv_r
 .text          0x000000000004341c       0xdc c:/devkitpro/devkita64/bin/../lib/gcc/aarch64-none-elf/8.3.0/../../../../aarch64-none-elf/lib/pic\libg.a(lib_a-strchr.o)
                0x000000000004341c                strchr
 *fill*         0x00000000000434f8        0x8 
 .text          0x0000000000043500       0xe4 c:/devkitpro/devkita64/bin/../lib/gcc/aarch64-none-elf/8.3.0/../../../../aarch64-none-elf/lib/pic\libg.a(lib_a-strcmp.o)
                0x0000000000043500                strcmp
 *fill*         0x00000000000435e4       0x1c 
 .text          0x0000000000043600      0x1b8 c:/devkitpro/devkita64/bin/../lib/gcc/aarch64-none-elf/8.3.0/../../../../aarch64-none-elf/lib/pic\libg.a(lib_a-strcpy.o)
                0x0000000000043600                strcpy
 *fill*         0x00000000000437b8        0x8 
 .text          0x00000000000437c0      0x140 c:/devkitpro/devkita64/bin/../lib/gcc/aarch64-none-elf/8.3.0/../../../../aarch64-none-elf/lib/pic\libg.a(lib_a-strlen.o)
                0x00000000000437c0                strlen
 .text.strncat  0x0000000000043900       0x84 c:/devkitpro/devkita64/bin/../lib/gcc/aarch64-none-elf/8.3.0/../../../../aarch64-none-elf/lib/pic\libg.a(lib_a-strncat.o)
                0x0000000000043900                strncat
 *fill*         0x0000000000043984       0x3c 
 .text          0x00000000000439c0      0x1d4 c:/devkitpro/devkita64/bin/../lib/gcc/aarch64-none-elf/8.3.0/../../../../aarch64-none-elf/lib/pic\libg.a(lib_a-strncmp.o)
                0x00000000000439dc                strncmp
 *fill*         0x0000000000043b94        0x4 
 .text.strncpy  0x0000000000043b98       0xa8 c:/devkitpro/devkita64/bin/../lib/gcc/aarch64-none-elf/8.3.0/../../../../aarch64-none-elf/lib/pic\libg.a(lib_a-strncpy.o)
                0x0000000000043b98                strncpy
 .text          0x0000000000043c40       0xe0 c:/devkitpro/devkita64/bin/../lib/gcc/aarch64-none-elf/8.3.0/../../../../aarch64-none-elf/lib/pic\libg.a(lib_a-strnlen.o)
                0x0000000000043c64                strnlen
 .text.toupper  0x0000000000043d20       0x24 c:/devkitpro/devkita64/bin/../lib/gcc/aarch64-none-elf/8.3.0/../../../../aarch64-none-elf/lib/pic\libg.a(lib_a-toupper.o)
                0x0000000000043d20                toupper
 *fill*         0x0000000000043d44        0x4 
 .text._vsnprintf_r
                0x0000000000043d48       0xe0 c:/devkitpro/devkita64/bin/../lib/gcc/aarch64-none-elf/8.3.0/../../../../aarch64-none-elf/lib/pic\libg.a(lib_a-vsnprintf.o)
                0x0000000000043d48                _vsnprintf_r
 .text.vsnprintf
                0x0000000000043e28       0x50 c:/devkitpro/devkita64/bin/../lib/gcc/aarch64-none-elf/8.3.0/../../../../aarch64-none-elf/lib/pic\libg.a(lib_a-vsnprintf.o)
                0x0000000000043e28                vsnprintf
 .text.__call_exitprocs
                0x0000000000043e78      0x124 c:/devkitpro/devkita64/bin/../lib/gcc/aarch64-none-elf/8.3.0/../../../../aarch64-none-elf/lib/pic\libg.a(lib_a-__call_atexit.o)
                0x0000000000043e78                __call_exitprocs
 *fill*         0x0000000000043f9c        0x4 
 .text.__env_lock
                0x0000000000043fa0        0xc c:/devkitpro/devkita64/bin/../lib/gcc/aarch64-none-elf/8.3.0/../../../../aarch64-none-elf/lib/pic\libg.a(lib_a-envlock.o)
                0x0000000000043fa0                __env_lock
 *fill*         0x0000000000043fac        0x4 
 .text.__env_unlock
                0x0000000000043fb0        0xc c:/devkitpro/devkita64/bin/../lib/gcc/aarch64-none-elf/8.3.0/../../../../aarch64-none-elf/lib/pic\libg.a(lib_a-envlock.o)
                0x0000000000043fb0                __env_unlock
 *fill*         0x0000000000043fbc        0x4 
 .text._malloc_trim_r
                0x0000000000043fc0      0x118 c:/devkitpro/devkita64/bin/../lib/gcc/aarch64-none-elf/8.3.0/../../../../aarch64-none-elf/lib/pic\libg.a(lib_a-freer.o)
                0x0000000000043fc0                _malloc_trim_r
 .text._free_r  0x00000000000440d8      0x2f4 c:/devkitpro/devkita64/bin/../lib/gcc/aarch64-none-elf/8.3.0/../../../../aarch64-none-elf/lib/pic\libg.a(lib_a-freer.o)
                0x00000000000440d8                _free_r
 *fill*         0x00000000000443cc        0x4 
 .text._findenv_r
                0x00000000000443d0      0x100 c:/devkitpro/devkita64/bin/../lib/gcc/aarch64-none-elf/8.3.0/../../../../aarch64-none-elf/lib/pic\libg.a(lib_a-getenv_r.o)
                0x00000000000443d0                _findenv_r
 .text._getenv_r
                0x00000000000444d0       0x18 c:/devkitpro/devkita64/bin/../lib/gcc/aarch64-none-elf/8.3.0/../../../../aarch64-none-elf/lib/pic\libg.a(lib_a-getenv_r.o)
                0x00000000000444d0                _getenv_r
 .text._realloc_r
                0x00000000000444e8      0x56c c:/devkitpro/devkita64/bin/../lib/gcc/aarch64-none-elf/8.3.0/../../../../aarch64-none-elf/lib/pic\libg.a(lib_a-reallocr.o)
                0x00000000000444e8                _realloc_r
 .text.get_arg  0x0000000000044a54      0x76c c:/devkitpro/devkita64/bin/../lib/gcc/aarch64-none-elf/8.3.0/../../../../aarch64-none-elf/lib/pic\libg.a(lib_a-svfprintf.o)
 .text._svfprintf_r
                0x00000000000451c0     0x3b38 c:/devkitpro/devkita64/bin/../lib/gcc/aarch64-none-elf/8.3.0/../../../../aarch64-none-elf/lib/pic\libg.a(lib_a-svfprintf.o)
                0x00000000000451c0                _svfprintf_r
 .text._wcrtomb_r
                0x0000000000048cf8       0xd0 c:/devkitpro/devkita64/bin/../lib/gcc/aarch64-none-elf/8.3.0/../../../../aarch64-none-elf/lib/pic\libg.a(lib_a-wcrtomb.o)
                0x0000000000048cf8                _wcrtomb_r
 .text.wcrtomb  0x0000000000048dc8       0xdc c:/devkitpro/devkita64/bin/../lib/gcc/aarch64-none-elf/8.3.0/../../../../aarch64-none-elf/lib/pic\libg.a(lib_a-wcrtomb.o)
                0x0000000000048dc8                wcrtomb
 *fill*         0x0000000000048ea4        0x4 
 .text._wcsrtombs_r
                0x0000000000048ea8       0x10 c:/devkitpro/devkita64/bin/../lib/gcc/aarch64-none-elf/8.3.0/../../../../aarch64-none-elf/lib/pic\libg.a(lib_a-wcsrtombs.o)
                0x0000000000048ea8                _wcsrtombs_r
 .text.wcsrtombs
                0x0000000000048eb8       0x44 c:/devkitpro/devkita64/bin/../lib/gcc/aarch64-none-elf/8.3.0/../../../../aarch64-none-elf/lib/pic\libg.a(lib_a-wcsrtombs.o)
                0x0000000000048eb8                wcsrtombs
 *fill*         0x0000000000048efc        0x4 
 .text.quorem   0x0000000000048f00      0x1a8 c:/devkitpro/devkita64/bin/../lib/gcc/aarch64-none-elf/8.3.0/../../../../aarch64-none-elf/lib/pic\libg.a(lib_a-dtoa.o)
 .text._dtoa_r  0x00000000000490a8     0x10dc c:/devkitpro/devkita64/bin/../lib/gcc/aarch64-none-elf/8.3.0/../../../../aarch64-none-elf/lib/pic\libg.a(lib_a-dtoa.o)
                0x00000000000490a8                _dtoa_r
 *fill*         0x000000000004a184        0x4 
 .text.__localeconv_l
                0x000000000004a188        0x8 c:/devkitpro/devkita64/bin/../lib/gcc/aarch64-none-elf/8.3.0/../../../../aarch64-none-elf/lib/pic\libg.a(lib_a-localeconv.o)
                0x000000000004a188                __localeconv_l
 .text._localeconv_r
                0x000000000004a190       0x28 c:/devkitpro/devkita64/bin/../lib/gcc/aarch64-none-elf/8.3.0/../../../../aarch64-none-elf/lib/pic\libg.a(lib_a-localeconv.o)
                0x000000000004a190                _localeconv_r
 .text.localeconv
                0x000000000004a1b8       0x28 c:/devkitpro/devkita64/bin/../lib/gcc/aarch64-none-elf/8.3.0/../../../../aarch64-none-elf/lib/pic\libg.a(lib_a-localeconv.o)
                0x000000000004a1b8                localeconv
 .text.currentlocale
                0x000000000004a1e0       0xb8 c:/devkitpro/devkita64/bin/../lib/gcc/aarch64-none-elf/8.3.0/../../../../aarch64-none-elf/lib/pic\libg.a(lib_a-locale.o)
 .text.__loadlocale
                0x000000000004a298      0x7a8 c:/devkitpro/devkita64/bin/../lib/gcc/aarch64-none-elf/8.3.0/../../../../aarch64-none-elf/lib/pic\libg.a(lib_a-locale.o)
                0x000000000004a298                __loadlocale
 .text.__get_locale_env
                0x000000000004aa40       0x88 c:/devkitpro/devkita64/bin/../lib/gcc/aarch64-none-elf/8.3.0/../../../../aarch64-none-elf/lib/pic\libg.a(lib_a-locale.o)
                0x000000000004aa40                __get_locale_env
 .text._setlocale_r
                0x000000000004aac8      0x3a4 c:/devkitpro/devkita64/bin/../lib/gcc/aarch64-none-elf/8.3.0/../../../../aarch64-none-elf/lib/pic\libg.a(lib_a-locale.o)
                0x000000000004aac8                _setlocale_r
 *fill*         0x000000000004ae6c        0x4 
 .text.__locale_mb_cur_max
                0x000000000004ae70       0x2c c:/devkitpro/devkita64/bin/../lib/gcc/aarch64-none-elf/8.3.0/../../../../aarch64-none-elf/lib/pic\libg.a(lib_a-locale.o)
                0x000000000004ae70                __locale_mb_cur_max
 *fill*         0x000000000004ae9c        0x4 
 .text.setlocale
                0x000000000004aea0       0x30 c:/devkitpro/devkita64/bin/../lib/gcc/aarch64-none-elf/8.3.0/../../../../aarch64-none-elf/lib/pic\libg.a(lib_a-locale.o)
                0x000000000004aea0                setlocale
 .text._mbtowc_r
                0x000000000004aed0       0x4c c:/devkitpro/devkita64/bin/../lib/gcc/aarch64-none-elf/8.3.0/../../../../aarch64-none-elf/lib/pic\libg.a(lib_a-mbtowc_r.o)
                0x000000000004aed0                _mbtowc_r
 *fill*         0x000000000004af1c        0x4 
 .text.__ascii_mbtowc
                0x000000000004af20       0x48 c:/devkitpro/devkita64/bin/../lib/gcc/aarch64-none-elf/8.3.0/../../../../aarch64-none-elf/lib/pic\libg.a(lib_a-mbtowc_r.o)
                0x000000000004af20                __ascii_mbtowc
 .text.__utf8_mbtowc
                0x000000000004af68      0x2c8 c:/devkitpro/devkita64/bin/../lib/gcc/aarch64-none-elf/8.3.0/../../../../aarch64-none-elf/lib/pic\libg.a(lib_a-mbtowc_r.o)
                0x000000000004af68                __utf8_mbtowc
 .text.__sjis_mbtowc
                0x000000000004b230       0xcc c:/devkitpro/devkita64/bin/../lib/gcc/aarch64-none-elf/8.3.0/../../../../aarch64-none-elf/lib/pic\libg.a(lib_a-mbtowc_r.o)
                0x000000000004b230                __sjis_mbtowc
 *fill*         0x000000000004b2fc        0x4 
 .text.__eucjp_mbtowc
                0x000000000004b300      0x120 c:/devkitpro/devkita64/bin/../lib/gcc/aarch64-none-elf/8.3.0/../../../../aarch64-none-elf/lib/pic\libg.a(lib_a-mbtowc_r.o)
                0x000000000004b300                __eucjp_mbtowc
 .text.__jis_mbtowc
                0x000000000004b420      0x1d4 c:/devkitpro/devkita64/bin/../lib/gcc/aarch64-none-elf/8.3.0/../../../../aarch64-none-elf/lib/pic\libg.a(lib_a-mbtowc_r.o)
                0x000000000004b420                __jis_mbtowc
 .text          0x000000000004b5f4       0xd8 c:/devkitpro/devkita64/bin/../lib/gcc/aarch64-none-elf/8.3.0/../../../../aarch64-none-elf/lib/pic\libg.a(lib_a-memchr.o)
                0x000000000004b5f4                memchr
 *fill*         0x000000000004b6cc       0x34 
 .text          0x000000000004b700       0xac c:/devkitpro/devkita64/bin/../lib/gcc/aarch64-none-elf/8.3.0/../../../../aarch64-none-elf/lib/pic\libg.a(lib_a-memmove.o)
                0x000000000004b700                memmove
 *fill*         0x000000000004b7ac        0x4 
 .text._Balloc  0x000000000004b7b0       0x90 c:/devkitpro/devkita64/bin/../lib/gcc/aarch64-none-elf/8.3.0/../../../../aarch64-none-elf/lib/pic\libg.a(lib_a-mprec.o)
                0x000000000004b7b0                _Balloc
 .text._Bfree   0x000000000004b840       0x1c c:/devkitpro/devkita64/bin/../lib/gcc/aarch64-none-elf/8.3.0/../../../../aarch64-none-elf/lib/pic\libg.a(lib_a-mprec.o)
                0x000000000004b840                _Bfree
 *fill*         0x000000000004b85c        0x4 
 .text.__multadd
                0x000000000004b860       0xe8 c:/devkitpro/devkita64/bin/../lib/gcc/aarch64-none-elf/8.3.0/../../../../aarch64-none-elf/lib/pic\libg.a(lib_a-mprec.o)
                0x000000000004b860                __multadd
 .text.__s2b    0x000000000004b948      0x120 c:/devkitpro/devkita64/bin/../lib/gcc/aarch64-none-elf/8.3.0/../../../../aarch64-none-elf/lib/pic\libg.a(lib_a-mprec.o)
                0x000000000004b948                __s2b
 .text.__hi0bits
                0x000000000004ba68       0x5c c:/devkitpro/devkita64/bin/../lib/gcc/aarch64-none-elf/8.3.0/../../../../aarch64-none-elf/lib/pic\libg.a(lib_a-mprec.o)
                0x000000000004ba68                __hi0bits
 *fill*         0x000000000004bac4        0x4 
 .text.__lo0bits
                0x000000000004bac8       0xa0 c:/devkitpro/devkita64/bin/../lib/gcc/aarch64-none-elf/8.3.0/../../../../aarch64-none-elf/lib/pic\libg.a(lib_a-mprec.o)
                0x000000000004bac8                __lo0bits
 .text.__i2b    0x000000000004bb68       0x2c c:/devkitpro/devkita64/bin/../lib/gcc/aarch64-none-elf/8.3.0/../../../../aarch64-none-elf/lib/pic\libg.a(lib_a-mprec.o)
                0x000000000004bb68                __i2b
 *fill*         0x000000000004bb94        0x4 
 .text.__multiply
                0x000000000004bb98      0x1c8 c:/devkitpro/devkita64/bin/../lib/gcc/aarch64-none-elf/8.3.0/../../../../aarch64-none-elf/lib/pic\libg.a(lib_a-mprec.o)
                0x000000000004bb98                __multiply
 .text.__pow5mult
                0x000000000004bd60      0x104 c:/devkitpro/devkita64/bin/../lib/gcc/aarch64-none-elf/8.3.0/../../../../aarch64-none-elf/lib/pic\libg.a(lib_a-mprec.o)
                0x000000000004bd60                __pow5mult
 *fill*         0x000000000004be64        0x4 
 .text.__lshift
                0x000000000004be68      0x134 c:/devkitpro/devkita64/bin/../lib/gcc/aarch64-none-elf/8.3.0/../../../../aarch64-none-elf/lib/pic\libg.a(lib_a-mprec.o)
                0x000000000004be68                __lshift
 *fill*         0x000000000004bf9c        0x4 
 .text.__mcmp   0x000000000004bfa0       0x50 c:/devkitpro/devkita64/bin/../lib/gcc/aarch64-none-elf/8.3.0/../../../../aarch64-none-elf/lib/pic\libg.a(lib_a-mprec.o)
                0x000000000004bfa0                __mcmp
 .text.__mdiff  0x000000000004bff0      0x14c c:/devkitpro/devkita64/bin/../lib/gcc/aarch64-none-elf/8.3.0/../../../../aarch64-none-elf/lib/pic\libg.a(lib_a-mprec.o)
                0x000000000004bff0                __mdiff
 *fill*         0x000000000004c13c        0x4 
 .text.__ulp    0x000000000004c140       0x68 c:/devkitpro/devkita64/bin/../lib/gcc/aarch64-none-elf/8.3.0/../../../../aarch64-none-elf/lib/pic\libg.a(lib_a-mprec.o)
                0x000000000004c140                __ulp
 .text.__b2d    0x000000000004c1a8      0x150 c:/devkitpro/devkita64/bin/../lib/gcc/aarch64-none-elf/8.3.0/../../../../aarch64-none-elf/lib/pic\libg.a(lib_a-mprec.o)
                0x000000000004c1a8                __b2d
 .text.__d2b    0x000000000004c2f8      0x138 c:/devkitpro/devkita64/bin/../lib/gcc/aarch64-none-elf/8.3.0/../../../../aarch64-none-elf/lib/pic\libg.a(lib_a-mprec.o)
                0x000000000004c2f8                __d2b
 .text.__ratio  0x000000000004c430       0xa0 c:/devkitpro/devkita64/bin/../lib/gcc/aarch64-none-elf/8.3.0/../../../../aarch64-none-elf/lib/pic\libg.a(lib_a-mprec.o)
                0x000000000004c430                __ratio
 .text._mprec_log10
                0x000000000004c4d0       0x30 c:/devkitpro/devkita64/bin/../lib/gcc/aarch64-none-elf/8.3.0/../../../../aarch64-none-elf/lib/pic\libg.a(lib_a-mprec.o)
                0x000000000004c4d0                _mprec_log10
 .text.__copybits
                0x000000000004c500       0x68 c:/devkitpro/devkita64/bin/../lib/gcc/aarch64-none-elf/8.3.0/../../../../aarch64-none-elf/lib/pic\libg.a(lib_a-mprec.o)
                0x000000000004c500                __copybits
 .text.__any_on
                0x000000000004c568       0x84 c:/devkitpro/devkita64/bin/../lib/gcc/aarch64-none-elf/8.3.0/../../../../aarch64-none-elf/lib/pic\libg.a(lib_a-mprec.o)
                0x000000000004c568                __any_on
 *fill*         0x000000000004c5ec        0x4 
 .text.frexp    0x000000000004c5f0       0x7c c:/devkitpro/devkita64/bin/../lib/gcc/aarch64-none-elf/8.3.0/../../../../aarch64-none-elf/lib/pic\libg.a(lib_a-s_frexp.o)
                0x000000000004c5f0                frexp
 *fill*         0x000000000004c66c        0x4 
 .text.strcasecmp
                0x000000000004c670       0x78 c:/devkitpro/devkita64/bin/../lib/gcc/aarch64-none-elf/8.3.0/../../../../aarch64-none-elf/lib/pic\libg.a(lib_a-strcasecmp.o)
                0x000000000004c670                strcasecmp
 .text.strcat   0x000000000004c6e8       0x74 c:/devkitpro/devkita64/bin/../lib/gcc/aarch64-none-elf/8.3.0/../../../../aarch64-none-elf/lib/pic\libg.a(lib_a-strcat.o)
                0x000000000004c6e8                strcat
 *fill*         0x000000000004c75c        0x4 
 .text.strlcpy  0x000000000004c760       0x54 c:/devkitpro/devkita64/bin/../lib/gcc/aarch64-none-elf/8.3.0/../../../../aarch64-none-elf/lib/pic\libg.a(lib_a-strlcpy.o)
                0x000000000004c760                strlcpy
 *fill*         0x000000000004c7b4        0x4 
 .text.strncasecmp
                0x000000000004c7b8       0x8c c:/devkitpro/devkita64/bin/../lib/gcc/aarch64-none-elf/8.3.0/../../../../aarch64-none-elf/lib/pic\libg.a(lib_a-strncasecmp.o)
                0x000000000004c7b8                strncasecmp
 *fill*         0x000000000004c844        0x4 
 .text._strtol_l.isra.0
                0x000000000004c848      0x1a0 c:/devkitpro/devkita64/bin/../lib/gcc/aarch64-none-elf/8.3.0/../../../../aarch64-none-elf/lib/pic\libg.a(lib_a-strtol.o)
 .text._strtol_r
                0x000000000004c9e8       0x34 c:/devkitpro/devkita64/bin/../lib/gcc/aarch64-none-elf/8.3.0/../../../../aarch64-none-elf/lib/pic\libg.a(lib_a-strtol.o)
                0x000000000004c9e8                _strtol_r
 *fill*         0x000000000004ca1c        0x4 
 .text.strtol_l
                0x000000000004ca20       0x3c c:/devkitpro/devkita64/bin/../lib/gcc/aarch64-none-elf/8.3.0/../../../../aarch64-none-elf/lib/pic\libg.a(lib_a-strtol.o)
                0x000000000004ca20                strtol_l
 *fill*         0x000000000004ca5c        0x4 
 .text.strtol   0x000000000004ca60       0x48 c:/devkitpro/devkita64/bin/../lib/gcc/aarch64-none-elf/8.3.0/../../../../aarch64-none-elf/lib/pic\libg.a(lib_a-strtol.o)
                0x000000000004ca60                strtol
 .text.get_arg  0x000000000004caa8      0x76c c:/devkitpro/devkita64/bin/../lib/gcc/aarch64-none-elf/8.3.0/../../../../aarch64-none-elf/lib/pic\libg.a(lib_a-svfiprintf.o)
 .text.__ssprint_r
                0x000000000004d214      0x1c0 c:/devkitpro/devkita64/bin/../lib/gcc/aarch64-none-elf/8.3.0/../../../../aarch64-none-elf/lib/pic\libg.a(lib_a-svfiprintf.o)
                0x000000000004d214                __ssprint_r
 .text._svfiprintf_r
                0x000000000004d3d4     0x28ec c:/devkitpro/devkita64/bin/../lib/gcc/aarch64-none-elf/8.3.0/../../../../aarch64-none-elf/lib/pic\libg.a(lib_a-svfiprintf.o)
                0x000000000004d3d4                _svfiprintf_r
 .text._wcsnrtombs_l
                0x000000000004fcc0      0x1dc c:/devkitpro/devkita64/bin/../lib/gcc/aarch64-none-elf/8.3.0/../../../../aarch64-none-elf/lib/pic\libg.a(lib_a-wcsnrtombs.o)
                0x000000000004fcc0                _wcsnrtombs_l
 *fill*         0x000000000004fe9c        0x4 
 .text._wcsnrtombs_r
                0x000000000004fea0       0x54 c:/devkitpro/devkita64/bin/../lib/gcc/aarch64-none-elf/8.3.0/../../../../aarch64-none-elf/lib/pic\libg.a(lib_a-wcsnrtombs.o)
                0x000000000004fea0                _wcsnrtombs_r
 *fill*         0x000000000004fef4        0x4 
 .text.wcsnrtombs
                0x000000000004fef8       0x64 c:/devkitpro/devkita64/bin/../lib/gcc/aarch64-none-elf/8.3.0/../../../../aarch64-none-elf/lib/pic\libg.a(lib_a-wcsnrtombs.o)
                0x000000000004fef8                wcsnrtombs
 *fill*         0x000000000004ff5c        0x4 
 .text._wctomb_r
                0x000000000004ff60       0x54 c:/devkitpro/devkita64/bin/../lib/gcc/aarch64-none-elf/8.3.0/../../../../aarch64-none-elf/lib/pic\libg.a(lib_a-wctomb_r.o)
                0x000000000004ff60                _wctomb_r
 *fill*         0x000000000004ffb4        0x4 
 .text.__ascii_wctomb
                0x000000000004ffb8       0x34 c:/devkitpro/devkita64/bin/../lib/gcc/aarch64-none-elf/8.3.0/../../../../aarch64-none-elf/lib/pic\libg.a(lib_a-wctomb_r.o)
                0x000000000004ffb8                __ascii_wctomb
 *fill*         0x000000000004ffec        0x4 
 .text.__utf8_wctomb
                0x000000000004fff0       0xe4 c:/devkitpro/devkita64/bin/../lib/gcc/aarch64-none-elf/8.3.0/../../../../aarch64-none-elf/lib/pic\libg.a(lib_a-wctomb_r.o)
                0x000000000004fff0                __utf8_wctomb
 *fill*         0x00000000000500d4        0x4 
 .text.__sjis_wctomb
                0x00000000000500d8       0x84 c:/devkitpro/devkita64/bin/../lib/gcc/aarch64-none-elf/8.3.0/../../../../aarch64-none-elf/lib/pic\libg.a(lib_a-wctomb_r.o)
                0x00000000000500d8                __sjis_wctomb
 *fill*         0x000000000005015c        0x4 
 .text.__eucjp_wctomb
                0x0000000000050160       0xa8 c:/devkitpro/devkita64/bin/../lib/gcc/aarch64-none-elf/8.3.0/../../../../aarch64-none-elf/lib/pic\libg.a(lib_a-wctomb_r.o)
                0x0000000000050160                __eucjp_wctomb
 .text.__jis_wctomb
                0x0000000000050208       0xbc c:/devkitpro/devkita64/bin/../lib/gcc/aarch64-none-elf/8.3.0/../../../../aarch64-none-elf/lib/pic\libg.a(lib_a-wctomb_r.o)
                0x0000000000050208                __jis_wctomb
 *fill*         0x00000000000502c4        0x4 
 .text._calloc_r
                0x00000000000502c8       0x94 c:/devkitpro/devkita64/bin/../lib/gcc/aarch64-none-elf/8.3.0/../../../../aarch64-none-elf/lib/pic\libg.a(lib_a-callocr.o)
                0x00000000000502c8                _calloc_r
 *fill*         0x000000000005035c        0x4 
 .text.null_write
                0x0000000000050360        0x8 c:/devkitpro/devkita64/bin/../lib/gcc/aarch64-none-elf/8.3.0/../../../../aarch64-none-elf/lib/pic\libsysbase.a(iosupport.o)
 .text.setDefaultDevice
                0x0000000000050368       0x18 c:/devkitpro/devkita64/bin/../lib/gcc/aarch64-none-elf/8.3.0/../../../../aarch64-none-elf/lib/pic\libsysbase.a(iosupport.o)
                0x0000000000050368                setDefaultDevice
 .text.FindDevice
                0x0000000000050380      0x108 c:/devkitpro/devkita64/bin/../lib/gcc/aarch64-none-elf/8.3.0/../../../../aarch64-none-elf/lib/pic\libsysbase.a(iosupport.o)
                0x0000000000050380                FindDevice
 .text.RemoveDevice
                0x0000000000050488       0x34 c:/devkitpro/devkita64/bin/../lib/gcc/aarch64-none-elf/8.3.0/../../../../aarch64-none-elf/lib/pic\libsysbase.a(iosupport.o)
                0x0000000000050488                RemoveDevice
 *fill*         0x00000000000504bc        0x4 
 .text.AddDevice
                0x00000000000504c0       0xd8 c:/devkitpro/devkita64/bin/../lib/gcc/aarch64-none-elf/8.3.0/../../../../aarch64-none-elf/lib/pic\libsysbase.a(iosupport.o)
                0x00000000000504c0                AddDevice
 .text.GetDeviceOpTab
                0x0000000000050598       0x34 c:/devkitpro/devkita64/bin/../lib/gcc/aarch64-none-elf/8.3.0/../../../../aarch64-none-elf/lib/pic\libsysbase.a(iosupport.o)
                0x0000000000050598                GetDeviceOpTab
 *fill*         0x00000000000505cc        0x4 
 .text._sbrk_r  0x00000000000505d0       0x78 c:/devkitpro/devkita64/bin/../lib/gcc/aarch64-none-elf/8.3.0/../../../../aarch64-none-elf/lib/pic\libsysbase.a(sbrk.o)
                0x00000000000505d0                _sbrk_r
 .text._exit    0x0000000000050648       0x20 c:/devkitpro/devkita64/bin/../lib/gcc/aarch64-none-elf/8.3.0/../../../../aarch64-none-elf/lib/pic\libsysbase.a(_exit.o)
                0x0000000000050648                _exit
 .text._concatenate_path
                0x0000000000050668      0x234 c:/devkitpro/devkita64/bin/../lib/gcc/aarch64-none-elf/8.3.0/../../../../aarch64-none-elf/lib/pic\libsysbase.a(chdir.o)
                0x0000000000050668                _concatenate_path
 *fill*         0x000000000005089c        0x4 
 .text.chdir    0x00000000000508a0      0x178 c:/devkitpro/devkita64/bin/../lib/gcc/aarch64-none-elf/8.3.0/../../../../aarch64-none-elf/lib/pic\libsysbase.a(chdir.o)
                0x00000000000508a0                chdir
 .text.getcwd   0x0000000000050a18       0xb8 c:/devkitpro/devkita64/bin/../lib/gcc/aarch64-none-elf/8.3.0/../../../../aarch64-none-elf/lib/pic\libsysbase.a(chdir.o)
                0x0000000000050a18                getcwd
 .text.timespec2nsec
                0x0000000000050ad0       0x14 c:/devkitpro/devkita64/bin/../lib/gcc/aarch64-none-elf/8.3.0/../../../../aarch64-none-elf/lib/pic\libsysbase.a(locks.o)
                0x0000000000050ad0                timespec2nsec
 *fill*         0x0000000000050ae4        0x4 
 .text.abstimespec2nsec
                0x0000000000050ae8       0xc4 c:/devkitpro/devkita64/bin/../lib/gcc/aarch64-none-elf/8.3.0/../../../../aarch64-none-elf/lib/pic\libsysbase.a(locks.o)
                0x0000000000050ae8                abstimespec2nsec
 *fill*         0x0000000000050bac        0x4 
 .text.__libc_lock_init
                0x0000000000050bb0        0x8 c:/devkitpro/devkita64/bin/../lib/gcc/aarch64-none-elf/8.3.0/../../../../aarch64-none-elf/lib/pic\libsysbase.a(locks.o)
                0x0000000000050bb0                __libc_lock_init
 .text.__libc_lock_acquire
                0x0000000000050bb8       0x14 c:/devkitpro/devkita64/bin/../lib/gcc/aarch64-none-elf/8.3.0/../../../../aarch64-none-elf/lib/pic\libsysbase.a(locks.o)
                0x0000000000050bb8                __libc_lock_acquire
 *fill*         0x0000000000050bcc        0x4 
 .text.__libc_lock_try_acquire
                0x0000000000050bd0       0x18 c:/devkitpro/devkita64/bin/../lib/gcc/aarch64-none-elf/8.3.0/../../../../aarch64-none-elf/lib/pic\libsysbase.a(locks.o)
                0x0000000000050bd0                __libc_lock_try_acquire
 .text.__libc_lock_release
                0x0000000000050be8       0x14 c:/devkitpro/devkita64/bin/../lib/gcc/aarch64-none-elf/8.3.0/../../../../aarch64-none-elf/lib/pic\libsysbase.a(locks.o)
                0x0000000000050be8                __libc_lock_release
 *fill*         0x0000000000050bfc        0x4 
 .text.__libc_lock_close
                0x0000000000050c00        0x4 c:/devkitpro/devkita64/bin/../lib/gcc/aarch64-none-elf/8.3.0/../../../../aarch64-none-elf/lib/pic\libsysbase.a(locks.o)
                0x0000000000050c00                __libc_lock_close
 *fill*         0x0000000000050c04        0x4 
 .text.__libc_lock_init_recursive
                0x0000000000050c08        0xc c:/devkitpro/devkita64/bin/../lib/gcc/aarch64-none-elf/8.3.0/../../../../aarch64-none-elf/lib/pic\libsysbase.a(locks.o)
                0x0000000000050c08                __libc_lock_init_recursive
 *fill*         0x0000000000050c14        0x4 
 .text.__libc_lock_acquire_recursive
                0x0000000000050c18       0x14 c:/devkitpro/devkita64/bin/../lib/gcc/aarch64-none-elf/8.3.0/../../../../aarch64-none-elf/lib/pic\libsysbase.a(locks.o)
                0x0000000000050c18                __libc_lock_acquire_recursive
 *fill*         0x0000000000050c2c        0x4 
 .text.__libc_lock_try_acquire_recursive
                0x0000000000050c30       0x18 c:/devkitpro/devkita64/bin/../lib/gcc/aarch64-none-elf/8.3.0/../../../../aarch64-none-elf/lib/pic\libsysbase.a(locks.o)
                0x0000000000050c30                __libc_lock_try_acquire_recursive
 .text.__libc_lock_release_recursive
                0x0000000000050c48       0x14 c:/devkitpro/devkita64/bin/../lib/gcc/aarch64-none-elf/8.3.0/../../../../aarch64-none-elf/lib/pic\libsysbase.a(locks.o)
                0x0000000000050c48                __libc_lock_release_recursive
 *fill*         0x0000000000050c5c        0x4 
 .text.__libc_lock_close_recursive
                0x0000000000050c60        0x4 c:/devkitpro/devkita64/bin/../lib/gcc/aarch64-none-elf/8.3.0/../../../../aarch64-none-elf/lib/pic\libsysbase.a(locks.o)
                0x0000000000050c60                __libc_lock_close_recursive
 *fill*         0x0000000000050c64        0x4 
 .text.__libc_cond_init
                0x0000000000050c68        0xc c:/devkitpro/devkita64/bin/../lib/gcc/aarch64-none-elf/8.3.0/../../../../aarch64-none-elf/lib/pic\libsysbase.a(locks.o)
                0x0000000000050c68                __libc_cond_init
 *fill*         0x0000000000050c74        0x4 
 .text.__libc_cond_signal
                0x0000000000050c78       0x18 c:/devkitpro/devkita64/bin/../lib/gcc/aarch64-none-elf/8.3.0/../../../../aarch64-none-elf/lib/pic\libsysbase.a(locks.o)
                0x0000000000050c78                __libc_cond_signal
 .text.__libc_cond_broadcast
                0x0000000000050c90       0x18 c:/devkitpro/devkita64/bin/../lib/gcc/aarch64-none-elf/8.3.0/../../../../aarch64-none-elf/lib/pic\libsysbase.a(locks.o)
                0x0000000000050c90                __libc_cond_broadcast
 .text.__libc_cond_wait
                0x0000000000050ca8       0x18 c:/devkitpro/devkita64/bin/../lib/gcc/aarch64-none-elf/8.3.0/../../../../aarch64-none-elf/lib/pic\libsysbase.a(locks.o)
                0x0000000000050ca8                __libc_cond_wait
 .text.__libc_cond_wait_recursive
                0x0000000000050cc0       0x18 c:/devkitpro/devkita64/bin/../lib/gcc/aarch64-none-elf/8.3.0/../../../../aarch64-none-elf/lib/pic\libsysbase.a(locks.o)
                0x0000000000050cc0                __libc_cond_wait_recursive
 .text.__getreent
                0x0000000000050cd8       0x20 c:/devkitpro/devkita64/bin/../lib/gcc/aarch64-none-elf/8.3.0/../../../../aarch64-none-elf/lib/pic\libsysbase.a(getreent.o)
                0x0000000000050cd8                __getreent
 .text.clock_gettime
                0x0000000000050cf8       0x30 c:/devkitpro/devkita64/bin/../lib/gcc/aarch64-none-elf/8.3.0/../../../../aarch64-none-elf/lib/pic\libsysbase.a(clocks.o)
                0x0000000000050cf8                clock_gettime
 .text.clock_settime
                0x0000000000050d28       0x30 c:/devkitpro/devkita64/bin/../lib/gcc/aarch64-none-elf/8.3.0/../../../../aarch64-none-elf/lib/pic\libsysbase.a(clocks.o)
                0x0000000000050d28                clock_settime
 .text.clock_getres
                0x0000000000050d58       0x30 c:/devkitpro/devkita64/bin/../lib/gcc/aarch64-none-elf/8.3.0/../../../../aarch64-none-elf/lib/pic\libsysbase.a(clocks.o)
                0x0000000000050d58                clock_getres
 .text.__trunctfdf2
                0x0000000000050d88      0x348 c:/devkitpro/devkita64/bin/../lib/gcc/aarch64-none-elf/8.3.0/pic\libgcc.a(trunctfdf2.o)
                0x0000000000050d88                __trunctfdf2
 .text.__sfp_handle_exceptions
                0x00000000000510d0       0x70 c:/devkitpro/devkita64/bin/../lib/gcc/aarch64-none-elf/8.3.0/pic\libgcc.a(sfp-exceptions.o)
                0x00000000000510d0                __sfp_handle_exceptions
 .text          0x0000000000051140      0x100 c:/devkitpro/devkita64/bin/../lib/gcc/aarch64-none-elf/8.3.0/../../../../aarch64-none-elf/lib/pic\libg.a(lib_a-strrchr.o)
                0x0000000000051140                strrchr
                0x0000000000051240                . = ALIGN (0x8)

.fini           0x0000000000051240       0x38
 *(.fini)
 .fini          0x0000000000051240       0x18 c:/devkitpro/devkita64/bin/../lib/gcc/aarch64-none-elf/8.3.0/pic/crti.o
                0x0000000000051240                _fini
 .fini          0x0000000000051258       0x1c c:/devkitpro/devkita64/bin/../lib/gcc/aarch64-none-elf/8.3.0/pic/crtn.o
                0x0000000000051278                . = ALIGN (0x8)
 *fill*         0x0000000000051274        0x4 
                0x0000000000052000                . = ALIGN (0x1000)

.rodata         0x0000000000052000     0x28d8
 *(.rodata .rodata.* .gnu.linkonce.r.*)
 .rodata        0x0000000000052000      0x400 main.o
 .rodata.cst4   0x0000000000052400        0x4 main.o
 *fill*         0x0000000000052404        0x4 
 .rodata.cst8   0x0000000000052408        0x8 main.o
 .rodata.str1.8
                0x0000000000052410      0xeeb main.o
 *fill*         0x00000000000532fb        0x5 
 .rodata        0x0000000000053300      0x400 acmd_wrapper.o
 .rodata.str1.8
                0x0000000000053700        0x5 acmd_wrapper.o
 *fill*         0x0000000000053705        0x3 
 .rodata        0x0000000000053708        0x5 saltysd_helper.o
 *fill*         0x000000000005370d        0x3 
 .rodata.str1.8
                0x0000000000053710        0x5 saltysd_helper.o
 *fill*         0x0000000000053715        0x3 
 .rodata        0x0000000000053718       0x60 lua_bind_hash.o
 .rodata        0x0000000000053778      0x53c raygun_printer.o
 *fill*         0x0000000000053cb4        0x4 
 .rodata.str1.8
                0x0000000000053cb8      0x147 raygun_printer.o
                                        0x14f (size before relaxing)
 *fill*         0x0000000000053dff        0x1 
 .rodata._fsdevUnmountDeviceStruct.part.4.str1.8
                0x0000000000053e00        0x2 C:/Users/RNG/Desktop/Stuff/Smash-Stuff/SMASH-ULTIMATE-MODS-BABY/50xx-the-mod/acmd-edits/code-mod-framework/lib/libnx_min/nx/lib\libnx_min.a(fs_dev.o)
 *fill*         0x0000000000053e02        0x6 
 .rodata.error_table
                0x0000000000053e08       0x20 C:/Users/RNG/Desktop/Stuff/Smash-Stuff/SMASH-ULTIMATE-MODS-BABY/50xx-the-mod/acmd-edits/code-mod-framework/lib/libnx_min/nx/lib\libnx_min.a(fs_dev.o)
 .rodata.fsdevMountSdmc.str1.8
                0x0000000000053e28        0x5 C:/Users/RNG/Desktop/Stuff/Smash-Stuff/SMASH-ULTIMATE-MODS-BABY/50xx-the-mod/acmd-edits/code-mod-framework/lib/libnx_min/nx/lib\libnx_min.a(fs_dev.o)
 *fill*         0x0000000000053e2d        0x3 
 .rodata.fsInitialize.str1.8
                0x0000000000053e30        0x8 C:/Users/RNG/Desktop/Stuff/Smash-Stuff/SMASH-ULTIMATE-MODS-BABY/50xx-the-mod/acmd-edits/code-mod-framework/lib/libnx_min/nx/lib\libnx_min.a(fs.o)
 .rodata.setInitialize.str1.8
                0x0000000000053e38        0x4 C:/Users/RNG/Desktop/Stuff/Smash-Stuff/SMASH-ULTIMATE-MODS-BABY/50xx-the-mod/acmd-edits/code-mod-framework/lib/libnx_min/nx/lib\libnx_min.a(set.o)
 *fill*         0x0000000000053e3c        0x4 
 .rodata.setsysInitialize.str1.8
                0x0000000000053e40        0x8 C:/Users/RNG/Desktop/Stuff/Smash-Stuff/SMASH-ULTIMATE-MODS-BABY/50xx-the-mod/acmd-edits/code-mod-framework/lib/libnx_min/nx/lib\libnx_min.a(set.o)
 .rodata._fatalImpl.str1.8
                0x0000000000053e48        0x8 C:/Users/RNG/Desktop/Stuff/Smash-Stuff/SMASH-ULTIMATE-MODS-BABY/50xx-the-mod/acmd-edits/code-mod-framework/lib/libnx_min/nx/lib\libnx_min.a(fatal.o)
 .rodata.smInitialize.str1.8
                0x0000000000053e50        0x4 C:/Users/RNG/Desktop/Stuff/Smash-Stuff/SMASH-ULTIMATE-MODS-BABY/50xx-the-mod/acmd-edits/code-mod-framework/lib/libnx_min/nx/lib\libnx_min.a(sm.o)
                                          0x9 (size before relaxing)
 *fill*         0x0000000000053e54        0x4 
 .rodata        0x0000000000053e58       0x24 C:/Users/RNG/Desktop/Stuff/Smash-Stuff/SMASH-ULTIMATE-MODS-BABY/50xx-the-mod/acmd-edits/code-mod-framework/lib/libnx_min/nx/lib\libnx_min.a(hid.o)
 *fill*         0x0000000000053e7c        0x4 
 .rodata.hidInitialize.str1.8
                0x0000000000053e80        0x4 C:/Users/RNG/Desktop/Stuff/Smash-Stuff/SMASH-ULTIMATE-MODS-BABY/50xx-the-mod/acmd-edits/code-mod-framework/lib/libnx_min/nx/lib\libnx_min.a(hid.o)
 *fill*         0x0000000000053e84        0x4 
 .rodata.timeInitialize.str1.8
                0x0000000000053e88        0xf C:/Users/RNG/Desktop/Stuff/Smash-Stuff/SMASH-ULTIMATE-MODS-BABY/50xx-the-mod/acmd-edits/code-mod-framework/lib/libnx_min/nx/lib\libnx_min.a(time.o)
 *fill*         0x0000000000053e97        0x1 
 .rodata.CSWTCH.93
                0x0000000000053e98       0x14 C:/Users/RNG/Desktop/Stuff/Smash-Stuff/SMASH-ULTIMATE-MODS-BABY/50xx-the-mod/acmd-edits/code-mod-framework/lib/libnx_min/nx/lib\libnx_min.a(applet.o)
 *fill*         0x0000000000053eac        0x4 
 .rodata.appletInitialize.str1.8
                0x0000000000053eb0       0x19 C:/Users/RNG/Desktop/Stuff/Smash-Stuff/SMASH-ULTIMATE-MODS-BABY/50xx-the-mod/acmd-edits/code-mod-framework/lib/libnx_min/nx/lib\libnx_min.a(applet.o)
 *fill*         0x0000000000053ec9        0x7 
 .rodata.__libnx_init_time.str1.8
                0x0000000000053ed0        0x3 C:/Users/RNG/Desktop/Stuff/Smash-Stuff/SMASH-ULTIMATE-MODS-BABY/50xx-the-mod/acmd-edits/code-mod-framework/lib/libnx_min/nx/lib\libnx_min.a(newlib.o)
 *fill*         0x0000000000053ed3        0x5 
 .rodata.apmInitialize.str1.8
                0x0000000000053ed8        0x4 C:/Users/RNG/Desktop/Stuff/Smash-Stuff/SMASH-ULTIMATE-MODS-BABY/50xx-the-mod/acmd-edits/code-mod-framework/lib/libnx_min/nx/lib\libnx_min.a(apm.o)
 *fill*         0x0000000000053edc        0x4 
 .rodata._ctype_
                0x0000000000053ee0      0x101 c:/devkitpro/devkita64/bin/../lib/gcc/aarch64-none-elf/8.3.0/../../../../aarch64-none-elf/lib/pic\libg.a(lib_a-ctype_.o)
                0x0000000000053ee0                _ctype_
 *fill*         0x0000000000053fe1        0x3 
 .rodata.get_arg
                0x0000000000053fe4       0x92 c:/devkitpro/devkita64/bin/../lib/gcc/aarch64-none-elf/8.3.0/../../../../aarch64-none-elf/lib/pic\libg.a(lib_a-svfprintf.o)
 *fill*         0x0000000000054076        0x2 
 .rodata._svfprintf_r
                0x0000000000054078       0xb6 c:/devkitpro/devkita64/bin/../lib/gcc/aarch64-none-elf/8.3.0/../../../../aarch64-none-elf/lib/pic\libg.a(lib_a-svfprintf.o)
 .rodata._svfprintf_r.str1.1
                0x000000000005412e       0x3b c:/devkitpro/devkita64/bin/../lib/gcc/aarch64-none-elf/8.3.0/../../../../aarch64-none-elf/lib/pic\libg.a(lib_a-svfprintf.o)
 *fill*         0x0000000000054169        0x7 
 .rodata.blanks.6590
                0x0000000000054170       0x10 c:/devkitpro/devkita64/bin/../lib/gcc/aarch64-none-elf/8.3.0/../../../../aarch64-none-elf/lib/pic\libg.a(lib_a-svfprintf.o)
 .rodata.zeroes.6591
                0x0000000000054180       0x10 c:/devkitpro/devkita64/bin/../lib/gcc/aarch64-none-elf/8.3.0/../../../../aarch64-none-elf/lib/pic\libg.a(lib_a-svfprintf.o)
 .rodata._dtoa_r.cst8
                0x0000000000054190       0x18 c:/devkitpro/devkita64/bin/../lib/gcc/aarch64-none-elf/8.3.0/../../../../aarch64-none-elf/lib/pic\libg.a(lib_a-dtoa.o)
 .rodata._dtoa_r.str1.8
                0x00000000000541a8       0x1a c:/devkitpro/devkita64/bin/../lib/gcc/aarch64-none-elf/8.3.0/../../../../aarch64-none-elf/lib/pic\libg.a(lib_a-dtoa.o)
 *fill*         0x00000000000541c2        0x2 
 .rodata.__loadlocale
                0x00000000000541c4       0x6a c:/devkitpro/devkita64/bin/../lib/gcc/aarch64-none-elf/8.3.0/../../../../aarch64-none-elf/lib/pic\libg.a(lib_a-locale.o)
 *fill*         0x000000000005422e        0x2 
 .rodata.__get_locale_env.str1.8
                0x0000000000054230        0xd c:/devkitpro/devkita64/bin/../lib/gcc/aarch64-none-elf/8.3.0/../../../../aarch64-none-elf/lib/pic\libg.a(lib_a-locale.o)
 *fill*         0x000000000005423d        0x3 
 .rodata.__loadlocale.str1.8
                0x0000000000054240      0x10b c:/devkitpro/devkita64/bin/../lib/gcc/aarch64-none-elf/8.3.0/../../../../aarch64-none-elf/lib/pic\libg.a(lib_a-locale.o)
                                        0x113 (size before relaxing)
 *fill*         0x000000000005434b        0x5 
 .rodata.currentlocale.str1.8
                0x0000000000054350        0x2 c:/devkitpro/devkita64/bin/../lib/gcc/aarch64-none-elf/8.3.0/../../../../aarch64-none-elf/lib/pic\libg.a(lib_a-locale.o)
 *fill*         0x0000000000054352        0x6 
 .rodata.str1.8
                0x0000000000054358       0x5c c:/devkitpro/devkita64/bin/../lib/gcc/aarch64-none-elf/8.3.0/../../../../aarch64-none-elf/lib/pic\libg.a(lib_a-locale.o)
                                         0x64 (size before relaxing)
 *fill*         0x00000000000543b4        0x4 
 .rodata.JIS_action_table
                0x00000000000543b8       0x48 c:/devkitpro/devkita64/bin/../lib/gcc/aarch64-none-elf/8.3.0/../../../../aarch64-none-elf/lib/pic\libg.a(lib_a-mbtowc_r.o)
 .rodata.JIS_state_table
                0x0000000000054400       0x48 c:/devkitpro/devkita64/bin/../lib/gcc/aarch64-none-elf/8.3.0/../../../../aarch64-none-elf/lib/pic\libg.a(lib_a-mbtowc_r.o)
 .rodata.__mprec_bigtens
                0x0000000000054448       0x28 c:/devkitpro/devkita64/bin/../lib/gcc/aarch64-none-elf/8.3.0/../../../../aarch64-none-elf/lib/pic\libg.a(lib_a-mprec.o)
                0x0000000000054448                __mprec_bigtens
 .rodata.__mprec_tens
                0x0000000000054470       0xc8 c:/devkitpro/devkita64/bin/../lib/gcc/aarch64-none-elf/8.3.0/../../../../aarch64-none-elf/lib/pic\libg.a(lib_a-mprec.o)
                0x0000000000054470                __mprec_tens
 .rodata.__mprec_tinytens
                0x0000000000054538       0x28 c:/devkitpro/devkita64/bin/../lib/gcc/aarch64-none-elf/8.3.0/../../../../aarch64-none-elf/lib/pic\libg.a(lib_a-mprec.o)
                0x0000000000054538                __mprec_tinytens
 .rodata.p05.5339
                0x0000000000054560        0xc c:/devkitpro/devkita64/bin/../lib/gcc/aarch64-none-elf/8.3.0/../../../../aarch64-none-elf/lib/pic\libg.a(lib_a-mprec.o)
 .rodata.get_arg
                0x000000000005456c       0x92 c:/devkitpro/devkita64/bin/../lib/gcc/aarch64-none-elf/8.3.0/../../../../aarch64-none-elf/lib/pic\libg.a(lib_a-svfiprintf.o)
 *fill*         0x00000000000545fe        0x2 
 .rodata._svfiprintf_r
                0x0000000000054600       0xb6 c:/devkitpro/devkita64/bin/../lib/gcc/aarch64-none-elf/8.3.0/../../../../aarch64-none-elf/lib/pic\libg.a(lib_a-svfiprintf.o)
 *fill*         0x00000000000546b6        0x2 
 .rodata.__action_table
                0x00000000000546b8       0x6c c:/devkitpro/devkita64/bin/../lib/gcc/aarch64-none-elf/8.3.0/../../../../aarch64-none-elf/lib/pic\libg.a(lib_a-svfiprintf.o)
                0x00000000000546b8                __action_table
 *fill*         0x0000000000054724        0x4 
 .rodata.__chclass
                0x0000000000054728      0x100 c:/devkitpro/devkita64/bin/../lib/gcc/aarch64-none-elf/8.3.0/../../../../aarch64-none-elf/lib/pic\libg.a(lib_a-svfiprintf.o)
                0x0000000000054728                __chclass
 .rodata.__state_table
                0x0000000000054828       0x6c c:/devkitpro/devkita64/bin/../lib/gcc/aarch64-none-elf/8.3.0/../../../../aarch64-none-elf/lib/pic\libg.a(lib_a-svfiprintf.o)
                0x0000000000054828                __state_table
 .rodata._svfiprintf_r.str1.1
                0x0000000000054894       0x29 c:/devkitpro/devkita64/bin/../lib/gcc/aarch64-none-elf/8.3.0/../../../../aarch64-none-elf/lib/pic\libg.a(lib_a-svfiprintf.o)
 *fill*         0x0000000000054894        0x4 
 .rodata.blanks.6569
                0x0000000000054898       0x10 c:/devkitpro/devkita64/bin/../lib/gcc/aarch64-none-elf/8.3.0/../../../../aarch64-none-elf/lib/pic\libg.a(lib_a-svfiprintf.o)
 .rodata.zeroes.6570
                0x00000000000548a8       0x10 c:/devkitpro/devkita64/bin/../lib/gcc/aarch64-none-elf/8.3.0/../../../../aarch64-none-elf/lib/pic\libg.a(lib_a-svfiprintf.o)
 .rodata.AddDevice.str1.8
                0x00000000000548b8        0x8 c:/devkitpro/devkita64/bin/../lib/gcc/aarch64-none-elf/8.3.0/../../../../aarch64-none-elf/lib/pic\libsysbase.a(iosupport.o)
 .rodata.DIRECTORY_PARENT
                0x00000000000548c0        0x3 c:/devkitpro/devkita64/bin/../lib/gcc/aarch64-none-elf/8.3.0/../../../../aarch64-none-elf/lib/pic\libsysbase.a(chdir.o)
                0x00000000000548c0                DIRECTORY_PARENT
 *fill*         0x00000000000548c3        0x5 
 .rodata.DIRECTORY_SEPARATOR
                0x00000000000548c8        0x2 c:/devkitpro/devkita64/bin/../lib/gcc/aarch64-none-elf/8.3.0/../../../../aarch64-none-elf/lib/pic\libsysbase.a(chdir.o)
                0x00000000000548c8                DIRECTORY_SEPARATOR
 *fill*         0x00000000000548ca        0x6 
 .rodata.DIRECTORY_THIS
                0x00000000000548d0        0x2 c:/devkitpro/devkita64/bin/../lib/gcc/aarch64-none-elf/8.3.0/../../../../aarch64-none-elf/lib/pic\libsysbase.a(chdir.o)
                0x00000000000548d0                DIRECTORY_THIS
                0x00000000000548d8                . = ALIGN (0x8)
 *fill*         0x00000000000548d2        0x6 

.eh_frame_hdr   0x00000000000548d8        0x0
                0x00000000000548d8                __eh_frame_hdr_start = .
 *(.eh_frame_hdr)
 *(.eh_frame_entry .eh_frame_entry.*)
                0x00000000000548d8                __eh_frame_hdr_end = .

.eh_frame       0x00000000000548d8     0x98f8
 *(.eh_frame)
 .eh_frame      0x00000000000548d8       0x80 c:/devkitpro/devkita64/bin/../lib/gcc/aarch64-none-elf/8.3.0/pic/crtbegin.o
 .eh_frame      0x0000000000054958     0x2348 main.o
                                       0x2360 (size before relaxing)
 .eh_frame      0x0000000000056ca0      0x300 acmd_wrapper.o
                                        0x318 (size before relaxing)
 .eh_frame      0x0000000000056fa0       0x70 saltysd_helper.o
                                         0x88 (size before relaxing)
 .eh_frame      0x0000000000057010       0xd8 l2c_imports.o
                                         0xe8 (size before relaxing)
 .eh_frame      0x00000000000570e8       0x40 lua_bind_hash.o
                                         0x58 (size before relaxing)
 .eh_frame      0x0000000000057128      0x120 raygun_printer.o
                                        0x130 (size before relaxing)
 .eh_frame      0x0000000000057248       0x28 C:/Users/RNG/Desktop/Stuff/Smash-Stuff/SMASH-ULTIMATE-MODS-BABY/50xx-the-mod/acmd-edits/code-mod-framework/lib/libnx_min/nx/lib\libnx_min.a(exception.o)
                                         0x40 (size before relaxing)
 .eh_frame      0x0000000000057270       0xa8 C:/Users/RNG/Desktop/Stuff/Smash-Stuff/SMASH-ULTIMATE-MODS-BABY/50xx-the-mod/acmd-edits/code-mod-framework/lib/libnx_min/nx/lib\libnx_min.a(argv.o)
                                         0xb8 (size before relaxing)
 .eh_frame      0x0000000000057318      0x1c0 C:/Users/RNG/Desktop/Stuff/Smash-Stuff/SMASH-ULTIMATE-MODS-BABY/50xx-the-mod/acmd-edits/code-mod-framework/lib/libnx_min/nx/lib\libnx_min.a(env.o)
                                        0x1d8 (size before relaxing)
 .eh_frame      0x00000000000574d8       0x68 C:/Users/RNG/Desktop/Stuff/Smash-Stuff/SMASH-ULTIMATE-MODS-BABY/50xx-the-mod/acmd-edits/code-mod-framework/lib/libnx_min/nx/lib\libnx_min.a(init.o)
                                         0xb8 (size before relaxing)
 .eh_frame      0x0000000000057540       0x28 C:/Users/RNG/Desktop/Stuff/Smash-Stuff/SMASH-ULTIMATE-MODS-BABY/50xx-the-mod/acmd-edits/code-mod-framework/lib/libnx_min/nx/lib\libnx_min.a(hosversion.o)
                                         0x40 (size before relaxing)
 .eh_frame      0x0000000000057568       0x18 C:/Users/RNG/Desktop/Stuff/Smash-Stuff/SMASH-ULTIMATE-MODS-BABY/50xx-the-mod/acmd-edits/code-mod-framework/lib/libnx_min/nx/lib\libnx_min.a(dynamic.o)
                                         0x30 (size before relaxing)
 .eh_frame      0x0000000000057580      0x800 C:/Users/RNG/Desktop/Stuff/Smash-Stuff/SMASH-ULTIMATE-MODS-BABY/50xx-the-mod/acmd-edits/code-mod-framework/lib/libnx_min/nx/lib\libnx_min.a(fs_dev.o)
                                        0x818 (size before relaxing)
 .eh_frame      0x0000000000057d80       0x18 C:/Users/RNG/Desktop/Stuff/Smash-Stuff/SMASH-ULTIMATE-MODS-BABY/50xx-the-mod/acmd-edits/code-mod-framework/lib/libnx_min/nx/lib\libnx_min.a(decode_utf8.o)
                                         0x28 (size before relaxing)
 .eh_frame      0x0000000000057d98      0x7d0 C:/Users/RNG/Desktop/Stuff/Smash-Stuff/SMASH-ULTIMATE-MODS-BABY/50xx-the-mod/acmd-edits/code-mod-framework/lib/libnx_min/nx/lib\libnx_min.a(svc.o)
                                        0x7e8 (size before relaxing)
 .eh_frame      0x0000000000058568       0x18 C:/Users/RNG/Desktop/Stuff/Smash-Stuff/SMASH-ULTIMATE-MODS-BABY/50xx-the-mod/acmd-edits/code-mod-framework/lib/libnx_min/nx/lib\libnx_min.a(readtp.o)
                                         0x28 (size before relaxing)
 .eh_frame      0x0000000000058580      0x108 C:/Users/RNG/Desktop/Stuff/Smash-Stuff/SMASH-ULTIMATE-MODS-BABY/50xx-the-mod/acmd-edits/code-mod-framework/lib/libnx_min/nx/lib\libnx_min.a(virtmem.o)
                                        0x120 (size before relaxing)
 .eh_frame      0x0000000000058688       0xb0 C:/Users/RNG/Desktop/Stuff/Smash-Stuff/SMASH-ULTIMATE-MODS-BABY/50xx-the-mod/acmd-edits/code-mod-framework/lib/libnx_min/nx/lib\libnx_min.a(mutex.o)
                                         0xc0 (size before relaxing)
 .eh_frame      0x0000000000058738      0xed0 C:/Users/RNG/Desktop/Stuff/Smash-Stuff/SMASH-ULTIMATE-MODS-BABY/50xx-the-mod/acmd-edits/code-mod-framework/lib/libnx_min/nx/lib\libnx_min.a(fs.o)
                                        0xee0 (size before relaxing)
 .eh_frame      0x0000000000059608      0x540 C:/Users/RNG/Desktop/Stuff/Smash-Stuff/SMASH-ULTIMATE-MODS-BABY/50xx-the-mod/acmd-edits/code-mod-framework/lib/libnx_min/nx/lib\libnx_min.a(set.o)
                                        0x550 (size before relaxing)
 .eh_frame      0x0000000000059b48       0x70 C:/Users/RNG/Desktop/Stuff/Smash-Stuff/SMASH-ULTIMATE-MODS-BABY/50xx-the-mod/acmd-edits/code-mod-framework/lib/libnx_min/nx/lib\libnx_min.a(fatal.o)
                                         0x88 (size before relaxing)
 .eh_frame      0x0000000000059bb8      0x1d8 C:/Users/RNG/Desktop/Stuff/Smash-Stuff/SMASH-ULTIMATE-MODS-BABY/50xx-the-mod/acmd-edits/code-mod-framework/lib/libnx_min/nx/lib\libnx_min.a(sm.o)
                                        0x1f0 (size before relaxing)
 .eh_frame      0x0000000000059d90      0xbe0 C:/Users/RNG/Desktop/Stuff/Smash-Stuff/SMASH-ULTIMATE-MODS-BABY/50xx-the-mod/acmd-edits/code-mod-framework/lib/libnx_min/nx/lib\libnx_min.a(hid.o)
                                        0xbf0 (size before relaxing)
 .eh_frame      0x000000000005a970      0x180 C:/Users/RNG/Desktop/Stuff/Smash-Stuff/SMASH-ULTIMATE-MODS-BABY/50xx-the-mod/acmd-edits/code-mod-framework/lib/libnx_min/nx/lib\libnx_min.a(time.o)
                                        0x198 (size before relaxing)
 .eh_frame      0x000000000005aaf0     0x1448 C:/Users/RNG/Desktop/Stuff/Smash-Stuff/SMASH-ULTIMATE-MODS-BABY/50xx-the-mod/acmd-edits/code-mod-framework/lib/libnx_min/nx/lib\libnx_min.a(applet.o)
                                       0x1458 (size before relaxing)
 .eh_frame      0x000000000005bf38      0x408 C:/Users/RNG/Desktop/Stuff/Smash-Stuff/SMASH-ULTIMATE-MODS-BABY/50xx-the-mod/acmd-edits/code-mod-framework/lib/libnx_min/nx/lib\libnx_min.a(newlib.o)
                                        0x420 (size before relaxing)
 .eh_frame      0x000000000005c340      0x1b8 C:/Users/RNG/Desktop/Stuff/Smash-Stuff/SMASH-ULTIMATE-MODS-BABY/50xx-the-mod/acmd-edits/code-mod-framework/lib/libnx_min/nx/lib\libnx_min.a(thread.o)
                                        0x1c8 (size before relaxing)
 .eh_frame      0x000000000005c4f8       0x30 C:/Users/RNG/Desktop/Stuff/Smash-Stuff/SMASH-ULTIMATE-MODS-BABY/50xx-the-mod/acmd-edits/code-mod-framework/lib/libnx_min/nx/lib\libnx_min.a(condvar.o)
                                         0x48 (size before relaxing)
 .eh_frame      0x000000000005c528       0xb0 C:/Users/RNG/Desktop/Stuff/Smash-Stuff/SMASH-ULTIMATE-MODS-BABY/50xx-the-mod/acmd-edits/code-mod-framework/lib/libnx_min/nx/lib\libnx_min.a(event.o)
                                         0xc0 (size before relaxing)
 .eh_frame      0x000000000005c5d8       0xf0 C:/Users/RNG/Desktop/Stuff/Smash-Stuff/SMASH-ULTIMATE-MODS-BABY/50xx-the-mod/acmd-edits/code-mod-framework/lib/libnx_min/nx/lib\libnx_min.a(tmem.o)
                                        0x108 (size before relaxing)
 .eh_frame      0x000000000005c6c8       0xb0 C:/Users/RNG/Desktop/Stuff/Smash-Stuff/SMASH-ULTIMATE-MODS-BABY/50xx-the-mod/acmd-edits/code-mod-framework/lib/libnx_min/nx/lib\libnx_min.a(rwlock.o)
                                         0xc0 (size before relaxing)
 .eh_frame      0x000000000005c778       0xb0 C:/Users/RNG/Desktop/Stuff/Smash-Stuff/SMASH-ULTIMATE-MODS-BABY/50xx-the-mod/acmd-edits/code-mod-framework/lib/libnx_min/nx/lib\libnx_min.a(wait.o)
                                         0xc8 (size before relaxing)
 .eh_frame      0x000000000005c828       0xb8 C:/Users/RNG/Desktop/Stuff/Smash-Stuff/SMASH-ULTIMATE-MODS-BABY/50xx-the-mod/acmd-edits/code-mod-framework/lib/libnx_min/nx/lib\libnx_min.a(shmem.o)
                                         0xc8 (size before relaxing)
 .eh_frame      0x000000000005c8e0       0xc8 C:/Users/RNG/Desktop/Stuff/Smash-Stuff/SMASH-ULTIMATE-MODS-BABY/50xx-the-mod/acmd-edits/code-mod-framework/lib/libnx_min/nx/lib\libnx_min.a(detect.o)
                                         0xd8 (size before relaxing)
 .eh_frame      0x000000000005c9a8      0x110 C:/Users/RNG/Desktop/Stuff/Smash-Stuff/SMASH-ULTIMATE-MODS-BABY/50xx-the-mod/acmd-edits/code-mod-framework/lib/libnx_min/nx/lib\libnx_min.a(apm.o)
                                        0x128 (size before relaxing)
 .eh_frame      0x000000000005cab8       0x68 c:/devkitpro/devkita64/bin/../lib/gcc/aarch64-none-elf/8.3.0/../../../../aarch64-none-elf/lib/pic\libg.a(lib_a-bsearch.o)
                                         0x78 (size before relaxing)
 .eh_frame      0x000000000005cb20       0x18 c:/devkitpro/devkita64/bin/../lib/gcc/aarch64-none-elf/8.3.0/../../../../aarch64-none-elf/lib/pic\libg.a(lib_a-ctype_.o)
                                         0x28 (size before relaxing)
 .eh_frame      0x000000000005cb38       0x20 c:/devkitpro/devkita64/bin/../lib/gcc/aarch64-none-elf/8.3.0/../../../../aarch64-none-elf/lib/pic\libg.a(lib_a-errno.o)
                                         0x38 (size before relaxing)
 .eh_frame      0x000000000005cb58       0x20 c:/devkitpro/devkita64/bin/../lib/gcc/aarch64-none-elf/8.3.0/../../../../aarch64-none-elf/lib/pic\libg.a(lib_a-exit.o)
                                         0x30 (size before relaxing)
 .eh_frame      0x000000000005cb78       0x28 c:/devkitpro/devkita64/bin/../lib/gcc/aarch64-none-elf/8.3.0/../../../../aarch64-none-elf/lib/pic\libg.a(lib_a-fini.o)
                                         0x38 (size before relaxing)
 .eh_frame      0x000000000005cba0       0x28 c:/devkitpro/devkita64/bin/../lib/gcc/aarch64-none-elf/8.3.0/../../../../aarch64-none-elf/lib/pic\libg.a(lib_a-init.o)
                                         0x40 (size before relaxing)
 .eh_frame      0x000000000005cbc8       0x28 c:/devkitpro/devkita64/bin/../lib/gcc/aarch64-none-elf/8.3.0/../../../../aarch64-none-elf/lib/pic\libg.a(lib_a-malign.o)
                                         0x38 (size before relaxing)
 .eh_frame      0x000000000005cbf0       0x50 c:/devkitpro/devkita64/bin/../lib/gcc/aarch64-none-elf/8.3.0/../../../../aarch64-none-elf/lib/pic\libg.a(lib_a-malignr.o)
                                         0x68 (size before relaxing)
 .eh_frame      0x000000000005cc40       0x40 c:/devkitpro/devkita64/bin/../lib/gcc/aarch64-none-elf/8.3.0/../../../../aarch64-none-elf/lib/pic\libg.a(lib_a-malloc.o)
                                         0x58 (size before relaxing)
 .eh_frame      0x000000000005cc80       0xd0 c:/devkitpro/devkita64/bin/../lib/gcc/aarch64-none-elf/8.3.0/../../../../aarch64-none-elf/lib/pic\libg.a(lib_a-mallocr.o)
                                         0xe0 (size before relaxing)
 .eh_frame      0x000000000005cd50       0x28 c:/devkitpro/devkita64/bin/../lib/gcc/aarch64-none-elf/8.3.0/../../../../aarch64-none-elf/lib/pic\libg.a(lib_a-mlock.o)
                                         0x40 (size before relaxing)
 .eh_frame      0x000000000005cd78       0x48 c:/devkitpro/devkita64/bin/../lib/gcc/aarch64-none-elf/8.3.0/../../../../aarch64-none-elf/lib/pic\libg.a(lib_a-setenv.o)
                                         0x58 (size before relaxing)
 .eh_frame      0x000000000005cdc0       0xb0 c:/devkitpro/devkita64/bin/../lib/gcc/aarch64-none-elf/8.3.0/../../../../aarch64-none-elf/lib/pic\libg.a(lib_a-setenv_r.o)
                                         0xc8 (size before relaxing)
 .eh_frame      0x000000000005ce70       0x18 c:/devkitpro/devkita64/bin/../lib/gcc/aarch64-none-elf/8.3.0/../../../../aarch64-none-elf/lib/pic\libg.a(lib_a-strncat.o)
                                         0x28 (size before relaxing)
 .eh_frame      0x000000000005ce88       0x18 c:/devkitpro/devkita64/bin/../lib/gcc/aarch64-none-elf/8.3.0/../../../../aarch64-none-elf/lib/pic\libg.a(lib_a-strncpy.o)
                                         0x28 (size before relaxing)
 .eh_frame      0x000000000005cea0       0x18 c:/devkitpro/devkita64/bin/../lib/gcc/aarch64-none-elf/8.3.0/../../../../aarch64-none-elf/lib/pic\libg.a(lib_a-toupper.o)
                                         0x28 (size before relaxing)
 .eh_frame      0x000000000005ceb8       0x58 c:/devkitpro/devkita64/bin/../lib/gcc/aarch64-none-elf/8.3.0/../../../../aarch64-none-elf/lib/pic\libg.a(lib_a-vsnprintf.o)
                                         0x68 (size before relaxing)
 .eh_frame      0x000000000005cf10       0x40 c:/devkitpro/devkita64/bin/../lib/gcc/aarch64-none-elf/8.3.0/../../../../aarch64-none-elf/lib/pic\libg.a(lib_a-__call_atexit.o)
                                         0x58 (size before relaxing)
 .eh_frame      0x000000000005cf50       0x28 c:/devkitpro/devkita64/bin/../lib/gcc/aarch64-none-elf/8.3.0/../../../../aarch64-none-elf/lib/pic\libg.a(lib_a-envlock.o)
                                         0x40 (size before relaxing)
 .eh_frame      0x000000000005cf78       0x80 c:/devkitpro/devkita64/bin/../lib/gcc/aarch64-none-elf/8.3.0/../../../../aarch64-none-elf/lib/pic\libg.a(lib_a-freer.o)
                                         0x98 (size before relaxing)
 .eh_frame      0x000000000005cff8       0x68 c:/devkitpro/devkita64/bin/../lib/gcc/aarch64-none-elf/8.3.0/../../../../aarch64-none-elf/lib/pic\libg.a(lib_a-getenv_r.o)
                                         0x78 (size before relaxing)
 .eh_frame      0x000000000005d060       0xf0 c:/devkitpro/devkita64/bin/../lib/gcc/aarch64-none-elf/8.3.0/../../../../aarch64-none-elf/lib/pic\libg.a(lib_a-reallocr.o)
                                        0x108 (size before relaxing)
 .eh_frame      0x000000000005d150       0xb8 c:/devkitpro/devkita64/bin/../lib/gcc/aarch64-none-elf/8.3.0/../../../../aarch64-none-elf/lib/pic\libg.a(lib_a-svfprintf.o)
                                         0xc8 (size before relaxing)
 .eh_frame      0x000000000005d208       0x70 c:/devkitpro/devkita64/bin/../lib/gcc/aarch64-none-elf/8.3.0/../../../../aarch64-none-elf/lib/pic\libg.a(lib_a-wcrtomb.o)
                                         0x80 (size before relaxing)
 .eh_frame      0x000000000005d278       0x38 c:/devkitpro/devkita64/bin/../lib/gcc/aarch64-none-elf/8.3.0/../../../../aarch64-none-elf/lib/pic\libg.a(lib_a-wcsrtombs.o)
                                         0x50 (size before relaxing)
 .eh_frame      0x000000000005d2b0       0x98 c:/devkitpro/devkita64/bin/../lib/gcc/aarch64-none-elf/8.3.0/../../../../aarch64-none-elf/lib/pic\libg.a(lib_a-dtoa.o)
                                         0xb0 (size before relaxing)
 .eh_frame      0x000000000005d348       0x58 c:/devkitpro/devkita64/bin/../lib/gcc/aarch64-none-elf/8.3.0/../../../../aarch64-none-elf/lib/pic\libg.a(lib_a-localeconv.o)
                                         0x68 (size before relaxing)
 .eh_frame      0x000000000005d3a0      0x200 c:/devkitpro/devkita64/bin/../lib/gcc/aarch64-none-elf/8.3.0/../../../../aarch64-none-elf/lib/pic\libg.a(lib_a-locale.o)
                                        0x210 (size before relaxing)
 .eh_frame      0x000000000005d5a0       0xf8 c:/devkitpro/devkita64/bin/../lib/gcc/aarch64-none-elf/8.3.0/../../../../aarch64-none-elf/lib/pic\libg.a(lib_a-mbtowc_r.o)
                                        0x110 (size before relaxing)
 .eh_frame      0x000000000005d698      0x2f8 c:/devkitpro/devkita64/bin/../lib/gcc/aarch64-none-elf/8.3.0/../../../../aarch64-none-elf/lib/pic\libg.a(lib_a-mprec.o)
                                        0x310 (size before relaxing)
 .eh_frame      0x000000000005d990       0x18 c:/devkitpro/devkita64/bin/../lib/gcc/aarch64-none-elf/8.3.0/../../../../aarch64-none-elf/lib/pic\libg.a(lib_a-s_frexp.o)
                                         0x28 (size before relaxing)
 .eh_frame      0x000000000005d9a8       0x18 c:/devkitpro/devkita64/bin/../lib/gcc/aarch64-none-elf/8.3.0/../../../../aarch64-none-elf/lib/pic\libg.a(lib_a-strcasecmp.o)
                                         0x28 (size before relaxing)
 .eh_frame      0x000000000005d9c0       0x28 c:/devkitpro/devkita64/bin/../lib/gcc/aarch64-none-elf/8.3.0/../../../../aarch64-none-elf/lib/pic\libg.a(lib_a-strcat.o)
                                         0x38 (size before relaxing)
 .eh_frame      0x000000000005d9e8       0x18 c:/devkitpro/devkita64/bin/../lib/gcc/aarch64-none-elf/8.3.0/../../../../aarch64-none-elf/lib/pic\libg.a(lib_a-strlcpy.o)
                                         0x28 (size before relaxing)
 .eh_frame      0x000000000005da00       0x18 c:/devkitpro/devkita64/bin/../lib/gcc/aarch64-none-elf/8.3.0/../../../../aarch64-none-elf/lib/pic\libg.a(lib_a-strncasecmp.o)
                                         0x28 (size before relaxing)
 .eh_frame      0x000000000005da18       0x80 c:/devkitpro/devkita64/bin/../lib/gcc/aarch64-none-elf/8.3.0/../../../../aarch64-none-elf/lib/pic\libg.a(lib_a-strtol.o)
                                         0x98 (size before relaxing)
 .eh_frame      0x000000000005da98       0xe0 c:/devkitpro/devkita64/bin/../lib/gcc/aarch64-none-elf/8.3.0/../../../../aarch64-none-elf/lib/pic\libg.a(lib_a-svfiprintf.o)
                                         0xf8 (size before relaxing)
 .eh_frame      0x000000000005db78      0x128 c:/devkitpro/devkita64/bin/../lib/gcc/aarch64-none-elf/8.3.0/../../../../aarch64-none-elf/lib/pic\libg.a(lib_a-wcsnrtombs.o)
                                        0x138 (size before relaxing)
 .eh_frame      0x000000000005dca0       0x88 c:/devkitpro/devkita64/bin/../lib/gcc/aarch64-none-elf/8.3.0/../../../../aarch64-none-elf/lib/pic\libg.a(lib_a-wctomb_r.o)
                                         0xa0 (size before relaxing)
 .eh_frame      0x000000000005dd28       0x30 c:/devkitpro/devkita64/bin/../lib/gcc/aarch64-none-elf/8.3.0/../../../../aarch64-none-elf/lib/pic\libg.a(lib_a-callocr.o)
                                         0x40 (size before relaxing)
 .eh_frame      0x000000000005dd58      0x118 c:/devkitpro/devkita64/bin/../lib/gcc/aarch64-none-elf/8.3.0/../../../../aarch64-none-elf/lib/pic\libsysbase.a(iosupport.o)
                                        0x130 (size before relaxing)
 .eh_frame      0x000000000005de70       0x18 c:/devkitpro/devkita64/bin/../lib/gcc/aarch64-none-elf/8.3.0/../../../../aarch64-none-elf/lib/pic\libsysbase.a(sbrk.o)
                                         0x28 (size before relaxing)
 .eh_frame      0x000000000005de88       0x20 c:/devkitpro/devkita64/bin/../lib/gcc/aarch64-none-elf/8.3.0/../../../../aarch64-none-elf/lib/pic\libsysbase.a(_exit.o)
                                         0x38 (size before relaxing)
 .eh_frame      0x000000000005dea8      0x110 c:/devkitpro/devkita64/bin/../lib/gcc/aarch64-none-elf/8.3.0/../../../../aarch64-none-elf/lib/pic\libsysbase.a(chdir.o)
                                        0x128 (size before relaxing)
 .eh_frame      0x000000000005dfb8      0x168 c:/devkitpro/devkita64/bin/../lib/gcc/aarch64-none-elf/8.3.0/../../../../aarch64-none-elf/lib/pic\libsysbase.a(locks.o)
                                        0x178 (size before relaxing)
 .eh_frame      0x000000000005e120       0x18 c:/devkitpro/devkita64/bin/../lib/gcc/aarch64-none-elf/8.3.0/../../../../aarch64-none-elf/lib/pic\libsysbase.a(getreent.o)
                                         0x28 (size before relaxing)
 .eh_frame      0x000000000005e138       0x60 c:/devkitpro/devkita64/bin/../lib/gcc/aarch64-none-elf/8.3.0/../../../../aarch64-none-elf/lib/pic\libsysbase.a(clocks.o)
                                         0x78 (size before relaxing)
 .eh_frame      0x000000000005e198       0x20 c:/devkitpro/devkita64/bin/../lib/gcc/aarch64-none-elf/8.3.0/pic\libgcc.a(trunctfdf2.o)
                                         0x38 (size before relaxing)
 .eh_frame      0x000000000005e1b8       0x14 c:/devkitpro/devkita64/bin/../lib/gcc/aarch64-none-elf/8.3.0/pic\libgcc.a(sfp-exceptions.o)
                                         0x28 (size before relaxing)
 .eh_frame      0x000000000005e1cc        0x4 c:/devkitpro/devkita64/bin/../lib/gcc/aarch64-none-elf/8.3.0/pic/crtend.o
 *(.eh_frame.*)

.gcc_except_table
 *(.gcc_except_table .gcc_except_table.*)

.gnu_extab
 *(.gnu_extab*)

.dynamic        0x000000000005e1d0      0x1a0
 *(.dynamic)
 .dynamic       0x000000000005e1d0      0x1a0 c:/devkitpro/devkita64/bin/../lib/gcc/aarch64-none-elf/8.3.0/pic/crti.o
                0x000000000005e1d0                _DYNAMIC

.dynsym         0x000000000005e370     0x4980
 *(.dynsym)
 .dynsym        0x000000000005e370     0x4980 c:/devkitpro/devkita64/bin/../lib/gcc/aarch64-none-elf/8.3.0/pic/crti.o

.dynstr         0x0000000000062cf0     0x4155
 *(.dynstr)
 .dynstr        0x0000000000062cf0     0x4155 c:/devkitpro/devkita64/bin/../lib/gcc/aarch64-none-elf/8.3.0/pic/crti.o

.rela.dyn       0x0000000000066e48     0x3288
 *(.rela.*)
 .rela.got      0x0000000000066e48      0xe58 c:/devkitpro/devkita64/bin/../lib/gcc/aarch64-none-elf/8.3.0/pic/crti.o
 .rela.plt      0x000000000006a010       0xc0 c:/devkitpro/devkita64/bin/../lib/gcc/aarch64-none-elf/8.3.0/pic/crti.o
 .rela.bss      0x0000000000067d60        0x0 c:/devkitpro/devkita64/bin/../lib/gcc/aarch64-none-elf/8.3.0/pic/crti.o
 .rela.data.rel.ro
                0x0000000000067d60        0x0 c:/devkitpro/devkita64/bin/../lib/gcc/aarch64-none-elf/8.3.0/pic/crti.o
 .rela.init_array
                0x0000000000067ca0       0x30 c:/devkitpro/devkita64/bin/../lib/gcc/aarch64-none-elf/8.3.0/pic/crti.o
 .rela.fini_array
                0x0000000000067cd0       0x18 c:/devkitpro/devkita64/bin/../lib/gcc/aarch64-none-elf/8.3.0/pic/crti.o
 .rela.ifunc    0x0000000000067da8        0x0 c:/devkitpro/devkita64/bin/../lib/gcc/aarch64-none-elf/8.3.0/pic/crti.o
 .rela.data.rel.local
                0x0000000000067ce8      0x3c0 c:/devkitpro/devkita64/bin/../lib/gcc/aarch64-none-elf/8.3.0/pic/crti.o
 .rela.data.rel.ro.local.fsdev_devoptab
                0x00000000000680a8      0x210 c:/devkitpro/devkita64/bin/../lib/gcc/aarch64-none-elf/8.3.0/pic/crti.o
 .rela.data.rel.local._impure_ptr
                0x00000000000682b8       0x18 c:/devkitpro/devkita64/bin/../lib/gcc/aarch64-none-elf/8.3.0/pic/crti.o
 .rela.data.rel.local.impure_data
                0x00000000000682d0       0x48 c:/devkitpro/devkita64/bin/../lib/gcc/aarch64-none-elf/8.3.0/pic/crti.o
 .rela.data.rel.ro.local._global_impure_ptr
                0x0000000000068318       0x18 c:/devkitpro/devkita64/bin/../lib/gcc/aarch64-none-elf/8.3.0/pic/crti.o
 .rela.data.rel.__malloc_av_
                0x0000000000068330     0x1800 c:/devkitpro/devkita64/bin/../lib/gcc/aarch64-none-elf/8.3.0/pic/crti.o
 .rela.data.rel.local.environ
                0x0000000000069b30       0x18 c:/devkitpro/devkita64/bin/../lib/gcc/aarch64-none-elf/8.3.0/pic/crti.o
 .rela.data.rel.__global_locale
                0x0000000000069b48      0x138 c:/devkitpro/devkita64/bin/../lib/gcc/aarch64-none-elf/8.3.0/pic/crti.o
 .rela.data.rel.ro.__C_locale
                0x0000000000069c80      0x138 c:/devkitpro/devkita64/bin/../lib/gcc/aarch64-none-elf/8.3.0/pic/crti.o
 .rela.data.rel.ro.local.categories
                0x0000000000069db8       0xa8 c:/devkitpro/devkita64/bin/../lib/gcc/aarch64-none-elf/8.3.0/pic/crti.o
 .rela.data.rel.devoptab_list
                0x0000000000069e60      0x180 c:/devkitpro/devkita64/bin/../lib/gcc/aarch64-none-elf/8.3.0/pic/crti.o
 .rela.data.rel.ro.local.dotab_stdnull
                0x0000000000069fe0       0x30 c:/devkitpro/devkita64/bin/../lib/gcc/aarch64-none-elf/8.3.0/pic/crti.o

.interp         0x000000000006a0d0        0xd
 *(.interp)
 .interp        0x000000000006a0d0        0xd c:/devkitpro/devkita64/bin/../lib/gcc/aarch64-none-elf/8.3.0/pic/crti.o

.hash           0x000000000006a0e0     0x146c
 *(.hash)
 .hash          0x000000000006a0e0     0x146c c:/devkitpro/devkita64/bin/../lib/gcc/aarch64-none-elf/8.3.0/pic/crti.o

.gnu.hash
 *(.gnu.hash)

.gnu.version    0x000000000006b54c        0x0
 *(.gnu.version)
 .gnu.version   0x000000000006b54c        0x0 c:/devkitpro/devkita64/bin/../lib/gcc/aarch64-none-elf/8.3.0/pic/crti.o

.gnu.version_d  0x000000000006b550        0x0
 *(.gnu.version_d)
 .gnu.version_d
                0x000000000006b550        0x0 c:/devkitpro/devkita64/bin/../lib/gcc/aarch64-none-elf/8.3.0/pic/crti.o

.gnu.version_r  0x000000000006b550        0x0
 *(.gnu.version_r)
 .gnu.version_r
                0x000000000006b550        0x0 c:/devkitpro/devkita64/bin/../lib/gcc/aarch64-none-elf/8.3.0/pic/crti.o

.note.gnu.build-id
                0x000000000006b54c       0x24
 *(.note.gnu.build-id)
 .note.gnu.build-id
                0x000000000006b54c       0x24 c:/devkitpro/devkita64/bin/../lib/gcc/aarch64-none-elf/8.3.0/pic/crti.o
                0x000000000006c000                . = ALIGN (0x1000)

.eh_frame
 *(.eh_frame)
 *(.eh_frame.*)

.gcc_except_table
 *(.gcc_except_table .gcc_except_table.*)

.gnu_extab
 *(.gnu_extab*)

.exception_ranges
 *(.exception_ranges .exception_ranges*)

.tdata          0x000000000006c000        0x0
                0x000000000006c000                __tdata_lma = .
 *(.tdata .tdata.* .gnu.linkonce.td.*)
                0x000000000006c000                . = ALIGN (0x8)
                0x000000000006c000                __tdata_lma_end = .

.tbss           0x000000000006c000     0x4408
 *(.tbss .tbss.* .gnu.linkonce.tb.*)
 .tbss.__fixedpath
                0x000000000006c000      0x401 C:/Users/RNG/Desktop/Stuff/Smash-Stuff/SMASH-ULTIMATE-MODS-BABY/50xx-the-mod/acmd-edits/code-mod-framework/lib/libnx_min/nx/lib\libnx_min.a(fs_dev.o)
 *fill*         0x000000000006c401        0x3 
 .tbss.fsdev_last_result
                0x000000000006c404        0x4 C:/Users/RNG/Desktop/Stuff/Smash-Stuff/SMASH-ULTIMATE-MODS-BABY/50xx-the-mod/acmd-edits/code-mod-framework/lib/libnx_min/nx/lib\libnx_min.a(fs_dev.o)
 .tbss.tmp_buffer.7389
                0x000000000006c408     0x2000 C:/Users/RNG/Desktop/Stuff/Smash-Stuff/SMASH-ULTIMATE-MODS-BABY/50xx-the-mod/acmd-edits/code-mod-framework/lib/libnx_min/nx/lib\libnx_min.a(fs_dev.o)
 .tbss.tmp_buffer.7413
                0x000000000006e408     0x2000 C:/Users/RNG/Desktop/Stuff/Smash-Stuff/SMASH-ULTIMATE-MODS-BABY/50xx-the-mod/acmd-edits/code-mod-framework/lib/libnx_min/nx/lib\libnx_min.a(fs_dev.o)
 *(.tcommon)
                0x0000000000070408                . = ALIGN (0x8)

.preinit_array  0x000000000006c000        0x0
                0x000000000006c000                PROVIDE (__preinit_array_start = .)
 *(.preinit_array)
                0x000000000006c000                PROVIDE (__preinit_array_end = .)

.init_array     0x000000000006c000       0x10
                0x000000000006c000                PROVIDE (__init_array_start = .)
 *(SORT_BY_NAME(.init_array.*))
 *(.init_array)
 .init_array    0x000000000006c000        0x8 c:/devkitpro/devkita64/bin/../lib/gcc/aarch64-none-elf/8.3.0/pic/crtbegin.o
 .init_array    0x000000000006c008        0x8 main.o
                0x000000000006c010                PROVIDE (__init_array_end = .)

.fini_array     0x000000000006c010        0x8
                0x000000000006c010                PROVIDE (__fini_array_start = .)
 *(.fini_array)
 .fini_array    0x000000000006c010        0x8 c:/devkitpro/devkita64/bin/../lib/gcc/aarch64-none-elf/8.3.0/pic/crtbegin.o
 *(SORT_BY_NAME(.fini_array.*))
                0x000000000006c018                PROVIDE (__fini_array_end = .)

.ctors
 *crtbegin.o(.ctors)
 *(EXCLUDE_FILE(*crtend.o) .ctors)
 *(SORT_BY_NAME(.ctors.*))
 *(.ctors)

.dtors
 *crtbegin.o(.dtors)
 *(EXCLUDE_FILE(*crtend.o) .dtors)
 *(SORT_BY_NAME(.dtors.*))
 *(.dtors)
                0x000000000006c018                __got_start__ = .

.got            0x000000000006c018      0x4d0
 *(.got)
 .got           0x000000000006c018      0x4d0 c:/devkitpro/devkita64/bin/../lib/gcc/aarch64-none-elf/8.3.0/pic/crti.o
                0x000000000006c018                _GLOBAL_OFFSET_TABLE_
 *(.igot)

.got.plt        0x000000000006c4e8       0x58
 *(.got.plt)
 .got.plt       0x000000000006c4e8       0x58 c:/devkitpro/devkita64/bin/../lib/gcc/aarch64-none-elf/8.3.0/pic/crti.o
 *(.igot.plt)
                0x000000000006c540                __got_end__ = .

.data           0x000000000006c540     0x1ef8
 *(.data .data.* .gnu.linkonce.d.*)
 .data.rel.ro   0x000000000006c540        0x0 c:/devkitpro/devkita64/bin/../lib/gcc/aarch64-none-elf/8.3.0/pic/crti.o
 .data          0x000000000006c540        0x4 main.o
                0x000000000006c540                __nx_applet_type
 *fill*         0x000000000006c544        0x4 
 .data.rel.local
                0x000000000006c548      0x140 raygun_printer.o
                0x000000000006c548                alphabet
 .data.__nx_exception_stack_size
                0x000000000006c688        0x8 C:/Users/RNG/Desktop/Stuff/Smash-Stuff/SMASH-ULTIMATE-MODS-BABY/50xx-the-mod/acmd-edits/code-mod-framework/lib/libnx_min/nx/lib\libnx_min.a(init.o)
                0x000000000006c688                __nx_exception_stack_size
 .data.__cwd    0x000000000006c690      0x401 C:/Users/RNG/Desktop/Stuff/Smash-Stuff/SMASH-ULTIMATE-MODS-BABY/50xx-the-mod/acmd-edits/code-mod-framework/lib/libnx_min/nx/lib\libnx_min.a(fs_dev.o)
 *fill*         0x000000000006ca91        0x3 
 .data.fsdev_fsdevice_cwd
                0x000000000006ca94        0x4 C:/Users/RNG/Desktop/Stuff/Smash-Stuff/SMASH-ULTIMATE-MODS-BABY/50xx-the-mod/acmd-edits/code-mod-framework/lib/libnx_min/nx/lib\libnx_min.a(fs_dev.o)
 .data.fsdev_fsdevice_default
                0x000000000006ca98        0x4 C:/Users/RNG/Desktop/Stuff/Smash-Stuff/SMASH-ULTIMATE-MODS-BABY/50xx-the-mod/acmd-edits/code-mod-framework/lib/libnx_min/nx/lib\libnx_min.a(fs_dev.o)
 *fill*         0x000000000006ca9c        0x4 
 .data.rel.ro.local.fsdev_devoptab
                0x000000000006caa0       0xe0 C:/Users/RNG/Desktop/Stuff/Smash-Stuff/SMASH-ULTIMATE-MODS-BABY/50xx-the-mod/acmd-edits/code-mod-framework/lib/libnx_min/nx/lib\libnx_min.a(fs_dev.o)
 .data.__nx_applet_auto_notifyrunning
                0x000000000006cb80        0x1 C:/Users/RNG/Desktop/Stuff/Smash-Stuff/SMASH-ULTIMATE-MODS-BABY/50xx-the-mod/acmd-edits/code-mod-framework/lib/libnx_min/nx/lib\libnx_min.a(applet.o)
                0x000000000006cb80                __nx_applet_auto_notifyrunning
 *fill*         0x000000000006cb81        0x7 
 .data.rel.local._impure_ptr
                0x000000000006cb88        0x8 c:/devkitpro/devkita64/bin/../lib/gcc/aarch64-none-elf/8.3.0/../../../../aarch64-none-elf/lib/pic\libg.a(lib_a-impure.o)
                0x000000000006cb88                _impure_ptr
 .data.rel.local.impure_data
                0x000000000006cb90      0x768 c:/devkitpro/devkita64/bin/../lib/gcc/aarch64-none-elf/8.3.0/../../../../aarch64-none-elf/lib/pic\libg.a(lib_a-impure.o)
 .data.rel.ro.local._global_impure_ptr
                0x000000000006d2f8        0x8 c:/devkitpro/devkita64/bin/../lib/gcc/aarch64-none-elf/8.3.0/../../../../aarch64-none-elf/lib/pic\libg.a(lib_a-impure.o)
                0x000000000006d2f8                _global_impure_ptr
 .data.__malloc_sbrk_base
                0x000000000006d300        0x8 c:/devkitpro/devkita64/bin/../lib/gcc/aarch64-none-elf/8.3.0/../../../../aarch64-none-elf/lib/pic\libg.a(lib_a-mallocr.o)
                0x000000000006d300                __malloc_sbrk_base
 .data.__malloc_trim_threshold
                0x000000000006d308        0x8 c:/devkitpro/devkita64/bin/../lib/gcc/aarch64-none-elf/8.3.0/../../../../aarch64-none-elf/lib/pic\libg.a(lib_a-mallocr.o)
                0x000000000006d308                __malloc_trim_threshold
 .data.rel.__malloc_av_
                0x000000000006d310      0x810 c:/devkitpro/devkita64/bin/../lib/gcc/aarch64-none-elf/8.3.0/../../../../aarch64-none-elf/lib/pic\libg.a(lib_a-mallocr.o)
                0x000000000006d310                __malloc_av_
 .data.rel.local.environ
                0x000000000006db20        0x8 c:/devkitpro/devkita64/bin/../lib/gcc/aarch64-none-elf/8.3.0/../../../../aarch64-none-elf/lib/pic\libg.a(lib_a-environ.o)
                0x000000000006db20                environ
 .data.__default_locale
                0x000000000006db28       0x20 c:/devkitpro/devkita64/bin/../lib/gcc/aarch64-none-elf/8.3.0/../../../../aarch64-none-elf/lib/pic\libg.a(lib_a-locale.o)
                0x000000000006db28                __default_locale
 .data.rel.__global_locale
                0x000000000006db48      0x1a8 c:/devkitpro/devkita64/bin/../lib/gcc/aarch64-none-elf/8.3.0/../../../../aarch64-none-elf/lib/pic\libg.a(lib_a-locale.o)
                0x000000000006db48                __global_locale
 .data.rel.ro.__C_locale
                0x000000000006dcf0      0x1a8 c:/devkitpro/devkita64/bin/../lib/gcc/aarch64-none-elf/8.3.0/../../../../aarch64-none-elf/lib/pic\libg.a(lib_a-locale.o)
                0x000000000006dcf0                __C_locale
 .data.rel.ro.local.categories
                0x000000000006de98       0x38 c:/devkitpro/devkita64/bin/../lib/gcc/aarch64-none-elf/8.3.0/../../../../aarch64-none-elf/lib/pic\libg.a(lib_a-locale.o)
 .data.defaultDevice
                0x000000000006ded0        0x4 c:/devkitpro/devkita64/bin/../lib/gcc/aarch64-none-elf/8.3.0/../../../../aarch64-none-elf/lib/pic\libsysbase.a(iosupport.o)
 *fill*         0x000000000006ded4        0x4 
 .data.rel.devoptab_list
                0x000000000006ded8       0x80 c:/devkitpro/devkita64/bin/../lib/gcc/aarch64-none-elf/8.3.0/../../../../aarch64-none-elf/lib/pic\libsysbase.a(iosupport.o)
                0x000000000006ded8                devoptab_list
 .data.rel.ro.local.dotab_stdnull
                0x000000000006df58       0xe0 c:/devkitpro/devkita64/bin/../lib/gcc/aarch64-none-elf/8.3.0/../../../../aarch64-none-elf/lib/pic\libsysbase.a(iosupport.o)
                0x000000000006df58                dotab_stdnull
 .data._current_working_directory
                0x000000000006e038      0x400 c:/devkitpro/devkita64/bin/../lib/gcc/aarch64-none-elf/8.3.0/../../../../aarch64-none-elf/lib/pic\libsysbase.a(chdir.o)
                0x000000000006e438                __bss_start__ = .

.tm_clone_table
                0x000000000006e438        0x0
 .tm_clone_table
                0x000000000006e438        0x0 c:/devkitpro/devkita64/bin/../lib/gcc/aarch64-none-elf/8.3.0/pic/crtbegin.o
 .tm_clone_table
                0x000000000006e438        0x0 c:/devkitpro/devkita64/bin/../lib/gcc/aarch64-none-elf/8.3.0/pic/crtend.o

.bss            0x000000000006e438    0x16ca8
 *(.dynbss)
 .dynbss        0x000000000006e438        0x0 c:/devkitpro/devkita64/bin/../lib/gcc/aarch64-none-elf/8.3.0/pic/crti.o
 *(.bss .bss.* .gnu.linkonce.b.*)
 .bss.completed.7870
                0x000000000006e438        0x1 c:/devkitpro/devkita64/bin/../lib/gcc/aarch64-none-elf/8.3.0/pic/crtbegin.o
 *fill*         0x000000000006e439        0x7 
 .bss.object.7875
                0x000000000006e440       0x30 c:/devkitpro/devkita64/bin/../lib/gcc/aarch64-none-elf/8.3.0/pic/crtbegin.o
 .bss           0x000000000006e470     0x94e8 main.o
                0x000000000006e470                prev_get_command_flag_cat
                0x000000000006e478                fighter_agents
                0x000000000006e4b8                fighter_module_accessors
                0x000000000006e4f8                prev_clear_lua_stack
                0x000000000006e500                orig_ctx
                0x000000000006e508                orig_main_thread
                0x000000000006e510                orig_saved_lr
                0x0000000000076518                acmd_objs
 .bss           0x0000000000077958        0x8 saltysd_helper.o
                0x0000000000077958                ANCHOR_ABS
 .bss.g_argv_empty
                0x0000000000077960        0x8 C:/Users/RNG/Desktop/Stuff/Smash-Stuff/SMASH-ULTIMATE-MODS-BABY/50xx-the-mod/acmd-edits/code-mod-framework/lib/libnx_min/nx/lib\libnx_min.a(argv.o)
 .bss.g_hasRandomSeed
                0x0000000000077968        0x1 C:/Users/RNG/Desktop/Stuff/Smash-Stuff/SMASH-ULTIMATE-MODS-BABY/50xx-the-mod/acmd-edits/code-mod-framework/lib/libnx_min/nx/lib\libnx_min.a(env.o)
 .bss.g_isNso   0x0000000000077969        0x1 C:/Users/RNG/Desktop/Stuff/Smash-Stuff/SMASH-ULTIMATE-MODS-BABY/50xx-the-mod/acmd-edits/code-mod-framework/lib/libnx_min/nx/lib\libnx_min.a(env.o)
 *fill*         0x000000000007796a        0x2 
 .bss.g_lastLoadResult
                0x000000000007796c        0x4 C:/Users/RNG/Desktop/Stuff/Smash-Stuff/SMASH-ULTIMATE-MODS-BABY/50xx-the-mod/acmd-edits/code-mod-framework/lib/libnx_min/nx/lib\libnx_min.a(env.o)
 .bss.g_loaderRetAddr
                0x0000000000077970        0x8 C:/Users/RNG/Desktop/Stuff/Smash-Stuff/SMASH-ULTIMATE-MODS-BABY/50xx-the-mod/acmd-edits/code-mod-framework/lib/libnx_min/nx/lib\libnx_min.a(env.o)
 .bss.g_mainThreadHandle
                0x0000000000077978        0x4 C:/Users/RNG/Desktop/Stuff/Smash-Stuff/SMASH-ULTIMATE-MODS-BABY/50xx-the-mod/acmd-edits/code-mod-framework/lib/libnx_min/nx/lib\libnx_min.a(env.o)
 *fill*         0x000000000007797c        0x4 
 .bss.g_nextLoadArgv
                0x0000000000077980        0x8 C:/Users/RNG/Desktop/Stuff/Smash-Stuff/SMASH-ULTIMATE-MODS-BABY/50xx-the-mod/acmd-edits/code-mod-framework/lib/libnx_min/nx/lib\libnx_min.a(env.o)
 .bss.g_nextLoadPath
                0x0000000000077988        0x8 C:/Users/RNG/Desktop/Stuff/Smash-Stuff/SMASH-ULTIMATE-MODS-BABY/50xx-the-mod/acmd-edits/code-mod-framework/lib/libnx_min/nx/lib\libnx_min.a(env.o)
 .bss.g_overrideArgv
                0x0000000000077990        0x8 C:/Users/RNG/Desktop/Stuff/Smash-Stuff/SMASH-ULTIMATE-MODS-BABY/50xx-the-mod/acmd-edits/code-mod-framework/lib/libnx_min/nx/lib\libnx_min.a(env.o)
 .bss.g_overrideHeapAddr
                0x0000000000077998        0x8 C:/Users/RNG/Desktop/Stuff/Smash-Stuff/SMASH-ULTIMATE-MODS-BABY/50xx-the-mod/acmd-edits/code-mod-framework/lib/libnx_min/nx/lib\libnx_min.a(env.o)
 .bss.g_overrideHeapSize
                0x00000000000779a0        0x8 C:/Users/RNG/Desktop/Stuff/Smash-Stuff/SMASH-ULTIMATE-MODS-BABY/50xx-the-mod/acmd-edits/code-mod-framework/lib/libnx_min/nx/lib\libnx_min.a(env.o)
 .bss.g_processHandle
                0x00000000000779a8        0x4 C:/Users/RNG/Desktop/Stuff/Smash-Stuff/SMASH-ULTIMATE-MODS-BABY/50xx-the-mod/acmd-edits/code-mod-framework/lib/libnx_min/nx/lib\libnx_min.a(env.o)
 *fill*         0x00000000000779ac        0x4 
 .bss.g_randomSeed
                0x00000000000779b0       0x10 C:/Users/RNG/Desktop/Stuff/Smash-Stuff/SMASH-ULTIMATE-MODS-BABY/50xx-the-mod/acmd-edits/code-mod-framework/lib/libnx_min/nx/lib\libnx_min.a(env.o)
 .bss.g_syscallHints
                0x00000000000779c0       0x10 C:/Users/RNG/Desktop/Stuff/Smash-Stuff/SMASH-ULTIMATE-MODS-BABY/50xx-the-mod/acmd-edits/code-mod-framework/lib/libnx_min/nx/lib\libnx_min.a(env.o)
 .bss.__nx_exception_ignoredebug
                0x00000000000779d0        0x4 C:/Users/RNG/Desktop/Stuff/Smash-Stuff/SMASH-ULTIMATE-MODS-BABY/50xx-the-mod/acmd-edits/code-mod-framework/lib/libnx_min/nx/lib\libnx_min.a(init.o)
                0x00000000000779d0                __nx_exception_ignoredebug
 *fill*         0x00000000000779d4        0xc 
 .bss.__nx_exception_stack
                0x00000000000779e0      0x400 C:/Users/RNG/Desktop/Stuff/Smash-Stuff/SMASH-ULTIMATE-MODS-BABY/50xx-the-mod/acmd-edits/code-mod-framework/lib/libnx_min/nx/lib\libnx_min.a(init.o)
                0x00000000000779e0                __nx_exception_stack
 .bss.__nx_heap_size
                0x0000000000077de0        0x8 C:/Users/RNG/Desktop/Stuff/Smash-Stuff/SMASH-ULTIMATE-MODS-BABY/50xx-the-mod/acmd-edits/code-mod-framework/lib/libnx_min/nx/lib\libnx_min.a(init.o)
                0x0000000000077de0                __nx_heap_size
 .bss.g_hosVersion
                0x0000000000077de8        0x4 C:/Users/RNG/Desktop/Stuff/Smash-Stuff/SMASH-ULTIMATE-MODS-BABY/50xx-the-mod/acmd-edits/code-mod-framework/lib/libnx_min/nx/lib\libnx_min.a(hosversion.o)
 *fill*         0x0000000000077dec        0x4 
 .bss.fsdev_fsdevices
                0x0000000000077df0     0x2300 C:/Users/RNG/Desktop/Stuff/Smash-Stuff/SMASH-ULTIMATE-MODS-BABY/50xx-the-mod/acmd-edits/code-mod-framework/lib/libnx_min/nx/lib\libnx_min.a(fs_dev.o)
 .bss.fsdev_initialised
                0x000000000007a0f0        0x1 C:/Users/RNG/Desktop/Stuff/Smash-Stuff/SMASH-ULTIMATE-MODS-BABY/50xx-the-mod/acmd-edits/code-mod-framework/lib/libnx_min/nx/lib\libnx_min.a(fs_dev.o)
 *fill*         0x000000000007a0f1        0x7 
 .bss.g_AddressSpace
                0x000000000007a0f8       0x10 C:/Users/RNG/Desktop/Stuff/Smash-Stuff/SMASH-ULTIMATE-MODS-BABY/50xx-the-mod/acmd-edits/code-mod-framework/lib/libnx_min/nx/lib\libnx_min.a(virtmem.o)
 .bss.g_CurrentAddr
                0x000000000007a108        0x8 C:/Users/RNG/Desktop/Stuff/Smash-Stuff/SMASH-ULTIMATE-MODS-BABY/50xx-the-mod/acmd-edits/code-mod-framework/lib/libnx_min/nx/lib\libnx_min.a(virtmem.o)
 .bss.g_CurrentMapAddr
                0x000000000007a110        0x8 C:/Users/RNG/Desktop/Stuff/Smash-Stuff/SMASH-ULTIMATE-MODS-BABY/50xx-the-mod/acmd-edits/code-mod-framework/lib/libnx_min/nx/lib\libnx_min.a(virtmem.o)
 .bss.g_Region  0x000000000007a118       0x30 C:/Users/RNG/Desktop/Stuff/Smash-Stuff/SMASH-ULTIMATE-MODS-BABY/50xx-the-mod/acmd-edits/code-mod-framework/lib/libnx_min/nx/lib\libnx_min.a(virtmem.o)
 .bss.g_VirtMemMutex
                0x000000000007a148        0x4 C:/Users/RNG/Desktop/Stuff/Smash-Stuff/SMASH-ULTIMATE-MODS-BABY/50xx-the-mod/acmd-edits/code-mod-framework/lib/libnx_min/nx/lib\libnx_min.a(virtmem.o)
 *fill*         0x000000000007a14c        0x4 
 .bss.g_fsSrv   0x000000000007a150        0xc C:/Users/RNG/Desktop/Stuff/Smash-Stuff/SMASH-ULTIMATE-MODS-BABY/50xx-the-mod/acmd-edits/code-mod-framework/lib/libnx_min/nx/lib\libnx_min.a(fs.o)
 *fill*         0x000000000007a15c        0x4 
 .bss.g_refCnt  0x000000000007a160        0x8 C:/Users/RNG/Desktop/Stuff/Smash-Stuff/SMASH-ULTIMATE-MODS-BABY/50xx-the-mod/acmd-edits/code-mod-framework/lib/libnx_min/nx/lib\libnx_min.a(fs.o)
 .bss.g_refCnt  0x000000000007a168        0x8 C:/Users/RNG/Desktop/Stuff/Smash-Stuff/SMASH-ULTIMATE-MODS-BABY/50xx-the-mod/acmd-edits/code-mod-framework/lib/libnx_min/nx/lib\libnx_min.a(set.o)
 .bss.g_refCntSys
                0x000000000007a170        0x8 C:/Users/RNG/Desktop/Stuff/Smash-Stuff/SMASH-ULTIMATE-MODS-BABY/50xx-the-mod/acmd-edits/code-mod-framework/lib/libnx_min/nx/lib\libnx_min.a(set.o)
 .bss.g_setLanguageCodes
                0x000000000007a178      0x200 C:/Users/RNG/Desktop/Stuff/Smash-Stuff/SMASH-ULTIMATE-MODS-BABY/50xx-the-mod/acmd-edits/code-mod-framework/lib/libnx_min/nx/lib\libnx_min.a(set.o)
 .bss.g_setLanguageCodesInitialized
                0x000000000007a378        0x1 C:/Users/RNG/Desktop/Stuff/Smash-Stuff/SMASH-ULTIMATE-MODS-BABY/50xx-the-mod/acmd-edits/code-mod-framework/lib/libnx_min/nx/lib\libnx_min.a(set.o)
 *fill*         0x000000000007a379        0x3 
 .bss.g_setLanguageCodesTotal
                0x000000000007a37c        0x4 C:/Users/RNG/Desktop/Stuff/Smash-Stuff/SMASH-ULTIMATE-MODS-BABY/50xx-the-mod/acmd-edits/code-mod-framework/lib/libnx_min/nx/lib\libnx_min.a(set.o)
 .bss.g_setSrv  0x000000000007a380        0xc C:/Users/RNG/Desktop/Stuff/Smash-Stuff/SMASH-ULTIMATE-MODS-BABY/50xx-the-mod/acmd-edits/code-mod-framework/lib/libnx_min/nx/lib\libnx_min.a(set.o)
 *fill*         0x000000000007a38c        0x4 
 .bss.g_setsysSrv
                0x000000000007a390        0xc C:/Users/RNG/Desktop/Stuff/Smash-Stuff/SMASH-ULTIMATE-MODS-BABY/50xx-the-mod/acmd-edits/code-mod-framework/lib/libnx_min/nx/lib\libnx_min.a(set.o)
 *fill*         0x000000000007a39c        0x4 
 .bss.g_refCnt  0x000000000007a3a0        0x8 C:/Users/RNG/Desktop/Stuff/Smash-Stuff/SMASH-ULTIMATE-MODS-BABY/50xx-the-mod/acmd-edits/code-mod-framework/lib/libnx_min/nx/lib\libnx_min.a(sm.o)
 .bss.g_smOverrides
                0x000000000007a3a8      0x200 C:/Users/RNG/Desktop/Stuff/Smash-Stuff/SMASH-ULTIMATE-MODS-BABY/50xx-the-mod/acmd-edits/code-mod-framework/lib/libnx_min/nx/lib\libnx_min.a(sm.o)
 .bss.g_smOverridesNum
                0x000000000007a5a8        0x8 C:/Users/RNG/Desktop/Stuff/Smash-Stuff/SMASH-ULTIMATE-MODS-BABY/50xx-the-mod/acmd-edits/code-mod-framework/lib/libnx_min/nx/lib\libnx_min.a(sm.o)
 .bss.g_smSrv   0x000000000007a5b0        0xc C:/Users/RNG/Desktop/Stuff/Smash-Stuff/SMASH-ULTIMATE-MODS-BABY/50xx-the-mod/acmd-edits/code-mod-framework/lib/libnx_min/nx/lib\libnx_min.a(sm.o)
 *fill*         0x000000000007a5bc        0x4 
 .bss.g_controllerDown
                0x000000000007a5c0       0x50 C:/Users/RNG/Desktop/Stuff/Smash-Stuff/SMASH-ULTIMATE-MODS-BABY/50xx-the-mod/acmd-edits/code-mod-framework/lib/libnx_min/nx/lib\libnx_min.a(hid.o)
 .bss.g_controllerEntries
                0x000000000007a610      0x1e0 C:/Users/RNG/Desktop/Stuff/Smash-Stuff/SMASH-ULTIMATE-MODS-BABY/50xx-the-mod/acmd-edits/code-mod-framework/lib/libnx_min/nx/lib\libnx_min.a(hid.o)
 .bss.g_controllerHeaders
                0x000000000007a7f0      0x190 C:/Users/RNG/Desktop/Stuff/Smash-Stuff/SMASH-ULTIMATE-MODS-BABY/50xx-the-mod/acmd-edits/code-mod-framework/lib/libnx_min/nx/lib\libnx_min.a(hid.o)
 .bss.g_controllerHeld
                0x000000000007a980       0x50 C:/Users/RNG/Desktop/Stuff/Smash-Stuff/SMASH-ULTIMATE-MODS-BABY/50xx-the-mod/acmd-edits/code-mod-framework/lib/libnx_min/nx/lib\libnx_min.a(hid.o)
 .bss.g_controllerLayout
                0x000000000007a9d0       0x28 C:/Users/RNG/Desktop/Stuff/Smash-Stuff/SMASH-ULTIMATE-MODS-BABY/50xx-the-mod/acmd-edits/code-mod-framework/lib/libnx_min/nx/lib\libnx_min.a(hid.o)
 .bss.g_controllerMisc
                0x000000000007a9f8      0x500 C:/Users/RNG/Desktop/Stuff/Smash-Stuff/SMASH-ULTIMATE-MODS-BABY/50xx-the-mod/acmd-edits/code-mod-framework/lib/libnx_min/nx/lib\libnx_min.a(hid.o)
 .bss.g_controllerOld
                0x000000000007aef8       0x50 C:/Users/RNG/Desktop/Stuff/Smash-Stuff/SMASH-ULTIMATE-MODS-BABY/50xx-the-mod/acmd-edits/code-mod-framework/lib/libnx_min/nx/lib\libnx_min.a(hid.o)
 .bss.g_controllerP1AutoID
                0x000000000007af48        0x4 C:/Users/RNG/Desktop/Stuff/Smash-Stuff/SMASH-ULTIMATE-MODS-BABY/50xx-the-mod/acmd-edits/code-mod-framework/lib/libnx_min/nx/lib\libnx_min.a(hid.o)
 *fill*         0x000000000007af4c        0x4 
 .bss.g_controllerTimestamps
                0x000000000007af50       0x50 C:/Users/RNG/Desktop/Stuff/Smash-Stuff/SMASH-ULTIMATE-MODS-BABY/50xx-the-mod/acmd-edits/code-mod-framework/lib/libnx_min/nx/lib\libnx_min.a(hid.o)
 .bss.g_controllerUp
                0x000000000007afa0       0x50 C:/Users/RNG/Desktop/Stuff/Smash-Stuff/SMASH-ULTIMATE-MODS-BABY/50xx-the-mod/acmd-edits/code-mod-framework/lib/libnx_min/nx/lib\libnx_min.a(hid.o)
 .bss.g_hidIAppletResource
                0x000000000007aff0        0xc C:/Users/RNG/Desktop/Stuff/Smash-Stuff/SMASH-ULTIMATE-MODS-BABY/50xx-the-mod/acmd-edits/code-mod-framework/lib/libnx_min/nx/lib\libnx_min.a(hid.o)
 *fill*         0x000000000007affc        0x4 
 .bss.g_hidLock
                0x000000000007b000       0x10 C:/Users/RNG/Desktop/Stuff/Smash-Stuff/SMASH-ULTIMATE-MODS-BABY/50xx-the-mod/acmd-edits/code-mod-framework/lib/libnx_min/nx/lib\libnx_min.a(hid.o)
 .bss.g_hidSharedmem
                0x000000000007b010       0x20 C:/Users/RNG/Desktop/Stuff/Smash-Stuff/SMASH-ULTIMATE-MODS-BABY/50xx-the-mod/acmd-edits/code-mod-framework/lib/libnx_min/nx/lib\libnx_min.a(hid.o)
 .bss.g_hidSrv  0x000000000007b030        0xc C:/Users/RNG/Desktop/Stuff/Smash-Stuff/SMASH-ULTIMATE-MODS-BABY/50xx-the-mod/acmd-edits/code-mod-framework/lib/libnx_min/nx/lib\libnx_min.a(hid.o)
 *fill*         0x000000000007b03c        0x4 
 .bss.g_keyboardDown
                0x000000000007b040       0x20 C:/Users/RNG/Desktop/Stuff/Smash-Stuff/SMASH-ULTIMATE-MODS-BABY/50xx-the-mod/acmd-edits/code-mod-framework/lib/libnx_min/nx/lib\libnx_min.a(hid.o)
 .bss.g_keyboardEntry
                0x000000000007b060       0x38 C:/Users/RNG/Desktop/Stuff/Smash-Stuff/SMASH-ULTIMATE-MODS-BABY/50xx-the-mod/acmd-edits/code-mod-framework/lib/libnx_min/nx/lib\libnx_min.a(hid.o)
 .bss.g_keyboardHeld
                0x000000000007b098       0x20 C:/Users/RNG/Desktop/Stuff/Smash-Stuff/SMASH-ULTIMATE-MODS-BABY/50xx-the-mod/acmd-edits/code-mod-framework/lib/libnx_min/nx/lib\libnx_min.a(hid.o)
 .bss.g_keyboardModDown
                0x000000000007b0b8        0x8 C:/Users/RNG/Desktop/Stuff/Smash-Stuff/SMASH-ULTIMATE-MODS-BABY/50xx-the-mod/acmd-edits/code-mod-framework/lib/libnx_min/nx/lib\libnx_min.a(hid.o)
 .bss.g_keyboardModHeld
                0x000000000007b0c0        0x8 C:/Users/RNG/Desktop/Stuff/Smash-Stuff/SMASH-ULTIMATE-MODS-BABY/50xx-the-mod/acmd-edits/code-mod-framework/lib/libnx_min/nx/lib\libnx_min.a(hid.o)
 .bss.g_keyboardModOld
                0x000000000007b0c8        0x8 C:/Users/RNG/Desktop/Stuff/Smash-Stuff/SMASH-ULTIMATE-MODS-BABY/50xx-the-mod/acmd-edits/code-mod-framework/lib/libnx_min/nx/lib\libnx_min.a(hid.o)
 .bss.g_keyboardModUp
                0x000000000007b0d0        0x8 C:/Users/RNG/Desktop/Stuff/Smash-Stuff/SMASH-ULTIMATE-MODS-BABY/50xx-the-mod/acmd-edits/code-mod-framework/lib/libnx_min/nx/lib\libnx_min.a(hid.o)
 .bss.g_keyboardOld
                0x000000000007b0d8       0x20 C:/Users/RNG/Desktop/Stuff/Smash-Stuff/SMASH-ULTIMATE-MODS-BABY/50xx-the-mod/acmd-edits/code-mod-framework/lib/libnx_min/nx/lib\libnx_min.a(hid.o)
 .bss.g_keyboardTimestamp
                0x000000000007b0f8        0x8 C:/Users/RNG/Desktop/Stuff/Smash-Stuff/SMASH-ULTIMATE-MODS-BABY/50xx-the-mod/acmd-edits/code-mod-framework/lib/libnx_min/nx/lib\libnx_min.a(hid.o)
 .bss.g_keyboardUp
                0x000000000007b100       0x20 C:/Users/RNG/Desktop/Stuff/Smash-Stuff/SMASH-ULTIMATE-MODS-BABY/50xx-the-mod/acmd-edits/code-mod-framework/lib/libnx_min/nx/lib\libnx_min.a(hid.o)
 .bss.g_mouse   0x000000000007b120      0x400 C:/Users/RNG/Desktop/Stuff/Smash-Stuff/SMASH-ULTIMATE-MODS-BABY/50xx-the-mod/acmd-edits/code-mod-framework/lib/libnx_min/nx/lib\libnx_min.a(hid.o)
 .bss.g_mouseDown
                0x000000000007b520        0x8 C:/Users/RNG/Desktop/Stuff/Smash-Stuff/SMASH-ULTIMATE-MODS-BABY/50xx-the-mod/acmd-edits/code-mod-framework/lib/libnx_min/nx/lib\libnx_min.a(hid.o)
 .bss.g_mouseEntry
                0x000000000007b528        0x8 C:/Users/RNG/Desktop/Stuff/Smash-Stuff/SMASH-ULTIMATE-MODS-BABY/50xx-the-mod/acmd-edits/code-mod-framework/lib/libnx_min/nx/lib\libnx_min.a(hid.o)
 .bss.g_mouseHeld
                0x000000000007b530        0x8 C:/Users/RNG/Desktop/Stuff/Smash-Stuff/SMASH-ULTIMATE-MODS-BABY/50xx-the-mod/acmd-edits/code-mod-framework/lib/libnx_min/nx/lib\libnx_min.a(hid.o)
 .bss.g_mouseOld
                0x000000000007b538        0x8 C:/Users/RNG/Desktop/Stuff/Smash-Stuff/SMASH-ULTIMATE-MODS-BABY/50xx-the-mod/acmd-edits/code-mod-framework/lib/libnx_min/nx/lib\libnx_min.a(hid.o)
 .bss.g_mouseTimestamp
                0x000000000007b540        0x8 C:/Users/RNG/Desktop/Stuff/Smash-Stuff/SMASH-ULTIMATE-MODS-BABY/50xx-the-mod/acmd-edits/code-mod-framework/lib/libnx_min/nx/lib\libnx_min.a(hid.o)
 .bss.g_mouseUp
                0x000000000007b548        0x8 C:/Users/RNG/Desktop/Stuff/Smash-Stuff/SMASH-ULTIMATE-MODS-BABY/50xx-the-mod/acmd-edits/code-mod-framework/lib/libnx_min/nx/lib\libnx_min.a(hid.o)
 .bss.g_refCnt  0x000000000007b550        0x8 C:/Users/RNG/Desktop/Stuff/Smash-Stuff/SMASH-ULTIMATE-MODS-BABY/50xx-the-mod/acmd-edits/code-mod-framework/lib/libnx_min/nx/lib\libnx_min.a(hid.o)
 .bss.g_sevenSixAxisSensorBuffer
                0x000000000007b558        0x8 C:/Users/RNG/Desktop/Stuff/Smash-Stuff/SMASH-ULTIMATE-MODS-BABY/50xx-the-mod/acmd-edits/code-mod-framework/lib/libnx_min/nx/lib\libnx_min.a(hid.o)
 .bss.g_sevenSixAxisSensorTmem0
                0x000000000007b560       0x28 C:/Users/RNG/Desktop/Stuff/Smash-Stuff/SMASH-ULTIMATE-MODS-BABY/50xx-the-mod/acmd-edits/code-mod-framework/lib/libnx_min/nx/lib\libnx_min.a(hid.o)
 .bss.g_sevenSixAxisSensorTmem1
                0x000000000007b588       0x28 C:/Users/RNG/Desktop/Stuff/Smash-Stuff/SMASH-ULTIMATE-MODS-BABY/50xx-the-mod/acmd-edits/code-mod-framework/lib/libnx_min/nx/lib\libnx_min.a(hid.o)
 .bss.g_sixaxisEnabled
                0x000000000007b5b0        0xa C:/Users/RNG/Desktop/Stuff/Smash-Stuff/SMASH-ULTIMATE-MODS-BABY/50xx-the-mod/acmd-edits/code-mod-framework/lib/libnx_min/nx/lib\libnx_min.a(hid.o)
 *fill*         0x000000000007b5ba        0x6 
 .bss.g_sixaxisLayouts
                0x000000000007b5c0     0x4650 C:/Users/RNG/Desktop/Stuff/Smash-Stuff/SMASH-ULTIMATE-MODS-BABY/50xx-the-mod/acmd-edits/code-mod-framework/lib/libnx_min/nx/lib\libnx_min.a(hid.o)
 .bss.g_touchEntry
                0x000000000007fc10      0x298 C:/Users/RNG/Desktop/Stuff/Smash-Stuff/SMASH-ULTIMATE-MODS-BABY/50xx-the-mod/acmd-edits/code-mod-framework/lib/libnx_min/nx/lib\libnx_min.a(hid.o)
 .bss.g_touchTimestamp
                0x000000000007fea8        0x8 C:/Users/RNG/Desktop/Stuff/Smash-Stuff/SMASH-ULTIMATE-MODS-BABY/50xx-the-mod/acmd-edits/code-mod-framework/lib/libnx_min/nx/lib\libnx_min.a(hid.o)
 .bss.g_refCnt  0x000000000007feb0        0x8 C:/Users/RNG/Desktop/Stuff/Smash-Stuff/SMASH-ULTIMATE-MODS-BABY/50xx-the-mod/acmd-edits/code-mod-framework/lib/libnx_min/nx/lib\libnx_min.a(time.o)
 .bss.g_timeLocalSystemClock
                0x000000000007feb8        0xc C:/Users/RNG/Desktop/Stuff/Smash-Stuff/SMASH-ULTIMATE-MODS-BABY/50xx-the-mod/acmd-edits/code-mod-framework/lib/libnx_min/nx/lib\libnx_min.a(time.o)
 *fill*         0x000000000007fec4        0x4 
 .bss.g_timeNetworkSystemClock
                0x000000000007fec8        0xc C:/Users/RNG/Desktop/Stuff/Smash-Stuff/SMASH-ULTIMATE-MODS-BABY/50xx-the-mod/acmd-edits/code-mod-framework/lib/libnx_min/nx/lib\libnx_min.a(time.o)
 *fill*         0x000000000007fed4        0x4 
 .bss.g_timeSrv
                0x000000000007fed8        0xc C:/Users/RNG/Desktop/Stuff/Smash-Stuff/SMASH-ULTIMATE-MODS-BABY/50xx-the-mod/acmd-edits/code-mod-framework/lib/libnx_min/nx/lib\libnx_min.a(time.o)
 *fill*         0x000000000007fee4        0x4 
 .bss.g_timeTimeZoneService
                0x000000000007fee8        0xc C:/Users/RNG/Desktop/Stuff/Smash-Stuff/SMASH-ULTIMATE-MODS-BABY/50xx-the-mod/acmd-edits/code-mod-framework/lib/libnx_min/nx/lib\libnx_min.a(time.o)
 *fill*         0x000000000007fef4        0x4 
 .bss.g_timeUserSystemClock
                0x000000000007fef8        0xc C:/Users/RNG/Desktop/Stuff/Smash-Stuff/SMASH-ULTIMATE-MODS-BABY/50xx-the-mod/acmd-edits/code-mod-framework/lib/libnx_min/nx/lib\libnx_min.a(time.o)
 *fill*         0x000000000007ff04        0x4 
 .bss.__nx_applet_AppletAttribute
                0x000000000007ff08       0x80 C:/Users/RNG/Desktop/Stuff/Smash-Stuff/SMASH-ULTIMATE-MODS-BABY/50xx-the-mod/acmd-edits/code-mod-framework/lib/libnx_min/nx/lib\libnx_min.a(applet.o)
                0x000000000007ff08                __nx_applet_AppletAttribute
 .bss.__nx_applet_PerformanceConfiguration
                0x000000000007ff88        0x8 C:/Users/RNG/Desktop/Stuff/Smash-Stuff/SMASH-ULTIMATE-MODS-BABY/50xx-the-mod/acmd-edits/code-mod-framework/lib/libnx_min/nx/lib\libnx_min.a(applet.o)
                0x000000000007ff88                __nx_applet_PerformanceConfiguration
 .bss.__nx_applet_exit_mode
                0x000000000007ff90        0x4 C:/Users/RNG/Desktop/Stuff/Smash-Stuff/SMASH-ULTIMATE-MODS-BABY/50xx-the-mod/acmd-edits/code-mod-framework/lib/libnx_min/nx/lib\libnx_min.a(applet.o)
                0x000000000007ff90                __nx_applet_exit_mode
 .bss.g_appletCpuBoostMode
                0x000000000007ff94        0x4 C:/Users/RNG/Desktop/Stuff/Smash-Stuff/SMASH-ULTIMATE-MODS-BABY/50xx-the-mod/acmd-edits/code-mod-framework/lib/libnx_min/nx/lib\libnx_min.a(applet.o)
 .bss.g_appletExitProcessFlag
                0x000000000007ff98        0x1 C:/Users/RNG/Desktop/Stuff/Smash-Stuff/SMASH-ULTIMATE-MODS-BABY/50xx-the-mod/acmd-edits/code-mod-framework/lib/libnx_min/nx/lib\libnx_min.a(applet.o)
 *fill*         0x000000000007ff99        0x7 
 .bss.g_appletFirstHook
                0x000000000007ffa0       0x18 C:/Users/RNG/Desktop/Stuff/Smash-Stuff/SMASH-ULTIMATE-MODS-BABY/50xx-the-mod/acmd-edits/code-mod-framework/lib/libnx_min/nx/lib\libnx_min.a(applet.o)
 .bss.g_appletFocusState
                0x000000000007ffb8        0x1 C:/Users/RNG/Desktop/Stuff/Smash-Stuff/SMASH-ULTIMATE-MODS-BABY/50xx-the-mod/acmd-edits/code-mod-framework/lib/libnx_min/nx/lib\libnx_min.a(applet.o)
 *fill*         0x000000000007ffb9        0x7 
 .bss.g_appletIApplicationCreator
                0x000000000007ffc0        0xc C:/Users/RNG/Desktop/Stuff/Smash-Stuff/SMASH-ULTIMATE-MODS-BABY/50xx-the-mod/acmd-edits/code-mod-framework/lib/libnx_min/nx/lib\libnx_min.a(applet.o)
 *fill*         0x000000000007ffcc        0x4 
 .bss.g_appletIAudioController
                0x000000000007ffd0        0xc C:/Users/RNG/Desktop/Stuff/Smash-Stuff/SMASH-ULTIMATE-MODS-BABY/50xx-the-mod/acmd-edits/code-mod-framework/lib/libnx_min/nx/lib\libnx_min.a(applet.o)
 *fill*         0x000000000007ffdc        0x4 
 .bss.g_appletICommonStateGetter
                0x000000000007ffe0        0xc C:/Users/RNG/Desktop/Stuff/Smash-Stuff/SMASH-ULTIMATE-MODS-BABY/50xx-the-mod/acmd-edits/code-mod-framework/lib/libnx_min/nx/lib\libnx_min.a(applet.o)
 *fill*         0x000000000007ffec        0x4 
 .bss.g_appletIDebugFunctions
                0x000000000007fff0        0xc C:/Users/RNG/Desktop/Stuff/Smash-Stuff/SMASH-ULTIMATE-MODS-BABY/50xx-the-mod/acmd-edits/code-mod-framework/lib/libnx_min/nx/lib\libnx_min.a(applet.o)
 *fill*         0x000000000007fffc        0x4 
 .bss.g_appletIDisplayController
                0x0000000000080000        0xc C:/Users/RNG/Desktop/Stuff/Smash-Stuff/SMASH-ULTIMATE-MODS-BABY/50xx-the-mod/acmd-edits/code-mod-framework/lib/libnx_min/nx/lib\libnx_min.a(applet.o)
 *fill*         0x000000000008000c        0x4 
 .bss.g_appletIFunctions
                0x0000000000080010        0xc C:/Users/RNG/Desktop/Stuff/Smash-Stuff/SMASH-ULTIMATE-MODS-BABY/50xx-the-mod/acmd-edits/code-mod-framework/lib/libnx_min/nx/lib\libnx_min.a(applet.o)
 *fill*         0x000000000008001c        0x4 
 .bss.g_appletIGlobalStateController
                0x0000000000080020        0xc C:/Users/RNG/Desktop/Stuff/Smash-Stuff/SMASH-ULTIMATE-MODS-BABY/50xx-the-mod/acmd-edits/code-mod-framework/lib/libnx_min/nx/lib\libnx_min.a(applet.o)
 *fill*         0x000000000008002c        0x4 
 .bss.g_appletILibraryAppletCreator
                0x0000000000080030        0xc C:/Users/RNG/Desktop/Stuff/Smash-Stuff/SMASH-ULTIMATE-MODS-BABY/50xx-the-mod/acmd-edits/code-mod-framework/lib/libnx_min/nx/lib\libnx_min.a(applet.o)
 *fill*         0x000000000008003c        0x4 
 .bss.g_appletILibraryAppletSelfAccessor
                0x0000000000080040        0xc C:/Users/RNG/Desktop/Stuff/Smash-Stuff/SMASH-ULTIMATE-MODS-BABY/50xx-the-mod/acmd-edits/code-mod-framework/lib/libnx_min/nx/lib\libnx_min.a(applet.o)
 *fill*         0x000000000008004c        0x4 
 .bss.g_appletIProcessWindingController
                0x0000000000080050        0xc C:/Users/RNG/Desktop/Stuff/Smash-Stuff/SMASH-ULTIMATE-MODS-BABY/50xx-the-mod/acmd-edits/code-mod-framework/lib/libnx_min/nx/lib\libnx_min.a(applet.o)
 *fill*         0x000000000008005c        0x4 
 .bss.g_appletISelfController
                0x0000000000080060        0xc C:/Users/RNG/Desktop/Stuff/Smash-Stuff/SMASH-ULTIMATE-MODS-BABY/50xx-the-mod/acmd-edits/code-mod-framework/lib/libnx_min/nx/lib\libnx_min.a(applet.o)
 *fill*         0x000000000008006c        0x4 
 .bss.g_appletIWindowController
                0x0000000000080070        0xc C:/Users/RNG/Desktop/Stuff/Smash-Stuff/SMASH-ULTIMATE-MODS-BABY/50xx-the-mod/acmd-edits/code-mod-framework/lib/libnx_min/nx/lib\libnx_min.a(applet.o)
 *fill*         0x000000000008007c        0x4 
 .bss.g_appletLibraryAppletLaunchableEvent
                0x0000000000080080        0xc C:/Users/RNG/Desktop/Stuff/Smash-Stuff/SMASH-ULTIMATE-MODS-BABY/50xx-the-mod/acmd-edits/code-mod-framework/lib/libnx_min/nx/lib\libnx_min.a(applet.o)
 *fill*         0x000000000008008c        0x4 
 .bss.g_appletMessageEvent
                0x0000000000080090        0xc C:/Users/RNG/Desktop/Stuff/Smash-Stuff/SMASH-ULTIMATE-MODS-BABY/50xx-the-mod/acmd-edits/code-mod-framework/lib/libnx_min/nx/lib\libnx_min.a(applet.o)
 .bss.g_appletNotifiedRunning
                0x000000000008009c        0x1 C:/Users/RNG/Desktop/Stuff/Smash-Stuff/SMASH-ULTIMATE-MODS-BABY/50xx-the-mod/acmd-edits/code-mod-framework/lib/libnx_min/nx/lib\libnx_min.a(applet.o)
 .bss.g_appletOperationMode
                0x000000000008009d        0x1 C:/Users/RNG/Desktop/Stuff/Smash-Stuff/SMASH-ULTIMATE-MODS-BABY/50xx-the-mod/acmd-edits/code-mod-framework/lib/libnx_min/nx/lib\libnx_min.a(applet.o)
 *fill*         0x000000000008009e        0x2 
 .bss.g_appletPerformanceMode
                0x00000000000800a0        0x4 C:/Users/RNG/Desktop/Stuff/Smash-Stuff/SMASH-ULTIMATE-MODS-BABY/50xx-the-mod/acmd-edits/code-mod-framework/lib/libnx_min/nx/lib\libnx_min.a(applet.o)
 *fill*         0x00000000000800a4        0x4 
 .bss.g_appletProxySession
                0x00000000000800a8        0xc C:/Users/RNG/Desktop/Stuff/Smash-Stuff/SMASH-ULTIMATE-MODS-BABY/50xx-the-mod/acmd-edits/code-mod-framework/lib/libnx_min/nx/lib\libnx_min.a(applet.o)
 .bss.g_appletRecordingInitialized
                0x00000000000800b4        0x4 C:/Users/RNG/Desktop/Stuff/Smash-Stuff/SMASH-ULTIMATE-MODS-BABY/50xx-the-mod/acmd-edits/code-mod-framework/lib/libnx_min/nx/lib\libnx_min.a(applet.o)
 .bss.g_appletRecordingTmem
                0x00000000000800b8       0x28 C:/Users/RNG/Desktop/Stuff/Smash-Stuff/SMASH-ULTIMATE-MODS-BABY/50xx-the-mod/acmd-edits/code-mod-framework/lib/libnx_min/nx/lib\libnx_min.a(applet.o)
 .bss.g_appletResourceUserId
                0x00000000000800e0        0x8 C:/Users/RNG/Desktop/Stuff/Smash-Stuff/SMASH-ULTIMATE-MODS-BABY/50xx-the-mod/acmd-edits/code-mod-framework/lib/libnx_min/nx/lib\libnx_min.a(applet.o)
 .bss.g_appletSrv
                0x00000000000800e8        0xc C:/Users/RNG/Desktop/Stuff/Smash-Stuff/SMASH-ULTIMATE-MODS-BABY/50xx-the-mod/acmd-edits/code-mod-framework/lib/libnx_min/nx/lib\libnx_min.a(applet.o)
 .bss.g_appletThemeColorType
                0x00000000000800f4        0x4 C:/Users/RNG/Desktop/Stuff/Smash-Stuff/SMASH-ULTIMATE-MODS-BABY/50xx-the-mod/acmd-edits/code-mod-framework/lib/libnx_min/nx/lib\libnx_min.a(applet.o)
 .bss.g_refCnt  0x00000000000800f8        0x8 C:/Users/RNG/Desktop/Stuff/Smash-Stuff/SMASH-ULTIMATE-MODS-BABY/50xx-the-mod/acmd-edits/code-mod-framework/lib/libnx_min/nx/lib\libnx_min.a(applet.o)
 .bss.__bootticks
                0x0000000000080100        0x8 C:/Users/RNG/Desktop/Stuff/Smash-Stuff/SMASH-ULTIMATE-MODS-BABY/50xx-the-mod/acmd-edits/code-mod-framework/lib/libnx_min/nx/lib\libnx_min.a(newlib.o)
 .bss.__boottime
                0x0000000000080108        0x8 C:/Users/RNG/Desktop/Stuff/Smash-Stuff/SMASH-ULTIMATE-MODS-BABY/50xx-the-mod/acmd-edits/code-mod-framework/lib/libnx_min/nx/lib\libnx_min.a(newlib.o)
 .bss.__nx_time_type
                0x0000000000080110        0x4 C:/Users/RNG/Desktop/Stuff/Smash-Stuff/SMASH-ULTIMATE-MODS-BABY/50xx-the-mod/acmd-edits/code-mod-framework/lib/libnx_min/nx/lib\libnx_min.a(newlib.o)
                0x0000000000080110                __nx_time_type
 *fill*         0x0000000000080114        0x4 
 .bss.g_threadList
                0x0000000000080118        0x8 C:/Users/RNG/Desktop/Stuff/Smash-Stuff/SMASH-ULTIMATE-MODS-BABY/50xx-the-mod/acmd-edits/code-mod-framework/lib/libnx_min/nx/lib\libnx_min.a(thread.o)
 .bss.g_threadMutex
                0x0000000000080120        0x4 C:/Users/RNG/Desktop/Stuff/Smash-Stuff/SMASH-ULTIMATE-MODS-BABY/50xx-the-mod/acmd-edits/code-mod-framework/lib/libnx_min/nx/lib\libnx_min.a(thread.o)
 *fill*         0x0000000000080124        0x4 
 .bss.g_tlsDestructors
                0x0000000000080128       0xd0 C:/Users/RNG/Desktop/Stuff/Smash-Stuff/SMASH-ULTIMATE-MODS-BABY/50xx-the-mod/acmd-edits/code-mod-framework/lib/libnx_min/nx/lib\libnx_min.a(thread.o)
 .bss.g_tlsUsageMask
                0x00000000000801f8        0x8 C:/Users/RNG/Desktop/Stuff/Smash-Stuff/SMASH-ULTIMATE-MODS-BABY/50xx-the-mod/acmd-edits/code-mod-framework/lib/libnx_min/nx/lib\libnx_min.a(thread.o)
 .bss.g_JitKernelPatchCached
                0x0000000000080200        0x1 C:/Users/RNG/Desktop/Stuff/Smash-Stuff/SMASH-ULTIMATE-MODS-BABY/50xx-the-mod/acmd-edits/code-mod-framework/lib/libnx_min/nx/lib\libnx_min.a(detect.o)
 .bss.g_JitKernelPatchDetected
                0x0000000000080201        0x1 C:/Users/RNG/Desktop/Stuff/Smash-Stuff/SMASH-ULTIMATE-MODS-BABY/50xx-the-mod/acmd-edits/code-mod-framework/lib/libnx_min/nx/lib\libnx_min.a(detect.o)
 *fill*         0x0000000000080202        0x2 
 .bss.g_JitKernelPatchMutex
                0x0000000000080204        0x4 C:/Users/RNG/Desktop/Stuff/Smash-Stuff/SMASH-ULTIMATE-MODS-BABY/50xx-the-mod/acmd-edits/code-mod-framework/lib/libnx_min/nx/lib\libnx_min.a(detect.o)
 .bss.g_Version
                0x0000000000080208        0x4 C:/Users/RNG/Desktop/Stuff/Smash-Stuff/SMASH-ULTIMATE-MODS-BABY/50xx-the-mod/acmd-edits/code-mod-framework/lib/libnx_min/nx/lib\libnx_min.a(detect.o)
 .bss.g_VersionCached
                0x000000000008020c        0x1 C:/Users/RNG/Desktop/Stuff/Smash-Stuff/SMASH-ULTIMATE-MODS-BABY/50xx-the-mod/acmd-edits/code-mod-framework/lib/libnx_min/nx/lib\libnx_min.a(detect.o)
 *fill*         0x000000000008020d        0x3 
 .bss.g_VersionMutex
                0x0000000000080210        0x4 C:/Users/RNG/Desktop/Stuff/Smash-Stuff/SMASH-ULTIMATE-MODS-BABY/50xx-the-mod/acmd-edits/code-mod-framework/lib/libnx_min/nx/lib\libnx_min.a(detect.o)
 *fill*         0x0000000000080214        0x4 
 .bss.g_apmISession
                0x0000000000080218        0xc C:/Users/RNG/Desktop/Stuff/Smash-Stuff/SMASH-ULTIMATE-MODS-BABY/50xx-the-mod/acmd-edits/code-mod-framework/lib/libnx_min/nx/lib\libnx_min.a(apm.o)
 *fill*         0x0000000000080224        0x4 
 .bss.g_apmSrv  0x0000000000080228        0xc C:/Users/RNG/Desktop/Stuff/Smash-Stuff/SMASH-ULTIMATE-MODS-BABY/50xx-the-mod/acmd-edits/code-mod-framework/lib/libnx_min/nx/lib\libnx_min.a(apm.o)
 *fill*         0x0000000000080234        0x4 
 .bss.g_refCnt  0x0000000000080238        0x8 C:/Users/RNG/Desktop/Stuff/Smash-Stuff/SMASH-ULTIMATE-MODS-BABY/50xx-the-mod/acmd-edits/code-mod-framework/lib/libnx_min/nx/lib\libnx_min.a(apm.o)
 .bss.__malloc_current_mallinfo
                0x0000000000080240       0x28 c:/devkitpro/devkita64/bin/../lib/gcc/aarch64-none-elf/8.3.0/../../../../aarch64-none-elf/lib/pic\libg.a(lib_a-mallocr.o)
                0x0000000000080240                __malloc_current_mallinfo
 .bss.__malloc_max_sbrked_mem
                0x0000000000080268        0x8 c:/devkitpro/devkita64/bin/../lib/gcc/aarch64-none-elf/8.3.0/../../../../aarch64-none-elf/lib/pic\libg.a(lib_a-mallocr.o)
                0x0000000000080268                __malloc_max_sbrked_mem
 .bss.__malloc_max_total_mem
                0x0000000000080270        0x8 c:/devkitpro/devkita64/bin/../lib/gcc/aarch64-none-elf/8.3.0/../../../../aarch64-none-elf/lib/pic\libg.a(lib_a-mallocr.o)
                0x0000000000080270                __malloc_max_total_mem
 .bss.__malloc_top_pad
                0x0000000000080278        0x8 c:/devkitpro/devkita64/bin/../lib/gcc/aarch64-none-elf/8.3.0/../../../../aarch64-none-elf/lib/pic\libg.a(lib_a-mallocr.o)
                0x0000000000080278                __malloc_top_pad
 .bss.__malloc_recursive_mutex
                0x0000000000080280        0xc c:/devkitpro/devkita64/bin/../lib/gcc/aarch64-none-elf/8.3.0/../../../../aarch64-none-elf/lib/pic\libg.a(lib_a-mlock.o)
 .bss.alloced.4086
                0x000000000008028c        0x4 c:/devkitpro/devkita64/bin/../lib/gcc/aarch64-none-elf/8.3.0/../../../../aarch64-none-elf/lib/pic\libg.a(lib_a-setenv_r.o)
 .bss.__atexit_recursive_mutex
                0x0000000000080290        0xc c:/devkitpro/devkita64/bin/../lib/gcc/aarch64-none-elf/8.3.0/../../../../aarch64-none-elf/lib/pic\libg.a(lib_a-__call_atexit.o)
                0x0000000000080290                __atexit_recursive_mutex
 *fill*         0x000000000008029c        0x4 
 .bss.initial_env
                0x00000000000802a0        0x8 c:/devkitpro/devkita64/bin/../lib/gcc/aarch64-none-elf/8.3.0/../../../../aarch64-none-elf/lib/pic\libg.a(lib_a-environ.o)
 .bss.__env_recursive_mutex
                0x00000000000802a8        0xc c:/devkitpro/devkita64/bin/../lib/gcc/aarch64-none-elf/8.3.0/../../../../aarch64-none-elf/lib/pic\libg.a(lib_a-envlock.o)
 *fill*         0x00000000000802b4        0x4 
 .bss._PathLocale
                0x00000000000802b8        0x8 c:/devkitpro/devkita64/bin/../lib/gcc/aarch64-none-elf/8.3.0/../../../../aarch64-none-elf/lib/pic\libg.a(lib_a-locale.o)
                0x00000000000802b8                _PathLocale
 .bss.global_locale_string
                0x00000000000802c0       0xe7 c:/devkitpro/devkita64/bin/../lib/gcc/aarch64-none-elf/8.3.0/../../../../aarch64-none-elf/lib/pic\libg.a(lib_a-locale.o)
 *fill*         0x00000000000803a7        0x1 
 .bss.new_categories.4568
                0x00000000000803a8       0xe0 c:/devkitpro/devkita64/bin/../lib/gcc/aarch64-none-elf/8.3.0/../../../../aarch64-none-elf/lib/pic\libg.a(lib_a-locale.o)
 .bss.saved_categories.4569
                0x0000000000080488       0xe0 c:/devkitpro/devkita64/bin/../lib/gcc/aarch64-none-elf/8.3.0/../../../../aarch64-none-elf/lib/pic\libg.a(lib_a-locale.o)
 .bss.heap_start.5295
                0x0000000000080568        0x8 c:/devkitpro/devkita64/bin/../lib/gcc/aarch64-none-elf/8.3.0/../../../../aarch64-none-elf/lib/pic\libsysbase.a(sbrk.o)
 .bss.fake_heap_end
                0x0000000000080570        0x8 c:/devkitpro/devkita64/bin/../lib/gcc/aarch64-none-elf/8.3.0/../../../../aarch64-none-elf/lib/pic\libsysbase.a(malloc_vars.o)
                0x0000000000080570                fake_heap_end
 .bss.fake_heap_start
                0x0000000000080578        0x8 c:/devkitpro/devkita64/bin/../lib/gcc/aarch64-none-elf/8.3.0/../../../../aarch64-none-elf/lib/pic\libsysbase.a(malloc_vars.o)
                0x0000000000080578                fake_heap_start
 .bss.temp_cwd  0x0000000000080580      0x400 c:/devkitpro/devkita64/bin/../lib/gcc/aarch64-none-elf/8.3.0/../../../../aarch64-none-elf/lib/pic\libsysbase.a(chdir.o)
 *(COMMON)
 COMMON         0x0000000000080980        0xc C:/Users/RNG/Desktop/Stuff/Smash-Stuff/SMASH-ULTIMATE-MODS-BABY/50xx-the-mod/acmd-edits/code-mod-framework/lib/libnx_min/nx/lib\libnx_min.a(argv.o)
                0x0000000000080980                __system_argv
                0x0000000000080988                __system_argc
 *fill*         0x000000000008098c        0x4 
 COMMON         0x0000000000080990      0x348 C:/Users/RNG/Desktop/Stuff/Smash-Stuff/SMASH-ULTIMATE-MODS-BABY/50xx-the-mod/acmd-edits/code-mod-framework/lib/libnx_min/nx/lib\libnx_min.a(init.o)
                0x0000000000080990                __nx_exceptiondump
                0x0000000000080cd0                __stack_top
                0x0000000000080cd8                . = ALIGN (0x8)
                0x0000000000080cd8                __tls_start = .
                0x00000000000850e0                . = (. + (SIZEOF (.tdata) + SIZEOF (.tbss)))
 *fill*         0x0000000000080cd8     0x4408 
                0x00000000000850e0                __tls_end = .
                0x00000000000850e0                __bss_end__ = .
                0x00000000000850e0                __end__ = ABSOLUTE (.)
                0x0000000000086000                . = ALIGN (0x1000)
                0x0000000000086000                __argdata__ = ABSOLUTE (.)

/DISCARD/
 *(.group .comment .note)

.stab
 *(.stab)

.stabstr
 *(.stabstr)

.stab.excl
 *(.stab.excl)

.stab.exclstr
 *(.stab.exclstr)

.stab.index
 *(.stab.index)

.stab.indexstr
 *(.stab.indexstr)

.debug
 *(.debug)

.line
 *(.line)

.debug_srcinfo
 *(.debug_srcinfo)

.debug_sfnames
 *(.debug_sfnames)

.debug_aranges
 *(.debug_aranges)

.debug_pubnames
 *(.debug_pubnames)

.debug_info
 *(.debug_info)

.debug_abbrev
 *(.debug_abbrev)

.debug_line
 *(.debug_line)

.debug_frame
 *(.debug_frame)

.debug_str
 *(.debug_str)

.debug_loc
 *(.debug_loc)

.debug_macinfo
 *(.debug_macinfo)
LOAD c:/devkitpro/devkita64/bin/../lib/gcc/aarch64-none-elf/8.3.0/pic/crti.o
LOAD c:/devkitpro/devkita64/bin/../lib/gcc/aarch64-none-elf/8.3.0/pic/crtbegin.o
LOAD main.o
LOAD acmd_wrapper.o
LOAD saltysd_helper.o
LOAD l2c_imports.o
LOAD lua_bind_hash.o
LOAD raygun_printer.o
LOAD C:/Users/RNG/Desktop/Stuff/Smash-Stuff/SMASH-ULTIMATE-MODS-BABY/50xx-the-mod/acmd-edits/code-mod-framework/lib/libnx_min/nx/lib\libnx_min.a
LOAD c:/devkitpro/devkita64/bin/../lib/gcc/aarch64-none-elf/8.3.0/../../../../aarch64-none-elf/lib/pic\libstdc++.a
LOAD c:/devkitpro/devkita64/bin/../lib/gcc/aarch64-none-elf/8.3.0/../../../../aarch64-none-elf/lib/pic\libm.a
START GROUP
LOAD c:/devkitpro/devkita64/bin/../lib/gcc/aarch64-none-elf/8.3.0/pic\libgcc.a
LOAD c:/devkitpro/devkita64/bin/../lib/gcc/aarch64-none-elf/8.3.0/../../../../aarch64-none-elf/lib/pic\libg.a
LOAD c:/devkitpro/devkita64/bin/../lib/gcc/aarch64-none-elf/8.3.0/../../../../aarch64-none-elf/lib/pic\libc.a
LOAD c:/devkitpro/devkita64/bin/../lib/gcc/aarch64-none-elf/8.3.0/../../../../aarch64-none-elf/lib/pic\libsysbase.a
END GROUP
LOAD c:/devkitpro/devkita64/bin/../lib/gcc/aarch64-none-elf/8.3.0/pic/crtend.o
LOAD c:/devkitpro/devkita64/bin/../lib/gcc/aarch64-none-elf/8.3.0/pic/crtn.o
OUTPUT(C:/Users/RNG/Desktop/Stuff/Smash-Stuff/SMASH-ULTIMATE-MODS-BABY/50xx-the-mod/acmd-edits/acmd-edits.elf elf64-littleaarch64)
