Archive member included to satisfy reference by file (symbol)

D:/githubRepos/code-mod-example/code-mod-framework/lib/libnx_min/nx/lib\libnx_min.a(switch_crt0.o)
                              (_start)
D:/githubRepos/code-mod-example/code-mod-framework/lib/libnx_min/nx/lib\libnx_min.a(exception.o)
                              D:/githubRepos/code-mod-example/code-mod-framework/lib/libnx_min/nx/lib\libnx_min.a(switch_crt0.o) (__libnx_exception_entry)
D:/githubRepos/code-mod-example/code-mod-framework/lib/libnx_min/nx/lib\libnx_min.a(argv.o)
                              D:/githubRepos/code-mod-example/code-mod-framework/lib/libnx_min/nx/lib\libnx_min.a(switch_crt0.o) (__system_argv)
D:/githubRepos/code-mod-example/code-mod-framework/lib/libnx_min/nx/lib\libnx_min.a(env.o)
                              D:/githubRepos/code-mod-example/code-mod-framework/lib/libnx_min/nx/lib\libnx_min.a(argv.o) (envIsNso)
D:/githubRepos/code-mod-example/code-mod-framework/lib/libnx_min/nx/lib\libnx_min.a(init.o)
                              D:/githubRepos/code-mod-example/code-mod-framework/lib/libnx_min/nx/lib\libnx_min.a(exception.o) (__nx_exceptiondump)
D:/githubRepos/code-mod-example/code-mod-framework/lib/libnx_min/nx/lib\libnx_min.a(hosversion.o)
                              D:/githubRepos/code-mod-example/code-mod-framework/lib/libnx_min/nx/lib\libnx_min.a(init.o) (hosversionSet)
D:/githubRepos/code-mod-example/code-mod-framework/lib/libnx_min/nx/lib\libnx_min.a(dynamic.o)
                              D:/githubRepos/code-mod-example/code-mod-framework/lib/libnx_min/nx/lib\libnx_min.a(switch_crt0.o) (__nx_dynamic)
D:/githubRepos/code-mod-example/code-mod-framework/lib/libnx_min/nx/lib\libnx_min.a(fs_dev.o)
                              D:/githubRepos/code-mod-example/code-mod-framework/lib/libnx_min/nx/lib\libnx_min.a(init.o) (fsdevMountSdmc)
D:/githubRepos/code-mod-example/code-mod-framework/lib/libnx_min/nx/lib\libnx_min.a(decode_utf8.o)
                              D:/githubRepos/code-mod-example/code-mod-framework/lib/libnx_min/nx/lib\libnx_min.a(fs_dev.o) (decode_utf8)
D:/githubRepos/code-mod-example/code-mod-framework/lib/libnx_min/nx/lib\libnx_min.a(svc.o)
                              D:/githubRepos/code-mod-example/code-mod-framework/lib/libnx_min/nx/lib\libnx_min.a(init.o) (svcSetHeapSize)
D:/githubRepos/code-mod-example/code-mod-framework/lib/libnx_min/nx/lib\libnx_min.a(readtp.o)
                              D:/githubRepos/code-mod-example/code-mod-framework/lib/libnx_min/nx/lib\libnx_min.a(fs_dev.o) (__aarch64_read_tp)
D:/githubRepos/code-mod-example/code-mod-framework/lib/libnx_min/nx/lib\libnx_min.a(virtmem.o)
                              D:/githubRepos/code-mod-example/code-mod-framework/lib/libnx_min/nx/lib\libnx_min.a(init.o) (virtmemSetup)
D:/githubRepos/code-mod-example/code-mod-framework/lib/libnx_min/nx/lib\libnx_min.a(mutex.o)
                              D:/githubRepos/code-mod-example/code-mod-framework/lib/libnx_min/nx/lib\libnx_min.a(virtmem.o) (mutexLock)
D:/githubRepos/code-mod-example/code-mod-framework/lib/libnx_min/nx/lib\libnx_min.a(fs.o)
                              D:/githubRepos/code-mod-example/code-mod-framework/lib/libnx_min/nx/lib\libnx_min.a(init.o) (fsInitialize)
D:/githubRepos/code-mod-example/code-mod-framework/lib/libnx_min/nx/lib\libnx_min.a(set.o)
                              D:/githubRepos/code-mod-example/code-mod-framework/lib/libnx_min/nx/lib\libnx_min.a(init.o) (setsysInitialize)
D:/githubRepos/code-mod-example/code-mod-framework/lib/libnx_min/nx/lib\libnx_min.a(fatal.o)
                              D:/githubRepos/code-mod-example/code-mod-framework/lib/libnx_min/nx/lib\libnx_min.a(env.o) (fatalSimple)
D:/githubRepos/code-mod-example/code-mod-framework/lib/libnx_min/nx/lib\libnx_min.a(sm.o)
                              D:/githubRepos/code-mod-example/code-mod-framework/lib/libnx_min/nx/lib\libnx_min.a(env.o) (smAddOverrideHandle)
D:/githubRepos/code-mod-example/code-mod-framework/lib/libnx_min/nx/lib\libnx_min.a(hid.o)
                              D:/githubRepos/code-mod-example/code-mod-framework/lib/libnx_min/nx/lib\libnx_min.a(init.o) (hidExit)
D:/githubRepos/code-mod-example/code-mod-framework/lib/libnx_min/nx/lib\libnx_min.a(time.o)
                              D:/githubRepos/code-mod-example/code-mod-framework/lib/libnx_min/nx/lib\libnx_min.a(init.o) (timeExit)
D:/githubRepos/code-mod-example/code-mod-framework/lib/libnx_min/nx/lib\libnx_min.a(applet.o)
                              D:/githubRepos/code-mod-example/code-mod-framework/lib/libnx_min/nx/lib\libnx_min.a(hid.o) (appletGetAppletResourceUserId)
D:/githubRepos/code-mod-example/code-mod-framework/lib/libnx_min/nx/lib\libnx_min.a(newlib.o)
                              D:/githubRepos/code-mod-example/code-mod-framework/lib/libnx_min/nx/lib\libnx_min.a(init.o) (__libnx_init_time)
D:/githubRepos/code-mod-example/code-mod-framework/lib/libnx_min/nx/lib\libnx_min.a(thread.o)
                              D:/githubRepos/code-mod-example/code-mod-framework/lib/libnx_min/nx/lib\libnx_min.a(newlib.o) (threadCreate)
D:/githubRepos/code-mod-example/code-mod-framework/lib/libnx_min/nx/lib\libnx_min.a(condvar.o)
                              D:/githubRepos/code-mod-example/code-mod-framework/lib/libnx_min/nx/lib\libnx_min.a(newlib.o) (condvarWaitTimeout)
D:/githubRepos/code-mod-example/code-mod-framework/lib/libnx_min/nx/lib\libnx_min.a(event.o)
                              D:/githubRepos/code-mod-example/code-mod-framework/lib/libnx_min/nx/lib\libnx_min.a(set.o) (eventLoadRemote)
D:/githubRepos/code-mod-example/code-mod-framework/lib/libnx_min/nx/lib\libnx_min.a(tmem.o)
                              D:/githubRepos/code-mod-example/code-mod-framework/lib/libnx_min/nx/lib\libnx_min.a(applet.o) (tmemCreate)
D:/githubRepos/code-mod-example/code-mod-framework/lib/libnx_min/nx/lib\libnx_min.a(rwlock.o)
                              D:/githubRepos/code-mod-example/code-mod-framework/lib/libnx_min/nx/lib\libnx_min.a(hid.o) (rwlockReadLock)
D:/githubRepos/code-mod-example/code-mod-framework/lib/libnx_min/nx/lib\libnx_min.a(wait.o)
                              D:/githubRepos/code-mod-example/code-mod-framework/lib/libnx_min/nx/lib\libnx_min.a(applet.o) (waitObjects)
D:/githubRepos/code-mod-example/code-mod-framework/lib/libnx_min/nx/lib\libnx_min.a(shmem.o)
                              D:/githubRepos/code-mod-example/code-mod-framework/lib/libnx_min/nx/lib\libnx_min.a(hid.o) (shmemLoadRemote)
D:/githubRepos/code-mod-example/code-mod-framework/lib/libnx_min/nx/lib\libnx_min.a(detect.o)
                              D:/githubRepos/code-mod-example/code-mod-framework/lib/libnx_min/nx/lib\libnx_min.a(fatal.o) (detectKernelVersion)
D:/githubRepos/code-mod-example/code-mod-framework/lib/libnx_min/nx/lib\libnx_min.a(apm.o)
                              D:/githubRepos/code-mod-example/code-mod-framework/lib/libnx_min/nx/lib\libnx_min.a(applet.o) (apmExit)
d:/devkitpro/devkita64/bin/../lib/gcc/aarch64-none-elf/10.1.0/../../../../aarch64-none-elf/lib/pic\libg.a(lib_a-bsearch.o)
                              D:/githubRepos/code-mod-example/code-mod-framework/lib/libnx_min/nx/lib\libnx_min.a(fs_dev.o) (bsearch)
d:/devkitpro/devkita64/bin/../lib/gcc/aarch64-none-elf/10.1.0/../../../../aarch64-none-elf/lib/pic\libg.a(lib_a-ctype_.o)
                              D:/githubRepos/code-mod-example/code-mod-framework/lib/libnx_min/nx/lib\libnx_min.a(argv.o) (_ctype_)
d:/devkitpro/devkita64/bin/../lib/gcc/aarch64-none-elf/10.1.0/../../../../aarch64-none-elf/lib/pic\libg.a(lib_a-errno.o)
                              D:/githubRepos/code-mod-example/code-mod-framework/lib/libnx_min/nx/lib\libnx_min.a(fs_dev.o) (__errno)
d:/devkitpro/devkita64/bin/../lib/gcc/aarch64-none-elf/10.1.0/../../../../aarch64-none-elf/lib/pic\libg.a(lib_a-exit.o)
                              D:/githubRepos/code-mod-example/code-mod-framework/lib/libnx_min/nx/lib\libnx_min.a(switch_crt0.o) (exit)
d:/devkitpro/devkita64/bin/../lib/gcc/aarch64-none-elf/10.1.0/../../../../aarch64-none-elf/lib/pic\libg.a(lib_a-fini.o)
                              main.o (__libc_fini_array)
d:/devkitpro/devkita64/bin/../lib/gcc/aarch64-none-elf/10.1.0/../../../../aarch64-none-elf/lib/pic\libg.a(lib_a-impure.o)
                              d:/devkitpro/devkita64/bin/../lib/gcc/aarch64-none-elf/10.1.0/../../../../aarch64-none-elf/lib/pic\libg.a(lib_a-exit.o) (_global_impure_ptr)
d:/devkitpro/devkita64/bin/../lib/gcc/aarch64-none-elf/10.1.0/../../../../aarch64-none-elf/lib/pic\libg.a(lib_a-init.o)
                              main.o (__libc_init_array)
d:/devkitpro/devkita64/bin/../lib/gcc/aarch64-none-elf/10.1.0/../../../../aarch64-none-elf/lib/pic\libg.a(lib_a-malign.o)
                              D:/githubRepos/code-mod-example/code-mod-framework/lib/libnx_min/nx/lib\libnx_min.a(hid.o) (memalign)
d:/devkitpro/devkita64/bin/../lib/gcc/aarch64-none-elf/10.1.0/../../../../aarch64-none-elf/lib/pic\libg.a(lib_a-malignr.o)
                              d:/devkitpro/devkita64/bin/../lib/gcc/aarch64-none-elf/10.1.0/../../../../aarch64-none-elf/lib/pic\libg.a(lib_a-malign.o) (_memalign_r)
d:/devkitpro/devkita64/bin/../lib/gcc/aarch64-none-elf/10.1.0/../../../../aarch64-none-elf/lib/pic\libg.a(lib_a-malloc.o)
                              D:/githubRepos/code-mod-example/code-mod-framework/lib/libnx_min/nx/lib\libnx_min.a(newlib.o) (malloc)
d:/devkitpro/devkita64/bin/../lib/gcc/aarch64-none-elf/10.1.0/../../../../aarch64-none-elf/lib/pic\libg.a(lib_a-mallocr.o)
                              d:/devkitpro/devkita64/bin/../lib/gcc/aarch64-none-elf/10.1.0/../../../../aarch64-none-elf/lib/pic\libg.a(lib_a-malignr.o) (_malloc_r)
d:/devkitpro/devkita64/bin/../lib/gcc/aarch64-none-elf/10.1.0/../../../../aarch64-none-elf/lib/pic\libg.a(lib_a-memcpy.o)
                              D:/githubRepos/code-mod-example/code-mod-framework/lib/libnx_min/nx/lib\libnx_min.a(fs_dev.o) (memcpy)
d:/devkitpro/devkita64/bin/../lib/gcc/aarch64-none-elf/10.1.0/../../../../aarch64-none-elf/lib/pic\libg.a(lib_a-memset.o)
                              D:/githubRepos/code-mod-example/code-mod-framework/lib/libnx_min/nx/lib\libnx_min.a(argv.o) (memset)
d:/devkitpro/devkita64/bin/../lib/gcc/aarch64-none-elf/10.1.0/../../../../aarch64-none-elf/lib/pic\libg.a(lib_a-mlock.o)
                              d:/devkitpro/devkita64/bin/../lib/gcc/aarch64-none-elf/10.1.0/../../../../aarch64-none-elf/lib/pic\libg.a(lib_a-malignr.o) (__malloc_lock)
d:/devkitpro/devkita64/bin/../lib/gcc/aarch64-none-elf/10.1.0/../../../../aarch64-none-elf/lib/pic\libg.a(lib_a-setenv.o)
                              D:/githubRepos/code-mod-example/code-mod-framework/lib/libnx_min/nx/lib\libnx_min.a(newlib.o) (setenv)
d:/devkitpro/devkita64/bin/../lib/gcc/aarch64-none-elf/10.1.0/../../../../aarch64-none-elf/lib/pic\libg.a(lib_a-setenv_r.o)
                              d:/devkitpro/devkita64/bin/../lib/gcc/aarch64-none-elf/10.1.0/../../../../aarch64-none-elf/lib/pic\libg.a(lib_a-setenv.o) (_setenv_r)
d:/devkitpro/devkita64/bin/../lib/gcc/aarch64-none-elf/10.1.0/../../../../aarch64-none-elf/lib/pic\libg.a(lib_a-strchr.o)
                              raygun_printer.o (strchr)
d:/devkitpro/devkita64/bin/../lib/gcc/aarch64-none-elf/10.1.0/../../../../aarch64-none-elf/lib/pic\libg.a(lib_a-strcpy.o)
                              D:/githubRepos/code-mod-example/code-mod-framework/lib/libnx_min/nx/lib\libnx_min.a(env.o) (strcpy)
d:/devkitpro/devkita64/bin/../lib/gcc/aarch64-none-elf/10.1.0/../../../../aarch64-none-elf/lib/pic\libg.a(lib_a-strlen.o)
                              acmd_wrapper.o (strlen)
d:/devkitpro/devkita64/bin/../lib/gcc/aarch64-none-elf/10.1.0/../../../../aarch64-none-elf/lib/pic\libg.a(lib_a-strncat.o)
                              D:/githubRepos/code-mod-example/code-mod-framework/lib/libnx_min/nx/lib\libnx_min.a(fs_dev.o) (strncat)
d:/devkitpro/devkita64/bin/../lib/gcc/aarch64-none-elf/10.1.0/../../../../aarch64-none-elf/lib/pic\libg.a(lib_a-strncmp.o)
                              saltysd_helper.o (strncmp)
d:/devkitpro/devkita64/bin/../lib/gcc/aarch64-none-elf/10.1.0/../../../../aarch64-none-elf/lib/pic\libg.a(lib_a-strncpy.o)
                              D:/githubRepos/code-mod-example/code-mod-framework/lib/libnx_min/nx/lib\libnx_min.a(argv.o) (strncpy)
d:/devkitpro/devkita64/bin/../lib/gcc/aarch64-none-elf/10.1.0/../../../../aarch64-none-elf/lib/pic\libg.a(lib_a-strnlen.o)
                              D:/githubRepos/code-mod-example/code-mod-framework/lib/libnx_min/nx/lib\libnx_min.a(fs_dev.o) (strnlen)
d:/devkitpro/devkita64/bin/../lib/gcc/aarch64-none-elf/10.1.0/../../../../aarch64-none-elf/lib/pic\libg.a(lib_a-toupper.o)
                              raygun_printer.o (toupper)
d:/devkitpro/devkita64/bin/../lib/gcc/aarch64-none-elf/10.1.0/../../../../aarch64-none-elf/lib/pic\libg.a(lib_a-vsnprintf.o)
                              raygun_printer.o (vsnprintf)
d:/devkitpro/devkita64/bin/../lib/gcc/aarch64-none-elf/10.1.0/../../../../aarch64-none-elf/lib/pic\libg.a(lib_a-__call_atexit.o)
                              d:/devkitpro/devkita64/bin/../lib/gcc/aarch64-none-elf/10.1.0/../../../../aarch64-none-elf/lib/pic\libg.a(lib_a-exit.o) (__call_exitprocs)
d:/devkitpro/devkita64/bin/../lib/gcc/aarch64-none-elf/10.1.0/../../../../aarch64-none-elf/lib/pic\libg.a(lib_a-environ.o)
                              d:/devkitpro/devkita64/bin/../lib/gcc/aarch64-none-elf/10.1.0/../../../../aarch64-none-elf/lib/pic\libg.a(lib_a-setenv_r.o) (environ)
d:/devkitpro/devkita64/bin/../lib/gcc/aarch64-none-elf/10.1.0/../../../../aarch64-none-elf/lib/pic\libg.a(lib_a-envlock.o)
                              d:/devkitpro/devkita64/bin/../lib/gcc/aarch64-none-elf/10.1.0/../../../../aarch64-none-elf/lib/pic\libg.a(lib_a-setenv_r.o) (__env_lock)
d:/devkitpro/devkita64/bin/../lib/gcc/aarch64-none-elf/10.1.0/../../../../aarch64-none-elf/lib/pic\libg.a(lib_a-freer.o)
                              d:/devkitpro/devkita64/bin/../lib/gcc/aarch64-none-elf/10.1.0/../../../../aarch64-none-elf/lib/pic\libg.a(lib_a-malignr.o) (_free_r)
d:/devkitpro/devkita64/bin/../lib/gcc/aarch64-none-elf/10.1.0/../../../../aarch64-none-elf/lib/pic\libg.a(lib_a-getenv_r.o)
                              d:/devkitpro/devkita64/bin/../lib/gcc/aarch64-none-elf/10.1.0/../../../../aarch64-none-elf/lib/pic\libg.a(lib_a-setenv_r.o) (_findenv_r)
d:/devkitpro/devkita64/bin/../lib/gcc/aarch64-none-elf/10.1.0/../../../../aarch64-none-elf/lib/pic\libg.a(lib_a-reallocr.o)
                              d:/devkitpro/devkita64/bin/../lib/gcc/aarch64-none-elf/10.1.0/../../../../aarch64-none-elf/lib/pic\libg.a(lib_a-setenv_r.o) (_realloc_r)
d:/devkitpro/devkita64/bin/../lib/gcc/aarch64-none-elf/10.1.0/../../../../aarch64-none-elf/lib/pic\libg.a(lib_a-svfprintf.o)
                              d:/devkitpro/devkita64/bin/../lib/gcc/aarch64-none-elf/10.1.0/../../../../aarch64-none-elf/lib/pic\libg.a(lib_a-vsnprintf.o) (_svfprintf_r)
d:/devkitpro/devkita64/bin/../lib/gcc/aarch64-none-elf/10.1.0/../../../../aarch64-none-elf/lib/pic\libg.a(lib_a-wcrtomb.o)
                              d:/devkitpro/devkita64/bin/../lib/gcc/aarch64-none-elf/10.1.0/../../../../aarch64-none-elf/lib/pic\libg.a(lib_a-svfprintf.o) (_wcrtomb_r)
d:/devkitpro/devkita64/bin/../lib/gcc/aarch64-none-elf/10.1.0/../../../../aarch64-none-elf/lib/pic\libg.a(lib_a-wcsrtombs.o)
                              d:/devkitpro/devkita64/bin/../lib/gcc/aarch64-none-elf/10.1.0/../../../../aarch64-none-elf/lib/pic\libg.a(lib_a-svfprintf.o) (_wcsrtombs_r)
d:/devkitpro/devkita64/bin/../lib/gcc/aarch64-none-elf/10.1.0/../../../../aarch64-none-elf/lib/pic\libg.a(lib_a-dtoa.o)
                              d:/devkitpro/devkita64/bin/../lib/gcc/aarch64-none-elf/10.1.0/../../../../aarch64-none-elf/lib/pic\libg.a(lib_a-svfprintf.o) (_dtoa_r)
d:/devkitpro/devkita64/bin/../lib/gcc/aarch64-none-elf/10.1.0/../../../../aarch64-none-elf/lib/pic\libg.a(lib_a-localeconv.o)
                              d:/devkitpro/devkita64/bin/../lib/gcc/aarch64-none-elf/10.1.0/../../../../aarch64-none-elf/lib/pic\libg.a(lib_a-svfprintf.o) (_localeconv_r)
d:/devkitpro/devkita64/bin/../lib/gcc/aarch64-none-elf/10.1.0/../../../../aarch64-none-elf/lib/pic\libg.a(lib_a-locale.o)
                              d:/devkitpro/devkita64/bin/../lib/gcc/aarch64-none-elf/10.1.0/../../../../aarch64-none-elf/lib/pic\libg.a(lib_a-svfprintf.o) (__global_locale)
d:/devkitpro/devkita64/bin/../lib/gcc/aarch64-none-elf/10.1.0/../../../../aarch64-none-elf/lib/pic\libg.a(lib_a-mbtowc_r.o)
                              d:/devkitpro/devkita64/bin/../lib/gcc/aarch64-none-elf/10.1.0/../../../../aarch64-none-elf/lib/pic\libg.a(lib_a-locale.o) (__ascii_mbtowc)
d:/devkitpro/devkita64/bin/../lib/gcc/aarch64-none-elf/10.1.0/../../../../aarch64-none-elf/lib/pic\libg.a(lib_a-memchr.o)
                              d:/devkitpro/devkita64/bin/../lib/gcc/aarch64-none-elf/10.1.0/../../../../aarch64-none-elf/lib/pic\libg.a(lib_a-svfprintf.o) (memchr)
d:/devkitpro/devkita64/bin/../lib/gcc/aarch64-none-elf/10.1.0/../../../../aarch64-none-elf/lib/pic\libg.a(lib_a-memmove.o)
                              d:/devkitpro/devkita64/bin/../lib/gcc/aarch64-none-elf/10.1.0/../../../../aarch64-none-elf/lib/pic\libg.a(lib_a-reallocr.o) (memmove)
d:/devkitpro/devkita64/bin/../lib/gcc/aarch64-none-elf/10.1.0/../../../../aarch64-none-elf/lib/pic\libg.a(lib_a-mprec.o)
                              d:/devkitpro/devkita64/bin/../lib/gcc/aarch64-none-elf/10.1.0/../../../../aarch64-none-elf/lib/pic\libg.a(lib_a-dtoa.o) (_Balloc)
d:/devkitpro/devkita64/bin/../lib/gcc/aarch64-none-elf/10.1.0/../../../../aarch64-none-elf/lib/pic\libg.a(lib_a-s_frexp.o)
                              d:/devkitpro/devkita64/bin/../lib/gcc/aarch64-none-elf/10.1.0/../../../../aarch64-none-elf/lib/pic\libg.a(lib_a-svfprintf.o) (frexp)
d:/devkitpro/devkita64/bin/../lib/gcc/aarch64-none-elf/10.1.0/../../../../aarch64-none-elf/lib/pic\libg.a(lib_a-strcasecmp.o)
                              d:/devkitpro/devkita64/bin/../lib/gcc/aarch64-none-elf/10.1.0/../../../../aarch64-none-elf/lib/pic\libg.a(lib_a-locale.o) (strcasecmp)
d:/devkitpro/devkita64/bin/../lib/gcc/aarch64-none-elf/10.1.0/../../../../aarch64-none-elf/lib/pic\libg.a(lib_a-strcat.o)
                              d:/devkitpro/devkita64/bin/../lib/gcc/aarch64-none-elf/10.1.0/../../../../aarch64-none-elf/lib/pic\libg.a(lib_a-locale.o) (strcat)
d:/devkitpro/devkita64/bin/../lib/gcc/aarch64-none-elf/10.1.0/../../../../aarch64-none-elf/lib/pic\libg.a(lib_a-strcmp.o)
                              d:/devkitpro/devkita64/bin/../lib/gcc/aarch64-none-elf/10.1.0/../../../../aarch64-none-elf/lib/pic\libg.a(lib_a-locale.o) (strcmp)
d:/devkitpro/devkita64/bin/../lib/gcc/aarch64-none-elf/10.1.0/../../../../aarch64-none-elf/lib/pic\libg.a(lib_a-strlcpy.o)
                              d:/devkitpro/devkita64/bin/../lib/gcc/aarch64-none-elf/10.1.0/../../../../aarch64-none-elf/lib/pic\libg.a(lib_a-locale.o) (strlcpy)
d:/devkitpro/devkita64/bin/../lib/gcc/aarch64-none-elf/10.1.0/../../../../aarch64-none-elf/lib/pic\libg.a(lib_a-strncasecmp.o)
                              d:/devkitpro/devkita64/bin/../lib/gcc/aarch64-none-elf/10.1.0/../../../../aarch64-none-elf/lib/pic\libg.a(lib_a-locale.o) (strncasecmp)
d:/devkitpro/devkita64/bin/../lib/gcc/aarch64-none-elf/10.1.0/../../../../aarch64-none-elf/lib/pic\libg.a(lib_a-strtol.o)
                              d:/devkitpro/devkita64/bin/../lib/gcc/aarch64-none-elf/10.1.0/../../../../aarch64-none-elf/lib/pic\libg.a(lib_a-locale.o) (strtol)
d:/devkitpro/devkita64/bin/../lib/gcc/aarch64-none-elf/10.1.0/../../../../aarch64-none-elf/lib/pic\libg.a(lib_a-svfiprintf.o)
                              d:/devkitpro/devkita64/bin/../lib/gcc/aarch64-none-elf/10.1.0/../../../../aarch64-none-elf/lib/pic\libg.a(lib_a-svfprintf.o) (__chclass)
d:/devkitpro/devkita64/bin/../lib/gcc/aarch64-none-elf/10.1.0/../../../../aarch64-none-elf/lib/pic\libg.a(lib_a-wcsnrtombs.o)
                              d:/devkitpro/devkita64/bin/../lib/gcc/aarch64-none-elf/10.1.0/../../../../aarch64-none-elf/lib/pic\libg.a(lib_a-wcsrtombs.o) (_wcsnrtombs_r)
d:/devkitpro/devkita64/bin/../lib/gcc/aarch64-none-elf/10.1.0/../../../../aarch64-none-elf/lib/pic\libg.a(lib_a-wctomb_r.o)
                              d:/devkitpro/devkita64/bin/../lib/gcc/aarch64-none-elf/10.1.0/../../../../aarch64-none-elf/lib/pic\libg.a(lib_a-locale.o) (__ascii_wctomb)
d:/devkitpro/devkita64/bin/../lib/gcc/aarch64-none-elf/10.1.0/../../../../aarch64-none-elf/lib/pic\libg.a(lib_a-assert.o)
                              d:/devkitpro/devkita64/bin/../lib/gcc/aarch64-none-elf/10.1.0/../../../../aarch64-none-elf/lib/pic\libg.a(lib_a-dtoa.o) (__assert_func)
d:/devkitpro/devkita64/bin/../lib/gcc/aarch64-none-elf/10.1.0/../../../../aarch64-none-elf/lib/pic\libg.a(lib_a-callocr.o)
                              d:/devkitpro/devkita64/bin/../lib/gcc/aarch64-none-elf/10.1.0/../../../../aarch64-none-elf/lib/pic\libg.a(lib_a-mprec.o) (_calloc_r)
d:/devkitpro/devkita64/bin/../lib/gcc/aarch64-none-elf/10.1.0/../../../../aarch64-none-elf/lib/pic\libg.a(lib_a-fiprintf.o)
                              d:/devkitpro/devkita64/bin/../lib/gcc/aarch64-none-elf/10.1.0/../../../../aarch64-none-elf/lib/pic\libg.a(lib_a-assert.o) (fiprintf)
d:/devkitpro/devkita64/bin/../lib/gcc/aarch64-none-elf/10.1.0/../../../../aarch64-none-elf/lib/pic\libg.a(lib_a-vfiprintf.o)
                              d:/devkitpro/devkita64/bin/../lib/gcc/aarch64-none-elf/10.1.0/../../../../aarch64-none-elf/lib/pic\libg.a(lib_a-fiprintf.o) (_vfiprintf_r)
d:/devkitpro/devkita64/bin/../lib/gcc/aarch64-none-elf/10.1.0/../../../../aarch64-none-elf/lib/pic\libg.a(lib_a-wsetup.o)
                              d:/devkitpro/devkita64/bin/../lib/gcc/aarch64-none-elf/10.1.0/../../../../aarch64-none-elf/lib/pic\libg.a(lib_a-vfiprintf.o) (__swsetup_r)
d:/devkitpro/devkita64/bin/../lib/gcc/aarch64-none-elf/10.1.0/../../../../aarch64-none-elf/lib/pic\libg.a(lib_a-abort.o)
                              d:/devkitpro/devkita64/bin/../lib/gcc/aarch64-none-elf/10.1.0/../../../../aarch64-none-elf/lib/pic\libg.a(lib_a-assert.o) (abort)
d:/devkitpro/devkita64/bin/../lib/gcc/aarch64-none-elf/10.1.0/../../../../aarch64-none-elf/lib/pic\libg.a(lib_a-fflush.o)
                              d:/devkitpro/devkita64/bin/../lib/gcc/aarch64-none-elf/10.1.0/../../../../aarch64-none-elf/lib/pic\libg.a(lib_a-vfiprintf.o) (_fflush_r)
d:/devkitpro/devkita64/bin/../lib/gcc/aarch64-none-elf/10.1.0/../../../../aarch64-none-elf/lib/pic\libg.a(lib_a-findfp.o)
                              d:/devkitpro/devkita64/bin/../lib/gcc/aarch64-none-elf/10.1.0/../../../../aarch64-none-elf/lib/pic\libg.a(lib_a-vfiprintf.o) (__sinit)
d:/devkitpro/devkita64/bin/../lib/gcc/aarch64-none-elf/10.1.0/../../../../aarch64-none-elf/lib/pic\libg.a(lib_a-fvwrite.o)
                              d:/devkitpro/devkita64/bin/../lib/gcc/aarch64-none-elf/10.1.0/../../../../aarch64-none-elf/lib/pic\libg.a(lib_a-vfiprintf.o) (__sfvwrite_r)
d:/devkitpro/devkita64/bin/../lib/gcc/aarch64-none-elf/10.1.0/../../../../aarch64-none-elf/lib/pic\libg.a(lib_a-fwalk.o)
                              d:/devkitpro/devkita64/bin/../lib/gcc/aarch64-none-elf/10.1.0/../../../../aarch64-none-elf/lib/pic\libg.a(lib_a-findfp.o) (_fwalk)
d:/devkitpro/devkita64/bin/../lib/gcc/aarch64-none-elf/10.1.0/../../../../aarch64-none-elf/lib/pic\libg.a(lib_a-makebuf.o)
                              d:/devkitpro/devkita64/bin/../lib/gcc/aarch64-none-elf/10.1.0/../../../../aarch64-none-elf/lib/pic\libg.a(lib_a-wsetup.o) (__smakebuf_r)
d:/devkitpro/devkita64/bin/../lib/gcc/aarch64-none-elf/10.1.0/../../../../aarch64-none-elf/lib/pic\libg.a(lib_a-signal.o)
                              d:/devkitpro/devkita64/bin/../lib/gcc/aarch64-none-elf/10.1.0/../../../../aarch64-none-elf/lib/pic\libg.a(lib_a-abort.o) (raise)
d:/devkitpro/devkita64/bin/../lib/gcc/aarch64-none-elf/10.1.0/../../../../aarch64-none-elf/lib/pic\libg.a(lib_a-stdio.o)
                              d:/devkitpro/devkita64/bin/../lib/gcc/aarch64-none-elf/10.1.0/../../../../aarch64-none-elf/lib/pic\libg.a(lib_a-findfp.o) (__sread)
d:/devkitpro/devkita64/bin/../lib/gcc/aarch64-none-elf/10.1.0/../../../../aarch64-none-elf/lib/pic\libg.a(lib_a-fclose.o)
                              d:/devkitpro/devkita64/bin/../lib/gcc/aarch64-none-elf/10.1.0/../../../../aarch64-none-elf/lib/pic\libg.a(lib_a-findfp.o) (_fclose_r)
d:/devkitpro/devkita64/bin/../lib/gcc/aarch64-none-elf/10.1.0/../../../../aarch64-none-elf/lib/pic\libsysbase.a(iosupport.o)
                              D:/githubRepos/code-mod-example/code-mod-framework/lib/libnx_min/nx/lib\libnx_min.a(fs_dev.o) (setDefaultDevice)
d:/devkitpro/devkita64/bin/../lib/gcc/aarch64-none-elf/10.1.0/../../../../aarch64-none-elf/lib/pic\libsysbase.a(close.o)
                              d:/devkitpro/devkita64/bin/../lib/gcc/aarch64-none-elf/10.1.0/../../../../aarch64-none-elf/lib/pic\libg.a(lib_a-stdio.o) (_close_r)
d:/devkitpro/devkita64/bin/../lib/gcc/aarch64-none-elf/10.1.0/../../../../aarch64-none-elf/lib/pic\libsysbase.a(fstat.o)
                              d:/devkitpro/devkita64/bin/../lib/gcc/aarch64-none-elf/10.1.0/../../../../aarch64-none-elf/lib/pic\libg.a(lib_a-makebuf.o) (_fstat_r)
d:/devkitpro/devkita64/bin/../lib/gcc/aarch64-none-elf/10.1.0/../../../../aarch64-none-elf/lib/pic\libsysbase.a(getpid.o)
                              d:/devkitpro/devkita64/bin/../lib/gcc/aarch64-none-elf/10.1.0/../../../../aarch64-none-elf/lib/pic\libg.a(lib_a-signal.o) (_getpid_r)
d:/devkitpro/devkita64/bin/../lib/gcc/aarch64-none-elf/10.1.0/../../../../aarch64-none-elf/lib/pic\libsysbase.a(isatty.o)
                              d:/devkitpro/devkita64/bin/../lib/gcc/aarch64-none-elf/10.1.0/../../../../aarch64-none-elf/lib/pic\libg.a(lib_a-makebuf.o) (_isatty_r)
d:/devkitpro/devkita64/bin/../lib/gcc/aarch64-none-elf/10.1.0/../../../../aarch64-none-elf/lib/pic\libsysbase.a(kill.o)
                              d:/devkitpro/devkita64/bin/../lib/gcc/aarch64-none-elf/10.1.0/../../../../aarch64-none-elf/lib/pic\libg.a(lib_a-signal.o) (_kill_r)
d:/devkitpro/devkita64/bin/../lib/gcc/aarch64-none-elf/10.1.0/../../../../aarch64-none-elf/lib/pic\libsysbase.a(lseek.o)
                              d:/devkitpro/devkita64/bin/../lib/gcc/aarch64-none-elf/10.1.0/../../../../aarch64-none-elf/lib/pic\libg.a(lib_a-stdio.o) (_lseek_r)
d:/devkitpro/devkita64/bin/../lib/gcc/aarch64-none-elf/10.1.0/../../../../aarch64-none-elf/lib/pic\libsysbase.a(read.o)
                              d:/devkitpro/devkita64/bin/../lib/gcc/aarch64-none-elf/10.1.0/../../../../aarch64-none-elf/lib/pic\libg.a(lib_a-stdio.o) (_read_r)
d:/devkitpro/devkita64/bin/../lib/gcc/aarch64-none-elf/10.1.0/../../../../aarch64-none-elf/lib/pic\libsysbase.a(sbrk.o)
                              d:/devkitpro/devkita64/bin/../lib/gcc/aarch64-none-elf/10.1.0/../../../../aarch64-none-elf/lib/pic\libg.a(lib_a-mallocr.o) (_sbrk_r)
d:/devkitpro/devkita64/bin/../lib/gcc/aarch64-none-elf/10.1.0/../../../../aarch64-none-elf/lib/pic\libsysbase.a(write.o)
                              d:/devkitpro/devkita64/bin/../lib/gcc/aarch64-none-elf/10.1.0/../../../../aarch64-none-elf/lib/pic\libg.a(lib_a-stdio.o) (_write_r)
d:/devkitpro/devkita64/bin/../lib/gcc/aarch64-none-elf/10.1.0/../../../../aarch64-none-elf/lib/pic\libsysbase.a(_exit.o)
                              d:/devkitpro/devkita64/bin/../lib/gcc/aarch64-none-elf/10.1.0/../../../../aarch64-none-elf/lib/pic\libg.a(lib_a-exit.o) (_exit)
d:/devkitpro/devkita64/bin/../lib/gcc/aarch64-none-elf/10.1.0/../../../../aarch64-none-elf/lib/pic\libsysbase.a(malloc_vars.o)
                              main.o (fake_heap_start)
d:/devkitpro/devkita64/bin/../lib/gcc/aarch64-none-elf/10.1.0/../../../../aarch64-none-elf/lib/pic\libsysbase.a(chdir.o)
                              D:/githubRepos/code-mod-example/code-mod-framework/lib/libnx_min/nx/lib\libnx_min.a(fs_dev.o) (chdir)
d:/devkitpro/devkita64/bin/../lib/gcc/aarch64-none-elf/10.1.0/../../../../aarch64-none-elf/lib/pic\libsysbase.a(locks.o)
                              D:/githubRepos/code-mod-example/code-mod-framework/lib/libnx_min/nx/lib\libnx_min.a(newlib.o) (timespec2nsec)
d:/devkitpro/devkita64/bin/../lib/gcc/aarch64-none-elf/10.1.0/../../../../aarch64-none-elf/lib/pic\libsysbase.a(handle_manager.o)
                              d:/devkitpro/devkita64/bin/../lib/gcc/aarch64-none-elf/10.1.0/../../../../aarch64-none-elf/lib/pic\libsysbase.a(close.o) (__release_handle)
d:/devkitpro/devkita64/bin/../lib/gcc/aarch64-none-elf/10.1.0/../../../../aarch64-none-elf/lib/pic\libsysbase.a(getreent.o)
                              D:/githubRepos/code-mod-example/code-mod-framework/lib/libnx_min/nx/lib\libnx_min.a(fs_dev.o) (__getreent)
d:/devkitpro/devkita64/bin/../lib/gcc/aarch64-none-elf/10.1.0/../../../../aarch64-none-elf/lib/pic\libsysbase.a(clocks.o)
                              d:/devkitpro/devkita64/bin/../lib/gcc/aarch64-none-elf/10.1.0/../../../../aarch64-none-elf/lib/pic\libsysbase.a(locks.o) (clock_gettime)
d:/devkitpro/devkita64/bin/../lib/gcc/aarch64-none-elf/10.1.0/pic\libgcc.a(trunctfdf2.o)
                              d:/devkitpro/devkita64/bin/../lib/gcc/aarch64-none-elf/10.1.0/../../../../aarch64-none-elf/lib/pic\libg.a(lib_a-svfprintf.o) (__trunctfdf2)
d:/devkitpro/devkita64/bin/../lib/gcc/aarch64-none-elf/10.1.0/pic\libgcc.a(sfp-exceptions.o)
                              d:/devkitpro/devkita64/bin/../lib/gcc/aarch64-none-elf/10.1.0/pic\libgcc.a(trunctfdf2.o) (__sfp_handle_exceptions)
d:/devkitpro/devkita64/bin/../lib/gcc/aarch64-none-elf/10.1.0/../../../../aarch64-none-elf/lib/pic\libg.a(lib_a-strrchr.o)
                              d:/devkitpro/devkita64/bin/../lib/gcc/aarch64-none-elf/10.1.0/../../../../aarch64-none-elf/lib/pic\libsysbase.a(chdir.o) (strrchr)

Allocating common symbols
Common symbol       size              file

__nx_exceptiondump  0x340             D:/githubRepos/code-mod-example/code-mod-framework/lib/libnx_min/nx/lib\libnx_min.a(init.o)
__system_argv       0x8               D:/githubRepos/code-mod-example/code-mod-framework/lib/libnx_min/nx/lib\libnx_min.a(argv.o)
__system_argc       0x4               D:/githubRepos/code-mod-example/code-mod-framework/lib/libnx_min/nx/lib\libnx_min.a(argv.o)
__stack_top         0x8               D:/githubRepos/code-mod-example/code-mod-framework/lib/libnx_min/nx/lib\libnx_min.a(init.o)

Discarded input sections

 .text          0x0000000000000000        0x0 d:/devkitpro/devkita64/bin/../lib/gcc/aarch64-none-elf/10.1.0/pic/crti.o
 .data          0x0000000000000000        0x0 d:/devkitpro/devkita64/bin/../lib/gcc/aarch64-none-elf/10.1.0/pic/crti.o
 .bss           0x0000000000000000        0x0 d:/devkitpro/devkita64/bin/../lib/gcc/aarch64-none-elf/10.1.0/pic/crti.o
 .text          0x0000000000000000        0x0 d:/devkitpro/devkita64/bin/../lib/gcc/aarch64-none-elf/10.1.0/pic/crtbegin.o
 .data          0x0000000000000000        0x0 d:/devkitpro/devkita64/bin/../lib/gcc/aarch64-none-elf/10.1.0/pic/crtbegin.o
 .bss           0x0000000000000000        0x0 d:/devkitpro/devkita64/bin/../lib/gcc/aarch64-none-elf/10.1.0/pic/crtbegin.o
 .data.__dso_handle
                0x0000000000000000        0x8 d:/devkitpro/devkita64/bin/../lib/gcc/aarch64-none-elf/10.1.0/pic/crtbegin.o
 .comment       0x0000000000000000       0x24 d:/devkitpro/devkita64/bin/../lib/gcc/aarch64-none-elf/10.1.0/pic/crtbegin.o
 .group         0x0000000000000000        0xc main.o
 .group         0x0000000000000000        0xc main.o
 .group         0x0000000000000000        0xc main.o
 .comment       0x0000000000000000       0x24 main.o
 .data          0x0000000000000000        0x0 acmd_wrapper.o
 .bss           0x0000000000000000        0x0 acmd_wrapper.o
 .comment       0x0000000000000000       0x24 acmd_wrapper.o
 .data          0x0000000000000000        0x0 saltysd_helper.o
 .comment       0x0000000000000000       0x24 saltysd_helper.o
 .data          0x0000000000000000        0x0 l2c_imports.o
 .bss           0x0000000000000000        0x0 l2c_imports.o
 .comment       0x0000000000000000       0x24 l2c_imports.o
 .data          0x0000000000000000        0x0 lua_bind_hash.o
 .bss           0x0000000000000000        0x0 lua_bind_hash.o
 .comment       0x0000000000000000       0x24 lua_bind_hash.o
 .data          0x0000000000000000        0x0 raygun_printer.o
 .bss           0x0000000000000000        0x0 raygun_printer.o
 .comment       0x0000000000000000       0x24 raygun_printer.o
 .text          0x0000000000000000        0x0 D:/githubRepos/code-mod-example/code-mod-framework/lib/libnx_min/nx/lib\libnx_min.a(switch_crt0.o)
 .data          0x0000000000000000        0x0 D:/githubRepos/code-mod-example/code-mod-framework/lib/libnx_min/nx/lib\libnx_min.a(switch_crt0.o)
 .bss           0x0000000000000000        0x0 D:/githubRepos/code-mod-example/code-mod-framework/lib/libnx_min/nx/lib\libnx_min.a(switch_crt0.o)
 .debug_line    0x0000000000000000       0xc3 D:/githubRepos/code-mod-example/code-mod-framework/lib/libnx_min/nx/lib\libnx_min.a(switch_crt0.o)
 .debug_info    0x0000000000000000       0x2e D:/githubRepos/code-mod-example/code-mod-framework/lib/libnx_min/nx/lib\libnx_min.a(switch_crt0.o)
 .debug_abbrev  0x0000000000000000       0x14 D:/githubRepos/code-mod-example/code-mod-framework/lib/libnx_min/nx/lib\libnx_min.a(switch_crt0.o)
 .debug_aranges
                0x0000000000000000       0x30 D:/githubRepos/code-mod-example/code-mod-framework/lib/libnx_min/nx/lib\libnx_min.a(switch_crt0.o)
 .debug_str     0x0000000000000000       0xc1 D:/githubRepos/code-mod-example/code-mod-framework/lib/libnx_min/nx/lib\libnx_min.a(switch_crt0.o)
 .text          0x0000000000000000        0x0 D:/githubRepos/code-mod-example/code-mod-framework/lib/libnx_min/nx/lib\libnx_min.a(exception.o)
 .data          0x0000000000000000        0x0 D:/githubRepos/code-mod-example/code-mod-framework/lib/libnx_min/nx/lib\libnx_min.a(exception.o)
 .bss           0x0000000000000000        0x0 D:/githubRepos/code-mod-example/code-mod-framework/lib/libnx_min/nx/lib\libnx_min.a(exception.o)
 .debug_line    0x0000000000000000      0x11e D:/githubRepos/code-mod-example/code-mod-framework/lib/libnx_min/nx/lib\libnx_min.a(exception.o)
 .debug_info    0x0000000000000000       0x22 D:/githubRepos/code-mod-example/code-mod-framework/lib/libnx_min/nx/lib\libnx_min.a(exception.o)
 .debug_abbrev  0x0000000000000000       0x12 D:/githubRepos/code-mod-example/code-mod-framework/lib/libnx_min/nx/lib\libnx_min.a(exception.o)
 .debug_aranges
                0x0000000000000000       0x40 D:/githubRepos/code-mod-example/code-mod-framework/lib/libnx_min/nx/lib\libnx_min.a(exception.o)
 .debug_str     0x0000000000000000       0xbf D:/githubRepos/code-mod-example/code-mod-framework/lib/libnx_min/nx/lib\libnx_min.a(exception.o)
 .debug_ranges  0x0000000000000000       0x40 D:/githubRepos/code-mod-example/code-mod-framework/lib/libnx_min/nx/lib\libnx_min.a(exception.o)
 .text          0x0000000000000000        0x0 D:/githubRepos/code-mod-example/code-mod-framework/lib/libnx_min/nx/lib\libnx_min.a(argv.o)
 .data          0x0000000000000000        0x0 D:/githubRepos/code-mod-example/code-mod-framework/lib/libnx_min/nx/lib\libnx_min.a(argv.o)
 .bss           0x0000000000000000        0x0 D:/githubRepos/code-mod-example/code-mod-framework/lib/libnx_min/nx/lib\libnx_min.a(argv.o)
 .debug_info    0x0000000000000000      0xe43 D:/githubRepos/code-mod-example/code-mod-framework/lib/libnx_min/nx/lib\libnx_min.a(argv.o)
 .debug_abbrev  0x0000000000000000      0x2de D:/githubRepos/code-mod-example/code-mod-framework/lib/libnx_min/nx/lib\libnx_min.a(argv.o)
 .debug_loc     0x0000000000000000      0x6a8 D:/githubRepos/code-mod-example/code-mod-framework/lib/libnx_min/nx/lib\libnx_min.a(argv.o)
 .debug_aranges
                0x0000000000000000       0x30 D:/githubRepos/code-mod-example/code-mod-framework/lib/libnx_min/nx/lib\libnx_min.a(argv.o)
 .debug_ranges  0x0000000000000000       0x20 D:/githubRepos/code-mod-example/code-mod-framework/lib/libnx_min/nx/lib\libnx_min.a(argv.o)
 .debug_line    0x0000000000000000      0x64d D:/githubRepos/code-mod-example/code-mod-framework/lib/libnx_min/nx/lib\libnx_min.a(argv.o)
 .debug_str     0x0000000000000000      0x874 D:/githubRepos/code-mod-example/code-mod-framework/lib/libnx_min/nx/lib\libnx_min.a(argv.o)
 .comment       0x0000000000000000       0x23 D:/githubRepos/code-mod-example/code-mod-framework/lib/libnx_min/nx/lib\libnx_min.a(argv.o)
 .text          0x0000000000000000        0x0 D:/githubRepos/code-mod-example/code-mod-framework/lib/libnx_min/nx/lib\libnx_min.a(env.o)
 .data          0x0000000000000000        0x0 D:/githubRepos/code-mod-example/code-mod-framework/lib/libnx_min/nx/lib\libnx_min.a(env.o)
 .bss           0x0000000000000000        0x0 D:/githubRepos/code-mod-example/code-mod-framework/lib/libnx_min/nx/lib\libnx_min.a(env.o)
 .debug_info    0x0000000000000000     0x111a D:/githubRepos/code-mod-example/code-mod-framework/lib/libnx_min/nx/lib\libnx_min.a(env.o)
 .debug_abbrev  0x0000000000000000      0x322 D:/githubRepos/code-mod-example/code-mod-framework/lib/libnx_min/nx/lib\libnx_min.a(env.o)
 .debug_loc     0x0000000000000000      0x362 D:/githubRepos/code-mod-example/code-mod-framework/lib/libnx_min/nx/lib\libnx_min.a(env.o)
 .debug_aranges
                0x0000000000000000      0x130 D:/githubRepos/code-mod-example/code-mod-framework/lib/libnx_min/nx/lib\libnx_min.a(env.o)
 .debug_ranges  0x0000000000000000      0x120 D:/githubRepos/code-mod-example/code-mod-framework/lib/libnx_min/nx/lib\libnx_min.a(env.o)
 .debug_line    0x0000000000000000      0x6fe D:/githubRepos/code-mod-example/code-mod-framework/lib/libnx_min/nx/lib\libnx_min.a(env.o)
 .debug_str     0x0000000000000000     0x107e D:/githubRepos/code-mod-example/code-mod-framework/lib/libnx_min/nx/lib\libnx_min.a(env.o)
 .comment       0x0000000000000000       0x23 D:/githubRepos/code-mod-example/code-mod-framework/lib/libnx_min/nx/lib\libnx_min.a(env.o)
 .text          0x0000000000000000        0x0 D:/githubRepos/code-mod-example/code-mod-framework/lib/libnx_min/nx/lib\libnx_min.a(init.o)
 .data          0x0000000000000000        0x0 D:/githubRepos/code-mod-example/code-mod-framework/lib/libnx_min/nx/lib\libnx_min.a(init.o)
 .bss           0x0000000000000000        0x0 D:/githubRepos/code-mod-example/code-mod-framework/lib/libnx_min/nx/lib\libnx_min.a(init.o)
 .text.__libnx_init
                0x0000000000000000       0x28 D:/githubRepos/code-mod-example/code-mod-framework/lib/libnx_min/nx/lib\libnx_min.a(init.o)
 .text.__libnx_exit
                0x0000000000000000       0x20 D:/githubRepos/code-mod-example/code-mod-framework/lib/libnx_min/nx/lib\libnx_min.a(init.o)
 .debug_info    0x0000000000000000      0xce2 D:/githubRepos/code-mod-example/code-mod-framework/lib/libnx_min/nx/lib\libnx_min.a(init.o)
 .debug_abbrev  0x0000000000000000      0x2a1 D:/githubRepos/code-mod-example/code-mod-framework/lib/libnx_min/nx/lib\libnx_min.a(init.o)
 .debug_loc     0x0000000000000000      0x34a D:/githubRepos/code-mod-example/code-mod-framework/lib/libnx_min/nx/lib\libnx_min.a(init.o)
 .debug_aranges
                0x0000000000000000       0x70 D:/githubRepos/code-mod-example/code-mod-framework/lib/libnx_min/nx/lib\libnx_min.a(init.o)
 .debug_ranges  0x0000000000000000       0xa0 D:/githubRepos/code-mod-example/code-mod-framework/lib/libnx_min/nx/lib\libnx_min.a(init.o)
 .debug_line    0x0000000000000000      0x685 D:/githubRepos/code-mod-example/code-mod-framework/lib/libnx_min/nx/lib\libnx_min.a(init.o)
 .debug_str     0x0000000000000000      0xf19 D:/githubRepos/code-mod-example/code-mod-framework/lib/libnx_min/nx/lib\libnx_min.a(init.o)
 .comment       0x0000000000000000       0x23 D:/githubRepos/code-mod-example/code-mod-framework/lib/libnx_min/nx/lib\libnx_min.a(init.o)
 .text          0x0000000000000000        0x0 D:/githubRepos/code-mod-example/code-mod-framework/lib/libnx_min/nx/lib\libnx_min.a(hosversion.o)
 .data          0x0000000000000000        0x0 D:/githubRepos/code-mod-example/code-mod-framework/lib/libnx_min/nx/lib\libnx_min.a(hosversion.o)
 .bss           0x0000000000000000        0x0 D:/githubRepos/code-mod-example/code-mod-framework/lib/libnx_min/nx/lib\libnx_min.a(hosversion.o)
 .debug_info    0x0000000000000000      0x103 D:/githubRepos/code-mod-example/code-mod-framework/lib/libnx_min/nx/lib\libnx_min.a(hosversion.o)
 .debug_abbrev  0x0000000000000000       0xa2 D:/githubRepos/code-mod-example/code-mod-framework/lib/libnx_min/nx/lib\libnx_min.a(hosversion.o)
 .debug_aranges
                0x0000000000000000       0x40 D:/githubRepos/code-mod-example/code-mod-framework/lib/libnx_min/nx/lib\libnx_min.a(hosversion.o)
 .debug_ranges  0x0000000000000000       0x30 D:/githubRepos/code-mod-example/code-mod-framework/lib/libnx_min/nx/lib\libnx_min.a(hosversion.o)
 .debug_line    0x0000000000000000      0x1b0 D:/githubRepos/code-mod-example/code-mod-framework/lib/libnx_min/nx/lib\libnx_min.a(hosversion.o)
 .debug_str     0x0000000000000000      0x234 D:/githubRepos/code-mod-example/code-mod-framework/lib/libnx_min/nx/lib\libnx_min.a(hosversion.o)
 .comment       0x0000000000000000       0x23 D:/githubRepos/code-mod-example/code-mod-framework/lib/libnx_min/nx/lib\libnx_min.a(hosversion.o)
 .text          0x0000000000000000        0x0 D:/githubRepos/code-mod-example/code-mod-framework/lib/libnx_min/nx/lib\libnx_min.a(dynamic.o)
 .data          0x0000000000000000        0x0 D:/githubRepos/code-mod-example/code-mod-framework/lib/libnx_min/nx/lib\libnx_min.a(dynamic.o)
 .bss           0x0000000000000000        0x0 D:/githubRepos/code-mod-example/code-mod-framework/lib/libnx_min/nx/lib\libnx_min.a(dynamic.o)
 .debug_info    0x0000000000000000      0x3c9 D:/githubRepos/code-mod-example/code-mod-framework/lib/libnx_min/nx/lib\libnx_min.a(dynamic.o)
 .debug_abbrev  0x0000000000000000      0x16b D:/githubRepos/code-mod-example/code-mod-framework/lib/libnx_min/nx/lib\libnx_min.a(dynamic.o)
 .debug_loc     0x0000000000000000      0x1b8 D:/githubRepos/code-mod-example/code-mod-framework/lib/libnx_min/nx/lib\libnx_min.a(dynamic.o)
 .debug_aranges
                0x0000000000000000       0x30 D:/githubRepos/code-mod-example/code-mod-framework/lib/libnx_min/nx/lib\libnx_min.a(dynamic.o)
 .debug_ranges  0x0000000000000000       0x20 D:/githubRepos/code-mod-example/code-mod-framework/lib/libnx_min/nx/lib\libnx_min.a(dynamic.o)
 .debug_line    0x0000000000000000      0x2df D:/githubRepos/code-mod-example/code-mod-framework/lib/libnx_min/nx/lib\libnx_min.a(dynamic.o)
 .debug_str     0x0000000000000000      0x837 D:/githubRepos/code-mod-example/code-mod-framework/lib/libnx_min/nx/lib\libnx_min.a(dynamic.o)
 .comment       0x0000000000000000       0x23 D:/githubRepos/code-mod-example/code-mod-framework/lib/libnx_min/nx/lib\libnx_min.a(dynamic.o)
 .text          0x0000000000000000        0x0 D:/githubRepos/code-mod-example/code-mod-framework/lib/libnx_min/nx/lib\libnx_min.a(fs_dev.o)
 .data          0x0000000000000000        0x0 D:/githubRepos/code-mod-example/code-mod-framework/lib/libnx_min/nx/lib\libnx_min.a(fs_dev.o)
 .bss           0x0000000000000000        0x0 D:/githubRepos/code-mod-example/code-mod-framework/lib/libnx_min/nx/lib\libnx_min.a(fs_dev.o)
 .debug_info    0x0000000000000000     0x411e D:/githubRepos/code-mod-example/code-mod-framework/lib/libnx_min/nx/lib\libnx_min.a(fs_dev.o)
 .debug_abbrev  0x0000000000000000      0x5b7 D:/githubRepos/code-mod-example/code-mod-framework/lib/libnx_min/nx/lib\libnx_min.a(fs_dev.o)
 .debug_loc     0x0000000000000000     0x4332 D:/githubRepos/code-mod-example/code-mod-framework/lib/libnx_min/nx/lib\libnx_min.a(fs_dev.o)
 .debug_aranges
                0x0000000000000000      0x2a0 D:/githubRepos/code-mod-example/code-mod-framework/lib/libnx_min/nx/lib\libnx_min.a(fs_dev.o)
 .debug_ranges  0x0000000000000000      0x670 D:/githubRepos/code-mod-example/code-mod-framework/lib/libnx_min/nx/lib\libnx_min.a(fs_dev.o)
 .debug_line    0x0000000000000000     0x1a73 D:/githubRepos/code-mod-example/code-mod-framework/lib/libnx_min/nx/lib\libnx_min.a(fs_dev.o)
 .debug_str     0x0000000000000000     0x1939 D:/githubRepos/code-mod-example/code-mod-framework/lib/libnx_min/nx/lib\libnx_min.a(fs_dev.o)
 .comment       0x0000000000000000       0x23 D:/githubRepos/code-mod-example/code-mod-framework/lib/libnx_min/nx/lib\libnx_min.a(fs_dev.o)
 .text          0x0000000000000000        0x0 D:/githubRepos/code-mod-example/code-mod-framework/lib/libnx_min/nx/lib\libnx_min.a(decode_utf8.o)
 .data          0x0000000000000000        0x0 D:/githubRepos/code-mod-example/code-mod-framework/lib/libnx_min/nx/lib\libnx_min.a(decode_utf8.o)
 .bss           0x0000000000000000        0x0 D:/githubRepos/code-mod-example/code-mod-framework/lib/libnx_min/nx/lib\libnx_min.a(decode_utf8.o)
 .debug_info    0x0000000000000000      0x170 D:/githubRepos/code-mod-example/code-mod-framework/lib/libnx_min/nx/lib\libnx_min.a(decode_utf8.o)
 .debug_abbrev  0x0000000000000000       0x9e D:/githubRepos/code-mod-example/code-mod-framework/lib/libnx_min/nx/lib\libnx_min.a(decode_utf8.o)
 .debug_loc     0x0000000000000000      0x334 D:/githubRepos/code-mod-example/code-mod-framework/lib/libnx_min/nx/lib\libnx_min.a(decode_utf8.o)
 .debug_aranges
                0x0000000000000000       0x30 D:/githubRepos/code-mod-example/code-mod-framework/lib/libnx_min/nx/lib\libnx_min.a(decode_utf8.o)
 .debug_ranges  0x0000000000000000       0x20 D:/githubRepos/code-mod-example/code-mod-framework/lib/libnx_min/nx/lib\libnx_min.a(decode_utf8.o)
 .debug_line    0x0000000000000000      0x28a D:/githubRepos/code-mod-example/code-mod-framework/lib/libnx_min/nx/lib\libnx_min.a(decode_utf8.o)
 .debug_str     0x0000000000000000      0x259 D:/githubRepos/code-mod-example/code-mod-framework/lib/libnx_min/nx/lib\libnx_min.a(decode_utf8.o)
 .comment       0x0000000000000000       0x23 D:/githubRepos/code-mod-example/code-mod-framework/lib/libnx_min/nx/lib\libnx_min.a(decode_utf8.o)
 .text          0x0000000000000000        0x0 D:/githubRepos/code-mod-example/code-mod-framework/lib/libnx_min/nx/lib\libnx_min.a(svc.o)
 .data          0x0000000000000000        0x0 D:/githubRepos/code-mod-example/code-mod-framework/lib/libnx_min/nx/lib\libnx_min.a(svc.o)
 .bss           0x0000000000000000        0x0 D:/githubRepos/code-mod-example/code-mod-framework/lib/libnx_min/nx/lib\libnx_min.a(svc.o)
 .debug_line    0x0000000000000000      0x92d D:/githubRepos/code-mod-example/code-mod-framework/lib/libnx_min/nx/lib\libnx_min.a(svc.o)
 .debug_info    0x0000000000000000       0x22 D:/githubRepos/code-mod-example/code-mod-framework/lib/libnx_min/nx/lib\libnx_min.a(svc.o)
 .debug_abbrev  0x0000000000000000       0x12 D:/githubRepos/code-mod-example/code-mod-framework/lib/libnx_min/nx/lib\libnx_min.a(svc.o)
 .debug_aranges
                0x0000000000000000      0x660 D:/githubRepos/code-mod-example/code-mod-framework/lib/libnx_min/nx/lib\libnx_min.a(svc.o)
 .debug_str     0x0000000000000000       0xb8 D:/githubRepos/code-mod-example/code-mod-framework/lib/libnx_min/nx/lib\libnx_min.a(svc.o)
 .debug_ranges  0x0000000000000000      0x660 D:/githubRepos/code-mod-example/code-mod-framework/lib/libnx_min/nx/lib\libnx_min.a(svc.o)
 .text          0x0000000000000000        0x0 D:/githubRepos/code-mod-example/code-mod-framework/lib/libnx_min/nx/lib\libnx_min.a(readtp.o)
 .data          0x0000000000000000        0x0 D:/githubRepos/code-mod-example/code-mod-framework/lib/libnx_min/nx/lib\libnx_min.a(readtp.o)
 .bss           0x0000000000000000        0x0 D:/githubRepos/code-mod-example/code-mod-framework/lib/libnx_min/nx/lib\libnx_min.a(readtp.o)
 .debug_line    0x0000000000000000       0x93 D:/githubRepos/code-mod-example/code-mod-framework/lib/libnx_min/nx/lib\libnx_min.a(readtp.o)
 .debug_info    0x0000000000000000       0x2e D:/githubRepos/code-mod-example/code-mod-framework/lib/libnx_min/nx/lib\libnx_min.a(readtp.o)
 .debug_abbrev  0x0000000000000000       0x14 D:/githubRepos/code-mod-example/code-mod-framework/lib/libnx_min/nx/lib\libnx_min.a(readtp.o)
 .debug_aranges
                0x0000000000000000       0x30 D:/githubRepos/code-mod-example/code-mod-framework/lib/libnx_min/nx/lib\libnx_min.a(readtp.o)
 .debug_str     0x0000000000000000       0xbc D:/githubRepos/code-mod-example/code-mod-framework/lib/libnx_min/nx/lib\libnx_min.a(readtp.o)
 .text          0x0000000000000000        0x0 D:/githubRepos/code-mod-example/code-mod-framework/lib/libnx_min/nx/lib\libnx_min.a(virtmem.o)
 .data          0x0000000000000000        0x0 D:/githubRepos/code-mod-example/code-mod-framework/lib/libnx_min/nx/lib\libnx_min.a(virtmem.o)
 .bss           0x0000000000000000        0x0 D:/githubRepos/code-mod-example/code-mod-framework/lib/libnx_min/nx/lib\libnx_min.a(virtmem.o)
 .debug_info    0x0000000000000000      0xb52 D:/githubRepos/code-mod-example/code-mod-framework/lib/libnx_min/nx/lib\libnx_min.a(virtmem.o)
 .debug_abbrev  0x0000000000000000      0x2cf D:/githubRepos/code-mod-example/code-mod-framework/lib/libnx_min/nx/lib\libnx_min.a(virtmem.o)
 .debug_loc     0x0000000000000000      0x668 D:/githubRepos/code-mod-example/code-mod-framework/lib/libnx_min/nx/lib\libnx_min.a(virtmem.o)
 .debug_aranges
                0x0000000000000000       0x70 D:/githubRepos/code-mod-example/code-mod-framework/lib/libnx_min/nx/lib\libnx_min.a(virtmem.o)
 .debug_ranges  0x0000000000000000      0x170 D:/githubRepos/code-mod-example/code-mod-framework/lib/libnx_min/nx/lib\libnx_min.a(virtmem.o)
 .debug_line    0x0000000000000000      0x60f D:/githubRepos/code-mod-example/code-mod-framework/lib/libnx_min/nx/lib\libnx_min.a(virtmem.o)
 .debug_str     0x0000000000000000      0xbfa D:/githubRepos/code-mod-example/code-mod-framework/lib/libnx_min/nx/lib\libnx_min.a(virtmem.o)
 .comment       0x0000000000000000       0x23 D:/githubRepos/code-mod-example/code-mod-framework/lib/libnx_min/nx/lib\libnx_min.a(virtmem.o)
 .text          0x0000000000000000        0x0 D:/githubRepos/code-mod-example/code-mod-framework/lib/libnx_min/nx/lib\libnx_min.a(mutex.o)
 .data          0x0000000000000000        0x0 D:/githubRepos/code-mod-example/code-mod-framework/lib/libnx_min/nx/lib\libnx_min.a(mutex.o)
 .bss           0x0000000000000000        0x0 D:/githubRepos/code-mod-example/code-mod-framework/lib/libnx_min/nx/lib\libnx_min.a(mutex.o)
 .debug_info    0x0000000000000000      0x782 D:/githubRepos/code-mod-example/code-mod-framework/lib/libnx_min/nx/lib\libnx_min.a(mutex.o)
 .debug_abbrev  0x0000000000000000      0x1fe D:/githubRepos/code-mod-example/code-mod-framework/lib/libnx_min/nx/lib\libnx_min.a(mutex.o)
 .debug_loc     0x0000000000000000      0x3d1 D:/githubRepos/code-mod-example/code-mod-framework/lib/libnx_min/nx/lib\libnx_min.a(mutex.o)
 .debug_aranges
                0x0000000000000000       0x80 D:/githubRepos/code-mod-example/code-mod-framework/lib/libnx_min/nx/lib\libnx_min.a(mutex.o)
 .debug_ranges  0x0000000000000000      0x470 D:/githubRepos/code-mod-example/code-mod-framework/lib/libnx_min/nx/lib\libnx_min.a(mutex.o)
 .debug_line    0x0000000000000000      0x5e6 D:/githubRepos/code-mod-example/code-mod-framework/lib/libnx_min/nx/lib\libnx_min.a(mutex.o)
 .debug_str     0x0000000000000000      0x3a4 D:/githubRepos/code-mod-example/code-mod-framework/lib/libnx_min/nx/lib\libnx_min.a(mutex.o)
 .comment       0x0000000000000000       0x23 D:/githubRepos/code-mod-example/code-mod-framework/lib/libnx_min/nx/lib\libnx_min.a(mutex.o)
 .text          0x0000000000000000        0x0 D:/githubRepos/code-mod-example/code-mod-framework/lib/libnx_min/nx/lib\libnx_min.a(fs.o)
 .data          0x0000000000000000        0x0 D:/githubRepos/code-mod-example/code-mod-framework/lib/libnx_min/nx/lib\libnx_min.a(fs.o)
 .bss           0x0000000000000000        0x0 D:/githubRepos/code-mod-example/code-mod-framework/lib/libnx_min/nx/lib\libnx_min.a(fs.o)
 .debug_info    0x0000000000000000    0x148db D:/githubRepos/code-mod-example/code-mod-framework/lib/libnx_min/nx/lib\libnx_min.a(fs.o)
 .debug_abbrev  0x0000000000000000      0x6cd D:/githubRepos/code-mod-example/code-mod-framework/lib/libnx_min/nx/lib\libnx_min.a(fs.o)
 .debug_loc     0x0000000000000000    0x23e9b D:/githubRepos/code-mod-example/code-mod-framework/lib/libnx_min/nx/lib\libnx_min.a(fs.o)
 .debug_aranges
                0x0000000000000000      0x4a0 D:/githubRepos/code-mod-example/code-mod-framework/lib/libnx_min/nx/lib\libnx_min.a(fs.o)
 .debug_ranges  0x0000000000000000     0xb5b0 D:/githubRepos/code-mod-example/code-mod-framework/lib/libnx_min/nx/lib\libnx_min.a(fs.o)
 .debug_line    0x0000000000000000     0xb1b2 D:/githubRepos/code-mod-example/code-mod-framework/lib/libnx_min/nx/lib\libnx_min.a(fs.o)
 .debug_str     0x0000000000000000     0x23e6 D:/githubRepos/code-mod-example/code-mod-framework/lib/libnx_min/nx/lib\libnx_min.a(fs.o)
 .comment       0x0000000000000000       0x23 D:/githubRepos/code-mod-example/code-mod-framework/lib/libnx_min/nx/lib\libnx_min.a(fs.o)
 .text          0x0000000000000000        0x0 D:/githubRepos/code-mod-example/code-mod-framework/lib/libnx_min/nx/lib\libnx_min.a(set.o)
 .data          0x0000000000000000        0x0 D:/githubRepos/code-mod-example/code-mod-framework/lib/libnx_min/nx/lib\libnx_min.a(set.o)
 .bss           0x0000000000000000        0x0 D:/githubRepos/code-mod-example/code-mod-framework/lib/libnx_min/nx/lib\libnx_min.a(set.o)
 .debug_info    0x0000000000000000     0x692b D:/githubRepos/code-mod-example/code-mod-framework/lib/libnx_min/nx/lib\libnx_min.a(set.o)
 .debug_abbrev  0x0000000000000000      0x5eb D:/githubRepos/code-mod-example/code-mod-framework/lib/libnx_min/nx/lib\libnx_min.a(set.o)
 .debug_loc     0x0000000000000000     0xc88f D:/githubRepos/code-mod-example/code-mod-framework/lib/libnx_min/nx/lib\libnx_min.a(set.o)
 .debug_aranges
                0x0000000000000000      0x1d0 D:/githubRepos/code-mod-example/code-mod-framework/lib/libnx_min/nx/lib\libnx_min.a(set.o)
 .debug_ranges  0x0000000000000000     0x25f0 D:/githubRepos/code-mod-example/code-mod-framework/lib/libnx_min/nx/lib\libnx_min.a(set.o)
 .debug_line    0x0000000000000000     0x3101 D:/githubRepos/code-mod-example/code-mod-framework/lib/libnx_min/nx/lib\libnx_min.a(set.o)
 .debug_str     0x0000000000000000     0x1b23 D:/githubRepos/code-mod-example/code-mod-framework/lib/libnx_min/nx/lib\libnx_min.a(set.o)
 .comment       0x0000000000000000       0x23 D:/githubRepos/code-mod-example/code-mod-framework/lib/libnx_min/nx/lib\libnx_min.a(set.o)
 .text          0x0000000000000000        0x0 D:/githubRepos/code-mod-example/code-mod-framework/lib/libnx_min/nx/lib\libnx_min.a(fatal.o)
 .data          0x0000000000000000        0x0 D:/githubRepos/code-mod-example/code-mod-framework/lib/libnx_min/nx/lib\libnx_min.a(fatal.o)
 .bss           0x0000000000000000        0x0 D:/githubRepos/code-mod-example/code-mod-framework/lib/libnx_min/nx/lib\libnx_min.a(fatal.o)
 .debug_info    0x0000000000000000      0xd6e D:/githubRepos/code-mod-example/code-mod-framework/lib/libnx_min/nx/lib\libnx_min.a(fatal.o)
 .debug_abbrev  0x0000000000000000      0x393 D:/githubRepos/code-mod-example/code-mod-framework/lib/libnx_min/nx/lib\libnx_min.a(fatal.o)
 .debug_loc     0x0000000000000000      0x895 D:/githubRepos/code-mod-example/code-mod-framework/lib/libnx_min/nx/lib\libnx_min.a(fatal.o)
 .debug_aranges
                0x0000000000000000       0x60 D:/githubRepos/code-mod-example/code-mod-framework/lib/libnx_min/nx/lib\libnx_min.a(fatal.o)
 .debug_ranges  0x0000000000000000      0x240 D:/githubRepos/code-mod-example/code-mod-framework/lib/libnx_min/nx/lib\libnx_min.a(fatal.o)
 .debug_line    0x0000000000000000      0x5c9 D:/githubRepos/code-mod-example/code-mod-framework/lib/libnx_min/nx/lib\libnx_min.a(fatal.o)
 .debug_str     0x0000000000000000      0x763 D:/githubRepos/code-mod-example/code-mod-framework/lib/libnx_min/nx/lib\libnx_min.a(fatal.o)
 .comment       0x0000000000000000       0x23 D:/githubRepos/code-mod-example/code-mod-framework/lib/libnx_min/nx/lib\libnx_min.a(fatal.o)
 .text          0x0000000000000000        0x0 D:/githubRepos/code-mod-example/code-mod-framework/lib/libnx_min/nx/lib\libnx_min.a(sm.o)
 .data          0x0000000000000000        0x0 D:/githubRepos/code-mod-example/code-mod-framework/lib/libnx_min/nx/lib\libnx_min.a(sm.o)
 .bss           0x0000000000000000        0x0 D:/githubRepos/code-mod-example/code-mod-framework/lib/libnx_min/nx/lib\libnx_min.a(sm.o)
 .debug_info    0x0000000000000000     0x34eb D:/githubRepos/code-mod-example/code-mod-framework/lib/libnx_min/nx/lib\libnx_min.a(sm.o)
 .debug_abbrev  0x0000000000000000      0x4c4 D:/githubRepos/code-mod-example/code-mod-framework/lib/libnx_min/nx/lib\libnx_min.a(sm.o)
 .debug_loc     0x0000000000000000     0x5a55 D:/githubRepos/code-mod-example/code-mod-framework/lib/libnx_min/nx/lib\libnx_min.a(sm.o)
 .debug_aranges
                0x0000000000000000       0xe0 D:/githubRepos/code-mod-example/code-mod-framework/lib/libnx_min/nx/lib\libnx_min.a(sm.o)
 .debug_ranges  0x0000000000000000     0x1160 D:/githubRepos/code-mod-example/code-mod-framework/lib/libnx_min/nx/lib\libnx_min.a(sm.o)
 .debug_line    0x0000000000000000     0x175a D:/githubRepos/code-mod-example/code-mod-framework/lib/libnx_min/nx/lib\libnx_min.a(sm.o)
 .debug_str     0x0000000000000000     0x150b D:/githubRepos/code-mod-example/code-mod-framework/lib/libnx_min/nx/lib\libnx_min.a(sm.o)
 .comment       0x0000000000000000       0x23 D:/githubRepos/code-mod-example/code-mod-framework/lib/libnx_min/nx/lib\libnx_min.a(sm.o)
 .text          0x0000000000000000        0x0 D:/githubRepos/code-mod-example/code-mod-framework/lib/libnx_min/nx/lib\libnx_min.a(hid.o)
 .data          0x0000000000000000        0x0 D:/githubRepos/code-mod-example/code-mod-framework/lib/libnx_min/nx/lib\libnx_min.a(hid.o)
 .bss           0x0000000000000000        0x0 D:/githubRepos/code-mod-example/code-mod-framework/lib/libnx_min/nx/lib\libnx_min.a(hid.o)
 .debug_info    0x0000000000000000     0xb19f D:/githubRepos/code-mod-example/code-mod-framework/lib/libnx_min/nx/lib\libnx_min.a(hid.o)
 .debug_abbrev  0x0000000000000000      0x743 D:/githubRepos/code-mod-example/code-mod-framework/lib/libnx_min/nx/lib\libnx_min.a(hid.o)
 .debug_loc     0x0000000000000000    0x1192e D:/githubRepos/code-mod-example/code-mod-framework/lib/libnx_min/nx/lib\libnx_min.a(hid.o)
 .debug_aranges
                0x0000000000000000      0x450 D:/githubRepos/code-mod-example/code-mod-framework/lib/libnx_min/nx/lib\libnx_min.a(hid.o)
 .debug_ranges  0x0000000000000000     0x3140 D:/githubRepos/code-mod-example/code-mod-framework/lib/libnx_min/nx/lib\libnx_min.a(hid.o)
 .debug_line    0x0000000000000000     0x5037 D:/githubRepos/code-mod-example/code-mod-framework/lib/libnx_min/nx/lib\libnx_min.a(hid.o)
 .debug_str     0x0000000000000000     0x338c D:/githubRepos/code-mod-example/code-mod-framework/lib/libnx_min/nx/lib\libnx_min.a(hid.o)
 .comment       0x0000000000000000       0x23 D:/githubRepos/code-mod-example/code-mod-framework/lib/libnx_min/nx/lib\libnx_min.a(hid.o)
 .text          0x0000000000000000        0x0 D:/githubRepos/code-mod-example/code-mod-framework/lib/libnx_min/nx/lib\libnx_min.a(time.o)
 .data          0x0000000000000000        0x0 D:/githubRepos/code-mod-example/code-mod-framework/lib/libnx_min/nx/lib\libnx_min.a(time.o)
 .bss           0x0000000000000000        0x0 D:/githubRepos/code-mod-example/code-mod-framework/lib/libnx_min/nx/lib\libnx_min.a(time.o)
 .debug_info    0x0000000000000000     0x2f93 D:/githubRepos/code-mod-example/code-mod-framework/lib/libnx_min/nx/lib\libnx_min.a(time.o)
 .debug_abbrev  0x0000000000000000      0x544 D:/githubRepos/code-mod-example/code-mod-framework/lib/libnx_min/nx/lib\libnx_min.a(time.o)
 .debug_loc     0x0000000000000000     0x36b5 D:/githubRepos/code-mod-example/code-mod-framework/lib/libnx_min/nx/lib\libnx_min.a(time.o)
 .debug_aranges
                0x0000000000000000       0xa0 D:/githubRepos/code-mod-example/code-mod-framework/lib/libnx_min/nx/lib\libnx_min.a(time.o)
 .debug_ranges  0x0000000000000000      0xa70 D:/githubRepos/code-mod-example/code-mod-framework/lib/libnx_min/nx/lib\libnx_min.a(time.o)
 .debug_line    0x0000000000000000     0x10ba D:/githubRepos/code-mod-example/code-mod-framework/lib/libnx_min/nx/lib\libnx_min.a(time.o)
 .debug_str     0x0000000000000000     0x151b D:/githubRepos/code-mod-example/code-mod-framework/lib/libnx_min/nx/lib\libnx_min.a(time.o)
 .comment       0x0000000000000000       0x23 D:/githubRepos/code-mod-example/code-mod-framework/lib/libnx_min/nx/lib\libnx_min.a(time.o)
 .text          0x0000000000000000        0x0 D:/githubRepos/code-mod-example/code-mod-framework/lib/libnx_min/nx/lib\libnx_min.a(applet.o)
 .data          0x0000000000000000        0x0 D:/githubRepos/code-mod-example/code-mod-framework/lib/libnx_min/nx/lib\libnx_min.a(applet.o)
 .bss           0x0000000000000000        0x0 D:/githubRepos/code-mod-example/code-mod-framework/lib/libnx_min/nx/lib\libnx_min.a(applet.o)
 .data.__nx_applet_type
                0x0000000000000000        0x4 D:/githubRepos/code-mod-example/code-mod-framework/lib/libnx_min/nx/lib\libnx_min.a(applet.o)
 .debug_info    0x0000000000000000    0x1572b D:/githubRepos/code-mod-example/code-mod-framework/lib/libnx_min/nx/lib\libnx_min.a(applet.o)
 .debug_abbrev  0x0000000000000000      0x76e D:/githubRepos/code-mod-example/code-mod-framework/lib/libnx_min/nx/lib\libnx_min.a(applet.o)
 .debug_loc     0x0000000000000000    0x20f04 D:/githubRepos/code-mod-example/code-mod-framework/lib/libnx_min/nx/lib\libnx_min.a(applet.o)
 .debug_aranges
                0x0000000000000000      0x730 D:/githubRepos/code-mod-example/code-mod-framework/lib/libnx_min/nx/lib\libnx_min.a(applet.o)
 .debug_ranges  0x0000000000000000     0x8b40 D:/githubRepos/code-mod-example/code-mod-framework/lib/libnx_min/nx/lib\libnx_min.a(applet.o)
 .debug_line    0x0000000000000000     0xadb0 D:/githubRepos/code-mod-example/code-mod-framework/lib/libnx_min/nx/lib\libnx_min.a(applet.o)
 .debug_str     0x0000000000000000     0x30c0 D:/githubRepos/code-mod-example/code-mod-framework/lib/libnx_min/nx/lib\libnx_min.a(applet.o)
 .comment       0x0000000000000000       0x23 D:/githubRepos/code-mod-example/code-mod-framework/lib/libnx_min/nx/lib\libnx_min.a(applet.o)
 .text          0x0000000000000000        0x0 D:/githubRepos/code-mod-example/code-mod-framework/lib/libnx_min/nx/lib\libnx_min.a(newlib.o)
 .data          0x0000000000000000        0x0 D:/githubRepos/code-mod-example/code-mod-framework/lib/libnx_min/nx/lib\libnx_min.a(newlib.o)
 .bss           0x0000000000000000        0x0 D:/githubRepos/code-mod-example/code-mod-framework/lib/libnx_min/nx/lib\libnx_min.a(newlib.o)
 .debug_info    0x0000000000000000     0x2bc2 D:/githubRepos/code-mod-example/code-mod-framework/lib/libnx_min/nx/lib\libnx_min.a(newlib.o)
 .debug_abbrev  0x0000000000000000      0x571 D:/githubRepos/code-mod-example/code-mod-framework/lib/libnx_min/nx/lib\libnx_min.a(newlib.o)
 .debug_loc     0x0000000000000000     0x192e D:/githubRepos/code-mod-example/code-mod-framework/lib/libnx_min/nx/lib\libnx_min.a(newlib.o)
 .debug_aranges
                0x0000000000000000      0x1f0 D:/githubRepos/code-mod-example/code-mod-framework/lib/libnx_min/nx/lib\libnx_min.a(newlib.o)
 .debug_ranges  0x0000000000000000      0x4e0 D:/githubRepos/code-mod-example/code-mod-framework/lib/libnx_min/nx/lib\libnx_min.a(newlib.o)
 .debug_line    0x0000000000000000     0x10e9 D:/githubRepos/code-mod-example/code-mod-framework/lib/libnx_min/nx/lib\libnx_min.a(newlib.o)
 .debug_str     0x0000000000000000     0x18ae D:/githubRepos/code-mod-example/code-mod-framework/lib/libnx_min/nx/lib\libnx_min.a(newlib.o)
 .comment       0x0000000000000000       0x23 D:/githubRepos/code-mod-example/code-mod-framework/lib/libnx_min/nx/lib\libnx_min.a(newlib.o)
 .text          0x0000000000000000        0x0 D:/githubRepos/code-mod-example/code-mod-framework/lib/libnx_min/nx/lib\libnx_min.a(thread.o)
 .data          0x0000000000000000        0x0 D:/githubRepos/code-mod-example/code-mod-framework/lib/libnx_min/nx/lib\libnx_min.a(thread.o)
 .bss           0x0000000000000000        0x0 D:/githubRepos/code-mod-example/code-mod-framework/lib/libnx_min/nx/lib\libnx_min.a(thread.o)
 .debug_info    0x0000000000000000     0x1a68 D:/githubRepos/code-mod-example/code-mod-framework/lib/libnx_min/nx/lib\libnx_min.a(thread.o)
 .debug_abbrev  0x0000000000000000      0x492 D:/githubRepos/code-mod-example/code-mod-framework/lib/libnx_min/nx/lib\libnx_min.a(thread.o)
 .debug_loc     0x0000000000000000      0xbd2 D:/githubRepos/code-mod-example/code-mod-framework/lib/libnx_min/nx/lib\libnx_min.a(thread.o)
 .debug_aranges
                0x0000000000000000      0x100 D:/githubRepos/code-mod-example/code-mod-framework/lib/libnx_min/nx/lib\libnx_min.a(thread.o)
 .debug_ranges  0x0000000000000000      0x320 D:/githubRepos/code-mod-example/code-mod-framework/lib/libnx_min/nx/lib\libnx_min.a(thread.o)
 .debug_line    0x0000000000000000      0xa2c D:/githubRepos/code-mod-example/code-mod-framework/lib/libnx_min/nx/lib\libnx_min.a(thread.o)
 .debug_str     0x0000000000000000      0xfee D:/githubRepos/code-mod-example/code-mod-framework/lib/libnx_min/nx/lib\libnx_min.a(thread.o)
 .comment       0x0000000000000000       0x23 D:/githubRepos/code-mod-example/code-mod-framework/lib/libnx_min/nx/lib\libnx_min.a(thread.o)
 .text          0x0000000000000000        0x0 D:/githubRepos/code-mod-example/code-mod-framework/lib/libnx_min/nx/lib\libnx_min.a(condvar.o)
 .data          0x0000000000000000        0x0 D:/githubRepos/code-mod-example/code-mod-framework/lib/libnx_min/nx/lib\libnx_min.a(condvar.o)
 .bss           0x0000000000000000        0x0 D:/githubRepos/code-mod-example/code-mod-framework/lib/libnx_min/nx/lib\libnx_min.a(condvar.o)
 .debug_info    0x0000000000000000      0x396 D:/githubRepos/code-mod-example/code-mod-framework/lib/libnx_min/nx/lib\libnx_min.a(condvar.o)
 .debug_abbrev  0x0000000000000000      0x1aa D:/githubRepos/code-mod-example/code-mod-framework/lib/libnx_min/nx/lib\libnx_min.a(condvar.o)
 .debug_loc     0x0000000000000000      0x1c1 D:/githubRepos/code-mod-example/code-mod-framework/lib/libnx_min/nx/lib\libnx_min.a(condvar.o)
 .debug_aranges
                0x0000000000000000       0x30 D:/githubRepos/code-mod-example/code-mod-framework/lib/libnx_min/nx/lib\libnx_min.a(condvar.o)
 .debug_ranges  0x0000000000000000       0x60 D:/githubRepos/code-mod-example/code-mod-framework/lib/libnx_min/nx/lib\libnx_min.a(condvar.o)
 .debug_line    0x0000000000000000      0x398 D:/githubRepos/code-mod-example/code-mod-framework/lib/libnx_min/nx/lib\libnx_min.a(condvar.o)
 .debug_str     0x0000000000000000      0x350 D:/githubRepos/code-mod-example/code-mod-framework/lib/libnx_min/nx/lib\libnx_min.a(condvar.o)
 .comment       0x0000000000000000       0x23 D:/githubRepos/code-mod-example/code-mod-framework/lib/libnx_min/nx/lib\libnx_min.a(condvar.o)
 .text          0x0000000000000000        0x0 D:/githubRepos/code-mod-example/code-mod-framework/lib/libnx_min/nx/lib\libnx_min.a(event.o)
 .data          0x0000000000000000        0x0 D:/githubRepos/code-mod-example/code-mod-framework/lib/libnx_min/nx/lib\libnx_min.a(event.o)
 .bss           0x0000000000000000        0x0 D:/githubRepos/code-mod-example/code-mod-framework/lib/libnx_min/nx/lib\libnx_min.a(event.o)
 .debug_info    0x0000000000000000      0x702 D:/githubRepos/code-mod-example/code-mod-framework/lib/libnx_min/nx/lib\libnx_min.a(event.o)
 .debug_abbrev  0x0000000000000000      0x28b D:/githubRepos/code-mod-example/code-mod-framework/lib/libnx_min/nx/lib\libnx_min.a(event.o)
 .debug_loc     0x0000000000000000      0x2e3 D:/githubRepos/code-mod-example/code-mod-framework/lib/libnx_min/nx/lib\libnx_min.a(event.o)
 .debug_aranges
                0x0000000000000000       0x80 D:/githubRepos/code-mod-example/code-mod-framework/lib/libnx_min/nx/lib\libnx_min.a(event.o)
 .debug_ranges  0x0000000000000000       0xe0 D:/githubRepos/code-mod-example/code-mod-framework/lib/libnx_min/nx/lib\libnx_min.a(event.o)
 .debug_line    0x0000000000000000      0x3a9 D:/githubRepos/code-mod-example/code-mod-framework/lib/libnx_min/nx/lib\libnx_min.a(event.o)
 .debug_str     0x0000000000000000      0x950 D:/githubRepos/code-mod-example/code-mod-framework/lib/libnx_min/nx/lib\libnx_min.a(event.o)
 .comment       0x0000000000000000       0x23 D:/githubRepos/code-mod-example/code-mod-framework/lib/libnx_min/nx/lib\libnx_min.a(event.o)
 .text          0x0000000000000000        0x0 D:/githubRepos/code-mod-example/code-mod-framework/lib/libnx_min/nx/lib\libnx_min.a(tmem.o)
 .data          0x0000000000000000        0x0 D:/githubRepos/code-mod-example/code-mod-framework/lib/libnx_min/nx/lib\libnx_min.a(tmem.o)
 .bss           0x0000000000000000        0x0 D:/githubRepos/code-mod-example/code-mod-framework/lib/libnx_min/nx/lib\libnx_min.a(tmem.o)
 .debug_info    0x0000000000000000     0x100a D:/githubRepos/code-mod-example/code-mod-framework/lib/libnx_min/nx/lib\libnx_min.a(tmem.o)
 .debug_abbrev  0x0000000000000000      0x3a2 D:/githubRepos/code-mod-example/code-mod-framework/lib/libnx_min/nx/lib\libnx_min.a(tmem.o)
 .debug_loc     0x0000000000000000      0x6e2 D:/githubRepos/code-mod-example/code-mod-framework/lib/libnx_min/nx/lib\libnx_min.a(tmem.o)
 .debug_aranges
                0x0000000000000000       0x80 D:/githubRepos/code-mod-example/code-mod-framework/lib/libnx_min/nx/lib\libnx_min.a(tmem.o)
 .debug_ranges  0x0000000000000000       0xf0 D:/githubRepos/code-mod-example/code-mod-framework/lib/libnx_min/nx/lib\libnx_min.a(tmem.o)
 .debug_line    0x0000000000000000      0x507 D:/githubRepos/code-mod-example/code-mod-framework/lib/libnx_min/nx/lib\libnx_min.a(tmem.o)
 .debug_str     0x0000000000000000      0xd4f D:/githubRepos/code-mod-example/code-mod-framework/lib/libnx_min/nx/lib\libnx_min.a(tmem.o)
 .comment       0x0000000000000000       0x23 D:/githubRepos/code-mod-example/code-mod-framework/lib/libnx_min/nx/lib\libnx_min.a(tmem.o)
 .text          0x0000000000000000        0x0 D:/githubRepos/code-mod-example/code-mod-framework/lib/libnx_min/nx/lib\libnx_min.a(rwlock.o)
 .data          0x0000000000000000        0x0 D:/githubRepos/code-mod-example/code-mod-framework/lib/libnx_min/nx/lib\libnx_min.a(rwlock.o)
 .bss           0x0000000000000000        0x0 D:/githubRepos/code-mod-example/code-mod-framework/lib/libnx_min/nx/lib\libnx_min.a(rwlock.o)
 .debug_info    0x0000000000000000      0x659 D:/githubRepos/code-mod-example/code-mod-framework/lib/libnx_min/nx/lib\libnx_min.a(rwlock.o)
 .debug_abbrev  0x0000000000000000      0x1cc D:/githubRepos/code-mod-example/code-mod-framework/lib/libnx_min/nx/lib\libnx_min.a(rwlock.o)
 .debug_loc     0x0000000000000000      0x4ab D:/githubRepos/code-mod-example/code-mod-framework/lib/libnx_min/nx/lib\libnx_min.a(rwlock.o)
 .debug_aranges
                0x0000000000000000       0x70 D:/githubRepos/code-mod-example/code-mod-framework/lib/libnx_min/nx/lib\libnx_min.a(rwlock.o)
 .debug_ranges  0x0000000000000000      0x130 D:/githubRepos/code-mod-example/code-mod-framework/lib/libnx_min/nx/lib\libnx_min.a(rwlock.o)
 .debug_line    0x0000000000000000      0x3eb D:/githubRepos/code-mod-example/code-mod-framework/lib/libnx_min/nx/lib\libnx_min.a(rwlock.o)
 .debug_str     0x0000000000000000      0x346 D:/githubRepos/code-mod-example/code-mod-framework/lib/libnx_min/nx/lib\libnx_min.a(rwlock.o)
 .comment       0x0000000000000000       0x23 D:/githubRepos/code-mod-example/code-mod-framework/lib/libnx_min/nx/lib\libnx_min.a(rwlock.o)
 .text          0x0000000000000000        0x0 D:/githubRepos/code-mod-example/code-mod-framework/lib/libnx_min/nx/lib\libnx_min.a(wait.o)
 .data          0x0000000000000000        0x0 D:/githubRepos/code-mod-example/code-mod-framework/lib/libnx_min/nx/lib\libnx_min.a(wait.o)
 .bss           0x0000000000000000        0x0 D:/githubRepos/code-mod-example/code-mod-framework/lib/libnx_min/nx/lib\libnx_min.a(wait.o)
 .debug_info    0x0000000000000000      0xe46 D:/githubRepos/code-mod-example/code-mod-framework/lib/libnx_min/nx/lib\libnx_min.a(wait.o)
 .debug_abbrev  0x0000000000000000      0x35d D:/githubRepos/code-mod-example/code-mod-framework/lib/libnx_min/nx/lib\libnx_min.a(wait.o)
 .debug_loc     0x0000000000000000      0xeb6 D:/githubRepos/code-mod-example/code-mod-framework/lib/libnx_min/nx/lib\libnx_min.a(wait.o)
 .debug_aranges
                0x0000000000000000       0x60 D:/githubRepos/code-mod-example/code-mod-framework/lib/libnx_min/nx/lib\libnx_min.a(wait.o)
 .debug_ranges  0x0000000000000000      0x290 D:/githubRepos/code-mod-example/code-mod-framework/lib/libnx_min/nx/lib\libnx_min.a(wait.o)
 .debug_line    0x0000000000000000      0x7bb D:/githubRepos/code-mod-example/code-mod-framework/lib/libnx_min/nx/lib\libnx_min.a(wait.o)
 .debug_str     0x0000000000000000      0xa07 D:/githubRepos/code-mod-example/code-mod-framework/lib/libnx_min/nx/lib\libnx_min.a(wait.o)
 .comment       0x0000000000000000       0x23 D:/githubRepos/code-mod-example/code-mod-framework/lib/libnx_min/nx/lib\libnx_min.a(wait.o)
 .text          0x0000000000000000        0x0 D:/githubRepos/code-mod-example/code-mod-framework/lib/libnx_min/nx/lib\libnx_min.a(shmem.o)
 .data          0x0000000000000000        0x0 D:/githubRepos/code-mod-example/code-mod-framework/lib/libnx_min/nx/lib\libnx_min.a(shmem.o)
 .bss           0x0000000000000000        0x0 D:/githubRepos/code-mod-example/code-mod-framework/lib/libnx_min/nx/lib\libnx_min.a(shmem.o)
 .debug_info    0x0000000000000000      0xe91 D:/githubRepos/code-mod-example/code-mod-framework/lib/libnx_min/nx/lib\libnx_min.a(shmem.o)
 .debug_abbrev  0x0000000000000000      0x377 D:/githubRepos/code-mod-example/code-mod-framework/lib/libnx_min/nx/lib\libnx_min.a(shmem.o)
 .debug_loc     0x0000000000000000      0x442 D:/githubRepos/code-mod-example/code-mod-framework/lib/libnx_min/nx/lib\libnx_min.a(shmem.o)
 .debug_aranges
                0x0000000000000000       0x70 D:/githubRepos/code-mod-example/code-mod-framework/lib/libnx_min/nx/lib\libnx_min.a(shmem.o)
 .debug_ranges  0x0000000000000000       0xe0 D:/githubRepos/code-mod-example/code-mod-framework/lib/libnx_min/nx/lib\libnx_min.a(shmem.o)
 .debug_line    0x0000000000000000      0x401 D:/githubRepos/code-mod-example/code-mod-framework/lib/libnx_min/nx/lib\libnx_min.a(shmem.o)
 .debug_str     0x0000000000000000      0xc9a D:/githubRepos/code-mod-example/code-mod-framework/lib/libnx_min/nx/lib\libnx_min.a(shmem.o)
 .comment       0x0000000000000000       0x23 D:/githubRepos/code-mod-example/code-mod-framework/lib/libnx_min/nx/lib\libnx_min.a(shmem.o)
 .text          0x0000000000000000        0x0 D:/githubRepos/code-mod-example/code-mod-framework/lib/libnx_min/nx/lib\libnx_min.a(detect.o)
 .data          0x0000000000000000        0x0 D:/githubRepos/code-mod-example/code-mod-framework/lib/libnx_min/nx/lib\libnx_min.a(detect.o)
 .bss           0x0000000000000000        0x0 D:/githubRepos/code-mod-example/code-mod-framework/lib/libnx_min/nx/lib\libnx_min.a(detect.o)
 .debug_info    0x0000000000000000     0x103a D:/githubRepos/code-mod-example/code-mod-framework/lib/libnx_min/nx/lib\libnx_min.a(detect.o)
 .debug_abbrev  0x0000000000000000      0x31e D:/githubRepos/code-mod-example/code-mod-framework/lib/libnx_min/nx/lib\libnx_min.a(detect.o)
 .debug_loc     0x0000000000000000       0xb3 D:/githubRepos/code-mod-example/code-mod-framework/lib/libnx_min/nx/lib\libnx_min.a(detect.o)
 .debug_aranges
                0x0000000000000000       0x60 D:/githubRepos/code-mod-example/code-mod-framework/lib/libnx_min/nx/lib\libnx_min.a(detect.o)
 .debug_ranges  0x0000000000000000      0x130 D:/githubRepos/code-mod-example/code-mod-framework/lib/libnx_min/nx/lib\libnx_min.a(detect.o)
 .debug_line    0x0000000000000000      0x48e D:/githubRepos/code-mod-example/code-mod-framework/lib/libnx_min/nx/lib\libnx_min.a(detect.o)
 .debug_str     0x0000000000000000      0xea7 D:/githubRepos/code-mod-example/code-mod-framework/lib/libnx_min/nx/lib\libnx_min.a(detect.o)
 .comment       0x0000000000000000       0x23 D:/githubRepos/code-mod-example/code-mod-framework/lib/libnx_min/nx/lib\libnx_min.a(detect.o)
 .text          0x0000000000000000        0x0 D:/githubRepos/code-mod-example/code-mod-framework/lib/libnx_min/nx/lib\libnx_min.a(apm.o)
 .data          0x0000000000000000        0x0 D:/githubRepos/code-mod-example/code-mod-framework/lib/libnx_min/nx/lib\libnx_min.a(apm.o)
 .bss           0x0000000000000000        0x0 D:/githubRepos/code-mod-example/code-mod-framework/lib/libnx_min/nx/lib\libnx_min.a(apm.o)
 .debug_info    0x0000000000000000     0x1b13 D:/githubRepos/code-mod-example/code-mod-framework/lib/libnx_min/nx/lib\libnx_min.a(apm.o)
 .debug_abbrev  0x0000000000000000      0x442 D:/githubRepos/code-mod-example/code-mod-framework/lib/libnx_min/nx/lib\libnx_min.a(apm.o)
 .debug_loc     0x0000000000000000     0x239a D:/githubRepos/code-mod-example/code-mod-framework/lib/libnx_min/nx/lib\libnx_min.a(apm.o)
 .debug_aranges
                0x0000000000000000       0x80 D:/githubRepos/code-mod-example/code-mod-framework/lib/libnx_min/nx/lib\libnx_min.a(apm.o)
 .debug_ranges  0x0000000000000000      0x630 D:/githubRepos/code-mod-example/code-mod-framework/lib/libnx_min/nx/lib\libnx_min.a(apm.o)
 .debug_line    0x0000000000000000      0xbdc D:/githubRepos/code-mod-example/code-mod-framework/lib/libnx_min/nx/lib\libnx_min.a(apm.o)
 .debug_str     0x0000000000000000      0xa22 D:/githubRepos/code-mod-example/code-mod-framework/lib/libnx_min/nx/lib\libnx_min.a(apm.o)
 .comment       0x0000000000000000       0x23 D:/githubRepos/code-mod-example/code-mod-framework/lib/libnx_min/nx/lib\libnx_min.a(apm.o)
 .text          0x0000000000000000        0x0 d:/devkitpro/devkita64/bin/../lib/gcc/aarch64-none-elf/10.1.0/../../../../aarch64-none-elf/lib/pic\libg.a(lib_a-bsearch.o)
 .data          0x0000000000000000        0x0 d:/devkitpro/devkita64/bin/../lib/gcc/aarch64-none-elf/10.1.0/../../../../aarch64-none-elf/lib/pic\libg.a(lib_a-bsearch.o)
 .bss           0x0000000000000000        0x0 d:/devkitpro/devkita64/bin/../lib/gcc/aarch64-none-elf/10.1.0/../../../../aarch64-none-elf/lib/pic\libg.a(lib_a-bsearch.o)
 .comment       0x0000000000000000       0x24 d:/devkitpro/devkita64/bin/../lib/gcc/aarch64-none-elf/10.1.0/../../../../aarch64-none-elf/lib/pic\libg.a(lib_a-bsearch.o)
 .text          0x0000000000000000        0x0 d:/devkitpro/devkita64/bin/../lib/gcc/aarch64-none-elf/10.1.0/../../../../aarch64-none-elf/lib/pic\libg.a(lib_a-ctype_.o)
 .data          0x0000000000000000        0x0 d:/devkitpro/devkita64/bin/../lib/gcc/aarch64-none-elf/10.1.0/../../../../aarch64-none-elf/lib/pic\libg.a(lib_a-ctype_.o)
 .bss           0x0000000000000000        0x0 d:/devkitpro/devkita64/bin/../lib/gcc/aarch64-none-elf/10.1.0/../../../../aarch64-none-elf/lib/pic\libg.a(lib_a-ctype_.o)
 .comment       0x0000000000000000       0x24 d:/devkitpro/devkita64/bin/../lib/gcc/aarch64-none-elf/10.1.0/../../../../aarch64-none-elf/lib/pic\libg.a(lib_a-ctype_.o)
 .text          0x0000000000000000        0x0 d:/devkitpro/devkita64/bin/../lib/gcc/aarch64-none-elf/10.1.0/../../../../aarch64-none-elf/lib/pic\libg.a(lib_a-errno.o)
 .data          0x0000000000000000        0x0 d:/devkitpro/devkita64/bin/../lib/gcc/aarch64-none-elf/10.1.0/../../../../aarch64-none-elf/lib/pic\libg.a(lib_a-errno.o)
 .bss           0x0000000000000000        0x0 d:/devkitpro/devkita64/bin/../lib/gcc/aarch64-none-elf/10.1.0/../../../../aarch64-none-elf/lib/pic\libg.a(lib_a-errno.o)
 .comment       0x0000000000000000       0x24 d:/devkitpro/devkita64/bin/../lib/gcc/aarch64-none-elf/10.1.0/../../../../aarch64-none-elf/lib/pic\libg.a(lib_a-errno.o)
 .text          0x0000000000000000        0x0 d:/devkitpro/devkita64/bin/../lib/gcc/aarch64-none-elf/10.1.0/../../../../aarch64-none-elf/lib/pic\libg.a(lib_a-exit.o)
 .data          0x0000000000000000        0x0 d:/devkitpro/devkita64/bin/../lib/gcc/aarch64-none-elf/10.1.0/../../../../aarch64-none-elf/lib/pic\libg.a(lib_a-exit.o)
 .bss           0x0000000000000000        0x0 d:/devkitpro/devkita64/bin/../lib/gcc/aarch64-none-elf/10.1.0/../../../../aarch64-none-elf/lib/pic\libg.a(lib_a-exit.o)
 .comment       0x0000000000000000       0x24 d:/devkitpro/devkita64/bin/../lib/gcc/aarch64-none-elf/10.1.0/../../../../aarch64-none-elf/lib/pic\libg.a(lib_a-exit.o)
 .text          0x0000000000000000        0x0 d:/devkitpro/devkita64/bin/../lib/gcc/aarch64-none-elf/10.1.0/../../../../aarch64-none-elf/lib/pic\libg.a(lib_a-fini.o)
 .data          0x0000000000000000        0x0 d:/devkitpro/devkita64/bin/../lib/gcc/aarch64-none-elf/10.1.0/../../../../aarch64-none-elf/lib/pic\libg.a(lib_a-fini.o)
 .bss           0x0000000000000000        0x0 d:/devkitpro/devkita64/bin/../lib/gcc/aarch64-none-elf/10.1.0/../../../../aarch64-none-elf/lib/pic\libg.a(lib_a-fini.o)
 .comment       0x0000000000000000       0x24 d:/devkitpro/devkita64/bin/../lib/gcc/aarch64-none-elf/10.1.0/../../../../aarch64-none-elf/lib/pic\libg.a(lib_a-fini.o)
 .text          0x0000000000000000        0x0 d:/devkitpro/devkita64/bin/../lib/gcc/aarch64-none-elf/10.1.0/../../../../aarch64-none-elf/lib/pic\libg.a(lib_a-impure.o)
 .data          0x0000000000000000        0x0 d:/devkitpro/devkita64/bin/../lib/gcc/aarch64-none-elf/10.1.0/../../../../aarch64-none-elf/lib/pic\libg.a(lib_a-impure.o)
 .bss           0x0000000000000000        0x0 d:/devkitpro/devkita64/bin/../lib/gcc/aarch64-none-elf/10.1.0/../../../../aarch64-none-elf/lib/pic\libg.a(lib_a-impure.o)
 .comment       0x0000000000000000       0x24 d:/devkitpro/devkita64/bin/../lib/gcc/aarch64-none-elf/10.1.0/../../../../aarch64-none-elf/lib/pic\libg.a(lib_a-impure.o)
 .text          0x0000000000000000        0x0 d:/devkitpro/devkita64/bin/../lib/gcc/aarch64-none-elf/10.1.0/../../../../aarch64-none-elf/lib/pic\libg.a(lib_a-init.o)
 .data          0x0000000000000000        0x0 d:/devkitpro/devkita64/bin/../lib/gcc/aarch64-none-elf/10.1.0/../../../../aarch64-none-elf/lib/pic\libg.a(lib_a-init.o)
 .bss           0x0000000000000000        0x0 d:/devkitpro/devkita64/bin/../lib/gcc/aarch64-none-elf/10.1.0/../../../../aarch64-none-elf/lib/pic\libg.a(lib_a-init.o)
 .comment       0x0000000000000000       0x24 d:/devkitpro/devkita64/bin/../lib/gcc/aarch64-none-elf/10.1.0/../../../../aarch64-none-elf/lib/pic\libg.a(lib_a-init.o)
 .text          0x0000000000000000        0x0 d:/devkitpro/devkita64/bin/../lib/gcc/aarch64-none-elf/10.1.0/../../../../aarch64-none-elf/lib/pic\libg.a(lib_a-malign.o)
 .data          0x0000000000000000        0x0 d:/devkitpro/devkita64/bin/../lib/gcc/aarch64-none-elf/10.1.0/../../../../aarch64-none-elf/lib/pic\libg.a(lib_a-malign.o)
 .bss           0x0000000000000000        0x0 d:/devkitpro/devkita64/bin/../lib/gcc/aarch64-none-elf/10.1.0/../../../../aarch64-none-elf/lib/pic\libg.a(lib_a-malign.o)
 .comment       0x0000000000000000       0x24 d:/devkitpro/devkita64/bin/../lib/gcc/aarch64-none-elf/10.1.0/../../../../aarch64-none-elf/lib/pic\libg.a(lib_a-malign.o)
 .text          0x0000000000000000        0x0 d:/devkitpro/devkita64/bin/../lib/gcc/aarch64-none-elf/10.1.0/../../../../aarch64-none-elf/lib/pic\libg.a(lib_a-malignr.o)
 .data          0x0000000000000000        0x0 d:/devkitpro/devkita64/bin/../lib/gcc/aarch64-none-elf/10.1.0/../../../../aarch64-none-elf/lib/pic\libg.a(lib_a-malignr.o)
 .bss           0x0000000000000000        0x0 d:/devkitpro/devkita64/bin/../lib/gcc/aarch64-none-elf/10.1.0/../../../../aarch64-none-elf/lib/pic\libg.a(lib_a-malignr.o)
 .comment       0x0000000000000000       0x24 d:/devkitpro/devkita64/bin/../lib/gcc/aarch64-none-elf/10.1.0/../../../../aarch64-none-elf/lib/pic\libg.a(lib_a-malignr.o)
 .text          0x0000000000000000        0x0 d:/devkitpro/devkita64/bin/../lib/gcc/aarch64-none-elf/10.1.0/../../../../aarch64-none-elf/lib/pic\libg.a(lib_a-malloc.o)
 .data          0x0000000000000000        0x0 d:/devkitpro/devkita64/bin/../lib/gcc/aarch64-none-elf/10.1.0/../../../../aarch64-none-elf/lib/pic\libg.a(lib_a-malloc.o)
 .bss           0x0000000000000000        0x0 d:/devkitpro/devkita64/bin/../lib/gcc/aarch64-none-elf/10.1.0/../../../../aarch64-none-elf/lib/pic\libg.a(lib_a-malloc.o)
 .comment       0x0000000000000000       0x24 d:/devkitpro/devkita64/bin/../lib/gcc/aarch64-none-elf/10.1.0/../../../../aarch64-none-elf/lib/pic\libg.a(lib_a-malloc.o)
 .text          0x0000000000000000        0x0 d:/devkitpro/devkita64/bin/../lib/gcc/aarch64-none-elf/10.1.0/../../../../aarch64-none-elf/lib/pic\libg.a(lib_a-mallocr.o)
 .data          0x0000000000000000        0x0 d:/devkitpro/devkita64/bin/../lib/gcc/aarch64-none-elf/10.1.0/../../../../aarch64-none-elf/lib/pic\libg.a(lib_a-mallocr.o)
 .bss           0x0000000000000000        0x0 d:/devkitpro/devkita64/bin/../lib/gcc/aarch64-none-elf/10.1.0/../../../../aarch64-none-elf/lib/pic\libg.a(lib_a-mallocr.o)
 .comment       0x0000000000000000       0x24 d:/devkitpro/devkita64/bin/../lib/gcc/aarch64-none-elf/10.1.0/../../../../aarch64-none-elf/lib/pic\libg.a(lib_a-mallocr.o)
 .data          0x0000000000000000        0x0 d:/devkitpro/devkita64/bin/../lib/gcc/aarch64-none-elf/10.1.0/../../../../aarch64-none-elf/lib/pic\libg.a(lib_a-memcpy.o)
 .bss           0x0000000000000000        0x0 d:/devkitpro/devkita64/bin/../lib/gcc/aarch64-none-elf/10.1.0/../../../../aarch64-none-elf/lib/pic\libg.a(lib_a-memcpy.o)
 .data          0x0000000000000000        0x0 d:/devkitpro/devkita64/bin/../lib/gcc/aarch64-none-elf/10.1.0/../../../../aarch64-none-elf/lib/pic\libg.a(lib_a-memset.o)
 .bss           0x0000000000000000        0x0 d:/devkitpro/devkita64/bin/../lib/gcc/aarch64-none-elf/10.1.0/../../../../aarch64-none-elf/lib/pic\libg.a(lib_a-memset.o)
 .text          0x0000000000000000        0x0 d:/devkitpro/devkita64/bin/../lib/gcc/aarch64-none-elf/10.1.0/../../../../aarch64-none-elf/lib/pic\libg.a(lib_a-mlock.o)
 .data          0x0000000000000000        0x0 d:/devkitpro/devkita64/bin/../lib/gcc/aarch64-none-elf/10.1.0/../../../../aarch64-none-elf/lib/pic\libg.a(lib_a-mlock.o)
 .bss           0x0000000000000000        0x0 d:/devkitpro/devkita64/bin/../lib/gcc/aarch64-none-elf/10.1.0/../../../../aarch64-none-elf/lib/pic\libg.a(lib_a-mlock.o)
 .comment       0x0000000000000000       0x24 d:/devkitpro/devkita64/bin/../lib/gcc/aarch64-none-elf/10.1.0/../../../../aarch64-none-elf/lib/pic\libg.a(lib_a-mlock.o)
 .text          0x0000000000000000        0x0 d:/devkitpro/devkita64/bin/../lib/gcc/aarch64-none-elf/10.1.0/../../../../aarch64-none-elf/lib/pic\libg.a(lib_a-setenv.o)
 .data          0x0000000000000000        0x0 d:/devkitpro/devkita64/bin/../lib/gcc/aarch64-none-elf/10.1.0/../../../../aarch64-none-elf/lib/pic\libg.a(lib_a-setenv.o)
 .bss           0x0000000000000000        0x0 d:/devkitpro/devkita64/bin/../lib/gcc/aarch64-none-elf/10.1.0/../../../../aarch64-none-elf/lib/pic\libg.a(lib_a-setenv.o)
 .comment       0x0000000000000000       0x24 d:/devkitpro/devkita64/bin/../lib/gcc/aarch64-none-elf/10.1.0/../../../../aarch64-none-elf/lib/pic\libg.a(lib_a-setenv.o)
 .text          0x0000000000000000        0x0 d:/devkitpro/devkita64/bin/../lib/gcc/aarch64-none-elf/10.1.0/../../../../aarch64-none-elf/lib/pic\libg.a(lib_a-setenv_r.o)
 .data          0x0000000000000000        0x0 d:/devkitpro/devkita64/bin/../lib/gcc/aarch64-none-elf/10.1.0/../../../../aarch64-none-elf/lib/pic\libg.a(lib_a-setenv_r.o)
 .bss           0x0000000000000000        0x0 d:/devkitpro/devkita64/bin/../lib/gcc/aarch64-none-elf/10.1.0/../../../../aarch64-none-elf/lib/pic\libg.a(lib_a-setenv_r.o)
 .comment       0x0000000000000000       0x24 d:/devkitpro/devkita64/bin/../lib/gcc/aarch64-none-elf/10.1.0/../../../../aarch64-none-elf/lib/pic\libg.a(lib_a-setenv_r.o)
 .data          0x0000000000000000        0x0 d:/devkitpro/devkita64/bin/../lib/gcc/aarch64-none-elf/10.1.0/../../../../aarch64-none-elf/lib/pic\libg.a(lib_a-strchr.o)
 .bss           0x0000000000000000        0x0 d:/devkitpro/devkita64/bin/../lib/gcc/aarch64-none-elf/10.1.0/../../../../aarch64-none-elf/lib/pic\libg.a(lib_a-strchr.o)
 .data          0x0000000000000000        0x0 d:/devkitpro/devkita64/bin/../lib/gcc/aarch64-none-elf/10.1.0/../../../../aarch64-none-elf/lib/pic\libg.a(lib_a-strcpy.o)
 .bss           0x0000000000000000        0x0 d:/devkitpro/devkita64/bin/../lib/gcc/aarch64-none-elf/10.1.0/../../../../aarch64-none-elf/lib/pic\libg.a(lib_a-strcpy.o)
 .data          0x0000000000000000        0x0 d:/devkitpro/devkita64/bin/../lib/gcc/aarch64-none-elf/10.1.0/../../../../aarch64-none-elf/lib/pic\libg.a(lib_a-strlen.o)
 .bss           0x0000000000000000        0x0 d:/devkitpro/devkita64/bin/../lib/gcc/aarch64-none-elf/10.1.0/../../../../aarch64-none-elf/lib/pic\libg.a(lib_a-strlen.o)
 .text          0x0000000000000000        0x0 d:/devkitpro/devkita64/bin/../lib/gcc/aarch64-none-elf/10.1.0/../../../../aarch64-none-elf/lib/pic\libg.a(lib_a-strncat.o)
 .data          0x0000000000000000        0x0 d:/devkitpro/devkita64/bin/../lib/gcc/aarch64-none-elf/10.1.0/../../../../aarch64-none-elf/lib/pic\libg.a(lib_a-strncat.o)
 .bss           0x0000000000000000        0x0 d:/devkitpro/devkita64/bin/../lib/gcc/aarch64-none-elf/10.1.0/../../../../aarch64-none-elf/lib/pic\libg.a(lib_a-strncat.o)
 .comment       0x0000000000000000       0x24 d:/devkitpro/devkita64/bin/../lib/gcc/aarch64-none-elf/10.1.0/../../../../aarch64-none-elf/lib/pic\libg.a(lib_a-strncat.o)
 .data          0x0000000000000000        0x0 d:/devkitpro/devkita64/bin/../lib/gcc/aarch64-none-elf/10.1.0/../../../../aarch64-none-elf/lib/pic\libg.a(lib_a-strncmp.o)
 .bss           0x0000000000000000        0x0 d:/devkitpro/devkita64/bin/../lib/gcc/aarch64-none-elf/10.1.0/../../../../aarch64-none-elf/lib/pic\libg.a(lib_a-strncmp.o)
 .text          0x0000000000000000        0x0 d:/devkitpro/devkita64/bin/../lib/gcc/aarch64-none-elf/10.1.0/../../../../aarch64-none-elf/lib/pic\libg.a(lib_a-strncpy.o)
 .data          0x0000000000000000        0x0 d:/devkitpro/devkita64/bin/../lib/gcc/aarch64-none-elf/10.1.0/../../../../aarch64-none-elf/lib/pic\libg.a(lib_a-strncpy.o)
 .bss           0x0000000000000000        0x0 d:/devkitpro/devkita64/bin/../lib/gcc/aarch64-none-elf/10.1.0/../../../../aarch64-none-elf/lib/pic\libg.a(lib_a-strncpy.o)
 .comment       0x0000000000000000       0x24 d:/devkitpro/devkita64/bin/../lib/gcc/aarch64-none-elf/10.1.0/../../../../aarch64-none-elf/lib/pic\libg.a(lib_a-strncpy.o)
 .data          0x0000000000000000        0x0 d:/devkitpro/devkita64/bin/../lib/gcc/aarch64-none-elf/10.1.0/../../../../aarch64-none-elf/lib/pic\libg.a(lib_a-strnlen.o)
 .bss           0x0000000000000000        0x0 d:/devkitpro/devkita64/bin/../lib/gcc/aarch64-none-elf/10.1.0/../../../../aarch64-none-elf/lib/pic\libg.a(lib_a-strnlen.o)
 .text          0x0000000000000000        0x0 d:/devkitpro/devkita64/bin/../lib/gcc/aarch64-none-elf/10.1.0/../../../../aarch64-none-elf/lib/pic\libg.a(lib_a-toupper.o)
 .data          0x0000000000000000        0x0 d:/devkitpro/devkita64/bin/../lib/gcc/aarch64-none-elf/10.1.0/../../../../aarch64-none-elf/lib/pic\libg.a(lib_a-toupper.o)
 .bss           0x0000000000000000        0x0 d:/devkitpro/devkita64/bin/../lib/gcc/aarch64-none-elf/10.1.0/../../../../aarch64-none-elf/lib/pic\libg.a(lib_a-toupper.o)
 .comment       0x0000000000000000       0x24 d:/devkitpro/devkita64/bin/../lib/gcc/aarch64-none-elf/10.1.0/../../../../aarch64-none-elf/lib/pic\libg.a(lib_a-toupper.o)
 .text          0x0000000000000000        0x0 d:/devkitpro/devkita64/bin/../lib/gcc/aarch64-none-elf/10.1.0/../../../../aarch64-none-elf/lib/pic\libg.a(lib_a-vsnprintf.o)
 .data          0x0000000000000000        0x0 d:/devkitpro/devkita64/bin/../lib/gcc/aarch64-none-elf/10.1.0/../../../../aarch64-none-elf/lib/pic\libg.a(lib_a-vsnprintf.o)
 .bss           0x0000000000000000        0x0 d:/devkitpro/devkita64/bin/../lib/gcc/aarch64-none-elf/10.1.0/../../../../aarch64-none-elf/lib/pic\libg.a(lib_a-vsnprintf.o)
 .comment       0x0000000000000000       0x24 d:/devkitpro/devkita64/bin/../lib/gcc/aarch64-none-elf/10.1.0/../../../../aarch64-none-elf/lib/pic\libg.a(lib_a-vsnprintf.o)
 .text          0x0000000000000000        0x0 d:/devkitpro/devkita64/bin/../lib/gcc/aarch64-none-elf/10.1.0/../../../../aarch64-none-elf/lib/pic\libg.a(lib_a-__call_atexit.o)
 .data          0x0000000000000000        0x0 d:/devkitpro/devkita64/bin/../lib/gcc/aarch64-none-elf/10.1.0/../../../../aarch64-none-elf/lib/pic\libg.a(lib_a-__call_atexit.o)
 .bss           0x0000000000000000        0x0 d:/devkitpro/devkita64/bin/../lib/gcc/aarch64-none-elf/10.1.0/../../../../aarch64-none-elf/lib/pic\libg.a(lib_a-__call_atexit.o)
 .comment       0x0000000000000000       0x24 d:/devkitpro/devkita64/bin/../lib/gcc/aarch64-none-elf/10.1.0/../../../../aarch64-none-elf/lib/pic\libg.a(lib_a-__call_atexit.o)
 .text          0x0000000000000000        0x0 d:/devkitpro/devkita64/bin/../lib/gcc/aarch64-none-elf/10.1.0/../../../../aarch64-none-elf/lib/pic\libg.a(lib_a-environ.o)
 .data          0x0000000000000000        0x0 d:/devkitpro/devkita64/bin/../lib/gcc/aarch64-none-elf/10.1.0/../../../../aarch64-none-elf/lib/pic\libg.a(lib_a-environ.o)
 .bss           0x0000000000000000        0x0 d:/devkitpro/devkita64/bin/../lib/gcc/aarch64-none-elf/10.1.0/../../../../aarch64-none-elf/lib/pic\libg.a(lib_a-environ.o)
 .comment       0x0000000000000000       0x24 d:/devkitpro/devkita64/bin/../lib/gcc/aarch64-none-elf/10.1.0/../../../../aarch64-none-elf/lib/pic\libg.a(lib_a-environ.o)
 .text          0x0000000000000000        0x0 d:/devkitpro/devkita64/bin/../lib/gcc/aarch64-none-elf/10.1.0/../../../../aarch64-none-elf/lib/pic\libg.a(lib_a-envlock.o)
 .data          0x0000000000000000        0x0 d:/devkitpro/devkita64/bin/../lib/gcc/aarch64-none-elf/10.1.0/../../../../aarch64-none-elf/lib/pic\libg.a(lib_a-envlock.o)
 .bss           0x0000000000000000        0x0 d:/devkitpro/devkita64/bin/../lib/gcc/aarch64-none-elf/10.1.0/../../../../aarch64-none-elf/lib/pic\libg.a(lib_a-envlock.o)
 .comment       0x0000000000000000       0x24 d:/devkitpro/devkita64/bin/../lib/gcc/aarch64-none-elf/10.1.0/../../../../aarch64-none-elf/lib/pic\libg.a(lib_a-envlock.o)
 .text          0x0000000000000000        0x0 d:/devkitpro/devkita64/bin/../lib/gcc/aarch64-none-elf/10.1.0/../../../../aarch64-none-elf/lib/pic\libg.a(lib_a-freer.o)
 .data          0x0000000000000000        0x0 d:/devkitpro/devkita64/bin/../lib/gcc/aarch64-none-elf/10.1.0/../../../../aarch64-none-elf/lib/pic\libg.a(lib_a-freer.o)
 .bss           0x0000000000000000        0x0 d:/devkitpro/devkita64/bin/../lib/gcc/aarch64-none-elf/10.1.0/../../../../aarch64-none-elf/lib/pic\libg.a(lib_a-freer.o)
 .comment       0x0000000000000000       0x24 d:/devkitpro/devkita64/bin/../lib/gcc/aarch64-none-elf/10.1.0/../../../../aarch64-none-elf/lib/pic\libg.a(lib_a-freer.o)
 .text          0x0000000000000000        0x0 d:/devkitpro/devkita64/bin/../lib/gcc/aarch64-none-elf/10.1.0/../../../../aarch64-none-elf/lib/pic\libg.a(lib_a-getenv_r.o)
 .data          0x0000000000000000        0x0 d:/devkitpro/devkita64/bin/../lib/gcc/aarch64-none-elf/10.1.0/../../../../aarch64-none-elf/lib/pic\libg.a(lib_a-getenv_r.o)
 .bss           0x0000000000000000        0x0 d:/devkitpro/devkita64/bin/../lib/gcc/aarch64-none-elf/10.1.0/../../../../aarch64-none-elf/lib/pic\libg.a(lib_a-getenv_r.o)
 .comment       0x0000000000000000       0x24 d:/devkitpro/devkita64/bin/../lib/gcc/aarch64-none-elf/10.1.0/../../../../aarch64-none-elf/lib/pic\libg.a(lib_a-getenv_r.o)
 .text          0x0000000000000000        0x0 d:/devkitpro/devkita64/bin/../lib/gcc/aarch64-none-elf/10.1.0/../../../../aarch64-none-elf/lib/pic\libg.a(lib_a-reallocr.o)
 .data          0x0000000000000000        0x0 d:/devkitpro/devkita64/bin/../lib/gcc/aarch64-none-elf/10.1.0/../../../../aarch64-none-elf/lib/pic\libg.a(lib_a-reallocr.o)
 .bss           0x0000000000000000        0x0 d:/devkitpro/devkita64/bin/../lib/gcc/aarch64-none-elf/10.1.0/../../../../aarch64-none-elf/lib/pic\libg.a(lib_a-reallocr.o)
 .comment       0x0000000000000000       0x24 d:/devkitpro/devkita64/bin/../lib/gcc/aarch64-none-elf/10.1.0/../../../../aarch64-none-elf/lib/pic\libg.a(lib_a-reallocr.o)
 .text          0x0000000000000000        0x0 d:/devkitpro/devkita64/bin/../lib/gcc/aarch64-none-elf/10.1.0/../../../../aarch64-none-elf/lib/pic\libg.a(lib_a-svfprintf.o)
 .data          0x0000000000000000        0x0 d:/devkitpro/devkita64/bin/../lib/gcc/aarch64-none-elf/10.1.0/../../../../aarch64-none-elf/lib/pic\libg.a(lib_a-svfprintf.o)
 .bss           0x0000000000000000        0x0 d:/devkitpro/devkita64/bin/../lib/gcc/aarch64-none-elf/10.1.0/../../../../aarch64-none-elf/lib/pic\libg.a(lib_a-svfprintf.o)
 .comment       0x0000000000000000       0x24 d:/devkitpro/devkita64/bin/../lib/gcc/aarch64-none-elf/10.1.0/../../../../aarch64-none-elf/lib/pic\libg.a(lib_a-svfprintf.o)
 .text          0x0000000000000000        0x0 d:/devkitpro/devkita64/bin/../lib/gcc/aarch64-none-elf/10.1.0/../../../../aarch64-none-elf/lib/pic\libg.a(lib_a-wcrtomb.o)
 .data          0x0000000000000000        0x0 d:/devkitpro/devkita64/bin/../lib/gcc/aarch64-none-elf/10.1.0/../../../../aarch64-none-elf/lib/pic\libg.a(lib_a-wcrtomb.o)
 .bss           0x0000000000000000        0x0 d:/devkitpro/devkita64/bin/../lib/gcc/aarch64-none-elf/10.1.0/../../../../aarch64-none-elf/lib/pic\libg.a(lib_a-wcrtomb.o)
 .comment       0x0000000000000000       0x24 d:/devkitpro/devkita64/bin/../lib/gcc/aarch64-none-elf/10.1.0/../../../../aarch64-none-elf/lib/pic\libg.a(lib_a-wcrtomb.o)
 .text          0x0000000000000000        0x0 d:/devkitpro/devkita64/bin/../lib/gcc/aarch64-none-elf/10.1.0/../../../../aarch64-none-elf/lib/pic\libg.a(lib_a-wcsrtombs.o)
 .data          0x0000000000000000        0x0 d:/devkitpro/devkita64/bin/../lib/gcc/aarch64-none-elf/10.1.0/../../../../aarch64-none-elf/lib/pic\libg.a(lib_a-wcsrtombs.o)
 .bss           0x0000000000000000        0x0 d:/devkitpro/devkita64/bin/../lib/gcc/aarch64-none-elf/10.1.0/../../../../aarch64-none-elf/lib/pic\libg.a(lib_a-wcsrtombs.o)
 .comment       0x0000000000000000       0x24 d:/devkitpro/devkita64/bin/../lib/gcc/aarch64-none-elf/10.1.0/../../../../aarch64-none-elf/lib/pic\libg.a(lib_a-wcsrtombs.o)
 .text          0x0000000000000000        0x0 d:/devkitpro/devkita64/bin/../lib/gcc/aarch64-none-elf/10.1.0/../../../../aarch64-none-elf/lib/pic\libg.a(lib_a-dtoa.o)
 .data          0x0000000000000000        0x0 d:/devkitpro/devkita64/bin/../lib/gcc/aarch64-none-elf/10.1.0/../../../../aarch64-none-elf/lib/pic\libg.a(lib_a-dtoa.o)
 .bss           0x0000000000000000        0x0 d:/devkitpro/devkita64/bin/../lib/gcc/aarch64-none-elf/10.1.0/../../../../aarch64-none-elf/lib/pic\libg.a(lib_a-dtoa.o)
 .comment       0x0000000000000000       0x24 d:/devkitpro/devkita64/bin/../lib/gcc/aarch64-none-elf/10.1.0/../../../../aarch64-none-elf/lib/pic\libg.a(lib_a-dtoa.o)
 .text          0x0000000000000000        0x0 d:/devkitpro/devkita64/bin/../lib/gcc/aarch64-none-elf/10.1.0/../../../../aarch64-none-elf/lib/pic\libg.a(lib_a-localeconv.o)
 .data          0x0000000000000000        0x0 d:/devkitpro/devkita64/bin/../lib/gcc/aarch64-none-elf/10.1.0/../../../../aarch64-none-elf/lib/pic\libg.a(lib_a-localeconv.o)
 .bss           0x0000000000000000        0x0 d:/devkitpro/devkita64/bin/../lib/gcc/aarch64-none-elf/10.1.0/../../../../aarch64-none-elf/lib/pic\libg.a(lib_a-localeconv.o)
 .comment       0x0000000000000000       0x24 d:/devkitpro/devkita64/bin/../lib/gcc/aarch64-none-elf/10.1.0/../../../../aarch64-none-elf/lib/pic\libg.a(lib_a-localeconv.o)
 .text          0x0000000000000000        0x0 d:/devkitpro/devkita64/bin/../lib/gcc/aarch64-none-elf/10.1.0/../../../../aarch64-none-elf/lib/pic\libg.a(lib_a-locale.o)
 .data          0x0000000000000000        0x0 d:/devkitpro/devkita64/bin/../lib/gcc/aarch64-none-elf/10.1.0/../../../../aarch64-none-elf/lib/pic\libg.a(lib_a-locale.o)
 .bss           0x0000000000000000        0x0 d:/devkitpro/devkita64/bin/../lib/gcc/aarch64-none-elf/10.1.0/../../../../aarch64-none-elf/lib/pic\libg.a(lib_a-locale.o)
 .comment       0x0000000000000000       0x24 d:/devkitpro/devkita64/bin/../lib/gcc/aarch64-none-elf/10.1.0/../../../../aarch64-none-elf/lib/pic\libg.a(lib_a-locale.o)
 .text          0x0000000000000000        0x0 d:/devkitpro/devkita64/bin/../lib/gcc/aarch64-none-elf/10.1.0/../../../../aarch64-none-elf/lib/pic\libg.a(lib_a-mbtowc_r.o)
 .data          0x0000000000000000        0x0 d:/devkitpro/devkita64/bin/../lib/gcc/aarch64-none-elf/10.1.0/../../../../aarch64-none-elf/lib/pic\libg.a(lib_a-mbtowc_r.o)
 .bss           0x0000000000000000        0x0 d:/devkitpro/devkita64/bin/../lib/gcc/aarch64-none-elf/10.1.0/../../../../aarch64-none-elf/lib/pic\libg.a(lib_a-mbtowc_r.o)
 .comment       0x0000000000000000       0x24 d:/devkitpro/devkita64/bin/../lib/gcc/aarch64-none-elf/10.1.0/../../../../aarch64-none-elf/lib/pic\libg.a(lib_a-mbtowc_r.o)
 .data          0x0000000000000000        0x0 d:/devkitpro/devkita64/bin/../lib/gcc/aarch64-none-elf/10.1.0/../../../../aarch64-none-elf/lib/pic\libg.a(lib_a-memchr.o)
 .bss           0x0000000000000000        0x0 d:/devkitpro/devkita64/bin/../lib/gcc/aarch64-none-elf/10.1.0/../../../../aarch64-none-elf/lib/pic\libg.a(lib_a-memchr.o)
 .data          0x0000000000000000        0x0 d:/devkitpro/devkita64/bin/../lib/gcc/aarch64-none-elf/10.1.0/../../../../aarch64-none-elf/lib/pic\libg.a(lib_a-memmove.o)
 .bss           0x0000000000000000        0x0 d:/devkitpro/devkita64/bin/../lib/gcc/aarch64-none-elf/10.1.0/../../../../aarch64-none-elf/lib/pic\libg.a(lib_a-memmove.o)
 .text          0x0000000000000000        0x0 d:/devkitpro/devkita64/bin/../lib/gcc/aarch64-none-elf/10.1.0/../../../../aarch64-none-elf/lib/pic\libg.a(lib_a-mprec.o)
 .data          0x0000000000000000        0x0 d:/devkitpro/devkita64/bin/../lib/gcc/aarch64-none-elf/10.1.0/../../../../aarch64-none-elf/lib/pic\libg.a(lib_a-mprec.o)
 .bss           0x0000000000000000        0x0 d:/devkitpro/devkita64/bin/../lib/gcc/aarch64-none-elf/10.1.0/../../../../aarch64-none-elf/lib/pic\libg.a(lib_a-mprec.o)
 .comment       0x0000000000000000       0x24 d:/devkitpro/devkita64/bin/../lib/gcc/aarch64-none-elf/10.1.0/../../../../aarch64-none-elf/lib/pic\libg.a(lib_a-mprec.o)
 .text          0x0000000000000000        0x0 d:/devkitpro/devkita64/bin/../lib/gcc/aarch64-none-elf/10.1.0/../../../../aarch64-none-elf/lib/pic\libg.a(lib_a-s_frexp.o)
 .data          0x0000000000000000        0x0 d:/devkitpro/devkita64/bin/../lib/gcc/aarch64-none-elf/10.1.0/../../../../aarch64-none-elf/lib/pic\libg.a(lib_a-s_frexp.o)
 .bss           0x0000000000000000        0x0 d:/devkitpro/devkita64/bin/../lib/gcc/aarch64-none-elf/10.1.0/../../../../aarch64-none-elf/lib/pic\libg.a(lib_a-s_frexp.o)
 .comment       0x0000000000000000       0x24 d:/devkitpro/devkita64/bin/../lib/gcc/aarch64-none-elf/10.1.0/../../../../aarch64-none-elf/lib/pic\libg.a(lib_a-s_frexp.o)
 .text          0x0000000000000000        0x0 d:/devkitpro/devkita64/bin/../lib/gcc/aarch64-none-elf/10.1.0/../../../../aarch64-none-elf/lib/pic\libg.a(lib_a-strcasecmp.o)
 .data          0x0000000000000000        0x0 d:/devkitpro/devkita64/bin/../lib/gcc/aarch64-none-elf/10.1.0/../../../../aarch64-none-elf/lib/pic\libg.a(lib_a-strcasecmp.o)
 .bss           0x0000000000000000        0x0 d:/devkitpro/devkita64/bin/../lib/gcc/aarch64-none-elf/10.1.0/../../../../aarch64-none-elf/lib/pic\libg.a(lib_a-strcasecmp.o)
 .comment       0x0000000000000000       0x24 d:/devkitpro/devkita64/bin/../lib/gcc/aarch64-none-elf/10.1.0/../../../../aarch64-none-elf/lib/pic\libg.a(lib_a-strcasecmp.o)
 .text          0x0000000000000000        0x0 d:/devkitpro/devkita64/bin/../lib/gcc/aarch64-none-elf/10.1.0/../../../../aarch64-none-elf/lib/pic\libg.a(lib_a-strcat.o)
 .data          0x0000000000000000        0x0 d:/devkitpro/devkita64/bin/../lib/gcc/aarch64-none-elf/10.1.0/../../../../aarch64-none-elf/lib/pic\libg.a(lib_a-strcat.o)
 .bss           0x0000000000000000        0x0 d:/devkitpro/devkita64/bin/../lib/gcc/aarch64-none-elf/10.1.0/../../../../aarch64-none-elf/lib/pic\libg.a(lib_a-strcat.o)
 .comment       0x0000000000000000       0x24 d:/devkitpro/devkita64/bin/../lib/gcc/aarch64-none-elf/10.1.0/../../../../aarch64-none-elf/lib/pic\libg.a(lib_a-strcat.o)
 .data          0x0000000000000000        0x0 d:/devkitpro/devkita64/bin/../lib/gcc/aarch64-none-elf/10.1.0/../../../../aarch64-none-elf/lib/pic\libg.a(lib_a-strcmp.o)
 .bss           0x0000000000000000        0x0 d:/devkitpro/devkita64/bin/../lib/gcc/aarch64-none-elf/10.1.0/../../../../aarch64-none-elf/lib/pic\libg.a(lib_a-strcmp.o)
 .text          0x0000000000000000        0x0 d:/devkitpro/devkita64/bin/../lib/gcc/aarch64-none-elf/10.1.0/../../../../aarch64-none-elf/lib/pic\libg.a(lib_a-strlcpy.o)
 .data          0x0000000000000000        0x0 d:/devkitpro/devkita64/bin/../lib/gcc/aarch64-none-elf/10.1.0/../../../../aarch64-none-elf/lib/pic\libg.a(lib_a-strlcpy.o)
 .bss           0x0000000000000000        0x0 d:/devkitpro/devkita64/bin/../lib/gcc/aarch64-none-elf/10.1.0/../../../../aarch64-none-elf/lib/pic\libg.a(lib_a-strlcpy.o)
 .comment       0x0000000000000000       0x24 d:/devkitpro/devkita64/bin/../lib/gcc/aarch64-none-elf/10.1.0/../../../../aarch64-none-elf/lib/pic\libg.a(lib_a-strlcpy.o)
 .text          0x0000000000000000        0x0 d:/devkitpro/devkita64/bin/../lib/gcc/aarch64-none-elf/10.1.0/../../../../aarch64-none-elf/lib/pic\libg.a(lib_a-strncasecmp.o)
 .data          0x0000000000000000        0x0 d:/devkitpro/devkita64/bin/../lib/gcc/aarch64-none-elf/10.1.0/../../../../aarch64-none-elf/lib/pic\libg.a(lib_a-strncasecmp.o)
 .bss           0x0000000000000000        0x0 d:/devkitpro/devkita64/bin/../lib/gcc/aarch64-none-elf/10.1.0/../../../../aarch64-none-elf/lib/pic\libg.a(lib_a-strncasecmp.o)
 .comment       0x0000000000000000       0x24 d:/devkitpro/devkita64/bin/../lib/gcc/aarch64-none-elf/10.1.0/../../../../aarch64-none-elf/lib/pic\libg.a(lib_a-strncasecmp.o)
 .text          0x0000000000000000        0x0 d:/devkitpro/devkita64/bin/../lib/gcc/aarch64-none-elf/10.1.0/../../../../aarch64-none-elf/lib/pic\libg.a(lib_a-strtol.o)
 .data          0x0000000000000000        0x0 d:/devkitpro/devkita64/bin/../lib/gcc/aarch64-none-elf/10.1.0/../../../../aarch64-none-elf/lib/pic\libg.a(lib_a-strtol.o)
 .bss           0x0000000000000000        0x0 d:/devkitpro/devkita64/bin/../lib/gcc/aarch64-none-elf/10.1.0/../../../../aarch64-none-elf/lib/pic\libg.a(lib_a-strtol.o)
 .comment       0x0000000000000000       0x24 d:/devkitpro/devkita64/bin/../lib/gcc/aarch64-none-elf/10.1.0/../../../../aarch64-none-elf/lib/pic\libg.a(lib_a-strtol.o)
 .text          0x0000000000000000        0x0 d:/devkitpro/devkita64/bin/../lib/gcc/aarch64-none-elf/10.1.0/../../../../aarch64-none-elf/lib/pic\libg.a(lib_a-svfiprintf.o)
 .data          0x0000000000000000        0x0 d:/devkitpro/devkita64/bin/../lib/gcc/aarch64-none-elf/10.1.0/../../../../aarch64-none-elf/lib/pic\libg.a(lib_a-svfiprintf.o)
 .bss           0x0000000000000000        0x0 d:/devkitpro/devkita64/bin/../lib/gcc/aarch64-none-elf/10.1.0/../../../../aarch64-none-elf/lib/pic\libg.a(lib_a-svfiprintf.o)
 .comment       0x0000000000000000       0x24 d:/devkitpro/devkita64/bin/../lib/gcc/aarch64-none-elf/10.1.0/../../../../aarch64-none-elf/lib/pic\libg.a(lib_a-svfiprintf.o)
 .text          0x0000000000000000        0x0 d:/devkitpro/devkita64/bin/../lib/gcc/aarch64-none-elf/10.1.0/../../../../aarch64-none-elf/lib/pic\libg.a(lib_a-wcsnrtombs.o)
 .data          0x0000000000000000        0x0 d:/devkitpro/devkita64/bin/../lib/gcc/aarch64-none-elf/10.1.0/../../../../aarch64-none-elf/lib/pic\libg.a(lib_a-wcsnrtombs.o)
 .bss           0x0000000000000000        0x0 d:/devkitpro/devkita64/bin/../lib/gcc/aarch64-none-elf/10.1.0/../../../../aarch64-none-elf/lib/pic\libg.a(lib_a-wcsnrtombs.o)
 .comment       0x0000000000000000       0x24 d:/devkitpro/devkita64/bin/../lib/gcc/aarch64-none-elf/10.1.0/../../../../aarch64-none-elf/lib/pic\libg.a(lib_a-wcsnrtombs.o)
 .text          0x0000000000000000        0x0 d:/devkitpro/devkita64/bin/../lib/gcc/aarch64-none-elf/10.1.0/../../../../aarch64-none-elf/lib/pic\libg.a(lib_a-wctomb_r.o)
 .data          0x0000000000000000        0x0 d:/devkitpro/devkita64/bin/../lib/gcc/aarch64-none-elf/10.1.0/../../../../aarch64-none-elf/lib/pic\libg.a(lib_a-wctomb_r.o)
 .bss           0x0000000000000000        0x0 d:/devkitpro/devkita64/bin/../lib/gcc/aarch64-none-elf/10.1.0/../../../../aarch64-none-elf/lib/pic\libg.a(lib_a-wctomb_r.o)
 .comment       0x0000000000000000       0x24 d:/devkitpro/devkita64/bin/../lib/gcc/aarch64-none-elf/10.1.0/../../../../aarch64-none-elf/lib/pic\libg.a(lib_a-wctomb_r.o)
 .text          0x0000000000000000        0x0 d:/devkitpro/devkita64/bin/../lib/gcc/aarch64-none-elf/10.1.0/../../../../aarch64-none-elf/lib/pic\libg.a(lib_a-assert.o)
 .data          0x0000000000000000        0x0 d:/devkitpro/devkita64/bin/../lib/gcc/aarch64-none-elf/10.1.0/../../../../aarch64-none-elf/lib/pic\libg.a(lib_a-assert.o)
 .bss           0x0000000000000000        0x0 d:/devkitpro/devkita64/bin/../lib/gcc/aarch64-none-elf/10.1.0/../../../../aarch64-none-elf/lib/pic\libg.a(lib_a-assert.o)
 .comment       0x0000000000000000       0x24 d:/devkitpro/devkita64/bin/../lib/gcc/aarch64-none-elf/10.1.0/../../../../aarch64-none-elf/lib/pic\libg.a(lib_a-assert.o)
 .text          0x0000000000000000        0x0 d:/devkitpro/devkita64/bin/../lib/gcc/aarch64-none-elf/10.1.0/../../../../aarch64-none-elf/lib/pic\libg.a(lib_a-callocr.o)
 .data          0x0000000000000000        0x0 d:/devkitpro/devkita64/bin/../lib/gcc/aarch64-none-elf/10.1.0/../../../../aarch64-none-elf/lib/pic\libg.a(lib_a-callocr.o)
 .bss           0x0000000000000000        0x0 d:/devkitpro/devkita64/bin/../lib/gcc/aarch64-none-elf/10.1.0/../../../../aarch64-none-elf/lib/pic\libg.a(lib_a-callocr.o)
 .comment       0x0000000000000000       0x24 d:/devkitpro/devkita64/bin/../lib/gcc/aarch64-none-elf/10.1.0/../../../../aarch64-none-elf/lib/pic\libg.a(lib_a-callocr.o)
 .text          0x0000000000000000        0x0 d:/devkitpro/devkita64/bin/../lib/gcc/aarch64-none-elf/10.1.0/../../../../aarch64-none-elf/lib/pic\libg.a(lib_a-fiprintf.o)
 .data          0x0000000000000000        0x0 d:/devkitpro/devkita64/bin/../lib/gcc/aarch64-none-elf/10.1.0/../../../../aarch64-none-elf/lib/pic\libg.a(lib_a-fiprintf.o)
 .bss           0x0000000000000000        0x0 d:/devkitpro/devkita64/bin/../lib/gcc/aarch64-none-elf/10.1.0/../../../../aarch64-none-elf/lib/pic\libg.a(lib_a-fiprintf.o)
 .comment       0x0000000000000000       0x24 d:/devkitpro/devkita64/bin/../lib/gcc/aarch64-none-elf/10.1.0/../../../../aarch64-none-elf/lib/pic\libg.a(lib_a-fiprintf.o)
 .text          0x0000000000000000        0x0 d:/devkitpro/devkita64/bin/../lib/gcc/aarch64-none-elf/10.1.0/../../../../aarch64-none-elf/lib/pic\libg.a(lib_a-vfiprintf.o)
 .data          0x0000000000000000        0x0 d:/devkitpro/devkita64/bin/../lib/gcc/aarch64-none-elf/10.1.0/../../../../aarch64-none-elf/lib/pic\libg.a(lib_a-vfiprintf.o)
 .bss           0x0000000000000000        0x0 d:/devkitpro/devkita64/bin/../lib/gcc/aarch64-none-elf/10.1.0/../../../../aarch64-none-elf/lib/pic\libg.a(lib_a-vfiprintf.o)
 .comment       0x0000000000000000       0x24 d:/devkitpro/devkita64/bin/../lib/gcc/aarch64-none-elf/10.1.0/../../../../aarch64-none-elf/lib/pic\libg.a(lib_a-vfiprintf.o)
 .text          0x0000000000000000        0x0 d:/devkitpro/devkita64/bin/../lib/gcc/aarch64-none-elf/10.1.0/../../../../aarch64-none-elf/lib/pic\libg.a(lib_a-wsetup.o)
 .data          0x0000000000000000        0x0 d:/devkitpro/devkita64/bin/../lib/gcc/aarch64-none-elf/10.1.0/../../../../aarch64-none-elf/lib/pic\libg.a(lib_a-wsetup.o)
 .bss           0x0000000000000000        0x0 d:/devkitpro/devkita64/bin/../lib/gcc/aarch64-none-elf/10.1.0/../../../../aarch64-none-elf/lib/pic\libg.a(lib_a-wsetup.o)
 .comment       0x0000000000000000       0x24 d:/devkitpro/devkita64/bin/../lib/gcc/aarch64-none-elf/10.1.0/../../../../aarch64-none-elf/lib/pic\libg.a(lib_a-wsetup.o)
 .text          0x0000000000000000        0x0 d:/devkitpro/devkita64/bin/../lib/gcc/aarch64-none-elf/10.1.0/../../../../aarch64-none-elf/lib/pic\libg.a(lib_a-abort.o)
 .data          0x0000000000000000        0x0 d:/devkitpro/devkita64/bin/../lib/gcc/aarch64-none-elf/10.1.0/../../../../aarch64-none-elf/lib/pic\libg.a(lib_a-abort.o)
 .bss           0x0000000000000000        0x0 d:/devkitpro/devkita64/bin/../lib/gcc/aarch64-none-elf/10.1.0/../../../../aarch64-none-elf/lib/pic\libg.a(lib_a-abort.o)
 .comment       0x0000000000000000       0x24 d:/devkitpro/devkita64/bin/../lib/gcc/aarch64-none-elf/10.1.0/../../../../aarch64-none-elf/lib/pic\libg.a(lib_a-abort.o)
 .text          0x0000000000000000        0x0 d:/devkitpro/devkita64/bin/../lib/gcc/aarch64-none-elf/10.1.0/../../../../aarch64-none-elf/lib/pic\libg.a(lib_a-fflush.o)
 .data          0x0000000000000000        0x0 d:/devkitpro/devkita64/bin/../lib/gcc/aarch64-none-elf/10.1.0/../../../../aarch64-none-elf/lib/pic\libg.a(lib_a-fflush.o)
 .bss           0x0000000000000000        0x0 d:/devkitpro/devkita64/bin/../lib/gcc/aarch64-none-elf/10.1.0/../../../../aarch64-none-elf/lib/pic\libg.a(lib_a-fflush.o)
 .comment       0x0000000000000000       0x24 d:/devkitpro/devkita64/bin/../lib/gcc/aarch64-none-elf/10.1.0/../../../../aarch64-none-elf/lib/pic\libg.a(lib_a-fflush.o)
 .text          0x0000000000000000        0x0 d:/devkitpro/devkita64/bin/../lib/gcc/aarch64-none-elf/10.1.0/../../../../aarch64-none-elf/lib/pic\libg.a(lib_a-findfp.o)
 .data          0x0000000000000000        0x0 d:/devkitpro/devkita64/bin/../lib/gcc/aarch64-none-elf/10.1.0/../../../../aarch64-none-elf/lib/pic\libg.a(lib_a-findfp.o)
 .bss           0x0000000000000000        0x0 d:/devkitpro/devkita64/bin/../lib/gcc/aarch64-none-elf/10.1.0/../../../../aarch64-none-elf/lib/pic\libg.a(lib_a-findfp.o)
 .comment       0x0000000000000000       0x24 d:/devkitpro/devkita64/bin/../lib/gcc/aarch64-none-elf/10.1.0/../../../../aarch64-none-elf/lib/pic\libg.a(lib_a-findfp.o)
 .text          0x0000000000000000        0x0 d:/devkitpro/devkita64/bin/../lib/gcc/aarch64-none-elf/10.1.0/../../../../aarch64-none-elf/lib/pic\libg.a(lib_a-fvwrite.o)
 .data          0x0000000000000000        0x0 d:/devkitpro/devkita64/bin/../lib/gcc/aarch64-none-elf/10.1.0/../../../../aarch64-none-elf/lib/pic\libg.a(lib_a-fvwrite.o)
 .bss           0x0000000000000000        0x0 d:/devkitpro/devkita64/bin/../lib/gcc/aarch64-none-elf/10.1.0/../../../../aarch64-none-elf/lib/pic\libg.a(lib_a-fvwrite.o)
 .comment       0x0000000000000000       0x24 d:/devkitpro/devkita64/bin/../lib/gcc/aarch64-none-elf/10.1.0/../../../../aarch64-none-elf/lib/pic\libg.a(lib_a-fvwrite.o)
 .text          0x0000000000000000        0x0 d:/devkitpro/devkita64/bin/../lib/gcc/aarch64-none-elf/10.1.0/../../../../aarch64-none-elf/lib/pic\libg.a(lib_a-fwalk.o)
 .data          0x0000000000000000        0x0 d:/devkitpro/devkita64/bin/../lib/gcc/aarch64-none-elf/10.1.0/../../../../aarch64-none-elf/lib/pic\libg.a(lib_a-fwalk.o)
 .bss           0x0000000000000000        0x0 d:/devkitpro/devkita64/bin/../lib/gcc/aarch64-none-elf/10.1.0/../../../../aarch64-none-elf/lib/pic\libg.a(lib_a-fwalk.o)
 .comment       0x0000000000000000       0x24 d:/devkitpro/devkita64/bin/../lib/gcc/aarch64-none-elf/10.1.0/../../../../aarch64-none-elf/lib/pic\libg.a(lib_a-fwalk.o)
 .text          0x0000000000000000        0x0 d:/devkitpro/devkita64/bin/../lib/gcc/aarch64-none-elf/10.1.0/../../../../aarch64-none-elf/lib/pic\libg.a(lib_a-makebuf.o)
 .data          0x0000000000000000        0x0 d:/devkitpro/devkita64/bin/../lib/gcc/aarch64-none-elf/10.1.0/../../../../aarch64-none-elf/lib/pic\libg.a(lib_a-makebuf.o)
 .bss           0x0000000000000000        0x0 d:/devkitpro/devkita64/bin/../lib/gcc/aarch64-none-elf/10.1.0/../../../../aarch64-none-elf/lib/pic\libg.a(lib_a-makebuf.o)
 .comment       0x0000000000000000       0x24 d:/devkitpro/devkita64/bin/../lib/gcc/aarch64-none-elf/10.1.0/../../../../aarch64-none-elf/lib/pic\libg.a(lib_a-makebuf.o)
 .text          0x0000000000000000        0x0 d:/devkitpro/devkita64/bin/../lib/gcc/aarch64-none-elf/10.1.0/../../../../aarch64-none-elf/lib/pic\libg.a(lib_a-signal.o)
 .data          0x0000000000000000        0x0 d:/devkitpro/devkita64/bin/../lib/gcc/aarch64-none-elf/10.1.0/../../../../aarch64-none-elf/lib/pic\libg.a(lib_a-signal.o)
 .bss           0x0000000000000000        0x0 d:/devkitpro/devkita64/bin/../lib/gcc/aarch64-none-elf/10.1.0/../../../../aarch64-none-elf/lib/pic\libg.a(lib_a-signal.o)
 .comment       0x0000000000000000       0x24 d:/devkitpro/devkita64/bin/../lib/gcc/aarch64-none-elf/10.1.0/../../../../aarch64-none-elf/lib/pic\libg.a(lib_a-signal.o)
 .text          0x0000000000000000        0x0 d:/devkitpro/devkita64/bin/../lib/gcc/aarch64-none-elf/10.1.0/../../../../aarch64-none-elf/lib/pic\libg.a(lib_a-stdio.o)
 .data          0x0000000000000000        0x0 d:/devkitpro/devkita64/bin/../lib/gcc/aarch64-none-elf/10.1.0/../../../../aarch64-none-elf/lib/pic\libg.a(lib_a-stdio.o)
 .bss           0x0000000000000000        0x0 d:/devkitpro/devkita64/bin/../lib/gcc/aarch64-none-elf/10.1.0/../../../../aarch64-none-elf/lib/pic\libg.a(lib_a-stdio.o)
 .comment       0x0000000000000000       0x24 d:/devkitpro/devkita64/bin/../lib/gcc/aarch64-none-elf/10.1.0/../../../../aarch64-none-elf/lib/pic\libg.a(lib_a-stdio.o)
 .text          0x0000000000000000        0x0 d:/devkitpro/devkita64/bin/../lib/gcc/aarch64-none-elf/10.1.0/../../../../aarch64-none-elf/lib/pic\libg.a(lib_a-fclose.o)
 .data          0x0000000000000000        0x0 d:/devkitpro/devkita64/bin/../lib/gcc/aarch64-none-elf/10.1.0/../../../../aarch64-none-elf/lib/pic\libg.a(lib_a-fclose.o)
 .bss           0x0000000000000000        0x0 d:/devkitpro/devkita64/bin/../lib/gcc/aarch64-none-elf/10.1.0/../../../../aarch64-none-elf/lib/pic\libg.a(lib_a-fclose.o)
 .comment       0x0000000000000000       0x24 d:/devkitpro/devkita64/bin/../lib/gcc/aarch64-none-elf/10.1.0/../../../../aarch64-none-elf/lib/pic\libg.a(lib_a-fclose.o)
 .text          0x0000000000000000        0x0 d:/devkitpro/devkita64/bin/../lib/gcc/aarch64-none-elf/10.1.0/../../../../aarch64-none-elf/lib/pic\libsysbase.a(iosupport.o)
 .data          0x0000000000000000        0x0 d:/devkitpro/devkita64/bin/../lib/gcc/aarch64-none-elf/10.1.0/../../../../aarch64-none-elf/lib/pic\libsysbase.a(iosupport.o)
 .bss           0x0000000000000000        0x0 d:/devkitpro/devkita64/bin/../lib/gcc/aarch64-none-elf/10.1.0/../../../../aarch64-none-elf/lib/pic\libsysbase.a(iosupport.o)
 .comment       0x0000000000000000       0x24 d:/devkitpro/devkita64/bin/../lib/gcc/aarch64-none-elf/10.1.0/../../../../aarch64-none-elf/lib/pic\libsysbase.a(iosupport.o)
 .text          0x0000000000000000        0x0 d:/devkitpro/devkita64/bin/../lib/gcc/aarch64-none-elf/10.1.0/../../../../aarch64-none-elf/lib/pic\libsysbase.a(close.o)
 .data          0x0000000000000000        0x0 d:/devkitpro/devkita64/bin/../lib/gcc/aarch64-none-elf/10.1.0/../../../../aarch64-none-elf/lib/pic\libsysbase.a(close.o)
 .bss           0x0000000000000000        0x0 d:/devkitpro/devkita64/bin/../lib/gcc/aarch64-none-elf/10.1.0/../../../../aarch64-none-elf/lib/pic\libsysbase.a(close.o)
 .comment       0x0000000000000000       0x24 d:/devkitpro/devkita64/bin/../lib/gcc/aarch64-none-elf/10.1.0/../../../../aarch64-none-elf/lib/pic\libsysbase.a(close.o)
 .text          0x0000000000000000        0x0 d:/devkitpro/devkita64/bin/../lib/gcc/aarch64-none-elf/10.1.0/../../../../aarch64-none-elf/lib/pic\libsysbase.a(fstat.o)
 .data          0x0000000000000000        0x0 d:/devkitpro/devkita64/bin/../lib/gcc/aarch64-none-elf/10.1.0/../../../../aarch64-none-elf/lib/pic\libsysbase.a(fstat.o)
 .bss           0x0000000000000000        0x0 d:/devkitpro/devkita64/bin/../lib/gcc/aarch64-none-elf/10.1.0/../../../../aarch64-none-elf/lib/pic\libsysbase.a(fstat.o)
 .comment       0x0000000000000000       0x24 d:/devkitpro/devkita64/bin/../lib/gcc/aarch64-none-elf/10.1.0/../../../../aarch64-none-elf/lib/pic\libsysbase.a(fstat.o)
 .text          0x0000000000000000        0x0 d:/devkitpro/devkita64/bin/../lib/gcc/aarch64-none-elf/10.1.0/../../../../aarch64-none-elf/lib/pic\libsysbase.a(getpid.o)
 .data          0x0000000000000000        0x0 d:/devkitpro/devkita64/bin/../lib/gcc/aarch64-none-elf/10.1.0/../../../../aarch64-none-elf/lib/pic\libsysbase.a(getpid.o)
 .bss           0x0000000000000000        0x0 d:/devkitpro/devkita64/bin/../lib/gcc/aarch64-none-elf/10.1.0/../../../../aarch64-none-elf/lib/pic\libsysbase.a(getpid.o)
 .comment       0x0000000000000000       0x24 d:/devkitpro/devkita64/bin/../lib/gcc/aarch64-none-elf/10.1.0/../../../../aarch64-none-elf/lib/pic\libsysbase.a(getpid.o)
 .text          0x0000000000000000        0x0 d:/devkitpro/devkita64/bin/../lib/gcc/aarch64-none-elf/10.1.0/../../../../aarch64-none-elf/lib/pic\libsysbase.a(isatty.o)
 .data          0x0000000000000000        0x0 d:/devkitpro/devkita64/bin/../lib/gcc/aarch64-none-elf/10.1.0/../../../../aarch64-none-elf/lib/pic\libsysbase.a(isatty.o)
 .bss           0x0000000000000000        0x0 d:/devkitpro/devkita64/bin/../lib/gcc/aarch64-none-elf/10.1.0/../../../../aarch64-none-elf/lib/pic\libsysbase.a(isatty.o)
 .comment       0x0000000000000000       0x24 d:/devkitpro/devkita64/bin/../lib/gcc/aarch64-none-elf/10.1.0/../../../../aarch64-none-elf/lib/pic\libsysbase.a(isatty.o)
 .text          0x0000000000000000        0x0 d:/devkitpro/devkita64/bin/../lib/gcc/aarch64-none-elf/10.1.0/../../../../aarch64-none-elf/lib/pic\libsysbase.a(kill.o)
 .data          0x0000000000000000        0x0 d:/devkitpro/devkita64/bin/../lib/gcc/aarch64-none-elf/10.1.0/../../../../aarch64-none-elf/lib/pic\libsysbase.a(kill.o)
 .bss           0x0000000000000000        0x0 d:/devkitpro/devkita64/bin/../lib/gcc/aarch64-none-elf/10.1.0/../../../../aarch64-none-elf/lib/pic\libsysbase.a(kill.o)
 .comment       0x0000000000000000       0x24 d:/devkitpro/devkita64/bin/../lib/gcc/aarch64-none-elf/10.1.0/../../../../aarch64-none-elf/lib/pic\libsysbase.a(kill.o)
 .text          0x0000000000000000        0x0 d:/devkitpro/devkita64/bin/../lib/gcc/aarch64-none-elf/10.1.0/../../../../aarch64-none-elf/lib/pic\libsysbase.a(lseek.o)
 .data          0x0000000000000000        0x0 d:/devkitpro/devkita64/bin/../lib/gcc/aarch64-none-elf/10.1.0/../../../../aarch64-none-elf/lib/pic\libsysbase.a(lseek.o)
 .bss           0x0000000000000000        0x0 d:/devkitpro/devkita64/bin/../lib/gcc/aarch64-none-elf/10.1.0/../../../../aarch64-none-elf/lib/pic\libsysbase.a(lseek.o)
 .comment       0x0000000000000000       0x24 d:/devkitpro/devkita64/bin/../lib/gcc/aarch64-none-elf/10.1.0/../../../../aarch64-none-elf/lib/pic\libsysbase.a(lseek.o)
 .text          0x0000000000000000        0x0 d:/devkitpro/devkita64/bin/../lib/gcc/aarch64-none-elf/10.1.0/../../../../aarch64-none-elf/lib/pic\libsysbase.a(read.o)
 .data          0x0000000000000000        0x0 d:/devkitpro/devkita64/bin/../lib/gcc/aarch64-none-elf/10.1.0/../../../../aarch64-none-elf/lib/pic\libsysbase.a(read.o)
 .bss           0x0000000000000000        0x0 d:/devkitpro/devkita64/bin/../lib/gcc/aarch64-none-elf/10.1.0/../../../../aarch64-none-elf/lib/pic\libsysbase.a(read.o)
 .comment       0x0000000000000000       0x24 d:/devkitpro/devkita64/bin/../lib/gcc/aarch64-none-elf/10.1.0/../../../../aarch64-none-elf/lib/pic\libsysbase.a(read.o)
 .text          0x0000000000000000        0x0 d:/devkitpro/devkita64/bin/../lib/gcc/aarch64-none-elf/10.1.0/../../../../aarch64-none-elf/lib/pic\libsysbase.a(sbrk.o)
 .data          0x0000000000000000        0x0 d:/devkitpro/devkita64/bin/../lib/gcc/aarch64-none-elf/10.1.0/../../../../aarch64-none-elf/lib/pic\libsysbase.a(sbrk.o)
 .bss           0x0000000000000000        0x0 d:/devkitpro/devkita64/bin/../lib/gcc/aarch64-none-elf/10.1.0/../../../../aarch64-none-elf/lib/pic\libsysbase.a(sbrk.o)
 .comment       0x0000000000000000       0x24 d:/devkitpro/devkita64/bin/../lib/gcc/aarch64-none-elf/10.1.0/../../../../aarch64-none-elf/lib/pic\libsysbase.a(sbrk.o)
 .text          0x0000000000000000        0x0 d:/devkitpro/devkita64/bin/../lib/gcc/aarch64-none-elf/10.1.0/../../../../aarch64-none-elf/lib/pic\libsysbase.a(write.o)
 .data          0x0000000000000000        0x0 d:/devkitpro/devkita64/bin/../lib/gcc/aarch64-none-elf/10.1.0/../../../../aarch64-none-elf/lib/pic\libsysbase.a(write.o)
 .bss           0x0000000000000000        0x0 d:/devkitpro/devkita64/bin/../lib/gcc/aarch64-none-elf/10.1.0/../../../../aarch64-none-elf/lib/pic\libsysbase.a(write.o)
 .comment       0x0000000000000000       0x24 d:/devkitpro/devkita64/bin/../lib/gcc/aarch64-none-elf/10.1.0/../../../../aarch64-none-elf/lib/pic\libsysbase.a(write.o)
 .text          0x0000000000000000        0x0 d:/devkitpro/devkita64/bin/../lib/gcc/aarch64-none-elf/10.1.0/../../../../aarch64-none-elf/lib/pic\libsysbase.a(_exit.o)
 .data          0x0000000000000000        0x0 d:/devkitpro/devkita64/bin/../lib/gcc/aarch64-none-elf/10.1.0/../../../../aarch64-none-elf/lib/pic\libsysbase.a(_exit.o)
 .bss           0x0000000000000000        0x0 d:/devkitpro/devkita64/bin/../lib/gcc/aarch64-none-elf/10.1.0/../../../../aarch64-none-elf/lib/pic\libsysbase.a(_exit.o)
 .comment       0x0000000000000000       0x24 d:/devkitpro/devkita64/bin/../lib/gcc/aarch64-none-elf/10.1.0/../../../../aarch64-none-elf/lib/pic\libsysbase.a(_exit.o)
 .text          0x0000000000000000        0x0 d:/devkitpro/devkita64/bin/../lib/gcc/aarch64-none-elf/10.1.0/../../../../aarch64-none-elf/lib/pic\libsysbase.a(malloc_vars.o)
 .data          0x0000000000000000        0x0 d:/devkitpro/devkita64/bin/../lib/gcc/aarch64-none-elf/10.1.0/../../../../aarch64-none-elf/lib/pic\libsysbase.a(malloc_vars.o)
 .bss           0x0000000000000000        0x0 d:/devkitpro/devkita64/bin/../lib/gcc/aarch64-none-elf/10.1.0/../../../../aarch64-none-elf/lib/pic\libsysbase.a(malloc_vars.o)
 .comment       0x0000000000000000       0x24 d:/devkitpro/devkita64/bin/../lib/gcc/aarch64-none-elf/10.1.0/../../../../aarch64-none-elf/lib/pic\libsysbase.a(malloc_vars.o)
 .text          0x0000000000000000        0x0 d:/devkitpro/devkita64/bin/../lib/gcc/aarch64-none-elf/10.1.0/../../../../aarch64-none-elf/lib/pic\libsysbase.a(chdir.o)
 .data          0x0000000000000000        0x0 d:/devkitpro/devkita64/bin/../lib/gcc/aarch64-none-elf/10.1.0/../../../../aarch64-none-elf/lib/pic\libsysbase.a(chdir.o)
 .bss           0x0000000000000000        0x0 d:/devkitpro/devkita64/bin/../lib/gcc/aarch64-none-elf/10.1.0/../../../../aarch64-none-elf/lib/pic\libsysbase.a(chdir.o)
 .comment       0x0000000000000000       0x24 d:/devkitpro/devkita64/bin/../lib/gcc/aarch64-none-elf/10.1.0/../../../../aarch64-none-elf/lib/pic\libsysbase.a(chdir.o)
 .text          0x0000000000000000        0x0 d:/devkitpro/devkita64/bin/../lib/gcc/aarch64-none-elf/10.1.0/../../../../aarch64-none-elf/lib/pic\libsysbase.a(locks.o)
 .data          0x0000000000000000        0x0 d:/devkitpro/devkita64/bin/../lib/gcc/aarch64-none-elf/10.1.0/../../../../aarch64-none-elf/lib/pic\libsysbase.a(locks.o)
 .bss           0x0000000000000000        0x0 d:/devkitpro/devkita64/bin/../lib/gcc/aarch64-none-elf/10.1.0/../../../../aarch64-none-elf/lib/pic\libsysbase.a(locks.o)
 .comment       0x0000000000000000       0x24 d:/devkitpro/devkita64/bin/../lib/gcc/aarch64-none-elf/10.1.0/../../../../aarch64-none-elf/lib/pic\libsysbase.a(locks.o)
 .text          0x0000000000000000        0x0 d:/devkitpro/devkita64/bin/../lib/gcc/aarch64-none-elf/10.1.0/../../../../aarch64-none-elf/lib/pic\libsysbase.a(handle_manager.o)
 .data          0x0000000000000000        0x0 d:/devkitpro/devkita64/bin/../lib/gcc/aarch64-none-elf/10.1.0/../../../../aarch64-none-elf/lib/pic\libsysbase.a(handle_manager.o)
 .bss           0x0000000000000000        0x0 d:/devkitpro/devkita64/bin/../lib/gcc/aarch64-none-elf/10.1.0/../../../../aarch64-none-elf/lib/pic\libsysbase.a(handle_manager.o)
 .comment       0x0000000000000000       0x24 d:/devkitpro/devkita64/bin/../lib/gcc/aarch64-none-elf/10.1.0/../../../../aarch64-none-elf/lib/pic\libsysbase.a(handle_manager.o)
 .text          0x0000000000000000        0x0 d:/devkitpro/devkita64/bin/../lib/gcc/aarch64-none-elf/10.1.0/../../../../aarch64-none-elf/lib/pic\libsysbase.a(getreent.o)
 .data          0x0000000000000000        0x0 d:/devkitpro/devkita64/bin/../lib/gcc/aarch64-none-elf/10.1.0/../../../../aarch64-none-elf/lib/pic\libsysbase.a(getreent.o)
 .bss           0x0000000000000000        0x0 d:/devkitpro/devkita64/bin/../lib/gcc/aarch64-none-elf/10.1.0/../../../../aarch64-none-elf/lib/pic\libsysbase.a(getreent.o)
 .comment       0x0000000000000000       0x24 d:/devkitpro/devkita64/bin/../lib/gcc/aarch64-none-elf/10.1.0/../../../../aarch64-none-elf/lib/pic\libsysbase.a(getreent.o)
 .text          0x0000000000000000        0x0 d:/devkitpro/devkita64/bin/../lib/gcc/aarch64-none-elf/10.1.0/../../../../aarch64-none-elf/lib/pic\libsysbase.a(clocks.o)
 .data          0x0000000000000000        0x0 d:/devkitpro/devkita64/bin/../lib/gcc/aarch64-none-elf/10.1.0/../../../../aarch64-none-elf/lib/pic\libsysbase.a(clocks.o)
 .bss           0x0000000000000000        0x0 d:/devkitpro/devkita64/bin/../lib/gcc/aarch64-none-elf/10.1.0/../../../../aarch64-none-elf/lib/pic\libsysbase.a(clocks.o)
 .comment       0x0000000000000000       0x24 d:/devkitpro/devkita64/bin/../lib/gcc/aarch64-none-elf/10.1.0/../../../../aarch64-none-elf/lib/pic\libsysbase.a(clocks.o)
 .text          0x0000000000000000        0x0 d:/devkitpro/devkita64/bin/../lib/gcc/aarch64-none-elf/10.1.0/pic\libgcc.a(trunctfdf2.o)
 .data          0x0000000000000000        0x0 d:/devkitpro/devkita64/bin/../lib/gcc/aarch64-none-elf/10.1.0/pic\libgcc.a(trunctfdf2.o)
 .bss           0x0000000000000000        0x0 d:/devkitpro/devkita64/bin/../lib/gcc/aarch64-none-elf/10.1.0/pic\libgcc.a(trunctfdf2.o)
 .comment       0x0000000000000000       0x24 d:/devkitpro/devkita64/bin/../lib/gcc/aarch64-none-elf/10.1.0/pic\libgcc.a(trunctfdf2.o)
 .text          0x0000000000000000        0x0 d:/devkitpro/devkita64/bin/../lib/gcc/aarch64-none-elf/10.1.0/pic\libgcc.a(sfp-exceptions.o)
 .data          0x0000000000000000        0x0 d:/devkitpro/devkita64/bin/../lib/gcc/aarch64-none-elf/10.1.0/pic\libgcc.a(sfp-exceptions.o)
 .bss           0x0000000000000000        0x0 d:/devkitpro/devkita64/bin/../lib/gcc/aarch64-none-elf/10.1.0/pic\libgcc.a(sfp-exceptions.o)
 .comment       0x0000000000000000       0x24 d:/devkitpro/devkita64/bin/../lib/gcc/aarch64-none-elf/10.1.0/pic\libgcc.a(sfp-exceptions.o)
 .data          0x0000000000000000        0x0 d:/devkitpro/devkita64/bin/../lib/gcc/aarch64-none-elf/10.1.0/../../../../aarch64-none-elf/lib/pic\libg.a(lib_a-strrchr.o)
 .bss           0x0000000000000000        0x0 d:/devkitpro/devkita64/bin/../lib/gcc/aarch64-none-elf/10.1.0/../../../../aarch64-none-elf/lib/pic\libg.a(lib_a-strrchr.o)
 .text          0x0000000000000000        0x0 d:/devkitpro/devkita64/bin/../lib/gcc/aarch64-none-elf/10.1.0/pic/crtend.o
 .data          0x0000000000000000        0x0 d:/devkitpro/devkita64/bin/../lib/gcc/aarch64-none-elf/10.1.0/pic/crtend.o
 .bss           0x0000000000000000        0x0 d:/devkitpro/devkita64/bin/../lib/gcc/aarch64-none-elf/10.1.0/pic/crtend.o
 .comment       0x0000000000000000       0x24 d:/devkitpro/devkita64/bin/../lib/gcc/aarch64-none-elf/10.1.0/pic/crtend.o
 .text          0x0000000000000000        0x0 d:/devkitpro/devkita64/bin/../lib/gcc/aarch64-none-elf/10.1.0/pic/crtn.o
 .data          0x0000000000000000        0x0 d:/devkitpro/devkita64/bin/../lib/gcc/aarch64-none-elf/10.1.0/pic/crtn.o
 .bss           0x0000000000000000        0x0 d:/devkitpro/devkita64/bin/../lib/gcc/aarch64-none-elf/10.1.0/pic/crtn.o

Memory Configuration

Name             Origin             Length             Attributes
*default*        0x0000000000000000 0xffffffffffffffff

Linker script and memory map

                0x0000000000000000                PROVIDE (__start__ = 0x0)
                0x0000000000000000                . = __start__

.crt0           0x0000000000000000      0x158
 *(.crt0)
 .crt0          0x0000000000000000      0x158 D:/githubRepos/code-mod-example/code-mod-framework/lib/libnx_min/nx/lib\libnx_min.a(switch_crt0.o)
                0x0000000000000000                _start
                0x0000000000000120                __nx_exit
                0x0000000000000130                __nx_mod0
                0x0000000000000158                . = ALIGN (0x8)

.init           0x0000000000000158       0x38
 *(.init)
 .init          0x0000000000000158       0x18 d:/devkitpro/devkita64/bin/../lib/gcc/aarch64-none-elf/10.1.0/pic/crti.o
                0x0000000000000158                _init
 .init          0x0000000000000170       0x1c d:/devkitpro/devkita64/bin/../lib/gcc/aarch64-none-elf/10.1.0/pic/crtn.o
                0x0000000000000190                . = ALIGN (0x8)
 *fill*         0x000000000000018c        0x4 

.plt            0x0000000000000190       0xa0
 *(.plt)
 .plt           0x0000000000000190       0xa0 d:/devkitpro/devkita64/bin/../lib/gcc/aarch64-none-elf/10.1.0/pic/crti.o
 *(.iplt)
                0x0000000000000230                . = ALIGN (0x8)

.text           0x0000000000000240    0x314a0
 *(.text.unlikely .text.*_unlikely .text.unlikely.*)
 *(.text.exit .text.exit.*)
 .text.exit     0x0000000000000240       0x38 d:/devkitpro/devkita64/bin/../lib/gcc/aarch64-none-elf/10.1.0/../../../../aarch64-none-elf/lib/pic\libg.a(lib_a-exit.o)
                0x0000000000000240                exit
 *(.text.startup .text.startup.*)
 *fill*         0x0000000000000278        0x8 
 .text.startup  0x0000000000000280      0x16c main.o
                0x0000000000000280                main
 *(.text.hot .text.hot.*)
 *(.text .stub .text.* .gnu.linkonce.t.*)
 *fill*         0x00000000000003ec        0x4 
 .text.deregister_tm_clones
                0x00000000000003f0       0x30 d:/devkitpro/devkita64/bin/../lib/gcc/aarch64-none-elf/10.1.0/pic/crtbegin.o
 .text.register_tm_clones
                0x0000000000000420       0x3c d:/devkitpro/devkita64/bin/../lib/gcc/aarch64-none-elf/10.1.0/pic/crtbegin.o
 *fill*         0x000000000000045c        0x4 
 .text.__do_global_dtors_aux
                0x0000000000000460       0x48 d:/devkitpro/devkita64/bin/../lib/gcc/aarch64-none-elf/10.1.0/pic/crtbegin.o
 *fill*         0x00000000000004a8        0x8 
 .text.frame_dummy
                0x00000000000004b0       0x34 d:/devkitpro/devkita64/bin/../lib/gcc/aarch64-none-elf/10.1.0/pic/crtbegin.o
 *fill*         0x00000000000004e4        0xc 
 .text          0x00000000000004f0     0x1c70 main.o
                0x00000000000004f0                __entry_cliff(unsigned long)
                0x00000000000005b0                __can_entry_cliff(unsigned long, unsigned long&)
                0x00000000000006e0                __leave_cliff(unsigned long)
                0x0000000000000780                is_enable_transition_term_replace(unsigned long, int)
                0x00000000000007f0                __is_grab(unsigned long, int)
                0x0000000000000870                __init_settings(unsigned long, unsigned long, int, unsigned long, unsigned long, bool, int, int, int, int)
                0x0000000000000c90                get_param_float_replace(unsigned long, unsigned long, unsigned long)
                0x0000000000000dd0                replace_scripts(lib::L2CAgent*, unsigned char, int)
                0x0000000000000eb0                sv_get_status_func(unsigned long, int, unsigned long)
                0x0000000000000f00                sv_replace_status_func(unsigned long, int, unsigned long, void*)
                0x0000000000000f40                clear_lua_stack_replace(lib::L2CAgent*)
                0x0000000000000fc0                script_replacement()
                0x0000000000000fd0                get_player_number(unsigned long)
                0x0000000000001010                jump_checker_buffer(unsigned long, int)
                0x0000000000001080                jabCancels(unsigned long&, int&, unsigned long&, float, float)
                0x0000000000001360                jumpCancelGrab(unsigned long&, int&, unsigned long&, float)
                0x0000000000001430                otherCancels(unsigned long&, int&, unsigned long&, float, float)
                0x0000000000001550                dacus(unsigned long&, int&, unsigned long&, float)
                0x00000000000016c0                landingLagCancel(unsigned long&, int&, unsigned long&)
                0x0000000000001790                jumpCancels(unsigned long, int, unsigned long, unsigned long)
                0x0000000000001c70                landCancels(unsigned long, int&, int, int)
                0x0000000000001db0                get_command_flag_cat_replace(unsigned long, int)
                0x0000000000001fa0                UniversalTech()
                0x0000000000002070                lcancelparams(unsigned long&, unsigned long&, unsigned long&)
                0x0000000000002090                get_param_replaces()
                0x00000000000020c0                __libnx_init
                0x0000000000002110                __libnx_exit
 .text._ZN9acmd_objsMUlP4ACMDE0_4_FUNES0_
                0x0000000000002160      0x36c main.o
                0x0000000000002160                acmd_objs::{lambda(ACMD*)#2}::_FUN(ACMD)
 *fill*         0x00000000000024cc        0x4 
 .text._ZN9acmd_objsMUlP4ACMDE_4_FUNES0_
                0x00000000000024d0      0x444 main.o
                0x00000000000024d0                acmd_objs::{lambda(ACMD*)#1}::_FUN(ACMD)
 *fill*         0x0000000000002914        0xc 
 .text._ZN9acmd_objsMUlP4ACMDE1_4_FUNES0_
                0x0000000000002920      0x4f4 main.o
                0x0000000000002920                acmd_objs::{lambda(ACMD*)#3}::_FUN(ACMD)
 *fill*         0x0000000000002e14        0xc 
 .text          0x0000000000002e20      0xc78 acmd_wrapper.o
                0x0000000000002e20                is_before_frame(unsigned long, float)
                0x0000000000002e50                null_acmd_func(lib::L2CAgent*, void*)
                0x0000000000002e60                load_module(unsigned long, unsigned long)
                0x0000000000002e70                load_module_impl(unsigned long, unsigned long)
                0x0000000000002e80                ACMD::ACMD()
                0x0000000000002e80                ACMD::ACMD()
                0x0000000000002e90                ACMD::ACMD(char const*, char const*, char const*, char const*, void (*)(ACMD*))
                0x0000000000002e90                ACMD::ACMD(char const*, char const*, char const*, char const*, void (*)(ACMD*))
                0x0000000000002eb0                ACMD::match()
                0x0000000000002f30                ACMD::nullify_original(lib::L2CAgent*)
                0x0000000000003000                ACMD::run(lib::L2CAgent*)
                0x00000000000030f0                ACMD::frame(float)
                0x0000000000003110                ACMD::wait(float)
                0x0000000000003120                ACMD::is_excute()
                0x00000000000031a0                ACMD::_frame(float)
                0x0000000000003230                ACMD::_frame_reimpl(float)
                0x0000000000003320                ACMD::_wait(float)
                0x00000000000033b0                ACMD::_is_excute()
                0x0000000000003450                ACMD::wrap(void (*)(unsigned long), std::initializer_list<lib::L2CValue>)
                0x00000000000034f0                ACMD::ATTACK(unsigned long, unsigned long, unsigned long, float, unsigned long, unsigned long, unsigned long, unsigned long, float, float, float, float, float, float, unsigned long, unsigned long, unsigned long, unsigned long, float, unsigned long, unsigned long, unsigned long, unsigned long, unsigned long, unsigned long, unsigned long, unsigned long, unsigned long, unsigned long, unsigned long, unsigned long, unsigned long, unsigned long)
                0x00000000000037d0                ACMD::ATTACK(unsigned long, unsigned long, unsigned long, float, unsigned long, unsigned long, unsigned long, unsigned long, float, float, float, float, float, float, float, float, float, unsigned long, unsigned long, unsigned long, unsigned long, float, unsigned long, unsigned long, unsigned long, unsigned long, unsigned long, unsigned long, unsigned long, unsigned long, unsigned long, unsigned long, unsigned long, unsigned long, unsigned long, unsigned long)
 *fill*         0x0000000000003a98        0x8 
 .text          0x0000000000003aa0      0x1e8 saltysd_helper.o
                0x0000000000003aa0                SaltySD_function_replace(unsigned long, unsigned long)
                0x0000000000003b10                SaltySD_function_replace_sym(char*, unsigned long)
                0x0000000000003b90                SaltySD_function_replace_sym_check_prev(char*, unsigned long, unsigned long&)
 *fill*         0x0000000000003c88        0x8 
 .text          0x0000000000003c90      0x12c l2c_imports.o
                0x0000000000003c90                lib::lua_const(char const*)
                0x0000000000003cd0                lib::L2CValue::L2CValue()
                0x0000000000003cd0                lib::L2CValue::L2CValue()
                0x0000000000003ce0                lib::L2CValue::L2CValue(bool)
                0x0000000000003ce0                lib::L2CValue::L2CValue(bool)
                0x0000000000003d00                lib::L2CValue::L2CValue(int)
                0x0000000000003d00                lib::L2CValue::L2CValue(int)
                0x0000000000003d20                lib::L2CValue::L2CValue(unsigned long)
                0x0000000000003d20                lib::L2CValue::L2CValue(unsigned long)
                0x0000000000003d30                lib::L2CValue::L2CValue(float)
                0x0000000000003d30                lib::L2CValue::L2CValue(float)
                0x0000000000003d40                lib::L2CValue::L2CValue(double)
                0x0000000000003d40                lib::L2CValue::L2CValue(double)
                0x0000000000003d60                lib::L2CValue::L2CValue(char const*)
                0x0000000000003d60                lib::L2CValue::L2CValue(char const*)
                0x0000000000003d70                lib::L2CAgent::get_lua_stack(int, lib::L2CValue*)
                0x0000000000003d80                lib::L2CAgent::_clear_lua_stack()
 *fill*         0x0000000000003dbc        0x4 
 .text          0x0000000000003dc0      0x360 lua_bind_hash.o
                0x0000000000003dc0                lua_bind_hash(void const*, unsigned long)
                0x00000000000040f0                lua_bind_hash_str(char const*)
 .text          0x0000000000004120      0x540 raygun_printer.o
                0x0000000000004120                show_segment(unsigned long, float, float, float, float, float)
                0x00000000000041f0                alphabet_index(char)
                0x0000000000004260                print_char(unsigned long, char, int, float, float)
                0x0000000000004400                print_string(unsigned long, char const*, ...)
 .text.__libnx_exception_entry
                0x0000000000004660      0x1c0 D:/githubRepos/code-mod-example/code-mod-framework/lib/libnx_min/nx/lib\libnx_min.a(exception.o)
                0x0000000000004660                __libnx_exception_entry
 .text.__libnx_exception_returnentry
                0x0000000000004820       0x18 D:/githubRepos/code-mod-example/code-mod-framework/lib/libnx_min/nx/lib\libnx_min.a(exception.o)
                0x0000000000004820                __libnx_exception_returnentry
 *fill*         0x0000000000004838        0x8 
 .text.argvSetup
                0x0000000000004840      0x318 D:/githubRepos/code-mod-example/code-mod-framework/lib/libnx_min/nx/lib\libnx_min.a(argv.o)
                0x0000000000004840                argvSetup
 *fill*         0x0000000000004b58        0x8 
 .text.envSetup
                0x0000000000004b60      0x208 D:/githubRepos/code-mod-example/code-mod-framework/lib/libnx_min/nx/lib\libnx_min.a(env.o)
                0x0000000000004b60                envSetup
 *fill*         0x0000000000004d68        0x8 
 .text.envGetMainThreadHandle
                0x0000000000004d70       0x20 D:/githubRepos/code-mod-example/code-mod-framework/lib/libnx_min/nx/lib\libnx_min.a(env.o)
                0x0000000000004d70                envGetMainThreadHandle
 .text.envIsNso
                0x0000000000004d90        0xc D:/githubRepos/code-mod-example/code-mod-framework/lib/libnx_min/nx/lib\libnx_min.a(env.o)
                0x0000000000004d90                envIsNso
 *fill*         0x0000000000004d9c        0x4 
 .text.envHasHeapOverride
                0x0000000000004da0       0x14 D:/githubRepos/code-mod-example/code-mod-framework/lib/libnx_min/nx/lib\libnx_min.a(env.o)
                0x0000000000004da0                envHasHeapOverride
 *fill*         0x0000000000004db4        0xc 
 .text.envGetHeapOverrideAddr
                0x0000000000004dc0        0xc D:/githubRepos/code-mod-example/code-mod-framework/lib/libnx_min/nx/lib\libnx_min.a(env.o)
                0x0000000000004dc0                envGetHeapOverrideAddr
 *fill*         0x0000000000004dcc        0x4 
 .text.envGetHeapOverrideSize
                0x0000000000004dd0        0xc D:/githubRepos/code-mod-example/code-mod-framework/lib/libnx_min/nx/lib\libnx_min.a(env.o)
                0x0000000000004dd0                envGetHeapOverrideSize
 *fill*         0x0000000000004ddc        0x4 
 .text.envHasArgv
                0x0000000000004de0       0x14 D:/githubRepos/code-mod-example/code-mod-framework/lib/libnx_min/nx/lib\libnx_min.a(env.o)
                0x0000000000004de0                envHasArgv
 *fill*         0x0000000000004df4        0xc 
 .text.envGetArgv
                0x0000000000004e00        0xc D:/githubRepos/code-mod-example/code-mod-framework/lib/libnx_min/nx/lib\libnx_min.a(env.o)
                0x0000000000004e00                envGetArgv
 *fill*         0x0000000000004e0c        0x4 
 .text.envIsSyscallHinted
                0x0000000000004e10       0x20 D:/githubRepos/code-mod-example/code-mod-framework/lib/libnx_min/nx/lib\libnx_min.a(env.o)
                0x0000000000004e10                envIsSyscallHinted
 .text.envGetOwnProcessHandle
                0x0000000000004e30        0xc D:/githubRepos/code-mod-example/code-mod-framework/lib/libnx_min/nx/lib\libnx_min.a(env.o)
                0x0000000000004e30                envGetOwnProcessHandle
 *fill*         0x0000000000004e3c        0x4 
 .text.envGetExitFuncPtr
                0x0000000000004e40        0xc D:/githubRepos/code-mod-example/code-mod-framework/lib/libnx_min/nx/lib\libnx_min.a(env.o)
                0x0000000000004e40                envGetExitFuncPtr
 *fill*         0x0000000000004e4c        0x4 
 .text.envSetExitFuncPtr
                0x0000000000004e50        0xc D:/githubRepos/code-mod-example/code-mod-framework/lib/libnx_min/nx/lib\libnx_min.a(env.o)
                0x0000000000004e50                envSetExitFuncPtr
 *fill*         0x0000000000004e5c        0x4 
 .text.envSetNextLoad
                0x0000000000004e60       0x7c D:/githubRepos/code-mod-example/code-mod-framework/lib/libnx_min/nx/lib\libnx_min.a(env.o)
                0x0000000000004e60                envSetNextLoad
 *fill*         0x0000000000004edc        0x4 
 .text.envHasNextLoad
                0x0000000000004ee0       0x14 D:/githubRepos/code-mod-example/code-mod-framework/lib/libnx_min/nx/lib\libnx_min.a(env.o)
                0x0000000000004ee0                envHasNextLoad
 *fill*         0x0000000000004ef4        0xc 
 .text.envGetLastLoadResult
                0x0000000000004f00        0xc D:/githubRepos/code-mod-example/code-mod-framework/lib/libnx_min/nx/lib\libnx_min.a(env.o)
                0x0000000000004f00                envGetLastLoadResult
 *fill*         0x0000000000004f0c        0x4 
 .text.envHasRandomSeed
                0x0000000000004f10        0xc D:/githubRepos/code-mod-example/code-mod-framework/lib/libnx_min/nx/lib\libnx_min.a(env.o)
                0x0000000000004f10                envHasRandomSeed
 *fill*         0x0000000000004f1c        0x4 
 .text.envGetRandomSeed
                0x0000000000004f20       0x18 D:/githubRepos/code-mod-example/code-mod-framework/lib/libnx_min/nx/lib\libnx_min.a(env.o)
                0x0000000000004f20                envGetRandomSeed
 *fill*         0x0000000000004f38        0x8 
 .text.__libnx_initheap
                0x0000000000004f40       0xd8 D:/githubRepos/code-mod-example/code-mod-framework/lib/libnx_min/nx/lib\libnx_min.a(init.o)
                0x0000000000004f40                __libnx_initheap
 *fill*         0x0000000000005018        0x8 
 .text.__appInit
                0x0000000000005020       0xdc D:/githubRepos/code-mod-example/code-mod-framework/lib/libnx_min/nx/lib\libnx_min.a(init.o)
                0x0000000000005020                __appInit
 *fill*         0x00000000000050fc        0x4 
 .text.__appExit
                0x0000000000005100       0x44 D:/githubRepos/code-mod-example/code-mod-framework/lib/libnx_min/nx/lib\libnx_min.a(init.o)
                0x0000000000005100                __appExit
 *fill*         0x0000000000005144        0xc 
 .text.hosversionGet
                0x0000000000005150       0x10 D:/githubRepos/code-mod-example/code-mod-framework/lib/libnx_min/nx/lib\libnx_min.a(hosversion.o)
                0x0000000000005150                hosversionGet
 .text.hosversionSet
                0x0000000000005160       0x10 D:/githubRepos/code-mod-example/code-mod-framework/lib/libnx_min/nx/lib\libnx_min.a(hosversion.o)
                0x0000000000005160                hosversionSet
 .text.__nx_dynamic
                0x0000000000005170       0xa0 D:/githubRepos/code-mod-example/code-mod-framework/lib/libnx_min/nx/lib\libnx_min.a(dynamic.o)
                0x0000000000005170                __nx_dynamic
 .text.fsdev_link
                0x0000000000005210       0x10 D:/githubRepos/code-mod-example/code-mod-framework/lib/libnx_min/nx/lib\libnx_min.a(fs_dev.o)
 .text.fsdev_dirreset
                0x0000000000005220       0x10 D:/githubRepos/code-mod-example/code-mod-framework/lib/libnx_min/nx/lib\libnx_min.a(fs_dev.o)
 .text.fsdev_chmod
                0x0000000000005230       0x10 D:/githubRepos/code-mod-example/code-mod-framework/lib/libnx_min/nx/lib\libnx_min.a(fs_dev.o)
 .text.error_cmp
                0x0000000000005240       0x1c D:/githubRepos/code-mod-example/code-mod-framework/lib/libnx_min/nx/lib\libnx_min.a(fs_dev.o)
 *fill*         0x000000000000525c        0x4 
 .text.fsdev_translate_error
                0x0000000000005260       0x5c D:/githubRepos/code-mod-example/code-mod-framework/lib/libnx_min/nx/lib\libnx_min.a(fs_dev.o)
 *fill*         0x00000000000052bc        0x4 
 .text.fsdev_fsync
                0x00000000000052c0       0x40 D:/githubRepos/code-mod-example/code-mod-framework/lib/libnx_min/nx/lib\libnx_min.a(fs_dev.o)
 .text.fsdev_ftruncate
                0x0000000000005300       0x60 D:/githubRepos/code-mod-example/code-mod-framework/lib/libnx_min/nx/lib\libnx_min.a(fs_dev.o)
 .text.fsdev_dirclose
                0x0000000000005360       0x20 D:/githubRepos/code-mod-example/code-mod-framework/lib/libnx_min/nx/lib\libnx_min.a(fs_dev.o)
 .text.fsdev_dirnext
                0x0000000000005380      0x16c D:/githubRepos/code-mod-example/code-mod-framework/lib/libnx_min/nx/lib\libnx_min.a(fs_dev.o)
 *fill*         0x00000000000054ec        0x4 
 .text.fsdev_close
                0x00000000000054f0       0x1c D:/githubRepos/code-mod-example/code-mod-framework/lib/libnx_min/nx/lib\libnx_min.a(fs_dev.o)
 *fill*         0x000000000000550c        0x4 
 .text.fsdev_fstat
                0x0000000000005510       0xa4 D:/githubRepos/code-mod-example/code-mod-framework/lib/libnx_min/nx/lib\libnx_min.a(fs_dev.o)
 *fill*         0x00000000000055b4        0xc 
 .text.fsdev_seek
                0x00000000000055c0       0xb0 D:/githubRepos/code-mod-example/code-mod-framework/lib/libnx_min/nx/lib\libnx_min.a(fs_dev.o)
 .text.fsdev_read
                0x0000000000005670      0x1a0 D:/githubRepos/code-mod-example/code-mod-framework/lib/libnx_min/nx/lib\libnx_min.a(fs_dev.o)
 .text.fsdev_write
                0x0000000000005810      0x1a8 D:/githubRepos/code-mod-example/code-mod-framework/lib/libnx_min/nx/lib\libnx_min.a(fs_dev.o)
 *fill*         0x00000000000059b8        0x8 
 .text.fsdevFindDevice
                0x00000000000059c0      0x120 D:/githubRepos/code-mod-example/code-mod-framework/lib/libnx_min/nx/lib\libnx_min.a(fs_dev.o)
 .text._fsdevMountDevice
                0x0000000000005ae0      0x140 D:/githubRepos/code-mod-example/code-mod-framework/lib/libnx_min/nx/lib\libnx_min.a(fs_dev.o)
 .text.fsdev_getfspath
                0x0000000000005c20      0x1fc D:/githubRepos/code-mod-example/code-mod-framework/lib/libnx_min/nx/lib\libnx_min.a(fs_dev.o)
 *fill*         0x0000000000005e1c        0x4 
 .text.fsdev_rmdir
                0x0000000000005e20       0x70 D:/githubRepos/code-mod-example/code-mod-framework/lib/libnx_min/nx/lib\libnx_min.a(fs_dev.o)
 .text.fsdev_statvfs
                0x0000000000005e90       0xd4 D:/githubRepos/code-mod-example/code-mod-framework/lib/libnx_min/nx/lib\libnx_min.a(fs_dev.o)
 *fill*         0x0000000000005f64        0xc 
 .text.fsdev_diropen
                0x0000000000005f70       0xec D:/githubRepos/code-mod-example/code-mod-framework/lib/libnx_min/nx/lib\libnx_min.a(fs_dev.o)
 *fill*         0x000000000000605c        0x4 
 .text.fsdev_mkdir
                0x0000000000006060       0x70 D:/githubRepos/code-mod-example/code-mod-framework/lib/libnx_min/nx/lib\libnx_min.a(fs_dev.o)
 .text.fsdev_rename
                0x00000000000060d0      0x114 D:/githubRepos/code-mod-example/code-mod-framework/lib/libnx_min/nx/lib\libnx_min.a(fs_dev.o)
 *fill*         0x00000000000061e4        0xc 
 .text.fsdev_chdir
                0x00000000000061f0       0xe8 D:/githubRepos/code-mod-example/code-mod-framework/lib/libnx_min/nx/lib\libnx_min.a(fs_dev.o)
 *fill*         0x00000000000062d8        0x8 
 .text.fsdev_unlink
                0x00000000000062e0       0x70 D:/githubRepos/code-mod-example/code-mod-framework/lib/libnx_min/nx/lib\libnx_min.a(fs_dev.o)
 .text.fsdev_stat
                0x0000000000006350      0x1bc D:/githubRepos/code-mod-example/code-mod-framework/lib/libnx_min/nx/lib\libnx_min.a(fs_dev.o)
 *fill*         0x000000000000650c        0x4 
 .text.fsdev_open
                0x0000000000006510      0x19c D:/githubRepos/code-mod-example/code-mod-framework/lib/libnx_min/nx/lib\libnx_min.a(fs_dev.o)
 *fill*         0x00000000000066ac        0x4 
 .text._fsdevUnmountDeviceStruct.part.4
                0x00000000000066b0       0xb8 D:/githubRepos/code-mod-example/code-mod-framework/lib/libnx_min/nx/lib\libnx_min.a(fs_dev.o)
 *fill*         0x0000000000006768        0x8 
 .text.fsdev_fchmod
                0x0000000000006770       0x10 D:/githubRepos/code-mod-example/code-mod-framework/lib/libnx_min/nx/lib\libnx_min.a(fs_dev.o)
 .text.fsdevMountDevice
                0x0000000000006780       0x14 D:/githubRepos/code-mod-example/code-mod-framework/lib/libnx_min/nx/lib\libnx_min.a(fs_dev.o)
                0x0000000000006780                fsdevMountDevice
 *fill*         0x0000000000006794        0xc 
 .text.fsdevUnmountDevice
                0x00000000000067a0       0x3c D:/githubRepos/code-mod-example/code-mod-framework/lib/libnx_min/nx/lib\libnx_min.a(fs_dev.o)
                0x00000000000067a0                fsdevUnmountDevice
 *fill*         0x00000000000067dc        0x4 
 .text.fsdevCommitDevice
                0x00000000000067e0       0x28 D:/githubRepos/code-mod-example/code-mod-framework/lib/libnx_min/nx/lib\libnx_min.a(fs_dev.o)
                0x00000000000067e0                fsdevCommitDevice
 *fill*         0x0000000000006808        0x8 
 .text.fsdevSetArchiveBit
                0x0000000000006810       0x68 D:/githubRepos/code-mod-example/code-mod-framework/lib/libnx_min/nx/lib\libnx_min.a(fs_dev.o)
                0x0000000000006810                fsdevSetArchiveBit
 *fill*         0x0000000000006878        0x8 
 .text.fsdevCreateFile
                0x0000000000006880       0x88 D:/githubRepos/code-mod-example/code-mod-framework/lib/libnx_min/nx/lib\libnx_min.a(fs_dev.o)
                0x0000000000006880                fsdevCreateFile
 *fill*         0x0000000000006908        0x8 
 .text.fsdevDeleteDirectoryRecursively
                0x0000000000006910       0x68 D:/githubRepos/code-mod-example/code-mod-framework/lib/libnx_min/nx/lib\libnx_min.a(fs_dev.o)
                0x0000000000006910                fsdevDeleteDirectoryRecursively
 *fill*         0x0000000000006978        0x8 
 .text.fsdevMountSdmc
                0x0000000000006980      0x170 D:/githubRepos/code-mod-example/code-mod-framework/lib/libnx_min/nx/lib\libnx_min.a(fs_dev.o)
                0x0000000000006980                fsdevMountSdmc
 .text.fsdevUnmountAll
                0x0000000000006af0       0x64 D:/githubRepos/code-mod-example/code-mod-framework/lib/libnx_min/nx/lib\libnx_min.a(fs_dev.o)
                0x0000000000006af0                fsdevUnmountAll
 *fill*         0x0000000000006b54        0xc 
 .text.fsdevGetDeviceFileSystem
                0x0000000000006b60       0x20 D:/githubRepos/code-mod-example/code-mod-framework/lib/libnx_min/nx/lib\libnx_min.a(fs_dev.o)
                0x0000000000006b60                fsdevGetDeviceFileSystem
 .text.fsdevGetDefaultFileSystem
                0x0000000000006b80       0x40 D:/githubRepos/code-mod-example/code-mod-framework/lib/libnx_min/nx/lib\libnx_min.a(fs_dev.o)
                0x0000000000006b80                fsdevGetDefaultFileSystem
 .text.fsdevTranslatePath
                0x0000000000006bc0       0x58 D:/githubRepos/code-mod-example/code-mod-framework/lib/libnx_min/nx/lib\libnx_min.a(fs_dev.o)
                0x0000000000006bc0                fsdevTranslatePath
 *fill*         0x0000000000006c18        0x8 
 .text.fsdev_getmtime
                0x0000000000006c20       0x20 D:/githubRepos/code-mod-example/code-mod-framework/lib/libnx_min/nx/lib\libnx_min.a(fs_dev.o)
                0x0000000000006c20                fsdev_getmtime
 .text.fsdevGetLastResult
                0x0000000000006c40       0x20 D:/githubRepos/code-mod-example/code-mod-framework/lib/libnx_min/nx/lib\libnx_min.a(fs_dev.o)
                0x0000000000006c40                fsdevGetLastResult
 .text.decode_utf8
                0x0000000000006c60      0x12c D:/githubRepos/code-mod-example/code-mod-framework/lib/libnx_min/nx/lib\libnx_min.a(decode_utf8.o)
                0x0000000000006c60                decode_utf8
 .text.svcSetHeapSize
                0x0000000000006d8c       0x14 D:/githubRepos/code-mod-example/code-mod-framework/lib/libnx_min/nx/lib\libnx_min.a(svc.o)
                0x0000000000006d8c                svcSetHeapSize
 .text.svcSetMemoryPermission
                0x0000000000006da0        0x8 D:/githubRepos/code-mod-example/code-mod-framework/lib/libnx_min/nx/lib\libnx_min.a(svc.o)
                0x0000000000006da0                svcSetMemoryPermission
 .text.svcSetMemoryAttribute
                0x0000000000006da8        0x8 D:/githubRepos/code-mod-example/code-mod-framework/lib/libnx_min/nx/lib\libnx_min.a(svc.o)
                0x0000000000006da8                svcSetMemoryAttribute
 .text.svcMapMemory
                0x0000000000006db0        0x8 D:/githubRepos/code-mod-example/code-mod-framework/lib/libnx_min/nx/lib\libnx_min.a(svc.o)
                0x0000000000006db0                svcMapMemory
 .text.svcUnmapMemory
                0x0000000000006db8        0x8 D:/githubRepos/code-mod-example/code-mod-framework/lib/libnx_min/nx/lib\libnx_min.a(svc.o)
                0x0000000000006db8                svcUnmapMemory
 .text.svcQueryMemory
                0x0000000000006dc0       0x14 D:/githubRepos/code-mod-example/code-mod-framework/lib/libnx_min/nx/lib\libnx_min.a(svc.o)
                0x0000000000006dc0                svcQueryMemory
 .text.svcExitProcess
                0x0000000000006dd4        0x8 D:/githubRepos/code-mod-example/code-mod-framework/lib/libnx_min/nx/lib\libnx_min.a(svc.o)
                0x0000000000006dd4                svcExitProcess
 .text.svcCreateThread
                0x0000000000006ddc       0x14 D:/githubRepos/code-mod-example/code-mod-framework/lib/libnx_min/nx/lib\libnx_min.a(svc.o)
                0x0000000000006ddc                svcCreateThread
 .text.svcStartThread
                0x0000000000006df0        0x8 D:/githubRepos/code-mod-example/code-mod-framework/lib/libnx_min/nx/lib\libnx_min.a(svc.o)
                0x0000000000006df0                svcStartThread
 .text.svcExitThread
                0x0000000000006df8        0x8 D:/githubRepos/code-mod-example/code-mod-framework/lib/libnx_min/nx/lib\libnx_min.a(svc.o)
                0x0000000000006df8                svcExitThread
 .text.svcSleepThread
                0x0000000000006e00        0x8 D:/githubRepos/code-mod-example/code-mod-framework/lib/libnx_min/nx/lib\libnx_min.a(svc.o)
                0x0000000000006e00                svcSleepThread
 .text.svcGetThreadPriority
                0x0000000000006e08       0x14 D:/githubRepos/code-mod-example/code-mod-framework/lib/libnx_min/nx/lib\libnx_min.a(svc.o)
                0x0000000000006e08                svcGetThreadPriority
 .text.svcSetThreadPriority
                0x0000000000006e1c        0x8 D:/githubRepos/code-mod-example/code-mod-framework/lib/libnx_min/nx/lib\libnx_min.a(svc.o)
                0x0000000000006e1c                svcSetThreadPriority
 .text.svcGetThreadCoreMask
                0x0000000000006e24       0x18 D:/githubRepos/code-mod-example/code-mod-framework/lib/libnx_min/nx/lib\libnx_min.a(svc.o)
                0x0000000000006e24                svcGetThreadCoreMask
 .text.svcSetThreadCoreMask
                0x0000000000006e3c        0x8 D:/githubRepos/code-mod-example/code-mod-framework/lib/libnx_min/nx/lib\libnx_min.a(svc.o)
                0x0000000000006e3c                svcSetThreadCoreMask
 .text.svcGetCurrentProcessorNumber
                0x0000000000006e44        0x8 D:/githubRepos/code-mod-example/code-mod-framework/lib/libnx_min/nx/lib\libnx_min.a(svc.o)
                0x0000000000006e44                svcGetCurrentProcessorNumber
 .text.svcSignalEvent
                0x0000000000006e4c        0x8 D:/githubRepos/code-mod-example/code-mod-framework/lib/libnx_min/nx/lib\libnx_min.a(svc.o)
                0x0000000000006e4c                svcSignalEvent
 .text.svcClearEvent
                0x0000000000006e54        0x8 D:/githubRepos/code-mod-example/code-mod-framework/lib/libnx_min/nx/lib\libnx_min.a(svc.o)
                0x0000000000006e54                svcClearEvent
 .text.svcMapSharedMemory
                0x0000000000006e5c        0x8 D:/githubRepos/code-mod-example/code-mod-framework/lib/libnx_min/nx/lib\libnx_min.a(svc.o)
                0x0000000000006e5c                svcMapSharedMemory
 .text.svcUnmapSharedMemory
                0x0000000000006e64        0x8 D:/githubRepos/code-mod-example/code-mod-framework/lib/libnx_min/nx/lib\libnx_min.a(svc.o)
                0x0000000000006e64                svcUnmapSharedMemory
 .text.svcCreateTransferMemory
                0x0000000000006e6c       0x14 D:/githubRepos/code-mod-example/code-mod-framework/lib/libnx_min/nx/lib\libnx_min.a(svc.o)
                0x0000000000006e6c                svcCreateTransferMemory
 .text.svcCloseHandle
                0x0000000000006e80        0x8 D:/githubRepos/code-mod-example/code-mod-framework/lib/libnx_min/nx/lib\libnx_min.a(svc.o)
                0x0000000000006e80                svcCloseHandle
 .text.svcResetSignal
                0x0000000000006e88        0x8 D:/githubRepos/code-mod-example/code-mod-framework/lib/libnx_min/nx/lib\libnx_min.a(svc.o)
                0x0000000000006e88                svcResetSignal
 .text.svcWaitSynchronization
                0x0000000000006e90       0x14 D:/githubRepos/code-mod-example/code-mod-framework/lib/libnx_min/nx/lib\libnx_min.a(svc.o)
                0x0000000000006e90                svcWaitSynchronization
 .text.svcCancelSynchronization
                0x0000000000006ea4        0x8 D:/githubRepos/code-mod-example/code-mod-framework/lib/libnx_min/nx/lib\libnx_min.a(svc.o)
                0x0000000000006ea4                svcCancelSynchronization
 .text.svcArbitrateLock
                0x0000000000006eac        0x8 D:/githubRepos/code-mod-example/code-mod-framework/lib/libnx_min/nx/lib\libnx_min.a(svc.o)
                0x0000000000006eac                svcArbitrateLock
 .text.svcArbitrateUnlock
                0x0000000000006eb4        0x8 D:/githubRepos/code-mod-example/code-mod-framework/lib/libnx_min/nx/lib\libnx_min.a(svc.o)
                0x0000000000006eb4                svcArbitrateUnlock
 .text.svcWaitProcessWideKeyAtomic
                0x0000000000006ebc        0x8 D:/githubRepos/code-mod-example/code-mod-framework/lib/libnx_min/nx/lib\libnx_min.a(svc.o)
                0x0000000000006ebc                svcWaitProcessWideKeyAtomic
 .text.svcSignalProcessWideKey
                0x0000000000006ec4        0x8 D:/githubRepos/code-mod-example/code-mod-framework/lib/libnx_min/nx/lib\libnx_min.a(svc.o)
                0x0000000000006ec4                svcSignalProcessWideKey
 .text.svcGetSystemTick
                0x0000000000006ecc        0x8 D:/githubRepos/code-mod-example/code-mod-framework/lib/libnx_min/nx/lib\libnx_min.a(svc.o)
                0x0000000000006ecc                svcGetSystemTick
 .text.svcConnectToNamedPort
                0x0000000000006ed4       0x14 D:/githubRepos/code-mod-example/code-mod-framework/lib/libnx_min/nx/lib\libnx_min.a(svc.o)
                0x0000000000006ed4                svcConnectToNamedPort
 .text.svcSendSyncRequest
                0x0000000000006ee8        0x8 D:/githubRepos/code-mod-example/code-mod-framework/lib/libnx_min/nx/lib\libnx_min.a(svc.o)
                0x0000000000006ee8                svcSendSyncRequest
 .text.svcSendSyncRequestWithUserBuffer
                0x0000000000006ef0        0x8 D:/githubRepos/code-mod-example/code-mod-framework/lib/libnx_min/nx/lib\libnx_min.a(svc.o)
                0x0000000000006ef0                svcSendSyncRequestWithUserBuffer
 .text.svcSendAsyncRequestWithUserBuffer
                0x0000000000006ef8       0x14 D:/githubRepos/code-mod-example/code-mod-framework/lib/libnx_min/nx/lib\libnx_min.a(svc.o)
                0x0000000000006ef8                svcSendAsyncRequestWithUserBuffer
 .text.svcGetProcessId
                0x0000000000006f0c       0x14 D:/githubRepos/code-mod-example/code-mod-framework/lib/libnx_min/nx/lib\libnx_min.a(svc.o)
                0x0000000000006f0c                svcGetProcessId
 .text.svcGetThreadId
                0x0000000000006f20       0x14 D:/githubRepos/code-mod-example/code-mod-framework/lib/libnx_min/nx/lib\libnx_min.a(svc.o)
                0x0000000000006f20                svcGetThreadId
 .text.svcBreak
                0x0000000000006f34        0x8 D:/githubRepos/code-mod-example/code-mod-framework/lib/libnx_min/nx/lib\libnx_min.a(svc.o)
                0x0000000000006f34                svcBreak
 .text.svcOutputDebugString
                0x0000000000006f3c        0x8 D:/githubRepos/code-mod-example/code-mod-framework/lib/libnx_min/nx/lib\libnx_min.a(svc.o)
                0x0000000000006f3c                svcOutputDebugString
 .text.svcReturnFromException
                0x0000000000006f44        0x8 D:/githubRepos/code-mod-example/code-mod-framework/lib/libnx_min/nx/lib\libnx_min.a(svc.o)
                0x0000000000006f44                svcReturnFromException
 .text.svcGetInfo
                0x0000000000006f4c       0x14 D:/githubRepos/code-mod-example/code-mod-framework/lib/libnx_min/nx/lib\libnx_min.a(svc.o)
                0x0000000000006f4c                svcGetInfo
 .text.svcMapPhysicalMemory
                0x0000000000006f60        0x8 D:/githubRepos/code-mod-example/code-mod-framework/lib/libnx_min/nx/lib\libnx_min.a(svc.o)
                0x0000000000006f60                svcMapPhysicalMemory
 .text.svcUnmapPhysicalMemory
                0x0000000000006f68        0x8 D:/githubRepos/code-mod-example/code-mod-framework/lib/libnx_min/nx/lib\libnx_min.a(svc.o)
                0x0000000000006f68                svcUnmapPhysicalMemory
 .text.svcGetResourceLimitLimitValue
                0x0000000000006f70       0x14 D:/githubRepos/code-mod-example/code-mod-framework/lib/libnx_min/nx/lib\libnx_min.a(svc.o)
                0x0000000000006f70                svcGetResourceLimitLimitValue
 .text.svcGetResourceLimitCurrentValue
                0x0000000000006f84       0x14 D:/githubRepos/code-mod-example/code-mod-framework/lib/libnx_min/nx/lib\libnx_min.a(svc.o)
                0x0000000000006f84                svcGetResourceLimitCurrentValue
 .text.svcSetThreadActivity
                0x0000000000006f98        0x8 D:/githubRepos/code-mod-example/code-mod-framework/lib/libnx_min/nx/lib\libnx_min.a(svc.o)
                0x0000000000006f98                svcSetThreadActivity
 .text.svcGetThreadContext3
                0x0000000000006fa0        0x8 D:/githubRepos/code-mod-example/code-mod-framework/lib/libnx_min/nx/lib\libnx_min.a(svc.o)
                0x0000000000006fa0                svcGetThreadContext3
 .text.svcCreateSession
                0x0000000000006fa8       0x18 D:/githubRepos/code-mod-example/code-mod-framework/lib/libnx_min/nx/lib\libnx_min.a(svc.o)
                0x0000000000006fa8                svcCreateSession
 .text.svcAcceptSession
                0x0000000000006fc0       0x14 D:/githubRepos/code-mod-example/code-mod-framework/lib/libnx_min/nx/lib\libnx_min.a(svc.o)
                0x0000000000006fc0                svcAcceptSession
 .text.svcReplyAndReceive
                0x0000000000006fd4       0x14 D:/githubRepos/code-mod-example/code-mod-framework/lib/libnx_min/nx/lib\libnx_min.a(svc.o)
                0x0000000000006fd4                svcReplyAndReceive
 .text.svcReplyAndReceiveWithUserBuffer
                0x0000000000006fe8       0x14 D:/githubRepos/code-mod-example/code-mod-framework/lib/libnx_min/nx/lib\libnx_min.a(svc.o)
                0x0000000000006fe8                svcReplyAndReceiveWithUserBuffer
 .text.svcCreateEvent
                0x0000000000006ffc       0x18 D:/githubRepos/code-mod-example/code-mod-framework/lib/libnx_min/nx/lib\libnx_min.a(svc.o)
                0x0000000000006ffc                svcCreateEvent
 .text.svcMapPhysicalMemoryUnsafe
                0x0000000000007014        0x8 D:/githubRepos/code-mod-example/code-mod-framework/lib/libnx_min/nx/lib\libnx_min.a(svc.o)
                0x0000000000007014                svcMapPhysicalMemoryUnsafe
 .text.svcUnmapPhysicalMemoryUnsafe
                0x000000000000701c        0x8 D:/githubRepos/code-mod-example/code-mod-framework/lib/libnx_min/nx/lib\libnx_min.a(svc.o)
                0x000000000000701c                svcUnmapPhysicalMemoryUnsafe
 .text.svcSetUnsafeLimit
                0x0000000000007024        0x8 D:/githubRepos/code-mod-example/code-mod-framework/lib/libnx_min/nx/lib\libnx_min.a(svc.o)
                0x0000000000007024                svcSetUnsafeLimit
 .text.svcCreateCodeMemory
                0x000000000000702c       0x14 D:/githubRepos/code-mod-example/code-mod-framework/lib/libnx_min/nx/lib\libnx_min.a(svc.o)
                0x000000000000702c                svcCreateCodeMemory
 .text.svcControlCodeMemory
                0x0000000000007040        0x8 D:/githubRepos/code-mod-example/code-mod-framework/lib/libnx_min/nx/lib\libnx_min.a(svc.o)
                0x0000000000007040                svcControlCodeMemory
 .text.svcReadWriteRegister
                0x0000000000007048       0x14 D:/githubRepos/code-mod-example/code-mod-framework/lib/libnx_min/nx/lib\libnx_min.a(svc.o)
                0x0000000000007048                svcReadWriteRegister
 .text.svcCreateSharedMemory
                0x000000000000705c       0x14 D:/githubRepos/code-mod-example/code-mod-framework/lib/libnx_min/nx/lib\libnx_min.a(svc.o)
                0x000000000000705c                svcCreateSharedMemory
 .text.svcMapTransferMemory
                0x0000000000007070        0x8 D:/githubRepos/code-mod-example/code-mod-framework/lib/libnx_min/nx/lib\libnx_min.a(svc.o)
                0x0000000000007070                svcMapTransferMemory
 .text.svcUnmapTransferMemory
                0x0000000000007078        0x8 D:/githubRepos/code-mod-example/code-mod-framework/lib/libnx_min/nx/lib\libnx_min.a(svc.o)
                0x0000000000007078                svcUnmapTransferMemory
 .text.svcCreateInterruptEvent
                0x0000000000007080       0x14 D:/githubRepos/code-mod-example/code-mod-framework/lib/libnx_min/nx/lib\libnx_min.a(svc.o)
                0x0000000000007080                svcCreateInterruptEvent
 .text.svcQueryPhysicalAddress
                0x0000000000007094       0x18 D:/githubRepos/code-mod-example/code-mod-framework/lib/libnx_min/nx/lib\libnx_min.a(svc.o)
                0x0000000000007094                svcQueryPhysicalAddress
 .text.svcQueryIoMapping
                0x00000000000070ac       0x14 D:/githubRepos/code-mod-example/code-mod-framework/lib/libnx_min/nx/lib\libnx_min.a(svc.o)
                0x00000000000070ac                svcQueryIoMapping
 .text.svcCreateDeviceAddressSpace
                0x00000000000070c0       0x14 D:/githubRepos/code-mod-example/code-mod-framework/lib/libnx_min/nx/lib\libnx_min.a(svc.o)
                0x00000000000070c0                svcCreateDeviceAddressSpace
 .text.svcAttachDeviceAddressSpace
                0x00000000000070d4        0x8 D:/githubRepos/code-mod-example/code-mod-framework/lib/libnx_min/nx/lib\libnx_min.a(svc.o)
                0x00000000000070d4                svcAttachDeviceAddressSpace
 .text.svcDetachDeviceAddressSpace
                0x00000000000070dc        0x8 D:/githubRepos/code-mod-example/code-mod-framework/lib/libnx_min/nx/lib\libnx_min.a(svc.o)
                0x00000000000070dc                svcDetachDeviceAddressSpace
 .text.svcMapDeviceAddressSpaceByForce
                0x00000000000070e4        0x8 D:/githubRepos/code-mod-example/code-mod-framework/lib/libnx_min/nx/lib\libnx_min.a(svc.o)
                0x00000000000070e4                svcMapDeviceAddressSpaceByForce
 .text.svcMapDeviceAddressSpaceAligned
                0x00000000000070ec        0x8 D:/githubRepos/code-mod-example/code-mod-framework/lib/libnx_min/nx/lib\libnx_min.a(svc.o)
                0x00000000000070ec                svcMapDeviceAddressSpaceAligned
 .text.svcUnmapDeviceAddressSpace
                0x00000000000070f4        0x8 D:/githubRepos/code-mod-example/code-mod-framework/lib/libnx_min/nx/lib\libnx_min.a(svc.o)
                0x00000000000070f4                svcUnmapDeviceAddressSpace
 .text.svcDebugActiveProcess
                0x00000000000070fc       0x14 D:/githubRepos/code-mod-example/code-mod-framework/lib/libnx_min/nx/lib\libnx_min.a(svc.o)
                0x00000000000070fc                svcDebugActiveProcess
 .text.svcBreakDebugProcess
                0x0000000000007110        0x8 D:/githubRepos/code-mod-example/code-mod-framework/lib/libnx_min/nx/lib\libnx_min.a(svc.o)
                0x0000000000007110                svcBreakDebugProcess
 .text.svcTerminateDebugProcess
                0x0000000000007118        0x8 D:/githubRepos/code-mod-example/code-mod-framework/lib/libnx_min/nx/lib\libnx_min.a(svc.o)
                0x0000000000007118                svcTerminateDebugProcess
 .text.svcGetDebugEvent
                0x0000000000007120        0x8 D:/githubRepos/code-mod-example/code-mod-framework/lib/libnx_min/nx/lib\libnx_min.a(svc.o)
                0x0000000000007120                svcGetDebugEvent
 .text.svcLegacyContinueDebugEvent
                0x0000000000007128        0x8 D:/githubRepos/code-mod-example/code-mod-framework/lib/libnx_min/nx/lib\libnx_min.a(svc.o)
                0x0000000000007128                svcLegacyContinueDebugEvent
 .text.svcContinueDebugEvent
                0x0000000000007130        0x8 D:/githubRepos/code-mod-example/code-mod-framework/lib/libnx_min/nx/lib\libnx_min.a(svc.o)
                0x0000000000007130                svcContinueDebugEvent
 .text.svcGetProcessList
                0x0000000000007138       0x14 D:/githubRepos/code-mod-example/code-mod-framework/lib/libnx_min/nx/lib\libnx_min.a(svc.o)
                0x0000000000007138                svcGetProcessList
 .text.svcGetThreadList
                0x000000000000714c       0x14 D:/githubRepos/code-mod-example/code-mod-framework/lib/libnx_min/nx/lib\libnx_min.a(svc.o)
                0x000000000000714c                svcGetThreadList
 .text.svcGetDebugThreadContext
                0x0000000000007160        0x8 D:/githubRepos/code-mod-example/code-mod-framework/lib/libnx_min/nx/lib\libnx_min.a(svc.o)
                0x0000000000007160                svcGetDebugThreadContext
 .text.svcSetDebugThreadContext
                0x0000000000007168        0x8 D:/githubRepos/code-mod-example/code-mod-framework/lib/libnx_min/nx/lib\libnx_min.a(svc.o)
                0x0000000000007168                svcSetDebugThreadContext
 .text.svcQueryDebugProcessMemory
                0x0000000000007170       0x14 D:/githubRepos/code-mod-example/code-mod-framework/lib/libnx_min/nx/lib\libnx_min.a(svc.o)
                0x0000000000007170                svcQueryDebugProcessMemory
 .text.svcReadDebugProcessMemory
                0x0000000000007184        0x8 D:/githubRepos/code-mod-example/code-mod-framework/lib/libnx_min/nx/lib\libnx_min.a(svc.o)
                0x0000000000007184                svcReadDebugProcessMemory
 .text.svcWriteDebugProcessMemory
                0x000000000000718c        0x8 D:/githubRepos/code-mod-example/code-mod-framework/lib/libnx_min/nx/lib\libnx_min.a(svc.o)
                0x000000000000718c                svcWriteDebugProcessMemory
 .text.svcGetDebugThreadParam
                0x0000000000007194       0x18 D:/githubRepos/code-mod-example/code-mod-framework/lib/libnx_min/nx/lib\libnx_min.a(svc.o)
                0x0000000000007194                svcGetDebugThreadParam
 .text.svcGetSystemInfo
                0x00000000000071ac       0x14 D:/githubRepos/code-mod-example/code-mod-framework/lib/libnx_min/nx/lib\libnx_min.a(svc.o)
                0x00000000000071ac                svcGetSystemInfo
 .text.svcCreatePort
                0x00000000000071c0       0x18 D:/githubRepos/code-mod-example/code-mod-framework/lib/libnx_min/nx/lib\libnx_min.a(svc.o)
                0x00000000000071c0                svcCreatePort
 .text.svcManageNamedPort
                0x00000000000071d8       0x14 D:/githubRepos/code-mod-example/code-mod-framework/lib/libnx_min/nx/lib\libnx_min.a(svc.o)
                0x00000000000071d8                svcManageNamedPort
 .text.svcConnectToPort
                0x00000000000071ec       0x14 D:/githubRepos/code-mod-example/code-mod-framework/lib/libnx_min/nx/lib\libnx_min.a(svc.o)
                0x00000000000071ec                svcConnectToPort
 .text.svcSetProcessMemoryPermission
                0x0000000000007200        0x8 D:/githubRepos/code-mod-example/code-mod-framework/lib/libnx_min/nx/lib\libnx_min.a(svc.o)
                0x0000000000007200                svcSetProcessMemoryPermission
 .text.svcMapProcessMemory
                0x0000000000007208        0x8 D:/githubRepos/code-mod-example/code-mod-framework/lib/libnx_min/nx/lib\libnx_min.a(svc.o)
                0x0000000000007208                svcMapProcessMemory
 .text.svcUnmapProcessMemory
                0x0000000000007210        0x8 D:/githubRepos/code-mod-example/code-mod-framework/lib/libnx_min/nx/lib\libnx_min.a(svc.o)
                0x0000000000007210                svcUnmapProcessMemory
 .text.svcQueryProcessMemory
                0x0000000000007218       0x14 D:/githubRepos/code-mod-example/code-mod-framework/lib/libnx_min/nx/lib\libnx_min.a(svc.o)
                0x0000000000007218                svcQueryProcessMemory
 .text.svcMapProcessCodeMemory
                0x000000000000722c        0x8 D:/githubRepos/code-mod-example/code-mod-framework/lib/libnx_min/nx/lib\libnx_min.a(svc.o)
                0x000000000000722c                svcMapProcessCodeMemory
 .text.svcUnmapProcessCodeMemory
                0x0000000000007234        0x8 D:/githubRepos/code-mod-example/code-mod-framework/lib/libnx_min/nx/lib\libnx_min.a(svc.o)
                0x0000000000007234                svcUnmapProcessCodeMemory
 .text.svcCreateProcess
                0x000000000000723c       0x14 D:/githubRepos/code-mod-example/code-mod-framework/lib/libnx_min/nx/lib\libnx_min.a(svc.o)
                0x000000000000723c                svcCreateProcess
 .text.svcStartProcess
                0x0000000000007250        0x8 D:/githubRepos/code-mod-example/code-mod-framework/lib/libnx_min/nx/lib\libnx_min.a(svc.o)
                0x0000000000007250                svcStartProcess
 .text.svcTerminateProcess
                0x0000000000007258        0x8 D:/githubRepos/code-mod-example/code-mod-framework/lib/libnx_min/nx/lib\libnx_min.a(svc.o)
                0x0000000000007258                svcTerminateProcess
 .text.svcGetProcessInfo
                0x0000000000007260       0x14 D:/githubRepos/code-mod-example/code-mod-framework/lib/libnx_min/nx/lib\libnx_min.a(svc.o)
                0x0000000000007260                svcGetProcessInfo
 .text.svcCreateResourceLimit
                0x0000000000007274       0x14 D:/githubRepos/code-mod-example/code-mod-framework/lib/libnx_min/nx/lib\libnx_min.a(svc.o)
                0x0000000000007274                svcCreateResourceLimit
 .text.svcSetResourceLimitLimitValue
                0x0000000000007288        0x8 D:/githubRepos/code-mod-example/code-mod-framework/lib/libnx_min/nx/lib\libnx_min.a(svc.o)
                0x0000000000007288                svcSetResourceLimitLimitValue
 .text.svcCallSecureMonitor
                0x0000000000007290       0x34 D:/githubRepos/code-mod-example/code-mod-framework/lib/libnx_min/nx/lib\libnx_min.a(svc.o)
                0x0000000000007290                svcCallSecureMonitor
 .text.__aarch64_read_tp
                0x00000000000072c4        0xc D:/githubRepos/code-mod-example/code-mod-framework/lib/libnx_min/nx/lib\libnx_min.a(readtp.o)
                0x00000000000072c4                __aarch64_read_tp
 .text._GetRegionFromInfo.isra.1
                0x00000000000072d0       0x7c D:/githubRepos/code-mod-example/code-mod-framework/lib/libnx_min/nx/lib\libnx_min.a(virtmem.o)
 *fill*         0x000000000000734c        0x4 
 .text.virtmemSetup
                0x0000000000007350      0x114 D:/githubRepos/code-mod-example/code-mod-framework/lib/libnx_min/nx/lib\libnx_min.a(virtmem.o)
                0x0000000000007350                virtmemSetup
 *fill*         0x0000000000007464        0xc 
 .text.virtmemReserve
                0x0000000000007470      0x13c D:/githubRepos/code-mod-example/code-mod-framework/lib/libnx_min/nx/lib\libnx_min.a(virtmem.o)
                0x0000000000007470                virtmemReserve
 *fill*         0x00000000000075ac        0x4 
 .text.virtmemFree
                0x00000000000075b0        0x4 D:/githubRepos/code-mod-example/code-mod-framework/lib/libnx_min/nx/lib\libnx_min.a(virtmem.o)
                0x00000000000075b0                virtmemFree
 *fill*         0x00000000000075b4        0xc 
 .text.virtmemReserveStack
                0x00000000000075c0       0xc8 D:/githubRepos/code-mod-example/code-mod-framework/lib/libnx_min/nx/lib\libnx_min.a(virtmem.o)
                0x00000000000075c0                virtmemReserveStack
 *fill*         0x0000000000007688        0x8 
 .text.virtmemFreeStack
                0x0000000000007690        0x4 D:/githubRepos/code-mod-example/code-mod-framework/lib/libnx_min/nx/lib\libnx_min.a(virtmem.o)
                0x0000000000007690                virtmemFreeStack
 *fill*         0x0000000000007694        0xc 
 .text.mutexLock
                0x00000000000076a0       0x8c D:/githubRepos/code-mod-example/code-mod-framework/lib/libnx_min/nx/lib\libnx_min.a(mutex.o)
                0x00000000000076a0                mutexLock
 *fill*         0x000000000000772c        0x4 
 .text.mutexTryLock
                0x0000000000007730       0x34 D:/githubRepos/code-mod-example/code-mod-framework/lib/libnx_min/nx/lib\libnx_min.a(mutex.o)
                0x0000000000007730                mutexTryLock
 *fill*         0x0000000000007764        0xc 
 .text.mutexUnlock
                0x0000000000007770       0x30 D:/githubRepos/code-mod-example/code-mod-framework/lib/libnx_min/nx/lib\libnx_min.a(mutex.o)
                0x0000000000007770                mutexUnlock
 .text.rmutexLock
                0x00000000000077a0       0x4c D:/githubRepos/code-mod-example/code-mod-framework/lib/libnx_min/nx/lib\libnx_min.a(mutex.o)
                0x00000000000077a0                rmutexLock
 *fill*         0x00000000000077ec        0x4 
 .text.rmutexTryLock
                0x00000000000077f0       0x5c D:/githubRepos/code-mod-example/code-mod-framework/lib/libnx_min/nx/lib\libnx_min.a(mutex.o)
                0x00000000000077f0                rmutexTryLock
 *fill*         0x000000000000784c        0x4 
 .text.rmutexUnlock
                0x0000000000007850       0x1c D:/githubRepos/code-mod-example/code-mod-framework/lib/libnx_min/nx/lib\libnx_min.a(mutex.o)
                0x0000000000007850                rmutexUnlock
 *fill*         0x000000000000786c        0x4 
 .text.ipcPrepareHeader
                0x0000000000007870      0x220 D:/githubRepos/code-mod-example/code-mod-framework/lib/libnx_min/nx/lib\libnx_min.a(fs.o)
 .text.ipcParse
                0x0000000000007a90      0x22c D:/githubRepos/code-mod-example/code-mod-framework/lib/libnx_min/nx/lib\libnx_min.a(fs.o)
 *fill*         0x0000000000007cbc        0x4 
 .text.serviceIpcParse
                0x0000000000007cc0       0xb0 D:/githubRepos/code-mod-example/code-mod-framework/lib/libnx_min/nx/lib\libnx_min.a(fs.o)
 .text.ipcCloseObjectById
                0x0000000000007d70       0x34 D:/githubRepos/code-mod-example/code-mod-framework/lib/libnx_min/nx/lib\libnx_min.a(fs.o)
 *fill*         0x0000000000007da4        0xc 
 .text._fsDeviceOperatorCheckInserted
                0x0000000000007db0      0x19c D:/githubRepos/code-mod-example/code-mod-framework/lib/libnx_min/nx/lib\libnx_min.a(fs.o)
 *fill*         0x0000000000007f4c        0x4 
 .text.fsFsQueryEntry.part.12
                0x0000000000007f50      0x274 D:/githubRepos/code-mod-example/code-mod-framework/lib/libnx_min/nx/lib\libnx_min.a(fs.o)
 *fill*         0x00000000000081c4        0xc 
 .text.fsInitialize
                0x00000000000081d0      0x200 D:/githubRepos/code-mod-example/code-mod-framework/lib/libnx_min/nx/lib\libnx_min.a(fs.o)
                0x00000000000081d0                fsInitialize
 .text.fsExit   0x00000000000083d0       0x9c D:/githubRepos/code-mod-example/code-mod-framework/lib/libnx_min/nx/lib\libnx_min.a(fs.o)
                0x00000000000083d0                fsExit
 *fill*         0x000000000000846c        0x4 
 .text.fsGetServiceSession
                0x0000000000008470        0xc D:/githubRepos/code-mod-example/code-mod-framework/lib/libnx_min/nx/lib\libnx_min.a(fs.o)
                0x0000000000008470                fsGetServiceSession
 *fill*         0x000000000000847c        0x4 
 .text.fsOpenBisStorage
                0x0000000000008480      0x1ec D:/githubRepos/code-mod-example/code-mod-framework/lib/libnx_min/nx/lib\libnx_min.a(fs.o)
                0x0000000000008480                fsOpenBisStorage
 *fill*         0x000000000000866c        0x4 
 .text.fsOpenBisFileSystem
                0x0000000000008670      0x170 D:/githubRepos/code-mod-example/code-mod-framework/lib/libnx_min/nx/lib\libnx_min.a(fs.o)
                0x0000000000008670                fsOpenBisFileSystem
 .text.fsMountSdcard
                0x00000000000087e0      0x1cc D:/githubRepos/code-mod-example/code-mod-framework/lib/libnx_min/nx/lib\libnx_min.a(fs.o)
                0x00000000000087e0                fsMountSdcard
 *fill*         0x00000000000089ac        0x4 
 .text.fsMountSaveData
                0x00000000000089b0      0x208 D:/githubRepos/code-mod-example/code-mod-framework/lib/libnx_min/nx/lib\libnx_min.a(fs.o)
                0x00000000000089b0                fsMountSaveData
 *fill*         0x0000000000008bb8        0x8 
 .text.fsMountSystemSaveData
                0x0000000000008bc0      0x208 D:/githubRepos/code-mod-example/code-mod-framework/lib/libnx_min/nx/lib\libnx_min.a(fs.o)
                0x0000000000008bc0                fsMountSystemSaveData
 *fill*         0x0000000000008dc8        0x8 
 .text.fsOpenSaveDataIterator
                0x0000000000008dd0      0x1e0 D:/githubRepos/code-mod-example/code-mod-framework/lib/libnx_min/nx/lib\libnx_min.a(fs.o)
                0x0000000000008dd0                fsOpenSaveDataIterator
 .text.fsOpenContentStorageFileSystem
                0x0000000000008fb0      0x1d4 D:/githubRepos/code-mod-example/code-mod-framework/lib/libnx_min/nx/lib\libnx_min.a(fs.o)
                0x0000000000008fb0                fsOpenContentStorageFileSystem
 *fill*         0x0000000000009184        0xc 
 .text.fsOpenDataStorageByCurrentProcess
                0x0000000000009190      0x1cc D:/githubRepos/code-mod-example/code-mod-framework/lib/libnx_min/nx/lib\libnx_min.a(fs.o)
                0x0000000000009190                fsOpenDataStorageByCurrentProcess
 *fill*         0x000000000000935c        0x4 
 .text.fsOpenDataStorageByDataId
                0x0000000000009360      0x200 D:/githubRepos/code-mod-example/code-mod-framework/lib/libnx_min/nx/lib\libnx_min.a(fs.o)
                0x0000000000009360                fsOpenDataStorageByDataId
 .text.fsOpenDeviceOperator
                0x0000000000009560      0x1cc D:/githubRepos/code-mod-example/code-mod-framework/lib/libnx_min/nx/lib\libnx_min.a(fs.o)
                0x0000000000009560                fsOpenDeviceOperator
 *fill*         0x000000000000972c        0x4 
 .text.fsOpenSdCardDetectionEventNotifier
                0x0000000000009730      0x1cc D:/githubRepos/code-mod-example/code-mod-framework/lib/libnx_min/nx/lib\libnx_min.a(fs.o)
                0x0000000000009730                fsOpenSdCardDetectionEventNotifier
 *fill*         0x00000000000098fc        0x4 
 .text.fsGetRightsIdByPath
                0x0000000000009900      0x174 D:/githubRepos/code-mod-example/code-mod-framework/lib/libnx_min/nx/lib\libnx_min.a(fs.o)
                0x0000000000009900                fsGetRightsIdByPath
 *fill*         0x0000000000009a74        0xc 
 .text.fsGetRightsIdAndKeyGenerationByPath
                0x0000000000009a80      0x184 D:/githubRepos/code-mod-example/code-mod-framework/lib/libnx_min/nx/lib\libnx_min.a(fs.o)
                0x0000000000009a80                fsGetRightsIdAndKeyGenerationByPath
 *fill*         0x0000000000009c04        0xc 
 .text.fsIsExFatSupported
                0x0000000000009c10      0x138 D:/githubRepos/code-mod-example/code-mod-framework/lib/libnx_min/nx/lib\libnx_min.a(fs.o)
                0x0000000000009c10                fsIsExFatSupported
 *fill*         0x0000000000009d48        0x8 
 .text.fsMount_SaveData
                0x0000000000009d50       0x3c D:/githubRepos/code-mod-example/code-mod-framework/lib/libnx_min/nx/lib\libnx_min.a(fs.o)
                0x0000000000009d50                fsMount_SaveData
 *fill*         0x0000000000009d8c        0x4 
 .text.fsMount_SystemSaveData
                0x0000000000009d90       0x30 D:/githubRepos/code-mod-example/code-mod-framework/lib/libnx_min/nx/lib\libnx_min.a(fs.o)
                0x0000000000009d90                fsMount_SystemSaveData
 .text.fsOpenFileSystemWithId
                0x0000000000009dc0      0x248 D:/githubRepos/code-mod-example/code-mod-framework/lib/libnx_min/nx/lib\libnx_min.a(fs.o)
                0x0000000000009dc0                fsOpenFileSystemWithId
 *fill*         0x000000000000a008        0x8 
 .text.fsOpenFileSystem
                0x000000000000a010       0x10 D:/githubRepos/code-mod-example/code-mod-framework/lib/libnx_min/nx/lib\libnx_min.a(fs.o)
                0x000000000000a010                fsOpenFileSystem
 .text.fsOpenFileSystemWithPatch
                0x000000000000a020      0x184 D:/githubRepos/code-mod-example/code-mod-framework/lib/libnx_min/nx/lib\libnx_min.a(fs.o)
                0x000000000000a020                fsOpenFileSystemWithPatch
 *fill*         0x000000000000a1a4        0xc 
 .text.fsFsCreateFile
                0x000000000000a1b0      0x1a4 D:/githubRepos/code-mod-example/code-mod-framework/lib/libnx_min/nx/lib\libnx_min.a(fs.o)
                0x000000000000a1b0                fsFsCreateFile
 *fill*         0x000000000000a354        0xc 
 .text.fsFsDeleteFile
                0x000000000000a360      0x19c D:/githubRepos/code-mod-example/code-mod-framework/lib/libnx_min/nx/lib\libnx_min.a(fs.o)
                0x000000000000a360                fsFsDeleteFile
 *fill*         0x000000000000a4fc        0x4 
 .text.fsFsCreateDirectory
                0x000000000000a500      0x19c D:/githubRepos/code-mod-example/code-mod-framework/lib/libnx_min/nx/lib\libnx_min.a(fs.o)
                0x000000000000a500                fsFsCreateDirectory
 *fill*         0x000000000000a69c        0x4 
 .text.fsFsDeleteDirectory
                0x000000000000a6a0      0x19c D:/githubRepos/code-mod-example/code-mod-framework/lib/libnx_min/nx/lib\libnx_min.a(fs.o)
                0x000000000000a6a0                fsFsDeleteDirectory
 *fill*         0x000000000000a83c        0x4 
 .text.fsFsDeleteDirectoryRecursively
                0x000000000000a840      0x19c D:/githubRepos/code-mod-example/code-mod-framework/lib/libnx_min/nx/lib\libnx_min.a(fs.o)
                0x000000000000a840                fsFsDeleteDirectoryRecursively
 *fill*         0x000000000000a9dc        0x4 
 .text.fsFsRenameFile
                0x000000000000a9e0      0x214 D:/githubRepos/code-mod-example/code-mod-framework/lib/libnx_min/nx/lib\libnx_min.a(fs.o)
                0x000000000000a9e0                fsFsRenameFile
 *fill*         0x000000000000abf4        0xc 
 .text.fsFsRenameDirectory
                0x000000000000ac00      0x214 D:/githubRepos/code-mod-example/code-mod-framework/lib/libnx_min/nx/lib\libnx_min.a(fs.o)
                0x000000000000ac00                fsFsRenameDirectory
 *fill*         0x000000000000ae14        0xc 
 .text.fsFsGetEntryType
                0x000000000000ae20      0x1b0 D:/githubRepos/code-mod-example/code-mod-framework/lib/libnx_min/nx/lib\libnx_min.a(fs.o)
                0x000000000000ae20                fsFsGetEntryType
 .text.fsFsOpenFile
                0x000000000000afd0      0x1e4 D:/githubRepos/code-mod-example/code-mod-framework/lib/libnx_min/nx/lib\libnx_min.a(fs.o)
                0x000000000000afd0                fsFsOpenFile
 *fill*         0x000000000000b1b4        0xc 
 .text.fsFsOpenDirectory
                0x000000000000b1c0      0x1f8 D:/githubRepos/code-mod-example/code-mod-framework/lib/libnx_min/nx/lib\libnx_min.a(fs.o)
                0x000000000000b1c0                fsFsOpenDirectory
 *fill*         0x000000000000b3b8        0x8 
 .text.fsFsCommit
                0x000000000000b3c0      0x17c D:/githubRepos/code-mod-example/code-mod-framework/lib/libnx_min/nx/lib\libnx_min.a(fs.o)
                0x000000000000b3c0                fsFsCommit
 *fill*         0x000000000000b53c        0x4 
 .text.fsFsGetFreeSpace
                0x000000000000b540      0x1b0 D:/githubRepos/code-mod-example/code-mod-framework/lib/libnx_min/nx/lib\libnx_min.a(fs.o)
                0x000000000000b540                fsFsGetFreeSpace
 .text.fsFsGetTotalSpace
                0x000000000000b6f0      0x1b0 D:/githubRepos/code-mod-example/code-mod-framework/lib/libnx_min/nx/lib\libnx_min.a(fs.o)
                0x000000000000b6f0                fsFsGetTotalSpace
 .text.fsFsCleanDirectoryRecursively
                0x000000000000b8a0      0x140 D:/githubRepos/code-mod-example/code-mod-framework/lib/libnx_min/nx/lib\libnx_min.a(fs.o)
                0x000000000000b8a0                fsFsCleanDirectoryRecursively
 .text.fsFsGetFileTimeStampRaw
                0x000000000000b9e0      0x194 D:/githubRepos/code-mod-example/code-mod-framework/lib/libnx_min/nx/lib\libnx_min.a(fs.o)
                0x000000000000b9e0                fsFsGetFileTimeStampRaw
 *fill*         0x000000000000bb74        0xc 
 .text.fsFsQueryEntry
                0x000000000000bb80       0x60 D:/githubRepos/code-mod-example/code-mod-framework/lib/libnx_min/nx/lib\libnx_min.a(fs.o)
                0x000000000000bb80                fsFsQueryEntry
 .text.fsFsSetArchiveBit
                0x000000000000bbe0       0x1c D:/githubRepos/code-mod-example/code-mod-framework/lib/libnx_min/nx/lib\libnx_min.a(fs.o)
                0x000000000000bbe0                fsFsSetArchiveBit
 *fill*         0x000000000000bbfc        0x4 
 .text.fsFsClose
                0x000000000000bc00       0x6c D:/githubRepos/code-mod-example/code-mod-framework/lib/libnx_min/nx/lib\libnx_min.a(fs.o)
                0x000000000000bc00                fsFsClose
 *fill*         0x000000000000bc6c        0x4 
 .text.fsFileRead
                0x000000000000bc70      0x1f8 D:/githubRepos/code-mod-example/code-mod-framework/lib/libnx_min/nx/lib\libnx_min.a(fs.o)
                0x000000000000bc70                fsFileRead
 *fill*         0x000000000000be68        0x8 
 .text.fsFileWrite
                0x000000000000be70      0x1cc D:/githubRepos/code-mod-example/code-mod-framework/lib/libnx_min/nx/lib\libnx_min.a(fs.o)
                0x000000000000be70                fsFileWrite
 *fill*         0x000000000000c03c        0x4 
 .text.fsFileFlush
                0x000000000000c040      0x17c D:/githubRepos/code-mod-example/code-mod-framework/lib/libnx_min/nx/lib\libnx_min.a(fs.o)
                0x000000000000c040                fsFileFlush
 *fill*         0x000000000000c1bc        0x4 
 .text.fsFileSetSize
                0x000000000000c1c0      0x18c D:/githubRepos/code-mod-example/code-mod-framework/lib/libnx_min/nx/lib\libnx_min.a(fs.o)
                0x000000000000c1c0                fsFileSetSize
 *fill*         0x000000000000c34c        0x4 
 .text.fsFileGetSize
                0x000000000000c350      0x194 D:/githubRepos/code-mod-example/code-mod-framework/lib/libnx_min/nx/lib\libnx_min.a(fs.o)
                0x000000000000c350                fsFileGetSize
 *fill*         0x000000000000c4e4        0xc 
 .text.fsFileOperateRange
                0x000000000000c4f0      0x180 D:/githubRepos/code-mod-example/code-mod-framework/lib/libnx_min/nx/lib\libnx_min.a(fs.o)
                0x000000000000c4f0                fsFileOperateRange
 .text.fsFileClose
                0x000000000000c670       0x6c D:/githubRepos/code-mod-example/code-mod-framework/lib/libnx_min/nx/lib\libnx_min.a(fs.o)
                0x000000000000c670                fsFileClose
 *fill*         0x000000000000c6dc        0x4 
 .text.fsDirClose
                0x000000000000c6e0       0x6c D:/githubRepos/code-mod-example/code-mod-framework/lib/libnx_min/nx/lib\libnx_min.a(fs.o)
                0x000000000000c6e0                fsDirClose
 *fill*         0x000000000000c74c        0x4 
 .text.fsDirRead
                0x000000000000c750      0x1ec D:/githubRepos/code-mod-example/code-mod-framework/lib/libnx_min/nx/lib\libnx_min.a(fs.o)
                0x000000000000c750                fsDirRead
 *fill*         0x000000000000c93c        0x4 
 .text.fsDirGetEntryCount
                0x000000000000c940      0x198 D:/githubRepos/code-mod-example/code-mod-framework/lib/libnx_min/nx/lib\libnx_min.a(fs.o)
                0x000000000000c940                fsDirGetEntryCount
 *fill*         0x000000000000cad8        0x8 
 .text.fsStorageRead
                0x000000000000cae0      0x1d0 D:/githubRepos/code-mod-example/code-mod-framework/lib/libnx_min/nx/lib\libnx_min.a(fs.o)
                0x000000000000cae0                fsStorageRead
 .text.fsStorageWrite
                0x000000000000ccb0      0x1d0 D:/githubRepos/code-mod-example/code-mod-framework/lib/libnx_min/nx/lib\libnx_min.a(fs.o)
                0x000000000000ccb0                fsStorageWrite
 .text.fsStorageFlush
                0x000000000000ce80      0x17c D:/githubRepos/code-mod-example/code-mod-framework/lib/libnx_min/nx/lib\libnx_min.a(fs.o)
                0x000000000000ce80                fsStorageFlush
 *fill*         0x000000000000cffc        0x4 
 .text.fsStorageSetSize
                0x000000000000d000      0x18c D:/githubRepos/code-mod-example/code-mod-framework/lib/libnx_min/nx/lib\libnx_min.a(fs.o)
                0x000000000000d000                fsStorageSetSize
 *fill*         0x000000000000d18c        0x4 
 .text.fsStorageGetSize
                0x000000000000d190      0x194 D:/githubRepos/code-mod-example/code-mod-framework/lib/libnx_min/nx/lib\libnx_min.a(fs.o)
                0x000000000000d190                fsStorageGetSize
 *fill*         0x000000000000d324        0xc 
 .text.fsStorageOperateRange
                0x000000000000d330      0x180 D:/githubRepos/code-mod-example/code-mod-framework/lib/libnx_min/nx/lib\libnx_min.a(fs.o)
                0x000000000000d330                fsStorageOperateRange
 .text.fsStorageClose
                0x000000000000d4b0       0x6c D:/githubRepos/code-mod-example/code-mod-framework/lib/libnx_min/nx/lib\libnx_min.a(fs.o)
                0x000000000000d4b0                fsStorageClose
 *fill*         0x000000000000d51c        0x4 
 .text.fsSaveDataIteratorRead
                0x000000000000d520      0x1d0 D:/githubRepos/code-mod-example/code-mod-framework/lib/libnx_min/nx/lib\libnx_min.a(fs.o)
                0x000000000000d520                fsSaveDataIteratorRead
 .text.fsSaveDataIteratorClose
                0x000000000000d6f0       0x6c D:/githubRepos/code-mod-example/code-mod-framework/lib/libnx_min/nx/lib\libnx_min.a(fs.o)
                0x000000000000d6f0                fsSaveDataIteratorClose
 *fill*         0x000000000000d75c        0x4 
 .text.fsEventNotifierGetEventHandle
                0x000000000000d760      0x188 D:/githubRepos/code-mod-example/code-mod-framework/lib/libnx_min/nx/lib\libnx_min.a(fs.o)
                0x000000000000d760                fsEventNotifierGetEventHandle
 *fill*         0x000000000000d8e8        0x8 
 .text.fsEventNotifierClose
                0x000000000000d8f0       0x6c D:/githubRepos/code-mod-example/code-mod-framework/lib/libnx_min/nx/lib\libnx_min.a(fs.o)
                0x000000000000d8f0                fsEventNotifierClose
 *fill*         0x000000000000d95c        0x4 
 .text.fsDeviceOperatorIsSdCardInserted
                0x000000000000d960        0xc D:/githubRepos/code-mod-example/code-mod-framework/lib/libnx_min/nx/lib\libnx_min.a(fs.o)
                0x000000000000d960                fsDeviceOperatorIsSdCardInserted
 *fill*         0x000000000000d96c        0x4 
 .text.fsDeviceOperatorIsGameCardInserted
                0x000000000000d970        0xc D:/githubRepos/code-mod-example/code-mod-framework/lib/libnx_min/nx/lib\libnx_min.a(fs.o)
                0x000000000000d970                fsDeviceOperatorIsGameCardInserted
 *fill*         0x000000000000d97c        0x4 
 .text.fsDeviceOperatorGetGameCardHandle
                0x000000000000d980      0x190 D:/githubRepos/code-mod-example/code-mod-framework/lib/libnx_min/nx/lib\libnx_min.a(fs.o)
                0x000000000000d980                fsDeviceOperatorGetGameCardHandle
 .text.fsDeviceOperatorGetGameCardAttribute
                0x000000000000db10      0x18c D:/githubRepos/code-mod-example/code-mod-framework/lib/libnx_min/nx/lib\libnx_min.a(fs.o)
                0x000000000000db10                fsDeviceOperatorGetGameCardAttribute
 *fill*         0x000000000000dc9c        0x4 
 .text.fsDeviceOperatorClose
                0x000000000000dca0       0x6c D:/githubRepos/code-mod-example/code-mod-framework/lib/libnx_min/nx/lib\libnx_min.a(fs.o)
                0x000000000000dca0                fsDeviceOperatorClose
 *fill*         0x000000000000dd0c        0x4 
 .text.ipcCloseObjectById
                0x000000000000dd10       0x34 D:/githubRepos/code-mod-example/code-mod-framework/lib/libnx_min/nx/lib\libnx_min.a(set.o)
 *fill*         0x000000000000dd44        0xc 
 .text._setMakeLanguageCode
                0x000000000000dd50       0xf4 D:/githubRepos/code-mod-example/code-mod-framework/lib/libnx_min/nx/lib\libnx_min.a(set.o)
 *fill*         0x000000000000de44        0xc 
 .text._setsysGetFirmwareVersionImpl
                0x000000000000de50      0x1d4 D:/githubRepos/code-mod-example/code-mod-framework/lib/libnx_min/nx/lib\libnx_min.a(set.o)
 *fill*         0x000000000000e024        0xc 
 .text.setInitialize
                0x000000000000e030       0x44 D:/githubRepos/code-mod-example/code-mod-framework/lib/libnx_min/nx/lib\libnx_min.a(set.o)
                0x000000000000e030                setInitialize
 *fill*         0x000000000000e074        0xc 
 .text.setExit  0x000000000000e080       0x9c D:/githubRepos/code-mod-example/code-mod-framework/lib/libnx_min/nx/lib\libnx_min.a(set.o)
                0x000000000000e080                setExit
 *fill*         0x000000000000e11c        0x4 
 .text.setsysInitialize
                0x000000000000e120       0x3c D:/githubRepos/code-mod-example/code-mod-framework/lib/libnx_min/nx/lib\libnx_min.a(set.o)
                0x000000000000e120                setsysInitialize
 *fill*         0x000000000000e15c        0x4 
 .text.setsysExit
                0x000000000000e160       0x9c D:/githubRepos/code-mod-example/code-mod-framework/lib/libnx_min/nx/lib\libnx_min.a(set.o)
                0x000000000000e160                setsysExit
 *fill*         0x000000000000e1fc        0x4 
 .text.setGetLanguageCode
                0x000000000000e200       0xec D:/githubRepos/code-mod-example/code-mod-framework/lib/libnx_min/nx/lib\libnx_min.a(set.o)
                0x000000000000e200                setGetLanguageCode
 *fill*         0x000000000000e2ec        0x4 
 .text.setGetSystemLanguage
                0x000000000000e2f0        0x4 D:/githubRepos/code-mod-example/code-mod-framework/lib/libnx_min/nx/lib\libnx_min.a(set.o)
                0x000000000000e2f0                setGetSystemLanguage
 *fill*         0x000000000000e2f4        0xc 
 .text.setGetAvailableLanguageCodeCount
                0x000000000000e300      0x10c D:/githubRepos/code-mod-example/code-mod-framework/lib/libnx_min/nx/lib\libnx_min.a(set.o)
                0x000000000000e300                setGetAvailableLanguageCodeCount
 *fill*         0x000000000000e40c        0x4 
 .text.setGetAvailableLanguageCodes
                0x000000000000e410      0x1b4 D:/githubRepos/code-mod-example/code-mod-framework/lib/libnx_min/nx/lib\libnx_min.a(set.o)
                0x000000000000e410                setGetAvailableLanguageCodes
 *fill*         0x000000000000e5c4        0xc 
 .text.setInitializeLanguageCodesCache
                0x000000000000e5d0       0x70 D:/githubRepos/code-mod-example/code-mod-framework/lib/libnx_min/nx/lib\libnx_min.a(set.o)
 .text.setMakeLanguage
                0x000000000000e640       0x8c D:/githubRepos/code-mod-example/code-mod-framework/lib/libnx_min/nx/lib\libnx_min.a(set.o)
                0x000000000000e640                setMakeLanguage
 *fill*         0x000000000000e6cc        0x4 
 .text.setMakeLanguageCode
                0x000000000000e6d0       0x80 D:/githubRepos/code-mod-example/code-mod-framework/lib/libnx_min/nx/lib\libnx_min.a(set.o)
                0x000000000000e6d0                setMakeLanguageCode
 .text.setGetRegionCode
                0x000000000000e750       0xf0 D:/githubRepos/code-mod-example/code-mod-framework/lib/libnx_min/nx/lib\libnx_min.a(set.o)
                0x000000000000e750                setGetRegionCode
 .text.setsysGetColorSetId
                0x000000000000e840       0xe4 D:/githubRepos/code-mod-example/code-mod-framework/lib/libnx_min/nx/lib\libnx_min.a(set.o)
                0x000000000000e840                setsysGetColorSetId
 *fill*         0x000000000000e924        0xc 
 .text.setsysSetColorSetId
                0x000000000000e930       0xd0 D:/githubRepos/code-mod-example/code-mod-framework/lib/libnx_min/nx/lib\libnx_min.a(set.o)
                0x000000000000e930                setsysSetColorSetId
 .text.setsysGetSettingsItemValue
                0x000000000000ea00      0x19c D:/githubRepos/code-mod-example/code-mod-framework/lib/libnx_min/nx/lib\libnx_min.a(set.o)
                0x000000000000ea00                setsysGetSettingsItemValue
 *fill*         0x000000000000eb9c        0x4 
 .text.setsysGetSettingsItemValueSize
                0x000000000000eba0      0x198 D:/githubRepos/code-mod-example/code-mod-framework/lib/libnx_min/nx/lib\libnx_min.a(set.o)
                0x000000000000eba0                setsysGetSettingsItemValueSize
 *fill*         0x000000000000ed38        0x8 
 .text.setsysGetSerialNumber
                0x000000000000ed40      0x108 D:/githubRepos/code-mod-example/code-mod-framework/lib/libnx_min/nx/lib\libnx_min.a(set.o)
                0x000000000000ed40                setsysGetSerialNumber
 *fill*         0x000000000000ee48        0x8 
 .text.setsysGetFlag
                0x000000000000ee50       0xec D:/githubRepos/code-mod-example/code-mod-framework/lib/libnx_min/nx/lib\libnx_min.a(set.o)
                0x000000000000ee50                setsysGetFlag
 *fill*         0x000000000000ef3c        0x4 
 .text.setsysSetFlag
                0x000000000000ef40       0xd0 D:/githubRepos/code-mod-example/code-mod-framework/lib/libnx_min/nx/lib\libnx_min.a(set.o)
                0x000000000000ef40                setsysSetFlag
 .text.setsysGetFirmwareVersion
                0x000000000000f010       0x44 D:/githubRepos/code-mod-example/code-mod-framework/lib/libnx_min/nx/lib\libnx_min.a(set.o)
                0x000000000000f010                setsysGetFirmwareVersion
 *fill*         0x000000000000f054        0xc 
 .text.setsysBindFatalDirtyFlagEvent
                0x000000000000f060      0x13c D:/githubRepos/code-mod-example/code-mod-framework/lib/libnx_min/nx/lib\libnx_min.a(set.o)
                0x000000000000f060                setsysBindFatalDirtyFlagEvent
 *fill*         0x000000000000f19c        0x4 
 .text.setsysGetFatalDirtyFlags
                0x000000000000f1a0       0xf8 D:/githubRepos/code-mod-example/code-mod-framework/lib/libnx_min/nx/lib\libnx_min.a(set.o)
                0x000000000000f1a0                setsysGetFatalDirtyFlags
 *fill*         0x000000000000f298        0x8 
 .text.setsysGetDeviceNickname
                0x000000000000f2a0       0xf8 D:/githubRepos/code-mod-example/code-mod-framework/lib/libnx_min/nx/lib\libnx_min.a(set.o)
                0x000000000000f2a0                setsysGetDeviceNickname
 *fill*         0x000000000000f398        0x8 
 .text.setsysSetDeviceNickname
                0x000000000000f3a0      0x134 D:/githubRepos/code-mod-example/code-mod-framework/lib/libnx_min/nx/lib\libnx_min.a(set.o)
                0x000000000000f3a0                setsysSetDeviceNickname
 *fill*         0x000000000000f4d4        0xc 
 .text._fatalImpl
                0x000000000000f4e0      0x140 D:/githubRepos/code-mod-example/code-mod-framework/lib/libnx_min/nx/lib\libnx_min.a(fatal.o)
 .text.fatalWithType
                0x000000000000f620       0x14 D:/githubRepos/code-mod-example/code-mod-framework/lib/libnx_min/nx/lib\libnx_min.a(fatal.o)
                0x000000000000f620                fatalWithType
 *fill*         0x000000000000f634        0xc 
 .text.fatalSimple
                0x000000000000f640       0x14 D:/githubRepos/code-mod-example/code-mod-framework/lib/libnx_min/nx/lib\libnx_min.a(fatal.o)
                0x000000000000f640                fatalSimple
 *fill*         0x000000000000f654        0xc 
 .text.fatalWithContext
                0x000000000000f660       0x14 D:/githubRepos/code-mod-example/code-mod-framework/lib/libnx_min/nx/lib\libnx_min.a(fatal.o)
                0x000000000000f660                fatalWithContext
 *fill*         0x000000000000f674        0xc 
 .text.ipcCloseObjectById
                0x000000000000f680       0x34 D:/githubRepos/code-mod-example/code-mod-framework/lib/libnx_min/nx/lib\libnx_min.a(sm.o)
 *fill*         0x000000000000f6b4        0xc 
 .text.smAddOverrideHandle
                0x000000000000f6c0       0x44 D:/githubRepos/code-mod-example/code-mod-framework/lib/libnx_min/nx/lib\libnx_min.a(sm.o)
                0x000000000000f6c0                smAddOverrideHandle
 *fill*         0x000000000000f704        0xc 
 .text.smGetServiceOverride
                0x000000000000f710       0x60 D:/githubRepos/code-mod-example/code-mod-framework/lib/libnx_min/nx/lib\libnx_min.a(sm.o)
                0x000000000000f710                smGetServiceOverride
 .text.smHasInitialized
                0x000000000000f770       0x14 D:/githubRepos/code-mod-example/code-mod-framework/lib/libnx_min/nx/lib\libnx_min.a(sm.o)
                0x000000000000f770                smHasInitialized
 *fill*         0x000000000000f784        0xc 
 .text.smExit   0x000000000000f790       0x9c D:/githubRepos/code-mod-example/code-mod-framework/lib/libnx_min/nx/lib\libnx_min.a(sm.o)
                0x000000000000f790                smExit
 *fill*         0x000000000000f82c        0x4 
 .text.smGetServiceSession
                0x000000000000f830        0xc D:/githubRepos/code-mod-example/code-mod-framework/lib/libnx_min/nx/lib\libnx_min.a(sm.o)
                0x000000000000f830                smGetServiceSession
 *fill*         0x000000000000f83c        0x4 
 .text.smEncodeName
                0x000000000000f840       0x38 D:/githubRepos/code-mod-example/code-mod-framework/lib/libnx_min/nx/lib\libnx_min.a(sm.o)
                0x000000000000f840                smEncodeName
 *fill*         0x000000000000f878        0x8 
 .text.smGetServiceOriginal
                0x000000000000f880      0x22c D:/githubRepos/code-mod-example/code-mod-framework/lib/libnx_min/nx/lib\libnx_min.a(sm.o)
                0x000000000000f880                smGetServiceOriginal
 *fill*         0x000000000000faac        0x4 
 .text.smInitialize
                0x000000000000fab0      0x27c D:/githubRepos/code-mod-example/code-mod-framework/lib/libnx_min/nx/lib\libnx_min.a(sm.o)
                0x000000000000fab0                smInitialize
 *fill*         0x000000000000fd2c        0x4 
 .text.smGetService
                0x000000000000fd30       0x74 D:/githubRepos/code-mod-example/code-mod-framework/lib/libnx_min/nx/lib\libnx_min.a(sm.o)
                0x000000000000fd30                smGetService
 *fill*         0x000000000000fda4        0xc 
 .text.smRegisterService
                0x000000000000fdb0      0x25c D:/githubRepos/code-mod-example/code-mod-framework/lib/libnx_min/nx/lib\libnx_min.a(sm.o)
                0x000000000000fdb0                smRegisterService
 *fill*         0x000000000001000c        0x4 
 .text.smUnregisterService
                0x0000000000010010      0x1ac D:/githubRepos/code-mod-example/code-mod-framework/lib/libnx_min/nx/lib\libnx_min.a(sm.o)
                0x0000000000010010                smUnregisterService
 *fill*         0x00000000000101bc        0x4 
 .text._hidGetDeviceHandles.part.7
                0x00000000000101c0       0xec D:/githubRepos/code-mod-example/code-mod-framework/lib/libnx_min/nx/lib\libnx_min.a(hid.o)
 *fill*         0x00000000000102ac        0x4 
 .text.ipcCloseObjectById
                0x00000000000102b0       0x34 D:/githubRepos/code-mod-example/code-mod-framework/lib/libnx_min/nx/lib\libnx_min.a(hid.o)
 *fill*         0x00000000000102e4        0xc 
 .text._hidActivateVibrationDevice
                0x00000000000102f0       0xc8 D:/githubRepos/code-mod-example/code-mod-framework/lib/libnx_min/nx/lib\libnx_min.a(hid.o)
 *fill*         0x00000000000103b8        0x8 
 .text._hidGetSharedMemoryHandle.constprop.17
                0x00000000000103c0      0x124 D:/githubRepos/code-mod-example/code-mod-framework/lib/libnx_min/nx/lib\libnx_min.a(hid.o)
 *fill*         0x00000000000104e4        0xc 
 .text._hidCreateActiveVibrationDeviceList
                0x00000000000104f0      0x134 D:/githubRepos/code-mod-example/code-mod-framework/lib/libnx_min/nx/lib\libnx_min.a(hid.o)
 *fill*         0x0000000000010624        0xc 
 .text._hidCmdWithNoInput
                0x0000000000010630      0x100 D:/githubRepos/code-mod-example/code-mod-framework/lib/libnx_min/nx/lib\libnx_min.a(hid.o)
 .text._hidCreateAppletResource.constprop.16
                0x0000000000010730      0x134 D:/githubRepos/code-mod-example/code-mod-framework/lib/libnx_min/nx/lib\libnx_min.a(hid.o)
 *fill*         0x0000000000010864        0xc 
 .text._hidCmdWithInputU32
                0x0000000000010870      0x10c D:/githubRepos/code-mod-example/code-mod-framework/lib/libnx_min/nx/lib\libnx_min.a(hid.o)
 *fill*         0x000000000001097c        0x4 
 .text._hidCmdWithInputU64.constprop.18
                0x0000000000010980      0x108 D:/githubRepos/code-mod-example/code-mod-framework/lib/libnx_min/nx/lib\libnx_min.a(hid.o)
 *fill*         0x0000000000010a88        0x8 
 .text._hidInitializeSevenSixAxisSensor.isra.11.constprop.19
                0x0000000000010a90      0x1f8 D:/githubRepos/code-mod-example/code-mod-framework/lib/libnx_min/nx/lib\libnx_min.a(hid.o)
 *fill*         0x0000000000010c88        0x8 
 .text.hidReset
                0x0000000000010c90      0x1f8 D:/githubRepos/code-mod-example/code-mod-framework/lib/libnx_min/nx/lib\libnx_min.a(hid.o)
                0x0000000000010c90                hidReset
 *fill*         0x0000000000010e88        0x8 
 .text.hidGetSessionService
                0x0000000000010e90        0xc D:/githubRepos/code-mod-example/code-mod-framework/lib/libnx_min/nx/lib\libnx_min.a(hid.o)
                0x0000000000010e90                hidGetSessionService
 *fill*         0x0000000000010e9c        0x4 
 .text.hidGetSharedmemAddr
                0x0000000000010ea0        0xc D:/githubRepos/code-mod-example/code-mod-framework/lib/libnx_min/nx/lib\libnx_min.a(hid.o)
                0x0000000000010ea0                hidGetSharedmemAddr
 *fill*         0x0000000000010eac        0x4 
 .text.hidSetControllerLayout
                0x0000000000010eb0       0x54 D:/githubRepos/code-mod-example/code-mod-framework/lib/libnx_min/nx/lib\libnx_min.a(hid.o)
                0x0000000000010eb0                hidSetControllerLayout
 *fill*         0x0000000000010f04        0xc 
 .text.hidGetControllerLayout
                0x0000000000010f10       0x50 D:/githubRepos/code-mod-example/code-mod-framework/lib/libnx_min/nx/lib\libnx_min.a(hid.o)
                0x0000000000010f10                hidGetControllerLayout
 .text.hidGetControllerType
                0x0000000000010f60       0x78 D:/githubRepos/code-mod-example/code-mod-framework/lib/libnx_min/nx/lib\libnx_min.a(hid.o)
                0x0000000000010f60                hidGetControllerType
 *fill*         0x0000000000010fd8        0x8 
 .text.hidGetControllerColors
                0x0000000000010fe0       0xd4 D:/githubRepos/code-mod-example/code-mod-framework/lib/libnx_min/nx/lib\libnx_min.a(hid.o)
                0x0000000000010fe0                hidGetControllerColors
 *fill*         0x00000000000110b4        0xc 
 .text.hidIsControllerConnected
                0x00000000000110c0       0x7c D:/githubRepos/code-mod-example/code-mod-framework/lib/libnx_min/nx/lib\libnx_min.a(hid.o)
                0x00000000000110c0                hidIsControllerConnected
 *fill*         0x000000000001113c        0x4 
 .text.hidGetControllerDeviceType
                0x0000000000011140       0x70 D:/githubRepos/code-mod-example/code-mod-framework/lib/libnx_min/nx/lib\libnx_min.a(hid.o)
                0x0000000000011140                hidGetControllerDeviceType
 .text.hidGetControllerFlags
                0x00000000000111b0       0x90 D:/githubRepos/code-mod-example/code-mod-framework/lib/libnx_min/nx/lib\libnx_min.a(hid.o)
                0x00000000000111b0                hidGetControllerFlags
 .text.hidGetControllerPowerInfo
                0x0000000000011240      0x114 D:/githubRepos/code-mod-example/code-mod-framework/lib/libnx_min/nx/lib\libnx_min.a(hid.o)
                0x0000000000011240                hidGetControllerPowerInfo
 *fill*         0x0000000000011354        0xc 
 .text.hidKeysHeld
                0x0000000000011360       0x6c D:/githubRepos/code-mod-example/code-mod-framework/lib/libnx_min/nx/lib\libnx_min.a(hid.o)
                0x0000000000011360                hidKeysHeld
 *fill*         0x00000000000113cc        0x4 
 .text.hidKeysDown
                0x00000000000113d0       0x6c D:/githubRepos/code-mod-example/code-mod-framework/lib/libnx_min/nx/lib\libnx_min.a(hid.o)
                0x00000000000113d0                hidKeysDown
 *fill*         0x000000000001143c        0x4 
 .text.hidKeysUp
                0x0000000000011440       0x6c D:/githubRepos/code-mod-example/code-mod-framework/lib/libnx_min/nx/lib\libnx_min.a(hid.o)
                0x0000000000011440                hidKeysUp
 *fill*         0x00000000000114ac        0x4 
 .text.hidMouseButtonsHeld
                0x00000000000114b0       0x3c D:/githubRepos/code-mod-example/code-mod-framework/lib/libnx_min/nx/lib\libnx_min.a(hid.o)
                0x00000000000114b0                hidMouseButtonsHeld
 *fill*         0x00000000000114ec        0x4 
 .text.hidMouseButtonsDown
                0x00000000000114f0       0x3c D:/githubRepos/code-mod-example/code-mod-framework/lib/libnx_min/nx/lib\libnx_min.a(hid.o)
                0x00000000000114f0                hidMouseButtonsDown
 *fill*         0x000000000001152c        0x4 
 .text.hidMouseButtonsUp
                0x0000000000011530       0x3c D:/githubRepos/code-mod-example/code-mod-framework/lib/libnx_min/nx/lib\libnx_min.a(hid.o)
                0x0000000000011530                hidMouseButtonsUp
 *fill*         0x000000000001156c        0x4 
 .text.hidMouseRead
                0x0000000000011570       0x48 D:/githubRepos/code-mod-example/code-mod-framework/lib/libnx_min/nx/lib\libnx_min.a(hid.o)
                0x0000000000011570                hidMouseRead
 *fill*         0x00000000000115b8        0x8 
 .text.hidMouseMultiRead
                0x00000000000115c0      0x150 D:/githubRepos/code-mod-example/code-mod-framework/lib/libnx_min/nx/lib\libnx_min.a(hid.o)
                0x00000000000115c0                hidMouseMultiRead
 .text.hidKeyboardModifierHeld
                0x0000000000011710       0x48 D:/githubRepos/code-mod-example/code-mod-framework/lib/libnx_min/nx/lib\libnx_min.a(hid.o)
                0x0000000000011710                hidKeyboardModifierHeld
 *fill*         0x0000000000011758        0x8 
 .text.hidKeyboardModifierDown
                0x0000000000011760       0x48 D:/githubRepos/code-mod-example/code-mod-framework/lib/libnx_min/nx/lib\libnx_min.a(hid.o)
                0x0000000000011760                hidKeyboardModifierDown
 *fill*         0x00000000000117a8        0x8 
 .text.hidKeyboardModifierUp
                0x00000000000117b0       0x48 D:/githubRepos/code-mod-example/code-mod-framework/lib/libnx_min/nx/lib\libnx_min.a(hid.o)
                0x00000000000117b0                hidKeyboardModifierUp
 *fill*         0x00000000000117f8        0x8 
 .text.hidKeyboardHeld
                0x0000000000011800       0x60 D:/githubRepos/code-mod-example/code-mod-framework/lib/libnx_min/nx/lib\libnx_min.a(hid.o)
                0x0000000000011800                hidKeyboardHeld
 .text.hidKeyboardDown
                0x0000000000011860       0x60 D:/githubRepos/code-mod-example/code-mod-framework/lib/libnx_min/nx/lib\libnx_min.a(hid.o)
                0x0000000000011860                hidKeyboardDown
 .text.hidKeyboardUp
                0x00000000000118c0       0x60 D:/githubRepos/code-mod-example/code-mod-framework/lib/libnx_min/nx/lib\libnx_min.a(hid.o)
                0x00000000000118c0                hidKeyboardUp
 .text.hidTouchCount
                0x0000000000011920        0xc D:/githubRepos/code-mod-example/code-mod-framework/lib/libnx_min/nx/lib\libnx_min.a(hid.o)
                0x0000000000011920                hidTouchCount
 *fill*         0x000000000001192c        0x4 
 .text.hidScanInput
                0x0000000000011930      0x598 D:/githubRepos/code-mod-example/code-mod-framework/lib/libnx_min/nx/lib\libnx_min.a(hid.o)
                0x0000000000011930                hidScanInput
 *fill*         0x0000000000011ec8        0x8 
 .text.hidTouchRead
                0x0000000000011ed0       0x54 D:/githubRepos/code-mod-example/code-mod-framework/lib/libnx_min/nx/lib\libnx_min.a(hid.o)
                0x0000000000011ed0                hidTouchRead
 *fill*         0x0000000000011f24        0xc 
 .text.hidJoystickRead
                0x0000000000011f30       0xac D:/githubRepos/code-mod-example/code-mod-framework/lib/libnx_min/nx/lib\libnx_min.a(hid.o)
                0x0000000000011f30                hidJoystickRead
 *fill*         0x0000000000011fdc        0x4 
 .text.hidSixAxisSensorValuesRead
                0x0000000000011fe0      0x214 D:/githubRepos/code-mod-example/code-mod-framework/lib/libnx_min/nx/lib\libnx_min.a(hid.o)
                0x0000000000011fe0                hidSixAxisSensorValuesRead
 *fill*         0x00000000000121f4        0xc 
 .text.hidGetHandheldMode
                0x0000000000012200       0x14 D:/githubRepos/code-mod-example/code-mod-framework/lib/libnx_min/nx/lib\libnx_min.a(hid.o)
                0x0000000000012200                hidGetHandheldMode
 *fill*         0x0000000000012214        0xc 
 .text.hidSetSupportedNpadIdType
                0x0000000000012220      0x198 D:/githubRepos/code-mod-example/code-mod-framework/lib/libnx_min/nx/lib\libnx_min.a(hid.o)
                0x0000000000012220                hidSetSupportedNpadIdType
 *fill*         0x00000000000123b8        0x8 
 .text.hidSetSupportedNpadStyleSet
                0x00000000000123c0        0xc D:/githubRepos/code-mod-example/code-mod-framework/lib/libnx_min/nx/lib\libnx_min.a(hid.o)
                0x00000000000123c0                hidSetSupportedNpadStyleSet
 *fill*         0x00000000000123cc        0x4 
 .text.hidAcquireNpadStyleSetUpdateEventHandle
                0x00000000000123d0      0x194 D:/githubRepos/code-mod-example/code-mod-framework/lib/libnx_min/nx/lib\libnx_min.a(hid.o)
                0x00000000000123d0                hidAcquireNpadStyleSetUpdateEventHandle
 *fill*         0x0000000000012564        0xc 
 .text.hidSetNpadJoyHoldType
                0x0000000000012570        0x8 D:/githubRepos/code-mod-example/code-mod-framework/lib/libnx_min/nx/lib\libnx_min.a(hid.o)
                0x0000000000012570                hidSetNpadJoyHoldType
 *fill*         0x0000000000012578        0x8 
 .text.hidSetNpadJoyAssignmentModeSingleByDefault
                0x0000000000012580        0xc D:/githubRepos/code-mod-example/code-mod-framework/lib/libnx_min/nx/lib\libnx_min.a(hid.o)
                0x0000000000012580                hidSetNpadJoyAssignmentModeSingleByDefault
 *fill*         0x000000000001258c        0x4 
 .text.hidSetNpadJoyAssignmentModeDual
                0x0000000000012590        0xc D:/githubRepos/code-mod-example/code-mod-framework/lib/libnx_min/nx/lib\libnx_min.a(hid.o)
                0x0000000000012590                hidSetNpadJoyAssignmentModeDual
 *fill*         0x000000000001259c        0x4 
 .text.hidMergeSingleJoyAsDualJoy
                0x00000000000125a0      0x110 D:/githubRepos/code-mod-example/code-mod-framework/lib/libnx_min/nx/lib\libnx_min.a(hid.o)
                0x00000000000125a0                hidMergeSingleJoyAsDualJoy
 .text.hidGetVibrationDeviceInfo
                0x00000000000126b0       0xf8 D:/githubRepos/code-mod-example/code-mod-framework/lib/libnx_min/nx/lib\libnx_min.a(hid.o)
                0x00000000000126b0                hidGetVibrationDeviceInfo
 *fill*         0x00000000000127a8        0x8 
 .text.hidSendVibrationValue
                0x00000000000127b0      0x120 D:/githubRepos/code-mod-example/code-mod-framework/lib/libnx_min/nx/lib\libnx_min.a(hid.o)
                0x00000000000127b0                hidSendVibrationValue
 .text.hidGetActualVibrationValue
                0x00000000000128d0      0x128 D:/githubRepos/code-mod-example/code-mod-framework/lib/libnx_min/nx/lib\libnx_min.a(hid.o)
                0x00000000000128d0                hidGetActualVibrationValue
 *fill*         0x00000000000129f8        0x8 
 .text.hidPermitVibration
                0x0000000000012a00       0xd0 D:/githubRepos/code-mod-example/code-mod-framework/lib/libnx_min/nx/lib\libnx_min.a(hid.o)
                0x0000000000012a00                hidPermitVibration
 .text.hidIsVibrationPermitted
                0x0000000000012ad0       0xf4 D:/githubRepos/code-mod-example/code-mod-framework/lib/libnx_min/nx/lib\libnx_min.a(hid.o)
                0x0000000000012ad0                hidIsVibrationPermitted
 *fill*         0x0000000000012bc4        0xc 
 .text.hidSendVibrationValues
                0x0000000000012bd0      0x144 D:/githubRepos/code-mod-example/code-mod-framework/lib/libnx_min/nx/lib\libnx_min.a(hid.o)
                0x0000000000012bd0                hidSendVibrationValues
 *fill*         0x0000000000012d14        0xc 
 .text.hidInitializeVibrationDevices
                0x0000000000012d20      0x114 D:/githubRepos/code-mod-example/code-mod-framework/lib/libnx_min/nx/lib\libnx_min.a(hid.o)
                0x0000000000012d20                hidInitializeVibrationDevices
 *fill*         0x0000000000012e34        0xc 
 .text.hidGetSixAxisSensorHandles
                0x0000000000012e40       0x2c D:/githubRepos/code-mod-example/code-mod-framework/lib/libnx_min/nx/lib\libnx_min.a(hid.o)
                0x0000000000012e40                hidGetSixAxisSensorHandles
 *fill*         0x0000000000012e6c        0x4 
 .text.hidStartSixAxisSensor
                0x0000000000012e70       0x84 D:/githubRepos/code-mod-example/code-mod-framework/lib/libnx_min/nx/lib\libnx_min.a(hid.o)
                0x0000000000012e70                hidStartSixAxisSensor
 *fill*         0x0000000000012ef4        0xc 
 .text.hidStopSixAxisSensor
                0x0000000000012f00       0x80 D:/githubRepos/code-mod-example/code-mod-framework/lib/libnx_min/nx/lib\libnx_min.a(hid.o)
                0x0000000000012f00                hidStopSixAxisSensor
 .text.hidStartSevenSixAxisSensor
                0x0000000000012f80       0x30 D:/githubRepos/code-mod-example/code-mod-framework/lib/libnx_min/nx/lib\libnx_min.a(hid.o)
                0x0000000000012f80                hidStartSevenSixAxisSensor
 .text.hidStopSevenSixAxisSensor
                0x0000000000012fb0       0x30 D:/githubRepos/code-mod-example/code-mod-framework/lib/libnx_min/nx/lib\libnx_min.a(hid.o)
                0x0000000000012fb0                hidStopSevenSixAxisSensor
 .text.hidFinalizeSevenSixAxisSensor
                0x0000000000012fe0       0x80 D:/githubRepos/code-mod-example/code-mod-framework/lib/libnx_min/nx/lib\libnx_min.a(hid.o)
                0x0000000000012fe0                hidFinalizeSevenSixAxisSensor
 .text.hidExit  0x0000000000013060      0x134 D:/githubRepos/code-mod-example/code-mod-framework/lib/libnx_min/nx/lib\libnx_min.a(hid.o)
                0x0000000000013060                hidExit
 *fill*         0x0000000000013194        0xc 
 .text.hidInitialize
                0x00000000000131a0      0x168 D:/githubRepos/code-mod-example/code-mod-framework/lib/libnx_min/nx/lib\libnx_min.a(hid.o)
                0x00000000000131a0                hidInitialize
 *fill*         0x0000000000013308        0x8 
 .text.hidInitializeSevenSixAxisSensor
                0x0000000000013310      0x130 D:/githubRepos/code-mod-example/code-mod-framework/lib/libnx_min/nx/lib\libnx_min.a(hid.o)
                0x0000000000013310                hidInitializeSevenSixAxisSensor
 .text.hidSetSevenSixAxisSensorFusionStrength
                0x0000000000013440      0x1f8 D:/githubRepos/code-mod-example/code-mod-framework/lib/libnx_min/nx/lib\libnx_min.a(hid.o)
                0x0000000000013440                hidSetSevenSixAxisSensorFusionStrength
 *fill*         0x0000000000013638        0x8 
 .text.hidGetSevenSixAxisSensorFusionStrength
                0x0000000000013640      0x1fc D:/githubRepos/code-mod-example/code-mod-framework/lib/libnx_min/nx/lib\libnx_min.a(hid.o)
                0x0000000000013640                hidGetSevenSixAxisSensorFusionStrength
 *fill*         0x000000000001383c        0x4 
 .text.hidResetSevenSixAxisSensorTimestamp
                0x0000000000013840       0x30 D:/githubRepos/code-mod-example/code-mod-framework/lib/libnx_min/nx/lib\libnx_min.a(hid.o)
                0x0000000000013840                hidResetSevenSixAxisSensorTimestamp
 .text.ipcCloseObjectById
                0x0000000000013870       0x34 D:/githubRepos/code-mod-example/code-mod-framework/lib/libnx_min/nx/lib\libnx_min.a(time.o)
 *fill*         0x00000000000138a4        0xc 
 .text._timeGetSession
                0x00000000000138b0      0x12c D:/githubRepos/code-mod-example/code-mod-framework/lib/libnx_min/nx/lib\libnx_min.a(time.o)
 *fill*         0x00000000000139dc        0x4 
 .text.timeExit
                0x00000000000139e0      0x1ec D:/githubRepos/code-mod-example/code-mod-framework/lib/libnx_min/nx/lib\libnx_min.a(time.o)
                0x00000000000139e0                timeExit
 *fill*         0x0000000000013bcc        0x4 
 .text.timeInitialize
                0x0000000000013bd0       0xd8 D:/githubRepos/code-mod-example/code-mod-framework/lib/libnx_min/nx/lib\libnx_min.a(time.o)
                0x0000000000013bd0                timeInitialize
 *fill*         0x0000000000013ca8        0x8 
 .text.timeGetSessionService
                0x0000000000013cb0        0xc D:/githubRepos/code-mod-example/code-mod-framework/lib/libnx_min/nx/lib\libnx_min.a(time.o)
                0x0000000000013cb0                timeGetSessionService
 *fill*         0x0000000000013cbc        0x4 
 .text.timeGetCurrentTime
                0x0000000000013cc0      0x124 D:/githubRepos/code-mod-example/code-mod-framework/lib/libnx_min/nx/lib\libnx_min.a(time.o)
                0x0000000000013cc0                timeGetCurrentTime
 *fill*         0x0000000000013de4        0xc 
 .text.timeSetCurrentTime
                0x0000000000013df0      0x104 D:/githubRepos/code-mod-example/code-mod-framework/lib/libnx_min/nx/lib\libnx_min.a(time.o)
                0x0000000000013df0                timeSetCurrentTime
 *fill*         0x0000000000013ef4        0xc 
 .text.timeToCalendarTimeWithMyRule
                0x0000000000013f00      0x118 D:/githubRepos/code-mod-example/code-mod-framework/lib/libnx_min/nx/lib\libnx_min.a(time.o)
                0x0000000000013f00                timeToCalendarTimeWithMyRule
 *fill*         0x0000000000014018        0x8 
 .text.ipcPrepareHeader
                0x0000000000014020      0x220 D:/githubRepos/code-mod-example/code-mod-framework/lib/libnx_min/nx/lib\libnx_min.a(applet.o)
 .text.ipcParse
                0x0000000000014240      0x22c D:/githubRepos/code-mod-example/code-mod-framework/lib/libnx_min/nx/lib\libnx_min.a(applet.o)
 *fill*         0x000000000001446c        0x4 
 .text.serviceIpcParse
                0x0000000000014470       0xb0 D:/githubRepos/code-mod-example/code-mod-framework/lib/libnx_min/nx/lib\libnx_min.a(applet.o)
 .text.ipcConvertSessionToDomain
                0x0000000000014520       0x78 D:/githubRepos/code-mod-example/code-mod-framework/lib/libnx_min/nx/lib\libnx_min.a(applet.o)
 *fill*         0x0000000000014598        0x8 
 .text.ipcQueryPointerBufferSize
                0x00000000000145a0       0x7c D:/githubRepos/code-mod-example/code-mod-framework/lib/libnx_min/nx/lib\libnx_min.a(applet.o)
 *fill*         0x000000000001461c        0x4 
 .text.ipcCloneSession.constprop.52
                0x0000000000014620       0x84 D:/githubRepos/code-mod-example/code-mod-framework/lib/libnx_min/nx/lib\libnx_min.a(applet.o)
 *fill*         0x00000000000146a4        0xc 
 .text.ipcCloseObjectById
                0x00000000000146b0       0x34 D:/githubRepos/code-mod-example/code-mod-framework/lib/libnx_min/nx/lib\libnx_min.a(applet.o)
 *fill*         0x00000000000146e4        0xc 
 .text.serviceClose
                0x00000000000146f0       0x6c D:/githubRepos/code-mod-example/code-mod-framework/lib/libnx_min/nx/lib\libnx_min.a(applet.o)
 *fill*         0x000000000001475c        0x4 
 .text._appletCmdInHandle64
                0x0000000000014760      0x204 D:/githubRepos/code-mod-example/code-mod-framework/lib/libnx_min/nx/lib\libnx_min.a(applet.o)
 *fill*         0x0000000000014964        0xc 
 .text._appletReceiveMessage
                0x0000000000014970      0x19c D:/githubRepos/code-mod-example/code-mod-framework/lib/libnx_min/nx/lib\libnx_min.a(applet.o)
 *fill*         0x0000000000014b0c        0x4 
 .text._appletCmdNoIO
                0x0000000000014b10      0x164 D:/githubRepos/code-mod-example/code-mod-framework/lib/libnx_min/nx/lib\libnx_min.a(applet.o)
 *fill*         0x0000000000014c74        0xc 
 .text._appletGetOperationMode.constprop.43
                0x0000000000014c80      0x18c D:/githubRepos/code-mod-example/code-mod-framework/lib/libnx_min/nx/lib\libnx_min.a(applet.o)
 *fill*         0x0000000000014e0c        0x4 
 .text._appletGetCurrentFocusState.constprop.45
                0x0000000000014e10      0x18c D:/githubRepos/code-mod-example/code-mod-framework/lib/libnx_min/nx/lib\libnx_min.a(applet.o)
 *fill*         0x0000000000014f9c        0x4 
 .text._appletGetPerformanceMode.constprop.44
                0x0000000000014fa0      0x18c D:/githubRepos/code-mod-example/code-mod-framework/lib/libnx_min/nx/lib\libnx_min.a(applet.o)
 *fill*         0x000000000001512c        0x4 
 .text._appletCmdNoInOutBool
                0x0000000000015130      0x184 D:/githubRepos/code-mod-example/code-mod-framework/lib/libnx_min/nx/lib\libnx_min.a(applet.o)
 *fill*         0x00000000000152b4        0xc 
 .text._appletGetSession
                0x00000000000152c0      0x1d8 D:/githubRepos/code-mod-example/code-mod-framework/lib/libnx_min/nx/lib\libnx_min.a(applet.o)
 *fill*         0x0000000000015498        0x8 
 .text._appletCmdNoInOut64
                0x00000000000154a0      0x17c D:/githubRepos/code-mod-example/code-mod-framework/lib/libnx_min/nx/lib\libnx_min.a(applet.o)
 *fill*         0x000000000001561c        0x4 
 .text._appletSetOperationModeChangedNotification.constprop.46
                0x0000000000015620      0x164 D:/githubRepos/code-mod-example/code-mod-framework/lib/libnx_min/nx/lib\libnx_min.a(applet.o)
 *fill*         0x0000000000015784        0xc 
 .text._appletCmdInU8
                0x0000000000015790      0x17c D:/githubRepos/code-mod-example/code-mod-framework/lib/libnx_min/nx/lib\libnx_min.a(applet.o)
 *fill*         0x000000000001590c        0x4 
 .text._appletSetOutOfFocusSuspendingEnabled
                0x0000000000015910      0x16c D:/githubRepos/code-mod-example/code-mod-framework/lib/libnx_min/nx/lib\libnx_min.a(applet.o)
 *fill*         0x0000000000015a7c        0x4 
 .text._appletSetPerformanceModeChangedNotification.constprop.47
                0x0000000000015a80      0x164 D:/githubRepos/code-mod-example/code-mod-framework/lib/libnx_min/nx/lib\libnx_min.a(applet.o)
 *fill*         0x0000000000015be4        0xc 
 .text._appletCmdInU64.constprop.37
                0x0000000000015bf0      0x16c D:/githubRepos/code-mod-example/code-mod-framework/lib/libnx_min/nx/lib\libnx_min.a(applet.o)
 *fill*         0x0000000000015d5c        0x4 
 .text._appletCmdInU32.constprop.48
                0x0000000000015d60      0x16c D:/githubRepos/code-mod-example/code-mod-framework/lib/libnx_min/nx/lib\libnx_min.a(applet.o)
 *fill*         0x0000000000015ecc        0x4 
 .text._appletSetFocusHandlingMode
                0x0000000000015ed0      0x17c D:/githubRepos/code-mod-example/code-mod-framework/lib/libnx_min/nx/lib\libnx_min.a(applet.o)
 *fill*         0x000000000001604c        0x4 
 .text._appletGetHandle.constprop.42
                0x0000000000016050      0x178 D:/githubRepos/code-mod-example/code-mod-framework/lib/libnx_min/nx/lib\libnx_min.a(applet.o)
 *fill*         0x00000000000161c8        0x8 
 .text._appletGetEvent.constprop.41
                0x00000000000161d0       0x54 D:/githubRepos/code-mod-example/code-mod-framework/lib/libnx_min/nx/lib\libnx_min.a(applet.o)
 *fill*         0x0000000000016224        0xc 
 .text._appletWaitLibraryAppletLaunchableEvent
                0x0000000000016230       0x50 D:/githubRepos/code-mod-example/code-mod-framework/lib/libnx_min/nx/lib\libnx_min.a(applet.o)
 .text._appletCreateApplicationAndRequestToStartForQuest.isra.20
                0x0000000000016280      0x17c D:/githubRepos/code-mod-example/code-mod-framework/lib/libnx_min/nx/lib\libnx_min.a(applet.o)
 *fill*         0x00000000000163fc        0x4 
 .text._appletCreateApplicationAndPushAndRequestToStart
                0x0000000000016400      0x1e0 D:/githubRepos/code-mod-example/code-mod-framework/lib/libnx_min/nx/lib\libnx_min.a(applet.o)
 .text._appletCmdNoInOut32.constprop.38
                0x00000000000165e0      0x194 D:/githubRepos/code-mod-example/code-mod-framework/lib/libnx_min/nx/lib\libnx_min.a(applet.o)
 *fill*         0x0000000000016774        0xc 
 .text._appletCmdInSession
                0x0000000000016780      0x1d8 D:/githubRepos/code-mod-example/code-mod-framework/lib/libnx_min/nx/lib\libnx_min.a(applet.o)
 *fill*         0x0000000000016958        0x8 
 .text._appletStorageGetHandle
                0x0000000000016960      0x19c D:/githubRepos/code-mod-example/code-mod-framework/lib/libnx_min/nx/lib\libnx_min.a(applet.o)
 *fill*         0x0000000000016afc        0x4 
 .text._appletCreateApplicationAndPushAndRequestToStartForQuest.isra.21
                0x0000000000016b00      0x1e8 D:/githubRepos/code-mod-example/code-mod-framework/lib/libnx_min/nx/lib\libnx_min.a(applet.o)
 *fill*         0x0000000000016ce8        0x8 
 .text._appletCreateTransferMemoryStorage.isra.25
                0x0000000000016cf0      0x1e4 D:/githubRepos/code-mod-example/code-mod-framework/lib/libnx_min/nx/lib\libnx_min.a(applet.o)
 *fill*         0x0000000000016ed4        0xc 
 .text._appletGetSessionIn64.constprop.39
                0x0000000000016ee0      0x1c4 D:/githubRepos/code-mod-example/code-mod-framework/lib/libnx_min/nx/lib\libnx_min.a(applet.o)
 *fill*         0x00000000000170a4        0xc 
 .text._appletStorageAccessorRW
                0x00000000000170b0      0x314 D:/githubRepos/code-mod-example/code-mod-framework/lib/libnx_min/nx/lib\libnx_min.a(applet.o)
 *fill*         0x00000000000173c4        0xc 
 .text._appletStorageRW
                0x00000000000173d0      0x108 D:/githubRepos/code-mod-example/code-mod-framework/lib/libnx_min/nx/lib\libnx_min.a(applet.o)
 *fill*         0x00000000000174d8        0x8 
 .text._appletCreateLibraryApplet
                0x00000000000174e0      0x1c4 D:/githubRepos/code-mod-example/code-mod-framework/lib/libnx_min/nx/lib\libnx_min.a(applet.o)
 *fill*         0x00000000000176a4        0xc 
 .text._appletGetSessionProxy.constprop.40
                0x00000000000176b0      0x1f0 D:/githubRepos/code-mod-example/code-mod-framework/lib/libnx_min/nx/lib\libnx_min.a(applet.o)
 .text.appletGetAppletType
                0x00000000000178a0       0x10 D:/githubRepos/code-mod-example/code-mod-framework/lib/libnx_min/nx/lib\libnx_min.a(applet.o)
                0x00000000000178a0                appletGetAppletType
 .text.appletHook
                0x00000000000178b0       0x28 D:/githubRepos/code-mod-example/code-mod-framework/lib/libnx_min/nx/lib\libnx_min.a(applet.o)
                0x00000000000178b0                appletHook
 *fill*         0x00000000000178d8        0x8 
 .text.appletUnhook
                0x00000000000178e0       0x34 D:/githubRepos/code-mod-example/code-mod-framework/lib/libnx_min/nx/lib\libnx_min.a(applet.o)
                0x00000000000178e0                appletUnhook
 *fill*         0x0000000000017914        0xc 
 .text.appletSetThemeColorType
                0x0000000000017920        0xc D:/githubRepos/code-mod-example/code-mod-framework/lib/libnx_min/nx/lib\libnx_min.a(applet.o)
                0x0000000000017920                appletSetThemeColorType
 *fill*         0x000000000001792c        0x4 
 .text.appletGetThemeColorType
                0x0000000000017930        0xc D:/githubRepos/code-mod-example/code-mod-framework/lib/libnx_min/nx/lib\libnx_min.a(applet.o)
                0x0000000000017930                appletGetThemeColorType
 *fill*         0x000000000001793c        0x4 
 .text.appletSetFocusHandlingMode
                0x0000000000017940       0xf0 D:/githubRepos/code-mod-example/code-mod-framework/lib/libnx_min/nx/lib\libnx_min.a(applet.o)
                0x0000000000017940                appletSetFocusHandlingMode
 .text.appletGetAppletResourceUserId
                0x0000000000017a30       0x28 D:/githubRepos/code-mod-example/code-mod-framework/lib/libnx_min/nx/lib\libnx_min.a(applet.o)
                0x0000000000017a30                appletGetAppletResourceUserId
 *fill*         0x0000000000017a58        0x8 
 .text._appletGetIndirectLayerConsumerHandle
                0x0000000000017a60      0x12c D:/githubRepos/code-mod-example/code-mod-framework/lib/libnx_min/nx/lib\libnx_min.a(applet.o)
 *fill*         0x0000000000017b8c        0x4 
 .text._appletHolderCreate
                0x0000000000017b90       0xc0 D:/githubRepos/code-mod-example/code-mod-framework/lib/libnx_min/nx/lib\libnx_min.a(applet.o)
 .text.appletPopLaunchParameter
                0x0000000000017c50      0x194 D:/githubRepos/code-mod-example/code-mod-framework/lib/libnx_min/nx/lib\libnx_min.a(applet.o)
                0x0000000000017c50                appletPopLaunchParameter
 *fill*         0x0000000000017de4        0xc 
 .text.appletGetDesiredLanguage
                0x0000000000017df0       0x3c D:/githubRepos/code-mod-example/code-mod-framework/lib/libnx_min/nx/lib\libnx_min.a(applet.o)
                0x0000000000017df0                appletGetDesiredLanguage
 *fill*         0x0000000000017e2c        0x4 
 .text.appletSetTerminateResult
                0x0000000000017e30      0x14c D:/githubRepos/code-mod-example/code-mod-framework/lib/libnx_min/nx/lib\libnx_min.a(applet.o)
                0x0000000000017e30                appletSetTerminateResult
 *fill*         0x0000000000017f7c        0x4 
 .text.appletSetMediaPlaybackState
                0x0000000000017f80       0x4c D:/githubRepos/code-mod-example/code-mod-framework/lib/libnx_min/nx/lib\libnx_min.a(applet.o)
                0x0000000000017f80                appletSetMediaPlaybackState
 *fill*         0x0000000000017fcc        0x4 
 .text.appletBeginBlockingHomeButton
                0x0000000000017fd0      0x14c D:/githubRepos/code-mod-example/code-mod-framework/lib/libnx_min/nx/lib\libnx_min.a(applet.o)
                0x0000000000017fd0                appletBeginBlockingHomeButton
 *fill*         0x000000000001811c        0x4 
 .text.appletEndBlockingHomeButton
                0x0000000000018120       0x38 D:/githubRepos/code-mod-example/code-mod-framework/lib/libnx_min/nx/lib\libnx_min.a(applet.o)
                0x0000000000018120                appletEndBlockingHomeButton
 *fill*         0x0000000000018158        0x8 
 .text.appletNotifyRunning
                0x0000000000018160      0x174 D:/githubRepos/code-mod-example/code-mod-framework/lib/libnx_min/nx/lib\libnx_min.a(applet.o)
                0x0000000000018160                appletNotifyRunning
 *fill*         0x00000000000182d4        0xc 
 .text.appletIsGamePlayRecordingSupported
                0x00000000000182e0      0x168 D:/githubRepos/code-mod-example/code-mod-framework/lib/libnx_min/nx/lib\libnx_min.a(applet.o)
                0x00000000000182e0                appletIsGamePlayRecordingSupported
 *fill*         0x0000000000018448        0x8 
 .text.appletSetGamePlayRecordingState
                0x0000000000018450      0x158 D:/githubRepos/code-mod-example/code-mod-framework/lib/libnx_min/nx/lib\libnx_min.a(applet.o)
                0x0000000000018450                appletSetGamePlayRecordingState
 *fill*         0x00000000000185a8        0x8 
 .text.appletInitializeGamePlayRecording
                0x00000000000185b0      0x138 D:/githubRepos/code-mod-example/code-mod-framework/lib/libnx_min/nx/lib\libnx_min.a(applet.o)
                0x00000000000185b0                appletInitializeGamePlayRecording
 *fill*         0x00000000000186e8        0x8 
 .text.appletQueryApplicationPlayStatistics
                0x00000000000186f0      0x1c0 D:/githubRepos/code-mod-example/code-mod-framework/lib/libnx_min/nx/lib\libnx_min.a(applet.o)
                0x00000000000186f0                appletQueryApplicationPlayStatistics
 .text.appletBeginToWatchShortHomeButtonMessage
                0x00000000000188b0       0x2c D:/githubRepos/code-mod-example/code-mod-framework/lib/libnx_min/nx/lib\libnx_min.a(applet.o)
                0x00000000000188b0                appletBeginToWatchShortHomeButtonMessage
 *fill*         0x00000000000188dc        0x4 
 .text.appletEndToWatchShortHomeButtonMessage
                0x00000000000188e0       0x2c D:/githubRepos/code-mod-example/code-mod-framework/lib/libnx_min/nx/lib\libnx_min.a(applet.o)
                0x00000000000188e0                appletEndToWatchShortHomeButtonMessage
 *fill*         0x000000000001890c        0x4 
 .text.appletHomeButtonReaderLockAccessorGetEvent
                0x0000000000018910       0xc8 D:/githubRepos/code-mod-example/code-mod-framework/lib/libnx_min/nx/lib\libnx_min.a(applet.o)
                0x0000000000018910                appletHomeButtonReaderLockAccessorGetEvent
 *fill*         0x00000000000189d8        0x8 
 .text.appletIsVrModeEnabled
                0x00000000000189e0       0x4c D:/githubRepos/code-mod-example/code-mod-framework/lib/libnx_min/nx/lib\libnx_min.a(applet.o)
                0x00000000000189e0                appletIsVrModeEnabled
 *fill*         0x0000000000018a2c        0x4 
 .text.appletSetVrModeEnabled
                0x0000000000018a30       0x78 D:/githubRepos/code-mod-example/code-mod-framework/lib/libnx_min/nx/lib\libnx_min.a(applet.o)
                0x0000000000018a30                appletSetVrModeEnabled
 *fill*         0x0000000000018aa8        0x8 
 .text.appletSetCpuBoostMode
                0x0000000000018ab0       0x50 D:/githubRepos/code-mod-example/code-mod-framework/lib/libnx_min/nx/lib\libnx_min.a(applet.o)
                0x0000000000018ab0                appletSetCpuBoostMode
 .text.appletExit
                0x0000000000018b00      0x5dc D:/githubRepos/code-mod-example/code-mod-framework/lib/libnx_min/nx/lib\libnx_min.a(applet.o)
                0x0000000000018b00                appletExit
 *fill*         0x00000000000190dc        0x4 
 .text.appletInitialize
                0x00000000000190e0      0x4f0 D:/githubRepos/code-mod-example/code-mod-framework/lib/libnx_min/nx/lib\libnx_min.a(applet.o)
                0x00000000000190e0                appletInitialize
 .text._appletExitProcess
                0x00000000000195d0       0x10 D:/githubRepos/code-mod-example/code-mod-framework/lib/libnx_min/nx/lib\libnx_min.a(applet.o)
 .text.appletGetCurrentPerformanceConfiguration
                0x00000000000195e0       0x40 D:/githubRepos/code-mod-example/code-mod-framework/lib/libnx_min/nx/lib\libnx_min.a(applet.o)
                0x00000000000195e0                appletGetCurrentPerformanceConfiguration
 .text.appletLockExit
                0x0000000000019620       0x10 D:/githubRepos/code-mod-example/code-mod-framework/lib/libnx_min/nx/lib\libnx_min.a(applet.o)
                0x0000000000019620                appletLockExit
 .text.appletUnlockExit
                0x0000000000019630       0x10 D:/githubRepos/code-mod-example/code-mod-framework/lib/libnx_min/nx/lib\libnx_min.a(applet.o)
                0x0000000000019630                appletUnlockExit
 .text.appletSetScreenShotPermission
                0x0000000000019640      0x16c D:/githubRepos/code-mod-example/code-mod-framework/lib/libnx_min/nx/lib\libnx_min.a(applet.o)
                0x0000000000019640                appletSetScreenShotPermission
 *fill*         0x00000000000197ac        0x4 
 .text.appletSetScreenShotImageOrientation
                0x00000000000197b0      0x1c4 D:/githubRepos/code-mod-example/code-mod-framework/lib/libnx_min/nx/lib\libnx_min.a(applet.o)
                0x00000000000197b0                appletSetScreenShotImageOrientation
 *fill*         0x0000000000019974        0xc 
 .text.appletCreateManagedDisplayLayer
                0x0000000000019980       0x14 D:/githubRepos/code-mod-example/code-mod-framework/lib/libnx_min/nx/lib\libnx_min.a(applet.o)
                0x0000000000019980                appletCreateManagedDisplayLayer
 *fill*         0x0000000000019994        0xc 
 .text.appletGetCurrentIlluminance
                0x00000000000199a0      0x168 D:/githubRepos/code-mod-example/code-mod-framework/lib/libnx_min/nx/lib\libnx_min.a(applet.o)
                0x00000000000199a0                appletGetCurrentIlluminance
 *fill*         0x0000000000019b08        0x8 
 .text.appletIsIlluminanceAvailable
                0x0000000000019b10       0x4c D:/githubRepos/code-mod-example/code-mod-framework/lib/libnx_min/nx/lib\libnx_min.a(applet.o)
                0x0000000000019b10                appletIsIlluminanceAvailable
 *fill*         0x0000000000019b5c        0x4 
 .text.appletGetCurrentIlluminanceEx
                0x0000000000019b60      0x19c D:/githubRepos/code-mod-example/code-mod-framework/lib/libnx_min/nx/lib\libnx_min.a(applet.o)
                0x0000000000019b60                appletGetCurrentIlluminanceEx
 *fill*         0x0000000000019cfc        0x4 
 .text.appletCreateLibraryApplet
                0x0000000000019d00        0x8 D:/githubRepos/code-mod-example/code-mod-framework/lib/libnx_min/nx/lib\libnx_min.a(applet.o)
                0x0000000000019d00                appletCreateLibraryApplet
 *fill*         0x0000000000019d08        0x8 
 .text.appletCreateLibraryAppletSelf
                0x0000000000019d10        0x8 D:/githubRepos/code-mod-example/code-mod-framework/lib/libnx_min/nx/lib\libnx_min.a(applet.o)
                0x0000000000019d10                appletCreateLibraryAppletSelf
 *fill*         0x0000000000019d18        0x8 
 .text.appletHolderClose
                0x0000000000019d20       0x94 D:/githubRepos/code-mod-example/code-mod-framework/lib/libnx_min/nx/lib\libnx_min.a(applet.o)
                0x0000000000019d20                appletHolderClose
 *fill*         0x0000000000019db4        0xc 
 .text.appletHolderActive
                0x0000000000019dc0       0x10 D:/githubRepos/code-mod-example/code-mod-framework/lib/libnx_min/nx/lib\libnx_min.a(applet.o)
                0x0000000000019dc0                appletHolderActive
 .text.appletHolderGetIndirectLayerConsumerHandle
                0x0000000000019dd0       0x74 D:/githubRepos/code-mod-example/code-mod-framework/lib/libnx_min/nx/lib\libnx_min.a(applet.o)
                0x0000000000019dd0                appletHolderGetIndirectLayerConsumerHandle
 *fill*         0x0000000000019e44        0xc 
 .text.appletHolderStart
                0x0000000000019e50       0x50 D:/githubRepos/code-mod-example/code-mod-framework/lib/libnx_min/nx/lib\libnx_min.a(applet.o)
                0x0000000000019e50                appletHolderStart
 .text.appletHolderJoin
                0x0000000000019ea0       0x80 D:/githubRepos/code-mod-example/code-mod-framework/lib/libnx_min/nx/lib\libnx_min.a(applet.o)
                0x0000000000019ea0                appletHolderJoin
 .text.appletHolderCheckFinished
                0x0000000000019f20       0x24 D:/githubRepos/code-mod-example/code-mod-framework/lib/libnx_min/nx/lib\libnx_min.a(applet.o)
                0x0000000000019f20                appletHolderCheckFinished
 *fill*         0x0000000000019f44        0xc 
 .text.appletHolderRequestExit
                0x0000000000019f50       0x50 D:/githubRepos/code-mod-example/code-mod-framework/lib/libnx_min/nx/lib\libnx_min.a(applet.o)
                0x0000000000019f50                appletHolderRequestExit
 .text.appletHolderGetExitReason
                0x0000000000019fa0        0x8 D:/githubRepos/code-mod-example/code-mod-framework/lib/libnx_min/nx/lib\libnx_min.a(applet.o)
                0x0000000000019fa0                appletHolderGetExitReason
 *fill*         0x0000000000019fa8        0x8 
 .text.appletHolderWaitInteractiveOut
                0x0000000000019fb0       0x88 D:/githubRepos/code-mod-example/code-mod-framework/lib/libnx_min/nx/lib\libnx_min.a(applet.o)
                0x0000000000019fb0                appletHolderWaitInteractiveOut
 *fill*         0x000000000001a038        0x8 
 .text.appletHolderPopOutData
                0x000000000001a040       0x18 D:/githubRepos/code-mod-example/code-mod-framework/lib/libnx_min/nx/lib\libnx_min.a(applet.o)
                0x000000000001a040                appletHolderPopOutData
 *fill*         0x000000000001a058        0x8 
 .text.appletHolderPopInteractiveOutData
                0x000000000001a060       0x18 D:/githubRepos/code-mod-example/code-mod-framework/lib/libnx_min/nx/lib\libnx_min.a(applet.o)
                0x000000000001a060                appletHolderPopInteractiveOutData
 *fill*         0x000000000001a078        0x8 
 .text.appletCreateStorage
                0x000000000001a080       0x14 D:/githubRepos/code-mod-example/code-mod-framework/lib/libnx_min/nx/lib\libnx_min.a(applet.o)
                0x000000000001a080                appletCreateStorage
 *fill*         0x000000000001a094        0xc 
 .text.appletCreateTransferMemoryStorage
                0x000000000001a0a0       0xa8 D:/githubRepos/code-mod-example/code-mod-framework/lib/libnx_min/nx/lib\libnx_min.a(applet.o)
                0x000000000001a0a0                appletCreateTransferMemoryStorage
 *fill*         0x000000000001a148        0x8 
 .text.appletCreateHandleStorage
                0x000000000001a150       0x64 D:/githubRepos/code-mod-example/code-mod-framework/lib/libnx_min/nx/lib\libnx_min.a(applet.o)
                0x000000000001a150                appletCreateHandleStorage
 *fill*         0x000000000001a1b4        0xc 
 .text.appletCreateHandleStorageTmem
                0x000000000001a1c0       0xa0 D:/githubRepos/code-mod-example/code-mod-framework/lib/libnx_min/nx/lib\libnx_min.a(applet.o)
                0x000000000001a1c0                appletCreateHandleStorageTmem
 .text.appletStorageClose
                0x000000000001a260       0x6c D:/githubRepos/code-mod-example/code-mod-framework/lib/libnx_min/nx/lib\libnx_min.a(applet.o)
                0x000000000001a260                appletStorageClose
 *fill*         0x000000000001a2cc        0x4 
 .text.appletRequestLaunchApplication
                0x000000000001a2d0      0x188 D:/githubRepos/code-mod-example/code-mod-framework/lib/libnx_min/nx/lib\libnx_min.a(applet.o)
                0x000000000001a2d0                appletRequestLaunchApplication
 *fill*         0x000000000001a458        0x8 
 .text.appletRequestLaunchApplicationForQuest
                0x000000000001a460      0x168 D:/githubRepos/code-mod-example/code-mod-framework/lib/libnx_min/nx/lib\libnx_min.a(applet.o)
                0x000000000001a460                appletRequestLaunchApplicationForQuest
 *fill*         0x000000000001a5c8        0x8 
 .text.appletHolderPushInteractiveInData
                0x000000000001a5d0       0x40 D:/githubRepos/code-mod-example/code-mod-framework/lib/libnx_min/nx/lib\libnx_min.a(applet.o)
                0x000000000001a5d0                appletHolderPushInteractiveInData
 .text.appletPushToGeneralChannel
                0x000000000001a610       0x4c D:/githubRepos/code-mod-example/code-mod-framework/lib/libnx_min/nx/lib\libnx_min.a(applet.o)
                0x000000000001a610                appletPushToGeneralChannel
 *fill*         0x000000000001a65c        0x4 
 .text.appletHolderPushInData
                0x000000000001a660       0x40 D:/githubRepos/code-mod-example/code-mod-framework/lib/libnx_min/nx/lib\libnx_min.a(applet.o)
                0x000000000001a660                appletHolderPushInData
 .text.appletHolderPushExtraStorage
                0x000000000001a6a0       0x40 D:/githubRepos/code-mod-example/code-mod-framework/lib/libnx_min/nx/lib\libnx_min.a(applet.o)
                0x000000000001a6a0                appletHolderPushExtraStorage
 .text.appletStorageCloseTmem
                0x000000000001a6e0        0x8 D:/githubRepos/code-mod-example/code-mod-framework/lib/libnx_min/nx/lib\libnx_min.a(applet.o)
                0x000000000001a6e0                appletStorageCloseTmem
 *fill*         0x000000000001a6e8        0x8 
 .text.appletStorageGetSize
                0x000000000001a6f0       0xc4 D:/githubRepos/code-mod-example/code-mod-framework/lib/libnx_min/nx/lib\libnx_min.a(applet.o)
                0x000000000001a6f0                appletStorageGetSize
 *fill*         0x000000000001a7b4        0xc 
 .text.appletStorageWrite
                0x000000000001a7c0        0x8 D:/githubRepos/code-mod-example/code-mod-framework/lib/libnx_min/nx/lib\libnx_min.a(applet.o)
                0x000000000001a7c0                appletStorageWrite
 *fill*         0x000000000001a7c8        0x8 
 .text.appletStorageRead
                0x000000000001a7d0        0x8 D:/githubRepos/code-mod-example/code-mod-framework/lib/libnx_min/nx/lib\libnx_min.a(applet.o)
                0x000000000001a7d0                appletStorageRead
 *fill*         0x000000000001a7d8        0x8 
 .text.appletStorageGetHandle
                0x000000000001a7e0       0xfc D:/githubRepos/code-mod-example/code-mod-framework/lib/libnx_min/nx/lib\libnx_min.a(applet.o)
                0x000000000001a7e0                appletStorageGetHandle
 *fill*         0x000000000001a8dc        0x4 
 .text.appletStorageMap
                0x000000000001a8e0       0xcc D:/githubRepos/code-mod-example/code-mod-framework/lib/libnx_min/nx/lib\libnx_min.a(applet.o)
                0x000000000001a8e0                appletStorageMap
 *fill*         0x000000000001a9ac        0x4 
 .text.appletGetOperationMode
                0x000000000001a9b0        0xc D:/githubRepos/code-mod-example/code-mod-framework/lib/libnx_min/nx/lib\libnx_min.a(applet.o)
                0x000000000001a9b0                appletGetOperationMode
 *fill*         0x000000000001a9bc        0x4 
 .text.appletGetPerformanceMode
                0x000000000001a9c0        0xc D:/githubRepos/code-mod-example/code-mod-framework/lib/libnx_min/nx/lib\libnx_min.a(applet.o)
                0x000000000001a9c0                appletGetPerformanceMode
 *fill*         0x000000000001a9cc        0x4 
 .text.appletGetFocusState
                0x000000000001a9d0        0xc D:/githubRepos/code-mod-example/code-mod-framework/lib/libnx_min/nx/lib\libnx_min.a(applet.o)
                0x000000000001a9d0                appletGetFocusState
 *fill*         0x000000000001a9dc        0x4 
 .text.appletGetMessage
                0x000000000001a9e0       0x5c D:/githubRepos/code-mod-example/code-mod-framework/lib/libnx_min/nx/lib\libnx_min.a(applet.o)
                0x000000000001a9e0                appletGetMessage
 *fill*         0x000000000001aa3c        0x4 
 .text.appletProcessMessage
                0x000000000001aa40      0x118 D:/githubRepos/code-mod-example/code-mod-framework/lib/libnx_min/nx/lib\libnx_min.a(applet.o)
                0x000000000001aa40                appletProcessMessage
 *fill*         0x000000000001ab58        0x8 
 .text.appletMainLoop
                0x000000000001ab60       0x34 D:/githubRepos/code-mod-example/code-mod-framework/lib/libnx_min/nx/lib\libnx_min.a(applet.o)
                0x000000000001ab60                appletMainLoop
 *fill*         0x000000000001ab94        0xc 
 .text.__syscall_exit
                0x000000000001aba0       0x1c D:/githubRepos/code-mod-example/code-mod-framework/lib/libnx_min/nx/lib\libnx_min.a(newlib.o)
                0x000000000001aba0                __syscall_exit
 *fill*         0x000000000001abbc        0x4 
 .text.__syscall_getreent
                0x000000000001abc0       0x10 D:/githubRepos/code-mod-example/code-mod-framework/lib/libnx_min/nx/lib\libnx_min.a(newlib.o)
                0x000000000001abc0                __syscall_getreent
 .text.__syscall_lock_acquire
                0x000000000001abd0        0x4 D:/githubRepos/code-mod-example/code-mod-framework/lib/libnx_min/nx/lib\libnx_min.a(newlib.o)
                0x000000000001abd0                __syscall_lock_acquire
 *fill*         0x000000000001abd4        0xc 
 .text.__syscall_lock_try_acquire
                0x000000000001abe0       0x1c D:/githubRepos/code-mod-example/code-mod-framework/lib/libnx_min/nx/lib\libnx_min.a(newlib.o)
                0x000000000001abe0                __syscall_lock_try_acquire
 *fill*         0x000000000001abfc        0x4 
 .text.__syscall_lock_release
                0x000000000001ac00        0x4 D:/githubRepos/code-mod-example/code-mod-framework/lib/libnx_min/nx/lib\libnx_min.a(newlib.o)
                0x000000000001ac00                __syscall_lock_release
 *fill*         0x000000000001ac04        0xc 
 .text.__syscall_lock_acquire_recursive
                0x000000000001ac10        0x4 D:/githubRepos/code-mod-example/code-mod-framework/lib/libnx_min/nx/lib\libnx_min.a(newlib.o)
                0x000000000001ac10                __syscall_lock_acquire_recursive
 *fill*         0x000000000001ac14        0xc 
 .text.__syscall_lock_try_acquire_recursive
                0x000000000001ac20       0x1c D:/githubRepos/code-mod-example/code-mod-framework/lib/libnx_min/nx/lib\libnx_min.a(newlib.o)
                0x000000000001ac20                __syscall_lock_try_acquire_recursive
 *fill*         0x000000000001ac3c        0x4 
 .text.__syscall_lock_release_recursive
                0x000000000001ac40        0x4 D:/githubRepos/code-mod-example/code-mod-framework/lib/libnx_min/nx/lib\libnx_min.a(newlib.o)
                0x000000000001ac40                __syscall_lock_release_recursive
 *fill*         0x000000000001ac44        0xc 
 .text.__syscall_cond_signal
                0x000000000001ac50       0x40 D:/githubRepos/code-mod-example/code-mod-framework/lib/libnx_min/nx/lib\libnx_min.a(newlib.o)
                0x000000000001ac50                __syscall_cond_signal
 .text.__syscall_cond_broadcast
                0x000000000001ac90       0x40 D:/githubRepos/code-mod-example/code-mod-framework/lib/libnx_min/nx/lib\libnx_min.a(newlib.o)
                0x000000000001ac90                __syscall_cond_broadcast
 .text.__syscall_cond_wait
                0x000000000001acd0       0x3c D:/githubRepos/code-mod-example/code-mod-framework/lib/libnx_min/nx/lib\libnx_min.a(newlib.o)
                0x000000000001acd0                __syscall_cond_wait
 *fill*         0x000000000001ad0c        0x4 
 .text.__syscall_cond_wait_recursive
                0x000000000001ad10       0x64 D:/githubRepos/code-mod-example/code-mod-framework/lib/libnx_min/nx/lib\libnx_min.a(newlib.o)
                0x000000000001ad10                __syscall_cond_wait_recursive
 *fill*         0x000000000001ad74        0xc 
 .text.__syscall_thread_self
                0x000000000001ad80       0x14 D:/githubRepos/code-mod-example/code-mod-framework/lib/libnx_min/nx/lib\libnx_min.a(newlib.o)
                0x000000000001ad80                __syscall_thread_self
 *fill*         0x000000000001ad94        0xc 
 .text.__syscall_thread_exit
                0x000000000001ada0       0x2c D:/githubRepos/code-mod-example/code-mod-framework/lib/libnx_min/nx/lib\libnx_min.a(newlib.o)
                0x000000000001ada0                __syscall_thread_exit
 *fill*         0x000000000001adcc        0x4 
 .text.__thread_entry
                0x000000000001add0       0x58 D:/githubRepos/code-mod-example/code-mod-framework/lib/libnx_min/nx/lib\libnx_min.a(newlib.o)
 *fill*         0x000000000001ae28        0x8 
 .text.__syscall_thread_create
                0x000000000001ae30      0x15c D:/githubRepos/code-mod-example/code-mod-framework/lib/libnx_min/nx/lib\libnx_min.a(newlib.o)
                0x000000000001ae30                __syscall_thread_create
 *fill*         0x000000000001af8c        0x4 
 .text.__syscall_thread_join
                0x000000000001af90       0x58 D:/githubRepos/code-mod-example/code-mod-framework/lib/libnx_min/nx/lib\libnx_min.a(newlib.o)
                0x000000000001af90                __syscall_thread_join
 *fill*         0x000000000001afe8        0x8 
 .text.__syscall_tls_create
                0x000000000001aff0       0x44 D:/githubRepos/code-mod-example/code-mod-framework/lib/libnx_min/nx/lib\libnx_min.a(newlib.o)
                0x000000000001aff0                __syscall_tls_create
 *fill*         0x000000000001b034        0xc 
 .text.__syscall_tls_set
                0x000000000001b040       0x18 D:/githubRepos/code-mod-example/code-mod-framework/lib/libnx_min/nx/lib\libnx_min.a(newlib.o)
                0x000000000001b040                __syscall_tls_set
 *fill*         0x000000000001b058        0x8 
 .text.__syscall_tls_get
                0x000000000001b060        0x4 D:/githubRepos/code-mod-example/code-mod-framework/lib/libnx_min/nx/lib\libnx_min.a(newlib.o)
                0x000000000001b060                __syscall_tls_get
 *fill*         0x000000000001b064        0xc 
 .text.__syscall_tls_delete
                0x000000000001b070       0x18 D:/githubRepos/code-mod-example/code-mod-framework/lib/libnx_min/nx/lib\libnx_min.a(newlib.o)
                0x000000000001b070                __syscall_tls_delete
 *fill*         0x000000000001b088        0x8 
 .text.sched_yield
                0x000000000001b090       0x1c D:/githubRepos/code-mod-example/code-mod-framework/lib/libnx_min/nx/lib\libnx_min.a(newlib.o)
                0x000000000001b090                sched_yield
 *fill*         0x000000000001b0ac        0x4 
 .text.sched_getcpu
                0x000000000001b0b0        0x4 D:/githubRepos/code-mod-example/code-mod-framework/lib/libnx_min/nx/lib\libnx_min.a(newlib.o)
                0x000000000001b0b0                sched_getcpu
 *fill*         0x000000000001b0b4        0xc 
 .text.__libnx_init_time
                0x000000000001b0c0      0x27c D:/githubRepos/code-mod-example/code-mod-framework/lib/libnx_min/nx/lib\libnx_min.a(newlib.o)
                0x000000000001b0c0                __libnx_init_time
 *fill*         0x000000000001b33c        0x4 
 .text.__syscall_clock_getres
                0x000000000001b340       0x58 D:/githubRepos/code-mod-example/code-mod-framework/lib/libnx_min/nx/lib\libnx_min.a(newlib.o)
                0x000000000001b340                __syscall_clock_getres
 *fill*         0x000000000001b398        0x8 
 .text.__syscall_clock_gettime
                0x000000000001b3a0       0xf8 D:/githubRepos/code-mod-example/code-mod-framework/lib/libnx_min/nx/lib\libnx_min.a(newlib.o)
                0x000000000001b3a0                __syscall_clock_gettime
 *fill*         0x000000000001b498        0x8 
 .text.__syscall_gettod_r
                0x000000000001b4a0       0x8c D:/githubRepos/code-mod-example/code-mod-framework/lib/libnx_min/nx/lib\libnx_min.a(newlib.o)
                0x000000000001b4a0                __syscall_gettod_r
 *fill*         0x000000000001b52c        0x4 
 .text.__syscall_nanosleep
                0x000000000001b530       0x5c D:/githubRepos/code-mod-example/code-mod-framework/lib/libnx_min/nx/lib\libnx_min.a(newlib.o)
                0x000000000001b530                __syscall_nanosleep
 *fill*         0x000000000001b58c        0x4 
 .text.newlibSetup
                0x000000000001b590       0x74 D:/githubRepos/code-mod-example/code-mod-framework/lib/libnx_min/nx/lib\libnx_min.a(newlib.o)
                0x000000000001b590                newlibSetup
 *fill*         0x000000000001b604        0xc 
 .text.threadCreate
                0x000000000001b610      0x1fc D:/githubRepos/code-mod-example/code-mod-framework/lib/libnx_min/nx/lib\libnx_min.a(thread.o)
                0x000000000001b610                threadCreate
 *fill*         0x000000000001b80c        0x4 
 .text.threadExit
                0x000000000001b810       0xb0 D:/githubRepos/code-mod-example/code-mod-framework/lib/libnx_min/nx/lib\libnx_min.a(thread.o)
                0x000000000001b810                threadExit
 .text._EntryWrap
                0x000000000001b8c0       0x90 D:/githubRepos/code-mod-example/code-mod-framework/lib/libnx_min/nx/lib\libnx_min.a(thread.o)
 .text.threadStart
                0x000000000001b950        0x8 D:/githubRepos/code-mod-example/code-mod-framework/lib/libnx_min/nx/lib\libnx_min.a(thread.o)
                0x000000000001b950                threadStart
 *fill*         0x000000000001b958        0x8 
 .text.threadWaitForExit
                0x000000000001b960       0x2c D:/githubRepos/code-mod-example/code-mod-framework/lib/libnx_min/nx/lib\libnx_min.a(thread.o)
                0x000000000001b960                threadWaitForExit
 *fill*         0x000000000001b98c        0x4 
 .text.threadClose
                0x000000000001b990       0x54 D:/githubRepos/code-mod-example/code-mod-framework/lib/libnx_min/nx/lib\libnx_min.a(thread.o)
                0x000000000001b990                threadClose
 *fill*         0x000000000001b9e4        0xc 
 .text.threadPause
                0x000000000001b9f0        0xc D:/githubRepos/code-mod-example/code-mod-framework/lib/libnx_min/nx/lib\libnx_min.a(thread.o)
                0x000000000001b9f0                threadPause
 *fill*         0x000000000001b9fc        0x4 
 .text.threadResume
                0x000000000001ba00        0xc D:/githubRepos/code-mod-example/code-mod-framework/lib/libnx_min/nx/lib\libnx_min.a(thread.o)
                0x000000000001ba00                threadResume
 *fill*         0x000000000001ba0c        0x4 
 .text.threadDumpContext
                0x000000000001ba10        0x8 D:/githubRepos/code-mod-example/code-mod-framework/lib/libnx_min/nx/lib\libnx_min.a(thread.o)
                0x000000000001ba10                threadDumpContext
 *fill*         0x000000000001ba18        0x8 
 .text.threadGetCurHandle
                0x000000000001ba20        0xc D:/githubRepos/code-mod-example/code-mod-framework/lib/libnx_min/nx/lib\libnx_min.a(thread.o)
                0x000000000001ba20                threadGetCurHandle
 *fill*         0x000000000001ba2c        0x4 
 .text.threadTlsGet
                0x000000000001ba30       0x10 D:/githubRepos/code-mod-example/code-mod-framework/lib/libnx_min/nx/lib\libnx_min.a(thread.o)
                0x000000000001ba30                threadTlsGet
 .text.threadTlsSet
                0x000000000001ba40       0x10 D:/githubRepos/code-mod-example/code-mod-framework/lib/libnx_min/nx/lib\libnx_min.a(thread.o)
                0x000000000001ba40                threadTlsSet
 .text.threadTlsAlloc
                0x000000000001ba50       0xd8 D:/githubRepos/code-mod-example/code-mod-framework/lib/libnx_min/nx/lib\libnx_min.a(thread.o)
                0x000000000001ba50                threadTlsAlloc
 *fill*         0x000000000001bb28        0x8 
 .text.threadTlsFree
                0x000000000001bb30       0x48 D:/githubRepos/code-mod-example/code-mod-framework/lib/libnx_min/nx/lib\libnx_min.a(thread.o)
                0x000000000001bb30                threadTlsFree
 *fill*         0x000000000001bb78        0x8 
 .text.condvarWaitTimeout
                0x000000000001bb80       0x60 D:/githubRepos/code-mod-example/code-mod-framework/lib/libnx_min/nx/lib\libnx_min.a(condvar.o)
                0x000000000001bb80                condvarWaitTimeout
 .text.eventCreate
                0x000000000001bbe0       0x38 D:/githubRepos/code-mod-example/code-mod-framework/lib/libnx_min/nx/lib\libnx_min.a(event.o)
                0x000000000001bbe0                eventCreate
 *fill*         0x000000000001bc18        0x8 
 .text.eventLoadRemote
                0x000000000001bc20        0xc D:/githubRepos/code-mod-example/code-mod-framework/lib/libnx_min/nx/lib\libnx_min.a(event.o)
                0x000000000001bc20                eventLoadRemote
 *fill*         0x000000000001bc2c        0x4 
 .text.eventWait
                0x000000000001bc30       0x38 D:/githubRepos/code-mod-example/code-mod-framework/lib/libnx_min/nx/lib\libnx_min.a(event.o)
                0x000000000001bc30                eventWait
 *fill*         0x000000000001bc68        0x8 
 .text.eventFire
                0x000000000001bc70       0x14 D:/githubRepos/code-mod-example/code-mod-framework/lib/libnx_min/nx/lib\libnx_min.a(event.o)
                0x000000000001bc70                eventFire
 *fill*         0x000000000001bc84        0xc 
 .text.eventClear
                0x000000000001bc90       0x24 D:/githubRepos/code-mod-example/code-mod-framework/lib/libnx_min/nx/lib\libnx_min.a(event.o)
                0x000000000001bc90                eventClear
 *fill*         0x000000000001bcb4        0xc 
 .text.eventClose
                0x000000000001bcc0       0x50 D:/githubRepos/code-mod-example/code-mod-framework/lib/libnx_min/nx/lib\libnx_min.a(event.o)
                0x000000000001bcc0                eventClose
 .text.tmemCreate
                0x000000000001bd10       0xa8 D:/githubRepos/code-mod-example/code-mod-framework/lib/libnx_min/nx/lib\libnx_min.a(tmem.o)
                0x000000000001bd10                tmemCreate
 *fill*         0x000000000001bdb8        0x8 
 .text.tmemCreateFromMemory
                0x000000000001bdc0       0x2c D:/githubRepos/code-mod-example/code-mod-framework/lib/libnx_min/nx/lib\libnx_min.a(tmem.o)
                0x000000000001bdc0                tmemCreateFromMemory
 *fill*         0x000000000001bdec        0x4 
 .text.tmemLoadRemote
                0x000000000001bdf0       0x14 D:/githubRepos/code-mod-example/code-mod-framework/lib/libnx_min/nx/lib\libnx_min.a(tmem.o)
                0x000000000001bdf0                tmemLoadRemote
 *fill*         0x000000000001be04        0xc 
 .text.tmemMap  0x000000000001be10       0x84 D:/githubRepos/code-mod-example/code-mod-framework/lib/libnx_min/nx/lib\libnx_min.a(tmem.o)
                0x000000000001be10                tmemMap
 *fill*         0x000000000001be94        0xc 
 .text.tmemUnmap
                0x000000000001bea0       0x58 D:/githubRepos/code-mod-example/code-mod-framework/lib/libnx_min/nx/lib\libnx_min.a(tmem.o)
                0x000000000001bea0                tmemUnmap
 *fill*         0x000000000001bef8        0x8 
 .text.tmemClose
                0x000000000001bf00       0x68 D:/githubRepos/code-mod-example/code-mod-framework/lib/libnx_min/nx/lib\libnx_min.a(tmem.o)
                0x000000000001bf00                tmemClose
 *fill*         0x000000000001bf68        0x8 
 .text.rwlockInit
                0x000000000001bf70        0x8 D:/githubRepos/code-mod-example/code-mod-framework/lib/libnx_min/nx/lib\libnx_min.a(rwlock.o)
                0x000000000001bf70                rwlockInit
 *fill*         0x000000000001bf78        0x8 
 .text.rwlockReadLock
                0x000000000001bf80       0x58 D:/githubRepos/code-mod-example/code-mod-framework/lib/libnx_min/nx/lib\libnx_min.a(rwlock.o)
                0x000000000001bf80                rwlockReadLock
 *fill*         0x000000000001bfd8        0x8 
 .text.rwlockReadUnlock
                0x000000000001bfe0       0x5c D:/githubRepos/code-mod-example/code-mod-framework/lib/libnx_min/nx/lib\libnx_min.a(rwlock.o)
                0x000000000001bfe0                rwlockReadUnlock
 *fill*         0x000000000001c03c        0x4 
 .text.rwlockWriteLock
                0x000000000001c040       0x84 D:/githubRepos/code-mod-example/code-mod-framework/lib/libnx_min/nx/lib\libnx_min.a(rwlock.o)
                0x000000000001c040                rwlockWriteLock
 *fill*         0x000000000001c0c4        0xc 
 .text.rwlockWriteUnlock
                0x000000000001c0d0       0x3c D:/githubRepos/code-mod-example/code-mod-framework/lib/libnx_min/nx/lib\libnx_min.a(rwlock.o)
                0x000000000001c0d0                rwlockWriteUnlock
 *fill*         0x000000000001c10c        0x4 
 .text._waitLoop
                0x000000000001c110      0x104 D:/githubRepos/code-mod-example/code-mod-framework/lib/libnx_min/nx/lib\libnx_min.a(wait.o)
 *fill*         0x000000000001c214        0xc 
 .text._waitObjectsImpl
                0x000000000001c220      0x338 D:/githubRepos/code-mod-example/code-mod-framework/lib/libnx_min/nx/lib\libnx_min.a(wait.o)
 *fill*         0x000000000001c558        0x8 
 .text.waitObjects
                0x000000000001c560        0xc D:/githubRepos/code-mod-example/code-mod-framework/lib/libnx_min/nx/lib\libnx_min.a(wait.o)
                0x000000000001c560                waitObjects
 *fill*         0x000000000001c56c        0x4 
 .text.waitHandles
                0x000000000001c570        0xc D:/githubRepos/code-mod-example/code-mod-framework/lib/libnx_min/nx/lib\libnx_min.a(wait.o)
                0x000000000001c570                waitHandles
 *fill*         0x000000000001c57c        0x4 
 .text.shmemCreate
                0x000000000001c580       0x14 D:/githubRepos/code-mod-example/code-mod-framework/lib/libnx_min/nx/lib\libnx_min.a(shmem.o)
                0x000000000001c580                shmemCreate
 *fill*         0x000000000001c594        0xc 
 .text.shmemLoadRemote
                0x000000000001c5a0       0x14 D:/githubRepos/code-mod-example/code-mod-framework/lib/libnx_min/nx/lib\libnx_min.a(shmem.o)
                0x000000000001c5a0                shmemLoadRemote
 *fill*         0x000000000001c5b4        0xc 
 .text.shmemMap
                0x000000000001c5c0       0x84 D:/githubRepos/code-mod-example/code-mod-framework/lib/libnx_min/nx/lib\libnx_min.a(shmem.o)
                0x000000000001c5c0                shmemMap
 *fill*         0x000000000001c644        0xc 
 .text.shmemUnmap
                0x000000000001c650       0x58 D:/githubRepos/code-mod-example/code-mod-framework/lib/libnx_min/nx/lib\libnx_min.a(shmem.o)
                0x000000000001c650                shmemUnmap
 *fill*         0x000000000001c6a8        0x8 
 .text.shmemClose
                0x000000000001c6b0       0x44 D:/githubRepos/code-mod-example/code-mod-framework/lib/libnx_min/nx/lib\libnx_min.a(shmem.o)
                0x000000000001c6b0                shmemClose
 *fill*         0x000000000001c6f4        0xc 
 .text.detectKernelVersion
                0x000000000001c700      0x17c D:/githubRepos/code-mod-example/code-mod-framework/lib/libnx_min/nx/lib\libnx_min.a(detect.o)
                0x000000000001c700                detectKernelVersion
 *fill*         0x000000000001c87c        0x4 
 .text.detectDebugger
                0x000000000001c880       0x30 D:/githubRepos/code-mod-example/code-mod-framework/lib/libnx_min/nx/lib\libnx_min.a(detect.o)
                0x000000000001c880                detectDebugger
 .text.detectJitKernelPatch
                0x000000000001c8b0       0xdc D:/githubRepos/code-mod-example/code-mod-framework/lib/libnx_min/nx/lib\libnx_min.a(detect.o)
                0x000000000001c8b0                detectJitKernelPatch
 *fill*         0x000000000001c98c        0x4 
 .text.detectIgnoreJitKernelPatch
                0x000000000001c990       0x44 D:/githubRepos/code-mod-example/code-mod-framework/lib/libnx_min/nx/lib\libnx_min.a(detect.o)
                0x000000000001c990                detectIgnoreJitKernelPatch
 *fill*         0x000000000001c9d4        0xc 
 .text.ipcCloseObjectById
                0x000000000001c9e0       0x34 D:/githubRepos/code-mod-example/code-mod-framework/lib/libnx_min/nx/lib\libnx_min.a(apm.o)
 *fill*         0x000000000001ca14        0xc 
 .text._apmGetSession.constprop.4
                0x000000000001ca20      0x124 D:/githubRepos/code-mod-example/code-mod-framework/lib/libnx_min/nx/lib\libnx_min.a(apm.o)
 *fill*         0x000000000001cb44        0xc 
 .text.apmExit  0x000000000001cb50       0xf0 D:/githubRepos/code-mod-example/code-mod-framework/lib/libnx_min/nx/lib\libnx_min.a(apm.o)
                0x000000000001cb50                apmExit
 .text.apmInitialize
                0x000000000001cc40       0x70 D:/githubRepos/code-mod-example/code-mod-framework/lib/libnx_min/nx/lib\libnx_min.a(apm.o)
                0x000000000001cc40                apmInitialize
 .text.apmSetPerformanceConfiguration
                0x000000000001ccb0       0xcc D:/githubRepos/code-mod-example/code-mod-framework/lib/libnx_min/nx/lib\libnx_min.a(apm.o)
                0x000000000001ccb0                apmSetPerformanceConfiguration
 *fill*         0x000000000001cd7c        0x4 
 .text.apmGetPerformanceConfiguration
                0x000000000001cd80       0xf4 D:/githubRepos/code-mod-example/code-mod-framework/lib/libnx_min/nx/lib\libnx_min.a(apm.o)
                0x000000000001cd80                apmGetPerformanceConfiguration
 *fill*         0x000000000001ce74        0xc 
 .text.bsearch  0x000000000001ce80       0xb8 d:/devkitpro/devkita64/bin/../lib/gcc/aarch64-none-elf/10.1.0/../../../../aarch64-none-elf/lib/pic\libg.a(lib_a-bsearch.o)
                0x000000000001ce80                bsearch
 *fill*         0x000000000001cf38        0x8 
 .text.__set_ctype
                0x000000000001cf40       0x10 d:/devkitpro/devkita64/bin/../lib/gcc/aarch64-none-elf/10.1.0/../../../../aarch64-none-elf/lib/pic\libg.a(lib_a-ctype_.o)
                0x000000000001cf40                __set_ctype
 .text.__errno  0x000000000001cf50       0x14 d:/devkitpro/devkita64/bin/../lib/gcc/aarch64-none-elf/10.1.0/../../../../aarch64-none-elf/lib/pic\libg.a(lib_a-errno.o)
                0x000000000001cf50                __errno
 *fill*         0x000000000001cf64        0xc 
 .text.__libc_fini_array
                0x000000000001cf70       0x44 d:/devkitpro/devkita64/bin/../lib/gcc/aarch64-none-elf/10.1.0/../../../../aarch64-none-elf/lib/pic\libg.a(lib_a-fini.o)
                0x000000000001cf70                __libc_fini_array
 *fill*         0x000000000001cfb4        0xc 
 .text.__libc_init_array
                0x000000000001cfc0       0x8c d:/devkitpro/devkita64/bin/../lib/gcc/aarch64-none-elf/10.1.0/../../../../aarch64-none-elf/lib/pic\libg.a(lib_a-init.o)
                0x000000000001cfc0                __libc_init_array
 *fill*         0x000000000001d04c        0x4 
 .text.memalign
                0x000000000001d050       0x2c d:/devkitpro/devkita64/bin/../lib/gcc/aarch64-none-elf/10.1.0/../../../../aarch64-none-elf/lib/pic\libg.a(lib_a-malign.o)
                0x000000000001d050                memalign
 *fill*         0x000000000001d07c        0x4 
 .text._memalign_r
                0x000000000001d080      0x1a0 d:/devkitpro/devkita64/bin/../lib/gcc/aarch64-none-elf/10.1.0/../../../../aarch64-none-elf/lib/pic\libg.a(lib_a-malignr.o)
                0x000000000001d080                _memalign_r
 .text.malloc   0x000000000001d220       0x24 d:/devkitpro/devkita64/bin/../lib/gcc/aarch64-none-elf/10.1.0/../../../../aarch64-none-elf/lib/pic\libg.a(lib_a-malloc.o)
                0x000000000001d220                malloc
 *fill*         0x000000000001d244        0xc 
 .text.free     0x000000000001d250       0x24 d:/devkitpro/devkita64/bin/../lib/gcc/aarch64-none-elf/10.1.0/../../../../aarch64-none-elf/lib/pic\libg.a(lib_a-malloc.o)
                0x000000000001d250                free
 *fill*         0x000000000001d274        0xc 
 .text._malloc_r
                0x000000000001d280      0x878 d:/devkitpro/devkita64/bin/../lib/gcc/aarch64-none-elf/10.1.0/../../../../aarch64-none-elf/lib/pic\libg.a(lib_a-mallocr.o)
                0x000000000001d280                _malloc_r
 *fill*         0x000000000001daf8        0x8 
 .text          0x000000000001db00      0x16c d:/devkitpro/devkita64/bin/../lib/gcc/aarch64-none-elf/10.1.0/../../../../aarch64-none-elf/lib/pic\libg.a(lib_a-memcpy.o)
                0x000000000001db00                memcpy
 *fill*         0x000000000001dc6c       0x14 
 .text          0x000000000001dc80      0x1dc d:/devkitpro/devkita64/bin/../lib/gcc/aarch64-none-elf/10.1.0/../../../../aarch64-none-elf/lib/pic\libg.a(lib_a-memset.o)
                0x000000000001dc80                memset
 *fill*         0x000000000001de5c        0x4 
 .text.__malloc_lock
                0x000000000001de60        0xc d:/devkitpro/devkita64/bin/../lib/gcc/aarch64-none-elf/10.1.0/../../../../aarch64-none-elf/lib/pic\libg.a(lib_a-mlock.o)
                0x000000000001de60                __malloc_lock
 *fill*         0x000000000001de6c        0x4 
 .text.__malloc_unlock
                0x000000000001de70        0xc d:/devkitpro/devkita64/bin/../lib/gcc/aarch64-none-elf/10.1.0/../../../../aarch64-none-elf/lib/pic\libg.a(lib_a-mlock.o)
                0x000000000001de70                __malloc_unlock
 *fill*         0x000000000001de7c        0x4 
 .text.setenv   0x000000000001de80       0x3c d:/devkitpro/devkita64/bin/../lib/gcc/aarch64-none-elf/10.1.0/../../../../aarch64-none-elf/lib/pic\libg.a(lib_a-setenv.o)
                0x000000000001de80                setenv
 *fill*         0x000000000001debc        0x4 
 .text.unsetenv
                0x000000000001dec0       0x24 d:/devkitpro/devkita64/bin/../lib/gcc/aarch64-none-elf/10.1.0/../../../../aarch64-none-elf/lib/pic\libg.a(lib_a-setenv.o)
                0x000000000001dec0                unsetenv
 *fill*         0x000000000001dee4        0xc 
 .text._setenv_r
                0x000000000001def0      0x268 d:/devkitpro/devkita64/bin/../lib/gcc/aarch64-none-elf/10.1.0/../../../../aarch64-none-elf/lib/pic\libg.a(lib_a-setenv_r.o)
                0x000000000001def0                _setenv_r
 *fill*         0x000000000001e158        0x8 
 .text._unsetenv_r
                0x000000000001e160       0xd4 d:/devkitpro/devkita64/bin/../lib/gcc/aarch64-none-elf/10.1.0/../../../../aarch64-none-elf/lib/pic\libg.a(lib_a-setenv_r.o)
                0x000000000001e160                _unsetenv_r
 .text          0x000000000001e234       0xdc d:/devkitpro/devkita64/bin/../lib/gcc/aarch64-none-elf/10.1.0/../../../../aarch64-none-elf/lib/pic\libg.a(lib_a-strchr.o)
                0x000000000001e234                strchr
 *fill*         0x000000000001e310       0x30 
 .text          0x000000000001e340      0x1b8 d:/devkitpro/devkita64/bin/../lib/gcc/aarch64-none-elf/10.1.0/../../../../aarch64-none-elf/lib/pic\libg.a(lib_a-strcpy.o)
                0x000000000001e340                strcpy
 *fill*         0x000000000001e4f8        0x8 
 .text          0x000000000001e500      0x140 d:/devkitpro/devkita64/bin/../lib/gcc/aarch64-none-elf/10.1.0/../../../../aarch64-none-elf/lib/pic\libg.a(lib_a-strlen.o)
                0x000000000001e500                strlen
 .text.strncat  0x000000000001e640       0x7c d:/devkitpro/devkita64/bin/../lib/gcc/aarch64-none-elf/10.1.0/../../../../aarch64-none-elf/lib/pic\libg.a(lib_a-strncat.o)
                0x000000000001e640                strncat
 *fill*         0x000000000001e6bc        0x4 
 .text          0x000000000001e6c0      0x1d4 d:/devkitpro/devkita64/bin/../lib/gcc/aarch64-none-elf/10.1.0/../../../../aarch64-none-elf/lib/pic\libg.a(lib_a-strncmp.o)
                0x000000000001e6dc                strncmp
 *fill*         0x000000000001e894        0xc 
 .text.strncpy  0x000000000001e8a0       0x9c d:/devkitpro/devkita64/bin/../lib/gcc/aarch64-none-elf/10.1.0/../../../../aarch64-none-elf/lib/pic\libg.a(lib_a-strncpy.o)
                0x000000000001e8a0                strncpy
 *fill*         0x000000000001e93c        0x4 
 .text          0x000000000001e940       0xe0 d:/devkitpro/devkita64/bin/../lib/gcc/aarch64-none-elf/10.1.0/../../../../aarch64-none-elf/lib/pic\libg.a(lib_a-strnlen.o)
                0x000000000001e964                strnlen
 .text.toupper  0x000000000001ea20       0x24 d:/devkitpro/devkita64/bin/../lib/gcc/aarch64-none-elf/10.1.0/../../../../aarch64-none-elf/lib/pic\libg.a(lib_a-toupper.o)
                0x000000000001ea20                toupper
 *fill*         0x000000000001ea44        0xc 
 .text._vsnprintf_r
                0x000000000001ea50       0xe0 d:/devkitpro/devkita64/bin/../lib/gcc/aarch64-none-elf/10.1.0/../../../../aarch64-none-elf/lib/pic\libg.a(lib_a-vsnprintf.o)
                0x000000000001ea50                _vsnprintf_r
 .text.vsnprintf
                0x000000000001eb30       0x58 d:/devkitpro/devkita64/bin/../lib/gcc/aarch64-none-elf/10.1.0/../../../../aarch64-none-elf/lib/pic\libg.a(lib_a-vsnprintf.o)
                0x000000000001eb30                vsnprintf
 *fill*         0x000000000001eb88        0x8 
 .text.__call_exitprocs
                0x000000000001eb90      0x12c d:/devkitpro/devkita64/bin/../lib/gcc/aarch64-none-elf/10.1.0/../../../../aarch64-none-elf/lib/pic\libg.a(lib_a-__call_atexit.o)
                0x000000000001eb90                __call_exitprocs
 *fill*         0x000000000001ecbc        0x4 
 .text.__env_lock
                0x000000000001ecc0        0xc d:/devkitpro/devkita64/bin/../lib/gcc/aarch64-none-elf/10.1.0/../../../../aarch64-none-elf/lib/pic\libg.a(lib_a-envlock.o)
                0x000000000001ecc0                __env_lock
 *fill*         0x000000000001eccc        0x4 
 .text.__env_unlock
                0x000000000001ecd0        0xc d:/devkitpro/devkita64/bin/../lib/gcc/aarch64-none-elf/10.1.0/../../../../aarch64-none-elf/lib/pic\libg.a(lib_a-envlock.o)
                0x000000000001ecd0                __env_unlock
 *fill*         0x000000000001ecdc        0x4 
 .text._malloc_trim_r
                0x000000000001ece0      0x118 d:/devkitpro/devkita64/bin/../lib/gcc/aarch64-none-elf/10.1.0/../../../../aarch64-none-elf/lib/pic\libg.a(lib_a-freer.o)
                0x000000000001ece0                _malloc_trim_r
 *fill*         0x000000000001edf8        0x8 
 .text._free_r  0x000000000001ee00      0x2f0 d:/devkitpro/devkita64/bin/../lib/gcc/aarch64-none-elf/10.1.0/../../../../aarch64-none-elf/lib/pic\libg.a(lib_a-freer.o)
                0x000000000001ee00                _free_r
 .text._findenv_r
                0x000000000001f0f0      0x100 d:/devkitpro/devkita64/bin/../lib/gcc/aarch64-none-elf/10.1.0/../../../../aarch64-none-elf/lib/pic\libg.a(lib_a-getenv_r.o)
                0x000000000001f0f0                _findenv_r
 .text._getenv_r
                0x000000000001f1f0       0x18 d:/devkitpro/devkita64/bin/../lib/gcc/aarch64-none-elf/10.1.0/../../../../aarch64-none-elf/lib/pic\libg.a(lib_a-getenv_r.o)
                0x000000000001f1f0                _getenv_r
 *fill*         0x000000000001f208        0x8 
 .text._realloc_r
                0x000000000001f210      0x55c d:/devkitpro/devkita64/bin/../lib/gcc/aarch64-none-elf/10.1.0/../../../../aarch64-none-elf/lib/pic\libg.a(lib_a-reallocr.o)
                0x000000000001f210                _realloc_r
 .text.get_arg  0x000000000001f76c      0x780 d:/devkitpro/devkita64/bin/../lib/gcc/aarch64-none-elf/10.1.0/../../../../aarch64-none-elf/lib/pic\libg.a(lib_a-svfprintf.o)
 .text._svfprintf_r
                0x000000000001feec     0x3c08 d:/devkitpro/devkita64/bin/../lib/gcc/aarch64-none-elf/10.1.0/../../../../aarch64-none-elf/lib/pic\libg.a(lib_a-svfprintf.o)
                0x000000000001feec                _svfprintf_r
 *fill*         0x0000000000023af4        0xc 
 .text._wcrtomb_r
                0x0000000000023b00       0xd8 d:/devkitpro/devkita64/bin/../lib/gcc/aarch64-none-elf/10.1.0/../../../../aarch64-none-elf/lib/pic\libg.a(lib_a-wcrtomb.o)
                0x0000000000023b00                _wcrtomb_r
 *fill*         0x0000000000023bd8        0x8 
 .text.wcrtomb  0x0000000000023be0       0xbc d:/devkitpro/devkita64/bin/../lib/gcc/aarch64-none-elf/10.1.0/../../../../aarch64-none-elf/lib/pic\libg.a(lib_a-wcrtomb.o)
                0x0000000000023be0                wcrtomb
 *fill*         0x0000000000023c9c        0x4 
 .text._wcsrtombs_r
                0x0000000000023ca0       0x10 d:/devkitpro/devkita64/bin/../lib/gcc/aarch64-none-elf/10.1.0/../../../../aarch64-none-elf/lib/pic\libg.a(lib_a-wcsrtombs.o)
                0x0000000000023ca0                _wcsrtombs_r
 .text.wcsrtombs
                0x0000000000023cb0       0x48 d:/devkitpro/devkita64/bin/../lib/gcc/aarch64-none-elf/10.1.0/../../../../aarch64-none-elf/lib/pic\libg.a(lib_a-wcsrtombs.o)
                0x0000000000023cb0                wcsrtombs
 *fill*         0x0000000000023cf8        0x8 
 .text.quorem   0x0000000000023d00      0x19c d:/devkitpro/devkita64/bin/../lib/gcc/aarch64-none-elf/10.1.0/../../../../aarch64-none-elf/lib/pic\libg.a(lib_a-dtoa.o)
 *fill*         0x0000000000023e9c        0x4 
 .text._dtoa_r  0x0000000000023ea0     0x11a0 d:/devkitpro/devkita64/bin/../lib/gcc/aarch64-none-elf/10.1.0/../../../../aarch64-none-elf/lib/pic\libg.a(lib_a-dtoa.o)
                0x0000000000023ea0                _dtoa_r
 .text.__localeconv_l
                0x0000000000025040        0x8 d:/devkitpro/devkita64/bin/../lib/gcc/aarch64-none-elf/10.1.0/../../../../aarch64-none-elf/lib/pic\libg.a(lib_a-localeconv.o)
                0x0000000000025040                __localeconv_l
 *fill*         0x0000000000025048        0x8 
 .text._localeconv_r
                0x0000000000025050       0x28 d:/devkitpro/devkita64/bin/../lib/gcc/aarch64-none-elf/10.1.0/../../../../aarch64-none-elf/lib/pic\libg.a(lib_a-localeconv.o)
                0x0000000000025050                _localeconv_r
 *fill*         0x0000000000025078        0x8 
 .text.localeconv
                0x0000000000025080       0x28 d:/devkitpro/devkita64/bin/../lib/gcc/aarch64-none-elf/10.1.0/../../../../aarch64-none-elf/lib/pic\libg.a(lib_a-localeconv.o)
                0x0000000000025080                localeconv
 *fill*         0x00000000000250a8        0x8 
 .text.currentlocale
                0x00000000000250b0       0xb8 d:/devkitpro/devkita64/bin/../lib/gcc/aarch64-none-elf/10.1.0/../../../../aarch64-none-elf/lib/pic\libg.a(lib_a-locale.o)
 *fill*         0x0000000000025168        0x8 
 .text.__loadlocale
                0x0000000000025170      0x7b4 d:/devkitpro/devkita64/bin/../lib/gcc/aarch64-none-elf/10.1.0/../../../../aarch64-none-elf/lib/pic\libg.a(lib_a-locale.o)
                0x0000000000025170                __loadlocale
 *fill*         0x0000000000025924        0xc 
 .text.__get_locale_env
                0x0000000000025930       0x88 d:/devkitpro/devkita64/bin/../lib/gcc/aarch64-none-elf/10.1.0/../../../../aarch64-none-elf/lib/pic\libg.a(lib_a-locale.o)
                0x0000000000025930                __get_locale_env
 *fill*         0x00000000000259b8        0x8 
 .text._setlocale_r
                0x00000000000259c0      0x3b4 d:/devkitpro/devkita64/bin/../lib/gcc/aarch64-none-elf/10.1.0/../../../../aarch64-none-elf/lib/pic\libg.a(lib_a-locale.o)
                0x00000000000259c0                _setlocale_r
 *fill*         0x0000000000025d74        0xc 
 .text.__locale_mb_cur_max
                0x0000000000025d80       0x2c d:/devkitpro/devkita64/bin/../lib/gcc/aarch64-none-elf/10.1.0/../../../../aarch64-none-elf/lib/pic\libg.a(lib_a-locale.o)
                0x0000000000025d80                __locale_mb_cur_max
 *fill*         0x0000000000025dac        0x4 
 .text.setlocale
                0x0000000000025db0       0x2c d:/devkitpro/devkita64/bin/../lib/gcc/aarch64-none-elf/10.1.0/../../../../aarch64-none-elf/lib/pic\libg.a(lib_a-locale.o)
                0x0000000000025db0                setlocale
 *fill*         0x0000000000025ddc        0x4 
 .text._mbtowc_r
                0x0000000000025de0       0x70 d:/devkitpro/devkita64/bin/../lib/gcc/aarch64-none-elf/10.1.0/../../../../aarch64-none-elf/lib/pic\libg.a(lib_a-mbtowc_r.o)
                0x0000000000025de0                _mbtowc_r
 .text.__ascii_mbtowc
                0x0000000000025e50       0x48 d:/devkitpro/devkita64/bin/../lib/gcc/aarch64-none-elf/10.1.0/../../../../aarch64-none-elf/lib/pic\libg.a(lib_a-mbtowc_r.o)
                0x0000000000025e50                __ascii_mbtowc
 *fill*         0x0000000000025e98        0x8 
 .text.__utf8_mbtowc
                0x0000000000025ea0      0x2c8 d:/devkitpro/devkita64/bin/../lib/gcc/aarch64-none-elf/10.1.0/../../../../aarch64-none-elf/lib/pic\libg.a(lib_a-mbtowc_r.o)
                0x0000000000025ea0                __utf8_mbtowc
 *fill*         0x0000000000026168        0x8 
 .text.__sjis_mbtowc
                0x0000000000026170       0xcc d:/devkitpro/devkita64/bin/../lib/gcc/aarch64-none-elf/10.1.0/../../../../aarch64-none-elf/lib/pic\libg.a(lib_a-mbtowc_r.o)
                0x0000000000026170                __sjis_mbtowc
 *fill*         0x000000000002623c        0x4 
 .text.__eucjp_mbtowc
                0x0000000000026240      0x124 d:/devkitpro/devkita64/bin/../lib/gcc/aarch64-none-elf/10.1.0/../../../../aarch64-none-elf/lib/pic\libg.a(lib_a-mbtowc_r.o)
                0x0000000000026240                __eucjp_mbtowc
 *fill*         0x0000000000026364        0xc 
 .text.__jis_mbtowc
                0x0000000000026370      0x1e4 d:/devkitpro/devkita64/bin/../lib/gcc/aarch64-none-elf/10.1.0/../../../../aarch64-none-elf/lib/pic\libg.a(lib_a-mbtowc_r.o)
                0x0000000000026370                __jis_mbtowc
 .text          0x0000000000026554       0xd8 d:/devkitpro/devkita64/bin/../lib/gcc/aarch64-none-elf/10.1.0/../../../../aarch64-none-elf/lib/pic\libg.a(lib_a-memchr.o)
                0x0000000000026554                memchr
 *fill*         0x000000000002662c       0x14 
 .text          0x0000000000026640       0xac d:/devkitpro/devkita64/bin/../lib/gcc/aarch64-none-elf/10.1.0/../../../../aarch64-none-elf/lib/pic\libg.a(lib_a-memmove.o)
                0x0000000000026640                memmove
 *fill*         0x00000000000266ec        0x4 
 .text._Balloc  0x00000000000266f0       0x8c d:/devkitpro/devkita64/bin/../lib/gcc/aarch64-none-elf/10.1.0/../../../../aarch64-none-elf/lib/pic\libg.a(lib_a-mprec.o)
                0x00000000000266f0                _Balloc
 *fill*         0x000000000002677c        0x4 
 .text._Bfree   0x0000000000026780       0x1c d:/devkitpro/devkita64/bin/../lib/gcc/aarch64-none-elf/10.1.0/../../../../aarch64-none-elf/lib/pic\libg.a(lib_a-mprec.o)
                0x0000000000026780                _Bfree
 *fill*         0x000000000002679c        0x4 
 .text.__multadd
                0x00000000000267a0      0x108 d:/devkitpro/devkita64/bin/../lib/gcc/aarch64-none-elf/10.1.0/../../../../aarch64-none-elf/lib/pic\libg.a(lib_a-mprec.o)
                0x00000000000267a0                __multadd
 *fill*         0x00000000000268a8        0x8 
 .text.__s2b    0x00000000000268b0      0x138 d:/devkitpro/devkita64/bin/../lib/gcc/aarch64-none-elf/10.1.0/../../../../aarch64-none-elf/lib/pic\libg.a(lib_a-mprec.o)
                0x00000000000268b0                __s2b
 *fill*         0x00000000000269e8        0x8 
 .text.__hi0bits
                0x00000000000269f0       0x5c d:/devkitpro/devkita64/bin/../lib/gcc/aarch64-none-elf/10.1.0/../../../../aarch64-none-elf/lib/pic\libg.a(lib_a-mprec.o)
                0x00000000000269f0                __hi0bits
 *fill*         0x0000000000026a4c        0x4 
 .text.__lo0bits
                0x0000000000026a50       0x9c d:/devkitpro/devkita64/bin/../lib/gcc/aarch64-none-elf/10.1.0/../../../../aarch64-none-elf/lib/pic\libg.a(lib_a-mprec.o)
                0x0000000000026a50                __lo0bits
 *fill*         0x0000000000026aec        0x4 
 .text.__i2b    0x0000000000026af0       0x4c d:/devkitpro/devkita64/bin/../lib/gcc/aarch64-none-elf/10.1.0/../../../../aarch64-none-elf/lib/pic\libg.a(lib_a-mprec.o)
                0x0000000000026af0                __i2b
 *fill*         0x0000000000026b3c        0x4 
 .text.__multiply
                0x0000000000026b40      0x1e8 d:/devkitpro/devkita64/bin/../lib/gcc/aarch64-none-elf/10.1.0/../../../../aarch64-none-elf/lib/pic\libg.a(lib_a-mprec.o)
                0x0000000000026b40                __multiply
 *fill*         0x0000000000026d28        0x8 
 .text.__pow5mult
                0x0000000000026d30      0x100 d:/devkitpro/devkita64/bin/../lib/gcc/aarch64-none-elf/10.1.0/../../../../aarch64-none-elf/lib/pic\libg.a(lib_a-mprec.o)
                0x0000000000026d30                __pow5mult
 .text.__lshift
                0x0000000000026e30      0x170 d:/devkitpro/devkita64/bin/../lib/gcc/aarch64-none-elf/10.1.0/../../../../aarch64-none-elf/lib/pic\libg.a(lib_a-mprec.o)
                0x0000000000026e30                __lshift
 .text.__mcmp   0x0000000000026fa0       0x50 d:/devkitpro/devkita64/bin/../lib/gcc/aarch64-none-elf/10.1.0/../../../../aarch64-none-elf/lib/pic\libg.a(lib_a-mprec.o)
                0x0000000000026fa0                __mcmp
 .text.__mdiff  0x0000000000026ff0      0x1b8 d:/devkitpro/devkita64/bin/../lib/gcc/aarch64-none-elf/10.1.0/../../../../aarch64-none-elf/lib/pic\libg.a(lib_a-mprec.o)
                0x0000000000026ff0                __mdiff
 *fill*         0x00000000000271a8        0x8 
 .text.__ulp    0x00000000000271b0       0x68 d:/devkitpro/devkita64/bin/../lib/gcc/aarch64-none-elf/10.1.0/../../../../aarch64-none-elf/lib/pic\libg.a(lib_a-mprec.o)
                0x00000000000271b0                __ulp
 *fill*         0x0000000000027218        0x8 
 .text.__b2d    0x0000000000027220      0x150 d:/devkitpro/devkita64/bin/../lib/gcc/aarch64-none-elf/10.1.0/../../../../aarch64-none-elf/lib/pic\libg.a(lib_a-mprec.o)
                0x0000000000027220                __b2d
 .text.__d2b    0x0000000000027370      0x154 d:/devkitpro/devkita64/bin/../lib/gcc/aarch64-none-elf/10.1.0/../../../../aarch64-none-elf/lib/pic\libg.a(lib_a-mprec.o)
                0x0000000000027370                __d2b
 *fill*         0x00000000000274c4        0xc 
 .text.__ratio  0x00000000000274d0       0xa0 d:/devkitpro/devkita64/bin/../lib/gcc/aarch64-none-elf/10.1.0/../../../../aarch64-none-elf/lib/pic\libg.a(lib_a-mprec.o)
                0x00000000000274d0                __ratio
 .text._mprec_log10
                0x0000000000027570       0x30 d:/devkitpro/devkita64/bin/../lib/gcc/aarch64-none-elf/10.1.0/../../../../aarch64-none-elf/lib/pic\libg.a(lib_a-mprec.o)
                0x0000000000027570                _mprec_log10
 .text.__copybits
                0x00000000000275a0       0x68 d:/devkitpro/devkita64/bin/../lib/gcc/aarch64-none-elf/10.1.0/../../../../aarch64-none-elf/lib/pic\libg.a(lib_a-mprec.o)
                0x00000000000275a0                __copybits
 *fill*         0x0000000000027608        0x8 
 .text.__any_on
                0x0000000000027610       0x6c d:/devkitpro/devkita64/bin/../lib/gcc/aarch64-none-elf/10.1.0/../../../../aarch64-none-elf/lib/pic\libg.a(lib_a-mprec.o)
                0x0000000000027610                __any_on
 *fill*         0x000000000002767c        0x4 
 .text.frexp    0x0000000000027680       0x7c d:/devkitpro/devkita64/bin/../lib/gcc/aarch64-none-elf/10.1.0/../../../../aarch64-none-elf/lib/pic\libg.a(lib_a-s_frexp.o)
                0x0000000000027680                frexp
 *fill*         0x00000000000276fc        0x4 
 .text.strcasecmp
                0x0000000000027700       0x78 d:/devkitpro/devkita64/bin/../lib/gcc/aarch64-none-elf/10.1.0/../../../../aarch64-none-elf/lib/pic\libg.a(lib_a-strcasecmp.o)
                0x0000000000027700                strcasecmp
 *fill*         0x0000000000027778        0x8 
 .text.strcat   0x0000000000027780       0x74 d:/devkitpro/devkita64/bin/../lib/gcc/aarch64-none-elf/10.1.0/../../../../aarch64-none-elf/lib/pic\libg.a(lib_a-strcat.o)
                0x0000000000027780                strcat
 *fill*         0x00000000000277f4        0xc 
 .text          0x0000000000027800       0xe4 d:/devkitpro/devkita64/bin/../lib/gcc/aarch64-none-elf/10.1.0/../../../../aarch64-none-elf/lib/pic\libg.a(lib_a-strcmp.o)
                0x0000000000027800                strcmp
 *fill*         0x00000000000278e4        0xc 
 .text.strlcpy  0x00000000000278f0       0x5c d:/devkitpro/devkita64/bin/../lib/gcc/aarch64-none-elf/10.1.0/../../../../aarch64-none-elf/lib/pic\libg.a(lib_a-strlcpy.o)
                0x00000000000278f0                strlcpy
 *fill*         0x000000000002794c        0x4 
 .text.strncasecmp
                0x0000000000027950       0x88 d:/devkitpro/devkita64/bin/../lib/gcc/aarch64-none-elf/10.1.0/../../../../aarch64-none-elf/lib/pic\libg.a(lib_a-strncasecmp.o)
                0x0000000000027950                strncasecmp
 *fill*         0x00000000000279d8        0x8 
 .text._strtol_l.part.0
                0x00000000000279e0      0x194 d:/devkitpro/devkita64/bin/../lib/gcc/aarch64-none-elf/10.1.0/../../../../aarch64-none-elf/lib/pic\libg.a(lib_a-strtol.o)
 *fill*         0x0000000000027b74        0xc 
 .text._strtol_r
                0x0000000000027b80       0x70 d:/devkitpro/devkita64/bin/../lib/gcc/aarch64-none-elf/10.1.0/../../../../aarch64-none-elf/lib/pic\libg.a(lib_a-strtol.o)
                0x0000000000027b80                _strtol_r
 .text.strtol_l
                0x0000000000027bf0       0x68 d:/devkitpro/devkita64/bin/../lib/gcc/aarch64-none-elf/10.1.0/../../../../aarch64-none-elf/lib/pic\libg.a(lib_a-strtol.o)
                0x0000000000027bf0                strtol_l
 *fill*         0x0000000000027c58        0x8 
 .text.strtol   0x0000000000027c60       0x74 d:/devkitpro/devkita64/bin/../lib/gcc/aarch64-none-elf/10.1.0/../../../../aarch64-none-elf/lib/pic\libg.a(lib_a-strtol.o)
                0x0000000000027c60                strtol
 .text.get_arg  0x0000000000027cd4      0x780 d:/devkitpro/devkita64/bin/../lib/gcc/aarch64-none-elf/10.1.0/../../../../aarch64-none-elf/lib/pic\libg.a(lib_a-svfiprintf.o)
 .text.__ssprint_r
                0x0000000000028454      0x1c0 d:/devkitpro/devkita64/bin/../lib/gcc/aarch64-none-elf/10.1.0/../../../../aarch64-none-elf/lib/pic\libg.a(lib_a-svfiprintf.o)
                0x0000000000028454                __ssprint_r
 .text._svfiprintf_r
                0x0000000000028614     0x2908 d:/devkitpro/devkita64/bin/../lib/gcc/aarch64-none-elf/10.1.0/../../../../aarch64-none-elf/lib/pic\libg.a(lib_a-svfiprintf.o)
                0x0000000000028614                _svfiprintf_r
 *fill*         0x000000000002af1c        0x4 
 .text._wcsnrtombs_l
                0x000000000002af20      0x1d8 d:/devkitpro/devkita64/bin/../lib/gcc/aarch64-none-elf/10.1.0/../../../../aarch64-none-elf/lib/pic\libg.a(lib_a-wcsnrtombs.o)
                0x000000000002af20                _wcsnrtombs_l
 *fill*         0x000000000002b0f8        0x8 
 .text._wcsnrtombs_r
                0x000000000002b100       0x74 d:/devkitpro/devkita64/bin/../lib/gcc/aarch64-none-elf/10.1.0/../../../../aarch64-none-elf/lib/pic\libg.a(lib_a-wcsnrtombs.o)
                0x000000000002b100                _wcsnrtombs_r
 *fill*         0x000000000002b174        0xc 
 .text.wcsnrtombs
                0x000000000002b180       0x74 d:/devkitpro/devkita64/bin/../lib/gcc/aarch64-none-elf/10.1.0/../../../../aarch64-none-elf/lib/pic\libg.a(lib_a-wcsnrtombs.o)
                0x000000000002b180                wcsnrtombs
 *fill*         0x000000000002b1f4        0xc 
 .text._wctomb_r
                0x000000000002b200       0x60 d:/devkitpro/devkita64/bin/../lib/gcc/aarch64-none-elf/10.1.0/../../../../aarch64-none-elf/lib/pic\libg.a(lib_a-wctomb_r.o)
                0x000000000002b200                _wctomb_r
 .text.__ascii_wctomb
                0x000000000002b260       0x34 d:/devkitpro/devkita64/bin/../lib/gcc/aarch64-none-elf/10.1.0/../../../../aarch64-none-elf/lib/pic\libg.a(lib_a-wctomb_r.o)
                0x000000000002b260                __ascii_wctomb
 *fill*         0x000000000002b294        0xc 
 .text.__utf8_wctomb
                0x000000000002b2a0       0xe4 d:/devkitpro/devkita64/bin/../lib/gcc/aarch64-none-elf/10.1.0/../../../../aarch64-none-elf/lib/pic\libg.a(lib_a-wctomb_r.o)
                0x000000000002b2a0                __utf8_wctomb
 *fill*         0x000000000002b384        0xc 
 .text.__sjis_wctomb
                0x000000000002b390       0x84 d:/devkitpro/devkita64/bin/../lib/gcc/aarch64-none-elf/10.1.0/../../../../aarch64-none-elf/lib/pic\libg.a(lib_a-wctomb_r.o)
                0x000000000002b390                __sjis_wctomb
 *fill*         0x000000000002b414        0xc 
 .text.__eucjp_wctomb
                0x000000000002b420       0xa8 d:/devkitpro/devkita64/bin/../lib/gcc/aarch64-none-elf/10.1.0/../../../../aarch64-none-elf/lib/pic\libg.a(lib_a-wctomb_r.o)
                0x000000000002b420                __eucjp_wctomb
 *fill*         0x000000000002b4c8        0x8 
 .text.__jis_wctomb
                0x000000000002b4d0       0xbc d:/devkitpro/devkita64/bin/../lib/gcc/aarch64-none-elf/10.1.0/../../../../aarch64-none-elf/lib/pic\libg.a(lib_a-wctomb_r.o)
                0x000000000002b4d0                __jis_wctomb
 *fill*         0x000000000002b58c        0x4 
 .text.__assert_func
                0x000000000002b590       0x64 d:/devkitpro/devkita64/bin/../lib/gcc/aarch64-none-elf/10.1.0/../../../../aarch64-none-elf/lib/pic\libg.a(lib_a-assert.o)
                0x000000000002b590                __assert_func
 *fill*         0x000000000002b5f4        0xc 
 .text.__assert
                0x000000000002b600       0x14 d:/devkitpro/devkita64/bin/../lib/gcc/aarch64-none-elf/10.1.0/../../../../aarch64-none-elf/lib/pic\libg.a(lib_a-assert.o)
                0x000000000002b600                __assert
 *fill*         0x000000000002b614        0xc 
 .text._calloc_r
                0x000000000002b620       0x94 d:/devkitpro/devkita64/bin/../lib/gcc/aarch64-none-elf/10.1.0/../../../../aarch64-none-elf/lib/pic\libg.a(lib_a-callocr.o)
                0x000000000002b620                _calloc_r
 *fill*         0x000000000002b6b4        0xc 
 .text._fiprintf_r
                0x000000000002b6c0       0x74 d:/devkitpro/devkita64/bin/../lib/gcc/aarch64-none-elf/10.1.0/../../../../aarch64-none-elf/lib/pic\libg.a(lib_a-fiprintf.o)
                0x000000000002b6c0                _fiprintf_r
 *fill*         0x000000000002b734        0xc 
 .text.fiprintf
                0x000000000002b740       0x94 d:/devkitpro/devkita64/bin/../lib/gcc/aarch64-none-elf/10.1.0/../../../../aarch64-none-elf/lib/pic\libg.a(lib_a-fiprintf.o)
                0x000000000002b740                fiprintf
 .text.get_arg  0x000000000002b7d4      0x780 d:/devkitpro/devkita64/bin/../lib/gcc/aarch64-none-elf/10.1.0/../../../../aarch64-none-elf/lib/pic\libg.a(lib_a-vfiprintf.o)
 .text.__sprint_r
                0x000000000002bf54       0x3c d:/devkitpro/devkita64/bin/../lib/gcc/aarch64-none-elf/10.1.0/../../../../aarch64-none-elf/lib/pic\libg.a(lib_a-vfiprintf.o)
                0x000000000002bf54                __sprint_r
 .text._vfiprintf_r
                0x000000000002bf90     0x2988 d:/devkitpro/devkita64/bin/../lib/gcc/aarch64-none-elf/10.1.0/../../../../aarch64-none-elf/lib/pic\libg.a(lib_a-vfiprintf.o)
                0x000000000002bf90                _vfiprintf_r
 .text.vfiprintf
                0x000000000002e918       0x50 d:/devkitpro/devkita64/bin/../lib/gcc/aarch64-none-elf/10.1.0/../../../../aarch64-none-elf/lib/pic\libg.a(lib_a-vfiprintf.o)
                0x000000000002e918                vfiprintf
 .text.__sbprintf
                0x000000000002e968       0xf8 d:/devkitpro/devkita64/bin/../lib/gcc/aarch64-none-elf/10.1.0/../../../../aarch64-none-elf/lib/pic\libg.a(lib_a-vfiprintf.o)
 .text.__swsetup_r
                0x000000000002ea60      0x140 d:/devkitpro/devkita64/bin/../lib/gcc/aarch64-none-elf/10.1.0/../../../../aarch64-none-elf/lib/pic\libg.a(lib_a-wsetup.o)
                0x000000000002ea60                __swsetup_r
 .text.abort    0x000000000002eba0       0x18 d:/devkitpro/devkita64/bin/../lib/gcc/aarch64-none-elf/10.1.0/../../../../aarch64-none-elf/lib/pic\libg.a(lib_a-abort.o)
                0x000000000002eba0                abort
 *fill*         0x000000000002ebb8        0x8 
 .text.__sflush_r
                0x000000000002ebc0      0x228 d:/devkitpro/devkita64/bin/../lib/gcc/aarch64-none-elf/10.1.0/../../../../aarch64-none-elf/lib/pic\libg.a(lib_a-fflush.o)
                0x000000000002ebc0                __sflush_r
 *fill*         0x000000000002ede8        0x8 
 .text._fflush_r
                0x000000000002edf0       0xb8 d:/devkitpro/devkita64/bin/../lib/gcc/aarch64-none-elf/10.1.0/../../../../aarch64-none-elf/lib/pic\libg.a(lib_a-fflush.o)
                0x000000000002edf0                _fflush_r
 *fill*         0x000000000002eea8        0x8 
 .text.fflush   0x000000000002eeb0       0x40 d:/devkitpro/devkita64/bin/../lib/gcc/aarch64-none-elf/10.1.0/../../../../aarch64-none-elf/lib/pic\libg.a(lib_a-fflush.o)
                0x000000000002eeb0                fflush
 .text._cleanup_r
                0x000000000002eef0        0xc d:/devkitpro/devkita64/bin/../lib/gcc/aarch64-none-elf/10.1.0/../../../../aarch64-none-elf/lib/pic\libg.a(lib_a-findfp.o)
                0x000000000002eef0                _cleanup_r
 *fill*         0x000000000002eefc        0x4 
 .text.__fp_lock
                0x000000000002ef00       0x34 d:/devkitpro/devkita64/bin/../lib/gcc/aarch64-none-elf/10.1.0/../../../../aarch64-none-elf/lib/pic\libg.a(lib_a-findfp.o)
 *fill*         0x000000000002ef34        0xc 
 .text.__fp_unlock
                0x000000000002ef40       0x34 d:/devkitpro/devkita64/bin/../lib/gcc/aarch64-none-elf/10.1.0/../../../../aarch64-none-elf/lib/pic\libg.a(lib_a-findfp.o)
 *fill*         0x000000000002ef74        0xc 
 .text.__sfmoreglue
                0x000000000002ef80       0x60 d:/devkitpro/devkita64/bin/../lib/gcc/aarch64-none-elf/10.1.0/../../../../aarch64-none-elf/lib/pic\libg.a(lib_a-findfp.o)
                0x000000000002ef80                __sfmoreglue
 .text._cleanup
                0x000000000002efe0       0x10 d:/devkitpro/devkita64/bin/../lib/gcc/aarch64-none-elf/10.1.0/../../../../aarch64-none-elf/lib/pic\libg.a(lib_a-findfp.o)
                0x000000000002efe0                _cleanup
 .text.__sfp_lock_acquire
                0x000000000002eff0        0xc d:/devkitpro/devkita64/bin/../lib/gcc/aarch64-none-elf/10.1.0/../../../../aarch64-none-elf/lib/pic\libg.a(lib_a-findfp.o)
                0x000000000002eff0                __sfp_lock_acquire
 *fill*         0x000000000002effc        0x4 
 .text.__sfp_lock_release
                0x000000000002f000        0xc d:/devkitpro/devkita64/bin/../lib/gcc/aarch64-none-elf/10.1.0/../../../../aarch64-none-elf/lib/pic\libg.a(lib_a-findfp.o)
                0x000000000002f000                __sfp_lock_release
 *fill*         0x000000000002f00c        0x4 
 .text.__sinit_lock_acquire
                0x000000000002f010        0xc d:/devkitpro/devkita64/bin/../lib/gcc/aarch64-none-elf/10.1.0/../../../../aarch64-none-elf/lib/pic\libg.a(lib_a-findfp.o)
                0x000000000002f010                __sinit_lock_acquire
 *fill*         0x000000000002f01c        0x4 
 .text.__sinit_lock_release
                0x000000000002f020        0xc d:/devkitpro/devkita64/bin/../lib/gcc/aarch64-none-elf/10.1.0/../../../../aarch64-none-elf/lib/pic\libg.a(lib_a-findfp.o)
                0x000000000002f020                __sinit_lock_release
 *fill*         0x000000000002f02c        0x4 
 .text.__sinit  0x000000000002f030      0x154 d:/devkitpro/devkita64/bin/../lib/gcc/aarch64-none-elf/10.1.0/../../../../aarch64-none-elf/lib/pic\libg.a(lib_a-findfp.o)
                0x000000000002f030                __sinit
 *fill*         0x000000000002f184        0xc 
 .text.__sfp    0x000000000002f190      0x110 d:/devkitpro/devkita64/bin/../lib/gcc/aarch64-none-elf/10.1.0/../../../../aarch64-none-elf/lib/pic\libg.a(lib_a-findfp.o)
                0x000000000002f190                __sfp
 .text.__fp_lock_all
                0x000000000002f2a0       0x20 d:/devkitpro/devkita64/bin/../lib/gcc/aarch64-none-elf/10.1.0/../../../../aarch64-none-elf/lib/pic\libg.a(lib_a-findfp.o)
                0x000000000002f2a0                __fp_lock_all
 .text.__fp_unlock_all
                0x000000000002f2c0       0x20 d:/devkitpro/devkita64/bin/../lib/gcc/aarch64-none-elf/10.1.0/../../../../aarch64-none-elf/lib/pic\libg.a(lib_a-findfp.o)
                0x000000000002f2c0                __fp_unlock_all
 .text.__sfvwrite_r
                0x000000000002f2e0      0x4bc d:/devkitpro/devkita64/bin/../lib/gcc/aarch64-none-elf/10.1.0/../../../../aarch64-none-elf/lib/pic\libg.a(lib_a-fvwrite.o)
                0x000000000002f2e0                __sfvwrite_r
 *fill*         0x000000000002f79c        0x4 
 .text._fwalk   0x000000000002f7a0       0x98 d:/devkitpro/devkita64/bin/../lib/gcc/aarch64-none-elf/10.1.0/../../../../aarch64-none-elf/lib/pic\libg.a(lib_a-fwalk.o)
                0x000000000002f7a0                _fwalk
 *fill*         0x000000000002f838        0x8 
 .text._fwalk_reent
                0x000000000002f840       0xa4 d:/devkitpro/devkita64/bin/../lib/gcc/aarch64-none-elf/10.1.0/../../../../aarch64-none-elf/lib/pic\libg.a(lib_a-fwalk.o)
                0x000000000002f840                _fwalk_reent
 *fill*         0x000000000002f8e4        0xc 
 .text.__swhatbuf_r
                0x000000000002f8f0       0xa4 d:/devkitpro/devkita64/bin/../lib/gcc/aarch64-none-elf/10.1.0/../../../../aarch64-none-elf/lib/pic\libg.a(lib_a-makebuf.o)
                0x000000000002f8f0                __swhatbuf_r
 *fill*         0x000000000002f994        0xc 
 .text.__smakebuf_r
                0x000000000002f9a0      0x10c d:/devkitpro/devkita64/bin/../lib/gcc/aarch64-none-elf/10.1.0/../../../../aarch64-none-elf/lib/pic\libg.a(lib_a-makebuf.o)
                0x000000000002f9a0                __smakebuf_r
 *fill*         0x000000000002faac        0x4 
 .text._init_signal_r
                0x000000000002fab0       0x5c d:/devkitpro/devkita64/bin/../lib/gcc/aarch64-none-elf/10.1.0/../../../../aarch64-none-elf/lib/pic\libg.a(lib_a-signal.o)
                0x000000000002fab0                _init_signal_r
 *fill*         0x000000000002fb0c        0x4 
 .text._signal_r
                0x000000000002fb10       0x70 d:/devkitpro/devkita64/bin/../lib/gcc/aarch64-none-elf/10.1.0/../../../../aarch64-none-elf/lib/pic\libg.a(lib_a-signal.o)
                0x000000000002fb10                _signal_r
 .text._raise_r
                0x000000000002fb80       0xb4 d:/devkitpro/devkita64/bin/../lib/gcc/aarch64-none-elf/10.1.0/../../../../aarch64-none-elf/lib/pic\libg.a(lib_a-signal.o)
                0x000000000002fb80                _raise_r
 *fill*         0x000000000002fc34        0xc 
 .text.__sigtramp_r
                0x000000000002fc40       0xa4 d:/devkitpro/devkita64/bin/../lib/gcc/aarch64-none-elf/10.1.0/../../../../aarch64-none-elf/lib/pic\libg.a(lib_a-signal.o)
                0x000000000002fc40                __sigtramp_r
 *fill*         0x000000000002fce4        0xc 
 .text.raise    0x000000000002fcf0       0x24 d:/devkitpro/devkita64/bin/../lib/gcc/aarch64-none-elf/10.1.0/../../../../aarch64-none-elf/lib/pic\libg.a(lib_a-signal.o)
                0x000000000002fcf0                raise
 *fill*         0x000000000002fd14        0xc 
 .text.signal   0x000000000002fd20       0x2c d:/devkitpro/devkita64/bin/../lib/gcc/aarch64-none-elf/10.1.0/../../../../aarch64-none-elf/lib/pic\libg.a(lib_a-signal.o)
                0x000000000002fd20                signal
 *fill*         0x000000000002fd4c        0x4 
 .text._init_signal
                0x000000000002fd50       0x14 d:/devkitpro/devkita64/bin/../lib/gcc/aarch64-none-elf/10.1.0/../../../../aarch64-none-elf/lib/pic\libg.a(lib_a-signal.o)
                0x000000000002fd50                _init_signal
 *fill*         0x000000000002fd64        0xc 
 .text.__sigtramp
                0x000000000002fd70       0x24 d:/devkitpro/devkita64/bin/../lib/gcc/aarch64-none-elf/10.1.0/../../../../aarch64-none-elf/lib/pic\libg.a(lib_a-signal.o)
                0x000000000002fd70                __sigtramp
 *fill*         0x000000000002fd94        0xc 
 .text.__sread  0x000000000002fda0       0x50 d:/devkitpro/devkita64/bin/../lib/gcc/aarch64-none-elf/10.1.0/../../../../aarch64-none-elf/lib/pic\libg.a(lib_a-stdio.o)
                0x000000000002fda0                __sread
 .text.__seofread
                0x000000000002fdf0        0x8 d:/devkitpro/devkita64/bin/../lib/gcc/aarch64-none-elf/10.1.0/../../../../aarch64-none-elf/lib/pic\libg.a(lib_a-stdio.o)
                0x000000000002fdf0                __seofread
 *fill*         0x000000000002fdf8        0x8 
 .text.__swrite
                0x000000000002fe00       0x6c d:/devkitpro/devkita64/bin/../lib/gcc/aarch64-none-elf/10.1.0/../../../../aarch64-none-elf/lib/pic\libg.a(lib_a-stdio.o)
                0x000000000002fe00                __swrite
 *fill*         0x000000000002fe6c        0x4 
 .text.__sseek  0x000000000002fe70       0x50 d:/devkitpro/devkita64/bin/../lib/gcc/aarch64-none-elf/10.1.0/../../../../aarch64-none-elf/lib/pic\libg.a(lib_a-stdio.o)
                0x000000000002fe70                __sseek
 .text.__sclose
                0x000000000002fec0        0x8 d:/devkitpro/devkita64/bin/../lib/gcc/aarch64-none-elf/10.1.0/../../../../aarch64-none-elf/lib/pic\libg.a(lib_a-stdio.o)
                0x000000000002fec0                __sclose
 *fill*         0x000000000002fec8        0x8 
 .text._fclose_r
                0x000000000002fed0      0x15c d:/devkitpro/devkita64/bin/../lib/gcc/aarch64-none-elf/10.1.0/../../../../aarch64-none-elf/lib/pic\libg.a(lib_a-fclose.o)
                0x000000000002fed0                _fclose_r
 *fill*         0x000000000003002c        0x4 
 .text.fclose   0x0000000000030030       0x24 d:/devkitpro/devkita64/bin/../lib/gcc/aarch64-none-elf/10.1.0/../../../../aarch64-none-elf/lib/pic\libg.a(lib_a-fclose.o)
                0x0000000000030030                fclose
 *fill*         0x0000000000030054        0xc 
 .text.null_write
                0x0000000000030060        0x8 d:/devkitpro/devkita64/bin/../lib/gcc/aarch64-none-elf/10.1.0/../../../../aarch64-none-elf/lib/pic\libsysbase.a(iosupport.o)
 *fill*         0x0000000000030068        0x8 
 .text.setDefaultDevice
                0x0000000000030070       0x18 d:/devkitpro/devkita64/bin/../lib/gcc/aarch64-none-elf/10.1.0/../../../../aarch64-none-elf/lib/pic\libsysbase.a(iosupport.o)
                0x0000000000030070                setDefaultDevice
 *fill*         0x0000000000030088        0x8 
 .text.FindDevice
                0x0000000000030090      0x108 d:/devkitpro/devkita64/bin/../lib/gcc/aarch64-none-elf/10.1.0/../../../../aarch64-none-elf/lib/pic\libsysbase.a(iosupport.o)
                0x0000000000030090                FindDevice
 *fill*         0x0000000000030198        0x8 
 .text.RemoveDevice
                0x00000000000301a0       0x34 d:/devkitpro/devkita64/bin/../lib/gcc/aarch64-none-elf/10.1.0/../../../../aarch64-none-elf/lib/pic\libsysbase.a(iosupport.o)
                0x00000000000301a0                RemoveDevice
 *fill*         0x00000000000301d4        0xc 
 .text.AddDevice
                0x00000000000301e0       0xdc d:/devkitpro/devkita64/bin/../lib/gcc/aarch64-none-elf/10.1.0/../../../../aarch64-none-elf/lib/pic\libsysbase.a(iosupport.o)
                0x00000000000301e0                AddDevice
 *fill*         0x00000000000302bc        0x4 
 .text.GetDeviceOpTab
                0x00000000000302c0       0x34 d:/devkitpro/devkita64/bin/../lib/gcc/aarch64-none-elf/10.1.0/../../../../aarch64-none-elf/lib/pic\libsysbase.a(iosupport.o)
                0x00000000000302c0                GetDeviceOpTab
 *fill*         0x00000000000302f4        0xc 
 .text._close_r
                0x0000000000030300       0xa8 d:/devkitpro/devkita64/bin/../lib/gcc/aarch64-none-elf/10.1.0/../../../../aarch64-none-elf/lib/pic\libsysbase.a(close.o)
                0x0000000000030300                _close_r
 *fill*         0x00000000000303a8        0x8 
 .text._fstat_r
                0x00000000000303b0       0x84 d:/devkitpro/devkita64/bin/../lib/gcc/aarch64-none-elf/10.1.0/../../../../aarch64-none-elf/lib/pic\libsysbase.a(fstat.o)
                0x00000000000303b0                _fstat_r
 *fill*         0x0000000000030434        0xc 
 .text._getpid_r
                0x0000000000030440       0x14 d:/devkitpro/devkita64/bin/../lib/gcc/aarch64-none-elf/10.1.0/../../../../aarch64-none-elf/lib/pic\libsysbase.a(getpid.o)
                0x0000000000030440                _getpid_r
 *fill*         0x0000000000030454        0xc 
 .text._isatty_r
                0x0000000000030460        0x8 d:/devkitpro/devkita64/bin/../lib/gcc/aarch64-none-elf/10.1.0/../../../../aarch64-none-elf/lib/pic\libsysbase.a(isatty.o)
                0x0000000000030460                _isatty_r
 *fill*         0x0000000000030468        0x8 
 .text._kill_r  0x0000000000030470       0x14 d:/devkitpro/devkita64/bin/../lib/gcc/aarch64-none-elf/10.1.0/../../../../aarch64-none-elf/lib/pic\libsysbase.a(kill.o)
                0x0000000000030470                _kill_r
 *fill*         0x0000000000030484        0xc 
 .text._lseek_r
                0x0000000000030490       0x98 d:/devkitpro/devkita64/bin/../lib/gcc/aarch64-none-elf/10.1.0/../../../../aarch64-none-elf/lib/pic\libsysbase.a(lseek.o)
                0x0000000000030490                _lseek_r
 *fill*         0x0000000000030528        0x8 
 .text._read_r  0x0000000000030530       0xa4 d:/devkitpro/devkita64/bin/../lib/gcc/aarch64-none-elf/10.1.0/../../../../aarch64-none-elf/lib/pic\libsysbase.a(read.o)
                0x0000000000030530                _read_r
 *fill*         0x00000000000305d4        0xc 
 .text._sbrk_r  0x00000000000305e0       0x78 d:/devkitpro/devkita64/bin/../lib/gcc/aarch64-none-elf/10.1.0/../../../../aarch64-none-elf/lib/pic\libsysbase.a(sbrk.o)
                0x00000000000305e0                _sbrk_r
 *fill*         0x0000000000030658        0x8 
 .text._write_r
                0x0000000000030660       0xa4 d:/devkitpro/devkita64/bin/../lib/gcc/aarch64-none-elf/10.1.0/../../../../aarch64-none-elf/lib/pic\libsysbase.a(write.o)
                0x0000000000030660                _write_r
 *fill*         0x0000000000030704        0xc 
 .text._exit    0x0000000000030710       0x20 d:/devkitpro/devkita64/bin/../lib/gcc/aarch64-none-elf/10.1.0/../../../../aarch64-none-elf/lib/pic\libsysbase.a(_exit.o)
                0x0000000000030710                _exit
 .text._concatenate_path
                0x0000000000030730      0x228 d:/devkitpro/devkita64/bin/../lib/gcc/aarch64-none-elf/10.1.0/../../../../aarch64-none-elf/lib/pic\libsysbase.a(chdir.o)
                0x0000000000030730                _concatenate_path
 *fill*         0x0000000000030958        0x8 
 .text.chdir    0x0000000000030960      0x178 d:/devkitpro/devkita64/bin/../lib/gcc/aarch64-none-elf/10.1.0/../../../../aarch64-none-elf/lib/pic\libsysbase.a(chdir.o)
                0x0000000000030960                chdir
 *fill*         0x0000000000030ad8        0x8 
 .text.getcwd   0x0000000000030ae0       0xb8 d:/devkitpro/devkita64/bin/../lib/gcc/aarch64-none-elf/10.1.0/../../../../aarch64-none-elf/lib/pic\libsysbase.a(chdir.o)
                0x0000000000030ae0                getcwd
 *fill*         0x0000000000030b98        0x8 
 .text.timespec2nsec
                0x0000000000030ba0       0x14 d:/devkitpro/devkita64/bin/../lib/gcc/aarch64-none-elf/10.1.0/../../../../aarch64-none-elf/lib/pic\libsysbase.a(locks.o)
                0x0000000000030ba0                timespec2nsec
 *fill*         0x0000000000030bb4        0xc 
 .text.abstimespec2nsec
                0x0000000000030bc0       0xc8 d:/devkitpro/devkita64/bin/../lib/gcc/aarch64-none-elf/10.1.0/../../../../aarch64-none-elf/lib/pic\libsysbase.a(locks.o)
                0x0000000000030bc0                abstimespec2nsec
 *fill*         0x0000000000030c88        0x8 
 .text.__libc_lock_init
                0x0000000000030c90        0x8 d:/devkitpro/devkita64/bin/../lib/gcc/aarch64-none-elf/10.1.0/../../../../aarch64-none-elf/lib/pic\libsysbase.a(locks.o)
                0x0000000000030c90                __libc_lock_init
 *fill*         0x0000000000030c98        0x8 
 .text.__libc_lock_acquire
                0x0000000000030ca0       0x14 d:/devkitpro/devkita64/bin/../lib/gcc/aarch64-none-elf/10.1.0/../../../../aarch64-none-elf/lib/pic\libsysbase.a(locks.o)
                0x0000000000030ca0                __libc_lock_acquire
 *fill*         0x0000000000030cb4        0xc 
 .text.__libc_lock_try_acquire
                0x0000000000030cc0       0x18 d:/devkitpro/devkita64/bin/../lib/gcc/aarch64-none-elf/10.1.0/../../../../aarch64-none-elf/lib/pic\libsysbase.a(locks.o)
                0x0000000000030cc0                __libc_lock_try_acquire
 *fill*         0x0000000000030cd8        0x8 
 .text.__libc_lock_release
                0x0000000000030ce0       0x14 d:/devkitpro/devkita64/bin/../lib/gcc/aarch64-none-elf/10.1.0/../../../../aarch64-none-elf/lib/pic\libsysbase.a(locks.o)
                0x0000000000030ce0                __libc_lock_release
 *fill*         0x0000000000030cf4        0xc 
 .text.__libc_lock_close
                0x0000000000030d00        0x4 d:/devkitpro/devkita64/bin/../lib/gcc/aarch64-none-elf/10.1.0/../../../../aarch64-none-elf/lib/pic\libsysbase.a(locks.o)
                0x0000000000030d00                __libc_lock_close
 *fill*         0x0000000000030d04        0xc 
 .text.__libc_lock_init_recursive
                0x0000000000030d10        0xc d:/devkitpro/devkita64/bin/../lib/gcc/aarch64-none-elf/10.1.0/../../../../aarch64-none-elf/lib/pic\libsysbase.a(locks.o)
                0x0000000000030d10                __libc_lock_init_recursive
 *fill*         0x0000000000030d1c        0x4 
 .text.__libc_lock_acquire_recursive
                0x0000000000030d20       0x14 d:/devkitpro/devkita64/bin/../lib/gcc/aarch64-none-elf/10.1.0/../../../../aarch64-none-elf/lib/pic\libsysbase.a(locks.o)
                0x0000000000030d20                __libc_lock_acquire_recursive
 *fill*         0x0000000000030d34        0xc 
 .text.__libc_lock_try_acquire_recursive
                0x0000000000030d40       0x18 d:/devkitpro/devkita64/bin/../lib/gcc/aarch64-none-elf/10.1.0/../../../../aarch64-none-elf/lib/pic\libsysbase.a(locks.o)
                0x0000000000030d40                __libc_lock_try_acquire_recursive
 *fill*         0x0000000000030d58        0x8 
 .text.__libc_lock_release_recursive
                0x0000000000030d60       0x14 d:/devkitpro/devkita64/bin/../lib/gcc/aarch64-none-elf/10.1.0/../../../../aarch64-none-elf/lib/pic\libsysbase.a(locks.o)
                0x0000000000030d60                __libc_lock_release_recursive
 *fill*         0x0000000000030d74        0xc 
 .text.__libc_lock_close_recursive
                0x0000000000030d80        0x4 d:/devkitpro/devkita64/bin/../lib/gcc/aarch64-none-elf/10.1.0/../../../../aarch64-none-elf/lib/pic\libsysbase.a(locks.o)
                0x0000000000030d80                __libc_lock_close_recursive
 *fill*         0x0000000000030d84        0xc 
 .text.__libc_cond_init
                0x0000000000030d90       0x10 d:/devkitpro/devkita64/bin/../lib/gcc/aarch64-none-elf/10.1.0/../../../../aarch64-none-elf/lib/pic\libsysbase.a(locks.o)
                0x0000000000030d90                __libc_cond_init
 .text.__libc_cond_signal
                0x0000000000030da0       0x18 d:/devkitpro/devkita64/bin/../lib/gcc/aarch64-none-elf/10.1.0/../../../../aarch64-none-elf/lib/pic\libsysbase.a(locks.o)
                0x0000000000030da0                __libc_cond_signal
 *fill*         0x0000000000030db8        0x8 
 .text.__libc_cond_broadcast
                0x0000000000030dc0       0x18 d:/devkitpro/devkita64/bin/../lib/gcc/aarch64-none-elf/10.1.0/../../../../aarch64-none-elf/lib/pic\libsysbase.a(locks.o)
                0x0000000000030dc0                __libc_cond_broadcast
 *fill*         0x0000000000030dd8        0x8 
 .text.__libc_cond_wait
                0x0000000000030de0       0x18 d:/devkitpro/devkita64/bin/../lib/gcc/aarch64-none-elf/10.1.0/../../../../aarch64-none-elf/lib/pic\libsysbase.a(locks.o)
                0x0000000000030de0                __libc_cond_wait
 *fill*         0x0000000000030df8        0x8 
 .text.__libc_cond_wait_recursive
                0x0000000000030e00       0x18 d:/devkitpro/devkita64/bin/../lib/gcc/aarch64-none-elf/10.1.0/../../../../aarch64-none-elf/lib/pic\libsysbase.a(locks.o)
                0x0000000000030e00                __libc_cond_wait_recursive
 *fill*         0x0000000000030e18        0x8 
 .text.__free_handle
                0x0000000000030e20       0x40 d:/devkitpro/devkita64/bin/../lib/gcc/aarch64-none-elf/10.1.0/../../../../aarch64-none-elf/lib/pic\libsysbase.a(handle_manager.o)
                0x0000000000030e20                __free_handle
 .text.__release_handle
                0x0000000000030e60       0x58 d:/devkitpro/devkita64/bin/../lib/gcc/aarch64-none-elf/10.1.0/../../../../aarch64-none-elf/lib/pic\libsysbase.a(handle_manager.o)
                0x0000000000030e60                __release_handle
 *fill*         0x0000000000030eb8        0x8 
 .text.__alloc_handle
                0x0000000000030ec0       0xc0 d:/devkitpro/devkita64/bin/../lib/gcc/aarch64-none-elf/10.1.0/../../../../aarch64-none-elf/lib/pic\libsysbase.a(handle_manager.o)
                0x0000000000030ec0                __alloc_handle
 .text.__get_handle
                0x0000000000030f80       0x20 d:/devkitpro/devkita64/bin/../lib/gcc/aarch64-none-elf/10.1.0/../../../../aarch64-none-elf/lib/pic\libsysbase.a(handle_manager.o)
                0x0000000000030f80                __get_handle
 .text.dup      0x0000000000030fa0       0xa4 d:/devkitpro/devkita64/bin/../lib/gcc/aarch64-none-elf/10.1.0/../../../../aarch64-none-elf/lib/pic\libsysbase.a(handle_manager.o)
                0x0000000000030fa0                dup
 *fill*         0x0000000000031044        0xc 
 .text.dup2     0x0000000000031050      0x130 d:/devkitpro/devkita64/bin/../lib/gcc/aarch64-none-elf/10.1.0/../../../../aarch64-none-elf/lib/pic\libsysbase.a(handle_manager.o)
                0x0000000000031050                dup2
 .text.__getreent
                0x0000000000031180       0x20 d:/devkitpro/devkita64/bin/../lib/gcc/aarch64-none-elf/10.1.0/../../../../aarch64-none-elf/lib/pic\libsysbase.a(getreent.o)
                0x0000000000031180                __getreent
 .text.clock_gettime
                0x00000000000311a0       0x34 d:/devkitpro/devkita64/bin/../lib/gcc/aarch64-none-elf/10.1.0/../../../../aarch64-none-elf/lib/pic\libsysbase.a(clocks.o)
                0x00000000000311a0                clock_gettime
 *fill*         0x00000000000311d4        0xc 
 .text.clock_settime
                0x00000000000311e0       0x34 d:/devkitpro/devkita64/bin/../lib/gcc/aarch64-none-elf/10.1.0/../../../../aarch64-none-elf/lib/pic\libsysbase.a(clocks.o)
                0x00000000000311e0                clock_settime
 *fill*         0x0000000000031214        0xc 
 .text.clock_getres
                0x0000000000031220       0x34 d:/devkitpro/devkita64/bin/../lib/gcc/aarch64-none-elf/10.1.0/../../../../aarch64-none-elf/lib/pic\libsysbase.a(clocks.o)
                0x0000000000031220                clock_getres
 *fill*         0x0000000000031254        0xc 
 .text.__trunctfdf2
                0x0000000000031260      0x310 d:/devkitpro/devkita64/bin/../lib/gcc/aarch64-none-elf/10.1.0/pic\libgcc.a(trunctfdf2.o)
                0x0000000000031260                __trunctfdf2
 .text.__sfp_handle_exceptions
                0x0000000000031570       0x70 d:/devkitpro/devkita64/bin/../lib/gcc/aarch64-none-elf/10.1.0/pic\libgcc.a(sfp-exceptions.o)
                0x0000000000031570                __sfp_handle_exceptions
 .text          0x00000000000315e0      0x100 d:/devkitpro/devkita64/bin/../lib/gcc/aarch64-none-elf/10.1.0/../../../../aarch64-none-elf/lib/pic\libg.a(lib_a-strrchr.o)
                0x00000000000315e0                strrchr
                0x00000000000316e0                . = ALIGN (0x8)

.fini           0x00000000000316e0       0x38
 *(.fini)
 .fini          0x00000000000316e0       0x18 d:/devkitpro/devkita64/bin/../lib/gcc/aarch64-none-elf/10.1.0/pic/crti.o
                0x00000000000316e0                _fini
 .fini          0x00000000000316f8       0x1c d:/devkitpro/devkita64/bin/../lib/gcc/aarch64-none-elf/10.1.0/pic/crtn.o
                0x0000000000031718                . = ALIGN (0x8)
 *fill*         0x0000000000031714        0x4 
                0x0000000000032000                . = ALIGN (0x1000)

.rodata         0x0000000000032000     0x2928
 *(.rodata .rodata.* .gnu.linkonce.r.*)
 .rodata.str1.8
                0x0000000000032000      0xa89 main.o
 *fill*         0x0000000000032a89        0x7 
 .rodata._ZN9acmd_objsMUlP4ACMDE0_4_FUNES0_.str1.8
                0x0000000000032a90      0x10b main.o
 *fill*         0x0000000000032b9b        0x5 
 .rodata._ZN9acmd_objsMUlP4ACMDE_4_FUNES0_.str1.8
                0x0000000000032ba0       0xa3 main.o
 *fill*         0x0000000000032c43        0x5 
 .rodata._ZN9acmd_objsMUlP4ACMDE1_4_FUNES0_.str1.8
                0x0000000000032c48       0xaa main.o
 *fill*         0x0000000000032cf2        0x6 
 .rodata.cst8   0x0000000000032cf8        0x8 main.o
 .rodata        0x0000000000032d00      0x400 main.o
 .rodata.str1.8
                0x0000000000033100        0x5 acmd_wrapper.o
 *fill*         0x0000000000033105        0x3 
 .rodata        0x0000000000033108      0x400 acmd_wrapper.o
 .rodata.str1.8
                0x0000000000033508        0x5 saltysd_helper.o
 *fill*         0x000000000003350d        0x3 
 .rodata        0x0000000000033510        0x5 saltysd_helper.o
 *fill*         0x0000000000033515        0x3 
 .rodata        0x0000000000033518       0x60 lua_bind_hash.o
 .rodata.str1.8
                0x0000000000033578      0x147 raygun_printer.o
                                        0x14f (size before relaxing)
 *fill*         0x00000000000336bf        0x1 
 .rodata        0x00000000000336c0      0x53c raygun_printer.o
 *fill*         0x0000000000033bfc        0x4 
 .rodata._fsdevUnmountDeviceStruct.part.4.str1.8
                0x0000000000033c00        0x2 D:/githubRepos/code-mod-example/code-mod-framework/lib/libnx_min/nx/lib\libnx_min.a(fs_dev.o)
 *fill*         0x0000000000033c02        0x6 
 .rodata.error_table
                0x0000000000033c08       0x20 D:/githubRepos/code-mod-example/code-mod-framework/lib/libnx_min/nx/lib\libnx_min.a(fs_dev.o)
 .rodata.fsdevMountSdmc.str1.8
                0x0000000000033c28        0x5 D:/githubRepos/code-mod-example/code-mod-framework/lib/libnx_min/nx/lib\libnx_min.a(fs_dev.o)
 *fill*         0x0000000000033c2d        0x3 
 .rodata.fsInitialize.str1.8
                0x0000000000033c30        0x8 D:/githubRepos/code-mod-example/code-mod-framework/lib/libnx_min/nx/lib\libnx_min.a(fs.o)
 .rodata.setInitialize.str1.8
                0x0000000000033c38        0x4 D:/githubRepos/code-mod-example/code-mod-framework/lib/libnx_min/nx/lib\libnx_min.a(set.o)
 *fill*         0x0000000000033c3c        0x4 
 .rodata.setsysInitialize.str1.8
                0x0000000000033c40        0x8 D:/githubRepos/code-mod-example/code-mod-framework/lib/libnx_min/nx/lib\libnx_min.a(set.o)
 .rodata._fatalImpl.str1.8
                0x0000000000033c48        0x8 D:/githubRepos/code-mod-example/code-mod-framework/lib/libnx_min/nx/lib\libnx_min.a(fatal.o)
 .rodata.smInitialize.str1.8
                0x0000000000033c50        0x4 D:/githubRepos/code-mod-example/code-mod-framework/lib/libnx_min/nx/lib\libnx_min.a(sm.o)
                                          0x9 (size before relaxing)
 *fill*         0x0000000000033c54        0x4 
 .rodata        0x0000000000033c58       0x24 D:/githubRepos/code-mod-example/code-mod-framework/lib/libnx_min/nx/lib\libnx_min.a(hid.o)
 *fill*         0x0000000000033c7c        0x4 
 .rodata.hidInitialize.str1.8
                0x0000000000033c80        0x4 D:/githubRepos/code-mod-example/code-mod-framework/lib/libnx_min/nx/lib\libnx_min.a(hid.o)
 *fill*         0x0000000000033c84        0x4 
 .rodata.timeInitialize.str1.8
                0x0000000000033c88        0xf D:/githubRepos/code-mod-example/code-mod-framework/lib/libnx_min/nx/lib\libnx_min.a(time.o)
 *fill*         0x0000000000033c97        0x1 
 .rodata.CSWTCH.93
                0x0000000000033c98       0x14 D:/githubRepos/code-mod-example/code-mod-framework/lib/libnx_min/nx/lib\libnx_min.a(applet.o)
 *fill*         0x0000000000033cac        0x4 
 .rodata.appletInitialize.str1.8
                0x0000000000033cb0       0x19 D:/githubRepos/code-mod-example/code-mod-framework/lib/libnx_min/nx/lib\libnx_min.a(applet.o)
 *fill*         0x0000000000033cc9        0x7 
 .rodata.__libnx_init_time.str1.8
                0x0000000000033cd0        0x3 D:/githubRepos/code-mod-example/code-mod-framework/lib/libnx_min/nx/lib\libnx_min.a(newlib.o)
 *fill*         0x0000000000033cd3        0x5 
 .rodata.apmInitialize.str1.8
                0x0000000000033cd8        0x4 D:/githubRepos/code-mod-example/code-mod-framework/lib/libnx_min/nx/lib\libnx_min.a(apm.o)
 *fill*         0x0000000000033cdc        0x4 
 .rodata._ctype_
                0x0000000000033ce0      0x101 d:/devkitpro/devkita64/bin/../lib/gcc/aarch64-none-elf/10.1.0/../../../../aarch64-none-elf/lib/pic\libg.a(lib_a-ctype_.o)
                0x0000000000033ce0                _ctype_
 *fill*         0x0000000000033de1        0x3 
 .rodata.get_arg
                0x0000000000033de4       0x92 d:/devkitpro/devkita64/bin/../lib/gcc/aarch64-none-elf/10.1.0/../../../../aarch64-none-elf/lib/pic\libg.a(lib_a-svfprintf.o)
 .rodata._svfprintf_r.str1.1
                0x0000000000033e76       0x3b d:/devkitpro/devkita64/bin/../lib/gcc/aarch64-none-elf/10.1.0/../../../../aarch64-none-elf/lib/pic\libg.a(lib_a-svfprintf.o)
 *fill*         0x0000000000033eb1        0x3 
 .rodata._svfprintf_r
                0x0000000000033eb4       0xb6 d:/devkitpro/devkita64/bin/../lib/gcc/aarch64-none-elf/10.1.0/../../../../aarch64-none-elf/lib/pic\libg.a(lib_a-svfprintf.o)
 *fill*         0x0000000000033f6a        0x6 
 .rodata.cst8   0x0000000000033f70        0x8 d:/devkitpro/devkita64/bin/../lib/gcc/aarch64-none-elf/10.1.0/../../../../aarch64-none-elf/lib/pic\libg.a(lib_a-svfprintf.o)
 .rodata.blanks.1
                0x0000000000033f78       0x10 d:/devkitpro/devkita64/bin/../lib/gcc/aarch64-none-elf/10.1.0/../../../../aarch64-none-elf/lib/pic\libg.a(lib_a-svfprintf.o)
 .rodata.zeroes.0
                0x0000000000033f88       0x10 d:/devkitpro/devkita64/bin/../lib/gcc/aarch64-none-elf/10.1.0/../../../../aarch64-none-elf/lib/pic\libg.a(lib_a-svfprintf.o)
 .rodata._dtoa_r.str1.8
                0x0000000000033f98       0x74 d:/devkitpro/devkita64/bin/../lib/gcc/aarch64-none-elf/10.1.0/../../../../aarch64-none-elf/lib/pic\libg.a(lib_a-dtoa.o)
 *fill*         0x000000000003400c        0x4 
 .rodata.cst8   0x0000000000034010       0x18 d:/devkitpro/devkita64/bin/../lib/gcc/aarch64-none-elf/10.1.0/../../../../aarch64-none-elf/lib/pic\libg.a(lib_a-dtoa.o)
 .rodata.currentlocale.str1.8
                0x0000000000034028        0x2 d:/devkitpro/devkita64/bin/../lib/gcc/aarch64-none-elf/10.1.0/../../../../aarch64-none-elf/lib/pic\libg.a(lib_a-locale.o)
 *fill*         0x000000000003402a        0x6 
 .rodata.__loadlocale.str1.8
                0x0000000000034030      0x10b d:/devkitpro/devkita64/bin/../lib/gcc/aarch64-none-elf/10.1.0/../../../../aarch64-none-elf/lib/pic\libg.a(lib_a-locale.o)
                                        0x113 (size before relaxing)
 *fill*         0x000000000003413b        0x1 
 .rodata.__loadlocale
                0x000000000003413c       0x6a d:/devkitpro/devkita64/bin/../lib/gcc/aarch64-none-elf/10.1.0/../../../../aarch64-none-elf/lib/pic\libg.a(lib_a-locale.o)
 *fill*         0x00000000000341a6        0x2 
 .rodata.__get_locale_env.str1.8
                0x00000000000341a8        0xd d:/devkitpro/devkita64/bin/../lib/gcc/aarch64-none-elf/10.1.0/../../../../aarch64-none-elf/lib/pic\libg.a(lib_a-locale.o)
 *fill*         0x00000000000341b5        0x3 
 .rodata.str1.8
                0x00000000000341b8       0x5c d:/devkitpro/devkita64/bin/../lib/gcc/aarch64-none-elf/10.1.0/../../../../aarch64-none-elf/lib/pic\libg.a(lib_a-locale.o)
                                         0x64 (size before relaxing)
 *fill*         0x0000000000034214        0x4 
 .rodata.JIS_action_table
                0x0000000000034218       0x48 d:/devkitpro/devkita64/bin/../lib/gcc/aarch64-none-elf/10.1.0/../../../../aarch64-none-elf/lib/pic\libg.a(lib_a-mbtowc_r.o)
 .rodata.JIS_state_table
                0x0000000000034260       0x48 d:/devkitpro/devkita64/bin/../lib/gcc/aarch64-none-elf/10.1.0/../../../../aarch64-none-elf/lib/pic\libg.a(lib_a-mbtowc_r.o)
 .rodata.__multadd.str1.8
                0x00000000000342a8       0x3d d:/devkitpro/devkita64/bin/../lib/gcc/aarch64-none-elf/10.1.0/../../../../aarch64-none-elf/lib/pic\libg.a(lib_a-mprec.o)
                                         0x55 (size before relaxing)
 *fill*         0x00000000000342e5        0x3 
 .rodata.__mprec_bigtens
                0x00000000000342e8       0x28 d:/devkitpro/devkita64/bin/../lib/gcc/aarch64-none-elf/10.1.0/../../../../aarch64-none-elf/lib/pic\libg.a(lib_a-mprec.o)
                0x00000000000342e8                __mprec_bigtens
 .rodata.__mprec_tens
                0x0000000000034310       0xc8 d:/devkitpro/devkita64/bin/../lib/gcc/aarch64-none-elf/10.1.0/../../../../aarch64-none-elf/lib/pic\libg.a(lib_a-mprec.o)
                0x0000000000034310                __mprec_tens
 .rodata.__mprec_tinytens
                0x00000000000343d8       0x28 d:/devkitpro/devkita64/bin/../lib/gcc/aarch64-none-elf/10.1.0/../../../../aarch64-none-elf/lib/pic\libg.a(lib_a-mprec.o)
                0x00000000000343d8                __mprec_tinytens
 .rodata.p05.0  0x0000000000034400        0xc d:/devkitpro/devkita64/bin/../lib/gcc/aarch64-none-elf/10.1.0/../../../../aarch64-none-elf/lib/pic\libg.a(lib_a-mprec.o)
 .rodata.get_arg
                0x000000000003440c       0x92 d:/devkitpro/devkita64/bin/../lib/gcc/aarch64-none-elf/10.1.0/../../../../aarch64-none-elf/lib/pic\libg.a(lib_a-svfiprintf.o)
 .rodata._svfiprintf_r.str1.1
                0x000000000003449e       0x29 d:/devkitpro/devkita64/bin/../lib/gcc/aarch64-none-elf/10.1.0/../../../../aarch64-none-elf/lib/pic\libg.a(lib_a-svfiprintf.o)
 *fill*         0x000000000003449e        0x2 
 .rodata._svfiprintf_r
                0x00000000000344a0       0xb6 d:/devkitpro/devkita64/bin/../lib/gcc/aarch64-none-elf/10.1.0/../../../../aarch64-none-elf/lib/pic\libg.a(lib_a-svfiprintf.o)
 *fill*         0x0000000000034556        0x2 
 .rodata.__action_table
                0x0000000000034558       0x6c d:/devkitpro/devkita64/bin/../lib/gcc/aarch64-none-elf/10.1.0/../../../../aarch64-none-elf/lib/pic\libg.a(lib_a-svfiprintf.o)
                0x0000000000034558                __action_table
 *fill*         0x00000000000345c4        0x4 
 .rodata.__chclass
                0x00000000000345c8      0x100 d:/devkitpro/devkita64/bin/../lib/gcc/aarch64-none-elf/10.1.0/../../../../aarch64-none-elf/lib/pic\libg.a(lib_a-svfiprintf.o)
                0x00000000000345c8                __chclass
 .rodata.__state_table
                0x00000000000346c8       0x6c d:/devkitpro/devkita64/bin/../lib/gcc/aarch64-none-elf/10.1.0/../../../../aarch64-none-elf/lib/pic\libg.a(lib_a-svfiprintf.o)
                0x00000000000346c8                __state_table
 *fill*         0x0000000000034734        0x4 
 .rodata.blanks.1
                0x0000000000034738       0x10 d:/devkitpro/devkita64/bin/../lib/gcc/aarch64-none-elf/10.1.0/../../../../aarch64-none-elf/lib/pic\libg.a(lib_a-svfiprintf.o)
 .rodata.zeroes.0
                0x0000000000034748       0x10 d:/devkitpro/devkita64/bin/../lib/gcc/aarch64-none-elf/10.1.0/../../../../aarch64-none-elf/lib/pic\libg.a(lib_a-svfiprintf.o)
 .rodata.__assert_func.str1.8
                0x0000000000034758       0x3f d:/devkitpro/devkita64/bin/../lib/gcc/aarch64-none-elf/10.1.0/../../../../aarch64-none-elf/lib/pic\libg.a(lib_a-assert.o)
                                         0x47 (size before relaxing)
 *fill*         0x0000000000034797        0x1 
 .rodata.get_arg
                0x0000000000034798       0x92 d:/devkitpro/devkita64/bin/../lib/gcc/aarch64-none-elf/10.1.0/../../../../aarch64-none-elf/lib/pic\libg.a(lib_a-vfiprintf.o)
 .rodata._vfiprintf_r.str1.1
                0x000000000003482a       0x29 d:/devkitpro/devkita64/bin/../lib/gcc/aarch64-none-elf/10.1.0/../../../../aarch64-none-elf/lib/pic\libg.a(lib_a-vfiprintf.o)
 *fill*         0x000000000003482a        0x2 
 .rodata._vfiprintf_r
                0x000000000003482c       0xb6 d:/devkitpro/devkita64/bin/../lib/gcc/aarch64-none-elf/10.1.0/../../../../aarch64-none-elf/lib/pic\libg.a(lib_a-vfiprintf.o)
 *fill*         0x00000000000348e2        0x6 
 .rodata.blanks.1
                0x00000000000348e8       0x10 d:/devkitpro/devkita64/bin/../lib/gcc/aarch64-none-elf/10.1.0/../../../../aarch64-none-elf/lib/pic\libg.a(lib_a-vfiprintf.o)
 .rodata.zeroes.0
                0x00000000000348f8       0x10 d:/devkitpro/devkita64/bin/../lib/gcc/aarch64-none-elf/10.1.0/../../../../aarch64-none-elf/lib/pic\libg.a(lib_a-vfiprintf.o)
 .rodata.AddDevice.str1.8
                0x0000000000034908        0x8 d:/devkitpro/devkita64/bin/../lib/gcc/aarch64-none-elf/10.1.0/../../../../aarch64-none-elf/lib/pic\libsysbase.a(iosupport.o)
 .rodata.DIRECTORY_PARENT
                0x0000000000034910        0x3 d:/devkitpro/devkita64/bin/../lib/gcc/aarch64-none-elf/10.1.0/../../../../aarch64-none-elf/lib/pic\libsysbase.a(chdir.o)
                0x0000000000034910                DIRECTORY_PARENT
 *fill*         0x0000000000034913        0x5 
 .rodata.DIRECTORY_SEPARATOR
                0x0000000000034918        0x2 d:/devkitpro/devkita64/bin/../lib/gcc/aarch64-none-elf/10.1.0/../../../../aarch64-none-elf/lib/pic\libsysbase.a(chdir.o)
                0x0000000000034918                DIRECTORY_SEPARATOR
 *fill*         0x000000000003491a        0x6 
 .rodata.DIRECTORY_THIS
                0x0000000000034920        0x2 d:/devkitpro/devkita64/bin/../lib/gcc/aarch64-none-elf/10.1.0/../../../../aarch64-none-elf/lib/pic\libsysbase.a(chdir.o)
                0x0000000000034920                DIRECTORY_THIS
                0x0000000000034928                . = ALIGN (0x8)
 *fill*         0x0000000000034922        0x6 

.eh_frame_hdr   0x0000000000034928        0x0
                0x0000000000034928                __eh_frame_hdr_start = .
 *(.eh_frame_hdr)
 *(.eh_frame_entry .eh_frame_entry.*)
                0x0000000000034928                __eh_frame_hdr_end = .

.eh_frame       0x0000000000034928     0x8798
 *(.eh_frame)
 .eh_frame      0x0000000000034928       0x80 d:/devkitpro/devkita64/bin/../lib/gcc/aarch64-none-elf/10.1.0/pic/crtbegin.o
 .eh_frame      0x00000000000349a8      0x640 main.o
                                        0x650 (size before relaxing)
 .eh_frame      0x0000000000034fe8      0x328 acmd_wrapper.o
                                        0x340 (size before relaxing)
 .eh_frame      0x0000000000035310       0xb0 saltysd_helper.o
                                         0xc8 (size before relaxing)
 .eh_frame      0x00000000000353c0       0xd8 l2c_imports.o
                                         0xe8 (size before relaxing)
 .eh_frame      0x0000000000035498       0x40 lua_bind_hash.o
                                         0x58 (size before relaxing)
 .eh_frame      0x00000000000354d8       0xe0 raygun_printer.o
                                         0xf0 (size before relaxing)
 .eh_frame      0x00000000000355b8       0x28 D:/githubRepos/code-mod-example/code-mod-framework/lib/libnx_min/nx/lib\libnx_min.a(exception.o)
                                         0x40 (size before relaxing)
 .eh_frame      0x00000000000355e0       0xa8 D:/githubRepos/code-mod-example/code-mod-framework/lib/libnx_min/nx/lib\libnx_min.a(argv.o)
                                         0xb8 (size before relaxing)
 .eh_frame      0x0000000000035688      0x1c0 D:/githubRepos/code-mod-example/code-mod-framework/lib/libnx_min/nx/lib\libnx_min.a(env.o)
                                        0x1d8 (size before relaxing)
 .eh_frame      0x0000000000035848       0x68 D:/githubRepos/code-mod-example/code-mod-framework/lib/libnx_min/nx/lib\libnx_min.a(init.o)
                                         0xb8 (size before relaxing)
 .eh_frame      0x00000000000358b0       0x28 D:/githubRepos/code-mod-example/code-mod-framework/lib/libnx_min/nx/lib\libnx_min.a(hosversion.o)
                                         0x40 (size before relaxing)
 .eh_frame      0x00000000000358d8       0x18 D:/githubRepos/code-mod-example/code-mod-framework/lib/libnx_min/nx/lib\libnx_min.a(dynamic.o)
                                         0x30 (size before relaxing)
 .eh_frame      0x00000000000358f0      0x800 D:/githubRepos/code-mod-example/code-mod-framework/lib/libnx_min/nx/lib\libnx_min.a(fs_dev.o)
                                        0x818 (size before relaxing)
 .eh_frame      0x00000000000360f0       0x18 D:/githubRepos/code-mod-example/code-mod-framework/lib/libnx_min/nx/lib\libnx_min.a(decode_utf8.o)
                                         0x28 (size before relaxing)
 .eh_frame      0x0000000000036108      0x7d0 D:/githubRepos/code-mod-example/code-mod-framework/lib/libnx_min/nx/lib\libnx_min.a(svc.o)
                                        0x7e8 (size before relaxing)
 .eh_frame      0x00000000000368d8       0x18 D:/githubRepos/code-mod-example/code-mod-framework/lib/libnx_min/nx/lib\libnx_min.a(readtp.o)
                                         0x28 (size before relaxing)
 .eh_frame      0x00000000000368f0      0x108 D:/githubRepos/code-mod-example/code-mod-framework/lib/libnx_min/nx/lib\libnx_min.a(virtmem.o)
                                        0x120 (size before relaxing)
 .eh_frame      0x00000000000369f8       0xb0 D:/githubRepos/code-mod-example/code-mod-framework/lib/libnx_min/nx/lib\libnx_min.a(mutex.o)
                                         0xc0 (size before relaxing)
 .eh_frame      0x0000000000036aa8      0xed0 D:/githubRepos/code-mod-example/code-mod-framework/lib/libnx_min/nx/lib\libnx_min.a(fs.o)
                                        0xee0 (size before relaxing)
 .eh_frame      0x0000000000037978      0x540 D:/githubRepos/code-mod-example/code-mod-framework/lib/libnx_min/nx/lib\libnx_min.a(set.o)
                                        0x550 (size before relaxing)
 .eh_frame      0x0000000000037eb8       0x70 D:/githubRepos/code-mod-example/code-mod-framework/lib/libnx_min/nx/lib\libnx_min.a(fatal.o)
                                         0x88 (size before relaxing)
 .eh_frame      0x0000000000037f28      0x1d8 D:/githubRepos/code-mod-example/code-mod-framework/lib/libnx_min/nx/lib\libnx_min.a(sm.o)
                                        0x1f0 (size before relaxing)
 .eh_frame      0x0000000000038100      0xbe0 D:/githubRepos/code-mod-example/code-mod-framework/lib/libnx_min/nx/lib\libnx_min.a(hid.o)
                                        0xbf0 (size before relaxing)
 .eh_frame      0x0000000000038ce0      0x180 D:/githubRepos/code-mod-example/code-mod-framework/lib/libnx_min/nx/lib\libnx_min.a(time.o)
                                        0x198 (size before relaxing)
 .eh_frame      0x0000000000038e60     0x1448 D:/githubRepos/code-mod-example/code-mod-framework/lib/libnx_min/nx/lib\libnx_min.a(applet.o)
                                       0x1458 (size before relaxing)
 .eh_frame      0x000000000003a2a8      0x408 D:/githubRepos/code-mod-example/code-mod-framework/lib/libnx_min/nx/lib\libnx_min.a(newlib.o)
                                        0x420 (size before relaxing)
 .eh_frame      0x000000000003a6b0      0x1b8 D:/githubRepos/code-mod-example/code-mod-framework/lib/libnx_min/nx/lib\libnx_min.a(thread.o)
                                        0x1c8 (size before relaxing)
 .eh_frame      0x000000000003a868       0x30 D:/githubRepos/code-mod-example/code-mod-framework/lib/libnx_min/nx/lib\libnx_min.a(condvar.o)
                                         0x48 (size before relaxing)
 .eh_frame      0x000000000003a898       0xb0 D:/githubRepos/code-mod-example/code-mod-framework/lib/libnx_min/nx/lib\libnx_min.a(event.o)
                                         0xc0 (size before relaxing)
 .eh_frame      0x000000000003a948       0xf0 D:/githubRepos/code-mod-example/code-mod-framework/lib/libnx_min/nx/lib\libnx_min.a(tmem.o)
                                        0x108 (size before relaxing)
 .eh_frame      0x000000000003aa38       0xb0 D:/githubRepos/code-mod-example/code-mod-framework/lib/libnx_min/nx/lib\libnx_min.a(rwlock.o)
                                         0xc0 (size before relaxing)
 .eh_frame      0x000000000003aae8       0xb0 D:/githubRepos/code-mod-example/code-mod-framework/lib/libnx_min/nx/lib\libnx_min.a(wait.o)
                                         0xc8 (size before relaxing)
 .eh_frame      0x000000000003ab98       0xb8 D:/githubRepos/code-mod-example/code-mod-framework/lib/libnx_min/nx/lib\libnx_min.a(shmem.o)
                                         0xc8 (size before relaxing)
 .eh_frame      0x000000000003ac50       0xc8 D:/githubRepos/code-mod-example/code-mod-framework/lib/libnx_min/nx/lib\libnx_min.a(detect.o)
                                         0xd8 (size before relaxing)
 .eh_frame      0x000000000003ad18      0x110 D:/githubRepos/code-mod-example/code-mod-framework/lib/libnx_min/nx/lib\libnx_min.a(apm.o)
                                        0x128 (size before relaxing)
 .eh_frame      0x000000000003ae28       0x68 d:/devkitpro/devkita64/bin/../lib/gcc/aarch64-none-elf/10.1.0/../../../../aarch64-none-elf/lib/pic\libg.a(lib_a-bsearch.o)
                                         0x78 (size before relaxing)
 .eh_frame      0x000000000003ae90       0x18 d:/devkitpro/devkita64/bin/../lib/gcc/aarch64-none-elf/10.1.0/../../../../aarch64-none-elf/lib/pic\libg.a(lib_a-ctype_.o)
                                         0x28 (size before relaxing)
 .eh_frame      0x000000000003aea8       0x20 d:/devkitpro/devkita64/bin/../lib/gcc/aarch64-none-elf/10.1.0/../../../../aarch64-none-elf/lib/pic\libg.a(lib_a-errno.o)
                                         0x38 (size before relaxing)
 .eh_frame      0x000000000003aec8       0x20 d:/devkitpro/devkita64/bin/../lib/gcc/aarch64-none-elf/10.1.0/../../../../aarch64-none-elf/lib/pic\libg.a(lib_a-exit.o)
                                         0x30 (size before relaxing)
 .eh_frame      0x000000000003aee8       0x28 d:/devkitpro/devkita64/bin/../lib/gcc/aarch64-none-elf/10.1.0/../../../../aarch64-none-elf/lib/pic\libg.a(lib_a-fini.o)
                                         0x38 (size before relaxing)
 .eh_frame      0x000000000003af10       0x28 d:/devkitpro/devkita64/bin/../lib/gcc/aarch64-none-elf/10.1.0/../../../../aarch64-none-elf/lib/pic\libg.a(lib_a-init.o)
                                         0x40 (size before relaxing)
 .eh_frame      0x000000000003af38       0x28 d:/devkitpro/devkita64/bin/../lib/gcc/aarch64-none-elf/10.1.0/../../../../aarch64-none-elf/lib/pic\libg.a(lib_a-malign.o)
                                         0x38 (size before relaxing)
 .eh_frame      0x000000000003af60       0x50 d:/devkitpro/devkita64/bin/../lib/gcc/aarch64-none-elf/10.1.0/../../../../aarch64-none-elf/lib/pic\libg.a(lib_a-malignr.o)
                                         0x60 (size before relaxing)
 .eh_frame      0x000000000003afb0       0x48 d:/devkitpro/devkita64/bin/../lib/gcc/aarch64-none-elf/10.1.0/../../../../aarch64-none-elf/lib/pic\libg.a(lib_a-malloc.o)
                                         0x60 (size before relaxing)
 .eh_frame      0x000000000003aff8       0xc0 d:/devkitpro/devkita64/bin/../lib/gcc/aarch64-none-elf/10.1.0/../../../../aarch64-none-elf/lib/pic\libg.a(lib_a-mallocr.o)
                                         0xd0 (size before relaxing)
 .eh_frame      0x000000000003b0b8       0x28 d:/devkitpro/devkita64/bin/../lib/gcc/aarch64-none-elf/10.1.0/../../../../aarch64-none-elf/lib/pic\libg.a(lib_a-mlock.o)
                                         0x40 (size before relaxing)
 .eh_frame      0x000000000003b0e0       0x50 d:/devkitpro/devkita64/bin/../lib/gcc/aarch64-none-elf/10.1.0/../../../../aarch64-none-elf/lib/pic\libg.a(lib_a-setenv.o)
                                         0x60 (size before relaxing)
 .eh_frame      0x000000000003b130       0xb0 d:/devkitpro/devkita64/bin/../lib/gcc/aarch64-none-elf/10.1.0/../../../../aarch64-none-elf/lib/pic\libg.a(lib_a-setenv_r.o)
                                         0xc8 (size before relaxing)
 .eh_frame      0x000000000003b1e0       0x18 d:/devkitpro/devkita64/bin/../lib/gcc/aarch64-none-elf/10.1.0/../../../../aarch64-none-elf/lib/pic\libg.a(lib_a-strncat.o)
                                         0x28 (size before relaxing)
 .eh_frame      0x000000000003b1f8       0x18 d:/devkitpro/devkita64/bin/../lib/gcc/aarch64-none-elf/10.1.0/../../../../aarch64-none-elf/lib/pic\libg.a(lib_a-strncpy.o)
                                         0x28 (size before relaxing)
 .eh_frame      0x000000000003b210       0x18 d:/devkitpro/devkita64/bin/../lib/gcc/aarch64-none-elf/10.1.0/../../../../aarch64-none-elf/lib/pic\libg.a(lib_a-toupper.o)
                                         0x28 (size before relaxing)
 .eh_frame      0x000000000003b228       0x60 d:/devkitpro/devkita64/bin/../lib/gcc/aarch64-none-elf/10.1.0/../../../../aarch64-none-elf/lib/pic\libg.a(lib_a-vsnprintf.o)
                                         0x70 (size before relaxing)
 .eh_frame      0x000000000003b288       0x58 d:/devkitpro/devkita64/bin/../lib/gcc/aarch64-none-elf/10.1.0/../../../../aarch64-none-elf/lib/pic\libg.a(lib_a-__call_atexit.o)
                                         0x70 (size before relaxing)
 .eh_frame      0x000000000003b2e0       0x28 d:/devkitpro/devkita64/bin/../lib/gcc/aarch64-none-elf/10.1.0/../../../../aarch64-none-elf/lib/pic\libg.a(lib_a-envlock.o)
                                         0x40 (size before relaxing)
 .eh_frame      0x000000000003b308       0x80 d:/devkitpro/devkita64/bin/../lib/gcc/aarch64-none-elf/10.1.0/../../../../aarch64-none-elf/lib/pic\libg.a(lib_a-freer.o)
                                         0x98 (size before relaxing)
 .eh_frame      0x000000000003b388       0x78 d:/devkitpro/devkita64/bin/../lib/gcc/aarch64-none-elf/10.1.0/../../../../aarch64-none-elf/lib/pic\libg.a(lib_a-getenv_r.o)
                                         0x90 (size before relaxing)
 .eh_frame      0x000000000003b400      0x100 d:/devkitpro/devkita64/bin/../lib/gcc/aarch64-none-elf/10.1.0/../../../../aarch64-none-elf/lib/pic\libg.a(lib_a-reallocr.o)
                                        0x118 (size before relaxing)
 .eh_frame      0x000000000003b500       0xa8 d:/devkitpro/devkita64/bin/../lib/gcc/aarch64-none-elf/10.1.0/../../../../aarch64-none-elf/lib/pic\libg.a(lib_a-svfprintf.o)
                                         0xc0 (size before relaxing)
 .eh_frame      0x000000000003b5a8       0x70 d:/devkitpro/devkita64/bin/../lib/gcc/aarch64-none-elf/10.1.0/../../../../aarch64-none-elf/lib/pic\libg.a(lib_a-wcrtomb.o)
                                         0x88 (size before relaxing)
 .eh_frame      0x000000000003b618       0x40 d:/devkitpro/devkita64/bin/../lib/gcc/aarch64-none-elf/10.1.0/../../../../aarch64-none-elf/lib/pic\libg.a(lib_a-wcsrtombs.o)
                                         0x58 (size before relaxing)
 .eh_frame      0x000000000003b658       0xa0 d:/devkitpro/devkita64/bin/../lib/gcc/aarch64-none-elf/10.1.0/../../../../aarch64-none-elf/lib/pic\libg.a(lib_a-dtoa.o)
                                         0xb0 (size before relaxing)
 .eh_frame      0x000000000003b6f8       0x58 d:/devkitpro/devkita64/bin/../lib/gcc/aarch64-none-elf/10.1.0/../../../../aarch64-none-elf/lib/pic\libg.a(lib_a-localeconv.o)
                                         0x68 (size before relaxing)
 .eh_frame      0x000000000003b750      0x210 d:/devkitpro/devkita64/bin/../lib/gcc/aarch64-none-elf/10.1.0/../../../../aarch64-none-elf/lib/pic\libg.a(lib_a-locale.o)
                                        0x220 (size before relaxing)
 .eh_frame      0x000000000003b960      0x108 d:/devkitpro/devkita64/bin/../lib/gcc/aarch64-none-elf/10.1.0/../../../../aarch64-none-elf/lib/pic\libg.a(lib_a-mbtowc_r.o)
                                        0x118 (size before relaxing)
 .eh_frame      0x000000000003ba68      0x308 d:/devkitpro/devkita64/bin/../lib/gcc/aarch64-none-elf/10.1.0/../../../../aarch64-none-elf/lib/pic\libg.a(lib_a-mprec.o)
                                        0x320 (size before relaxing)
 .eh_frame      0x000000000003bd70       0x18 d:/devkitpro/devkita64/bin/../lib/gcc/aarch64-none-elf/10.1.0/../../../../aarch64-none-elf/lib/pic\libg.a(lib_a-s_frexp.o)
                                         0x28 (size before relaxing)
 .eh_frame      0x000000000003bd88       0x18 d:/devkitpro/devkita64/bin/../lib/gcc/aarch64-none-elf/10.1.0/../../../../aarch64-none-elf/lib/pic\libg.a(lib_a-strcasecmp.o)
                                         0x28 (size before relaxing)
 .eh_frame      0x000000000003bda0       0x28 d:/devkitpro/devkita64/bin/../lib/gcc/aarch64-none-elf/10.1.0/../../../../aarch64-none-elf/lib/pic\libg.a(lib_a-strcat.o)
                                         0x38 (size before relaxing)
 .eh_frame      0x000000000003bdc8       0x18 d:/devkitpro/devkita64/bin/../lib/gcc/aarch64-none-elf/10.1.0/../../../../aarch64-none-elf/lib/pic\libg.a(lib_a-strlcpy.o)
                                         0x28 (size before relaxing)
 .eh_frame      0x000000000003bde0       0x18 d:/devkitpro/devkita64/bin/../lib/gcc/aarch64-none-elf/10.1.0/../../../../aarch64-none-elf/lib/pic\libg.a(lib_a-strncasecmp.o)
                                         0x28 (size before relaxing)
 .eh_frame      0x000000000003bdf8       0xb8 d:/devkitpro/devkita64/bin/../lib/gcc/aarch64-none-elf/10.1.0/../../../../aarch64-none-elf/lib/pic\libg.a(lib_a-strtol.o)
                                         0xd0 (size before relaxing)
 .eh_frame      0x000000000003beb0       0xd8 d:/devkitpro/devkita64/bin/../lib/gcc/aarch64-none-elf/10.1.0/../../../../aarch64-none-elf/lib/pic\libg.a(lib_a-svfiprintf.o)
                                         0xf0 (size before relaxing)
 .eh_frame      0x000000000003bf88      0x138 d:/devkitpro/devkita64/bin/../lib/gcc/aarch64-none-elf/10.1.0/../../../../aarch64-none-elf/lib/pic\libg.a(lib_a-wcsnrtombs.o)
                                        0x150 (size before relaxing)
 .eh_frame      0x000000000003c0c0       0x90 d:/devkitpro/devkita64/bin/../lib/gcc/aarch64-none-elf/10.1.0/../../../../aarch64-none-elf/lib/pic\libg.a(lib_a-wctomb_r.o)
                                         0xa8 (size before relaxing)
 .eh_frame      0x000000000003c150       0x40 d:/devkitpro/devkita64/bin/../lib/gcc/aarch64-none-elf/10.1.0/../../../../aarch64-none-elf/lib/pic\libg.a(lib_a-assert.o)
                                         0x50 (size before relaxing)
 .eh_frame      0x000000000003c190       0x30 d:/devkitpro/devkita64/bin/../lib/gcc/aarch64-none-elf/10.1.0/../../../../aarch64-none-elf/lib/pic\libg.a(lib_a-callocr.o)
                                         0x40 (size before relaxing)
 .eh_frame      0x000000000003c1c0       0x48 d:/devkitpro/devkita64/bin/../lib/gcc/aarch64-none-elf/10.1.0/../../../../aarch64-none-elf/lib/pic\libg.a(lib_a-fiprintf.o)
                                         0x60 (size before relaxing)
 .eh_frame      0x000000000003c208      0x120 d:/devkitpro/devkita64/bin/../lib/gcc/aarch64-none-elf/10.1.0/../../../../aarch64-none-elf/lib/pic\libg.a(lib_a-vfiprintf.o)
                                        0x130 (size before relaxing)
 .eh_frame      0x000000000003c328       0x28 d:/devkitpro/devkita64/bin/../lib/gcc/aarch64-none-elf/10.1.0/../../../../aarch64-none-elf/lib/pic\libg.a(lib_a-wsetup.o)
                                         0x40 (size before relaxing)
 .eh_frame      0x000000000003c350       0x18 d:/devkitpro/devkita64/bin/../lib/gcc/aarch64-none-elf/10.1.0/../../../../aarch64-none-elf/lib/pic\libg.a(lib_a-abort.o)
                                         0x30 (size before relaxing)
 .eh_frame      0x000000000003c368       0xa0 d:/devkitpro/devkita64/bin/../lib/gcc/aarch64-none-elf/10.1.0/../../../../aarch64-none-elf/lib/pic\libg.a(lib_a-fflush.o)
                                         0xb8 (size before relaxing)
 .eh_frame      0x000000000003c408      0x188 d:/devkitpro/devkita64/bin/../lib/gcc/aarch64-none-elf/10.1.0/../../../../aarch64-none-elf/lib/pic\libg.a(lib_a-findfp.o)
                                        0x198 (size before relaxing)
 .eh_frame      0x000000000003c590       0xc0 d:/devkitpro/devkita64/bin/../lib/gcc/aarch64-none-elf/10.1.0/../../../../aarch64-none-elf/lib/pic\libg.a(lib_a-fvwrite.o)
                                         0xd0 (size before relaxing)
 .eh_frame      0x000000000003c650       0x68 d:/devkitpro/devkita64/bin/../lib/gcc/aarch64-none-elf/10.1.0/../../../../aarch64-none-elf/lib/pic\libg.a(lib_a-fwalk.o)
                                         0x78 (size before relaxing)
 .eh_frame      0x000000000003c6b8       0x80 d:/devkitpro/devkita64/bin/../lib/gcc/aarch64-none-elf/10.1.0/../../../../aarch64-none-elf/lib/pic\libg.a(lib_a-makebuf.o)
                                         0x98 (size before relaxing)
 .eh_frame      0x000000000003c738      0x170 d:/devkitpro/devkita64/bin/../lib/gcc/aarch64-none-elf/10.1.0/../../../../aarch64-none-elf/lib/pic\libg.a(lib_a-signal.o)
                                        0x188 (size before relaxing)
 .eh_frame      0x000000000003c8a8       0xb0 d:/devkitpro/devkita64/bin/../lib/gcc/aarch64-none-elf/10.1.0/../../../../aarch64-none-elf/lib/pic\libg.a(lib_a-stdio.o)
                                         0xc8 (size before relaxing)
 .eh_frame      0x000000000003c958       0x80 d:/devkitpro/devkita64/bin/../lib/gcc/aarch64-none-elf/10.1.0/../../../../aarch64-none-elf/lib/pic\libg.a(lib_a-fclose.o)
                                         0x90 (size before relaxing)
 .eh_frame      0x000000000003c9d8      0x120 d:/devkitpro/devkita64/bin/../lib/gcc/aarch64-none-elf/10.1.0/../../../../aarch64-none-elf/lib/pic\libsysbase.a(iosupport.o)
                                        0x130 (size before relaxing)
 .eh_frame      0x000000000003caf8       0x48 d:/devkitpro/devkita64/bin/../lib/gcc/aarch64-none-elf/10.1.0/../../../../aarch64-none-elf/lib/pic\libsysbase.a(close.o)
                                         0x58 (size before relaxing)
 .eh_frame      0x000000000003cb40       0x30 d:/devkitpro/devkita64/bin/../lib/gcc/aarch64-none-elf/10.1.0/../../../../aarch64-none-elf/lib/pic\libsysbase.a(fstat.o)
                                         0x48 (size before relaxing)
 .eh_frame      0x000000000003cb70       0x18 d:/devkitpro/devkita64/bin/../lib/gcc/aarch64-none-elf/10.1.0/../../../../aarch64-none-elf/lib/pic\libsysbase.a(getpid.o)
                                         0x28 (size before relaxing)
 .eh_frame      0x000000000003cb88       0x18 d:/devkitpro/devkita64/bin/../lib/gcc/aarch64-none-elf/10.1.0/../../../../aarch64-none-elf/lib/pic\libsysbase.a(isatty.o)
                                         0x28 (size before relaxing)
 .eh_frame      0x000000000003cba0       0x18 d:/devkitpro/devkita64/bin/../lib/gcc/aarch64-none-elf/10.1.0/../../../../aarch64-none-elf/lib/pic\libsysbase.a(kill.o)
                                         0x28 (size before relaxing)
 .eh_frame      0x000000000003cbb8       0x38 d:/devkitpro/devkita64/bin/../lib/gcc/aarch64-none-elf/10.1.0/../../../../aarch64-none-elf/lib/pic\libsysbase.a(lseek.o)
                                         0x48 (size before relaxing)
 .eh_frame      0x000000000003cbf0       0x38 d:/devkitpro/devkita64/bin/../lib/gcc/aarch64-none-elf/10.1.0/../../../../aarch64-none-elf/lib/pic\libsysbase.a(read.o)
                                         0x50 (size before relaxing)
 .eh_frame      0x000000000003cc28       0x18 d:/devkitpro/devkita64/bin/../lib/gcc/aarch64-none-elf/10.1.0/../../../../aarch64-none-elf/lib/pic\libsysbase.a(sbrk.o)
                                         0x28 (size before relaxing)
 .eh_frame      0x000000000003cc40       0x38 d:/devkitpro/devkita64/bin/../lib/gcc/aarch64-none-elf/10.1.0/../../../../aarch64-none-elf/lib/pic\libsysbase.a(write.o)
                                         0x50 (size before relaxing)
 .eh_frame      0x000000000003cc78       0x20 d:/devkitpro/devkita64/bin/../lib/gcc/aarch64-none-elf/10.1.0/../../../../aarch64-none-elf/lib/pic\libsysbase.a(_exit.o)
                                         0x38 (size before relaxing)
 .eh_frame      0x000000000003cc98      0x108 d:/devkitpro/devkita64/bin/../lib/gcc/aarch64-none-elf/10.1.0/../../../../aarch64-none-elf/lib/pic\libsysbase.a(chdir.o)
                                        0x120 (size before relaxing)
 .eh_frame      0x000000000003cda0      0x168 d:/devkitpro/devkita64/bin/../lib/gcc/aarch64-none-elf/10.1.0/../../../../aarch64-none-elf/lib/pic\libsysbase.a(locks.o)
                                        0x178 (size before relaxing)
 .eh_frame      0x000000000003cf08       0xf8 d:/devkitpro/devkita64/bin/../lib/gcc/aarch64-none-elf/10.1.0/../../../../aarch64-none-elf/lib/pic\libsysbase.a(handle_manager.o)
                                        0x108 (size before relaxing)
 .eh_frame      0x000000000003d000       0x18 d:/devkitpro/devkita64/bin/../lib/gcc/aarch64-none-elf/10.1.0/../../../../aarch64-none-elf/lib/pic\libsysbase.a(getreent.o)
                                         0x28 (size before relaxing)
 .eh_frame      0x000000000003d018       0x60 d:/devkitpro/devkita64/bin/../lib/gcc/aarch64-none-elf/10.1.0/../../../../aarch64-none-elf/lib/pic\libsysbase.a(clocks.o)
                                         0x78 (size before relaxing)
 .eh_frame      0x000000000003d078       0x30 d:/devkitpro/devkita64/bin/../lib/gcc/aarch64-none-elf/10.1.0/pic\libgcc.a(trunctfdf2.o)
                                         0x48 (size before relaxing)
 .eh_frame      0x000000000003d0a8       0x14 d:/devkitpro/devkita64/bin/../lib/gcc/aarch64-none-elf/10.1.0/pic\libgcc.a(sfp-exceptions.o)
                                         0x28 (size before relaxing)
 .eh_frame      0x000000000003d0bc        0x4 d:/devkitpro/devkita64/bin/../lib/gcc/aarch64-none-elf/10.1.0/pic/crtend.o
 *(.eh_frame.*)

.gcc_except_table
 *(.gcc_except_table .gcc_except_table.*)

.gnu_extab
 *(.gnu_extab*)

.dynamic        0x000000000003d0c0      0x1a0
 *(.dynamic)
 .dynamic       0x000000000003d0c0      0x1a0 d:/devkitpro/devkita64/bin/../lib/gcc/aarch64-none-elf/10.1.0/pic/crti.o
                0x000000000003d0c0                _DYNAMIC

.dynsym         0x000000000003d260     0x50e8
 *(.dynsym)
 .dynsym        0x000000000003d260     0x50e8 d:/devkitpro/devkita64/bin/../lib/gcc/aarch64-none-elf/10.1.0/pic/crti.o

.dynstr         0x0000000000042348     0x4443
 *(.dynstr)
 .dynstr        0x0000000000042348     0x4443 d:/devkitpro/devkita64/bin/../lib/gcc/aarch64-none-elf/10.1.0/pic/crti.o

.rela.dyn       0x0000000000046790     0x32b8
 *(.rela.*)
 .rela.got      0x0000000000046790      0xe40 d:/devkitpro/devkita64/bin/../lib/gcc/aarch64-none-elf/10.1.0/pic/crti.o
 .rela.plt      0x0000000000049988       0xc0 d:/devkitpro/devkita64/bin/../lib/gcc/aarch64-none-elf/10.1.0/pic/crti.o
 .rela.bss      0x0000000000047690        0x0 d:/devkitpro/devkita64/bin/../lib/gcc/aarch64-none-elf/10.1.0/pic/crti.o
 .rela.data.rel.ro
                0x0000000000047690        0x0 d:/devkitpro/devkita64/bin/../lib/gcc/aarch64-none-elf/10.1.0/pic/crti.o
 .rela.init_array
                0x00000000000475d0       0x30 d:/devkitpro/devkita64/bin/../lib/gcc/aarch64-none-elf/10.1.0/pic/crti.o
 .rela.fini_array
                0x0000000000047600       0x18 d:/devkitpro/devkita64/bin/../lib/gcc/aarch64-none-elf/10.1.0/pic/crti.o
 .rela.ifunc    0x00000000000476d8        0x0 d:/devkitpro/devkita64/bin/../lib/gcc/aarch64-none-elf/10.1.0/pic/crti.o
 .rela.data.rel.local
                0x0000000000047618      0x3c0 d:/devkitpro/devkita64/bin/../lib/gcc/aarch64-none-elf/10.1.0/pic/crti.o
 .rela.data.rel.ro.local.fsdev_devoptab
                0x00000000000479d8      0x210 d:/devkitpro/devkita64/bin/../lib/gcc/aarch64-none-elf/10.1.0/pic/crti.o
 .rela.data.rel.local._impure_ptr
                0x0000000000047be8       0x18 d:/devkitpro/devkita64/bin/../lib/gcc/aarch64-none-elf/10.1.0/pic/crti.o
 .rela.data.rel.local.impure_data
                0x0000000000047c00       0x48 d:/devkitpro/devkita64/bin/../lib/gcc/aarch64-none-elf/10.1.0/pic/crti.o
 .rela.data.rel.ro.local._global_impure_ptr
                0x0000000000047c48       0x18 d:/devkitpro/devkita64/bin/../lib/gcc/aarch64-none-elf/10.1.0/pic/crti.o
 .rela.data.rel.__malloc_av_
                0x0000000000047c60     0x1800 d:/devkitpro/devkita64/bin/../lib/gcc/aarch64-none-elf/10.1.0/pic/crti.o
 .rela.data.rel.local.environ
                0x0000000000049460       0x18 d:/devkitpro/devkita64/bin/../lib/gcc/aarch64-none-elf/10.1.0/pic/crti.o
 .rela.data.rel.__global_locale
                0x0000000000049478      0x138 d:/devkitpro/devkita64/bin/../lib/gcc/aarch64-none-elf/10.1.0/pic/crti.o
 .rela.data.rel.ro.__C_locale
                0x00000000000495b0      0x138 d:/devkitpro/devkita64/bin/../lib/gcc/aarch64-none-elf/10.1.0/pic/crti.o
 .rela.data.rel.ro.local.categories
                0x00000000000496e8       0xa8 d:/devkitpro/devkita64/bin/../lib/gcc/aarch64-none-elf/10.1.0/pic/crti.o
 .rela.data.rel.devoptab_list
                0x0000000000049790      0x180 d:/devkitpro/devkita64/bin/../lib/gcc/aarch64-none-elf/10.1.0/pic/crti.o
 .rela.data.rel.ro.local.dotab_stdnull
                0x0000000000049910       0x30 d:/devkitpro/devkita64/bin/../lib/gcc/aarch64-none-elf/10.1.0/pic/crti.o
 .rela.data.rel.local.handles
                0x0000000000049940       0x48 d:/devkitpro/devkita64/bin/../lib/gcc/aarch64-none-elf/10.1.0/pic/crti.o

.interp         0x0000000000049a48        0xd
 *(.interp)
 .interp        0x0000000000049a48        0xd d:/devkitpro/devkita64/bin/../lib/gcc/aarch64-none-elf/10.1.0/pic/crti.o

.hash           0x0000000000049a58     0x15a8
 *(.hash)
 .hash          0x0000000000049a58     0x15a8 d:/devkitpro/devkita64/bin/../lib/gcc/aarch64-none-elf/10.1.0/pic/crti.o

.gnu.hash
 *(.gnu.hash)

.gnu.version    0x000000000004b000        0x0
 *(.gnu.version)
 .gnu.version   0x000000000004b000        0x0 d:/devkitpro/devkita64/bin/../lib/gcc/aarch64-none-elf/10.1.0/pic/crti.o

.gnu.version_d  0x000000000004b000        0x0
 *(.gnu.version_d)
 .gnu.version_d
                0x000000000004b000        0x0 d:/devkitpro/devkita64/bin/../lib/gcc/aarch64-none-elf/10.1.0/pic/crti.o

.gnu.version_r  0x000000000004b000        0x0
 *(.gnu.version_r)
 .gnu.version_r
                0x000000000004b000        0x0 d:/devkitpro/devkita64/bin/../lib/gcc/aarch64-none-elf/10.1.0/pic/crti.o

.note.gnu.build-id
                0x000000000004b000       0x24
 *(.note.gnu.build-id)
 .note.gnu.build-id
                0x000000000004b000       0x24 d:/devkitpro/devkita64/bin/../lib/gcc/aarch64-none-elf/10.1.0/pic/crti.o
                0x000000000004c000                . = ALIGN (0x1000)

.eh_frame
 *(.eh_frame)
 *(.eh_frame.*)

.gcc_except_table
 *(.gcc_except_table .gcc_except_table.*)

.gnu_extab
 *(.gnu_extab*)

.exception_ranges
 *(.exception_ranges .exception_ranges*)

.tdata          0x000000000004c000        0x0
                0x000000000004c000                __tdata_lma = .
 *(.tdata .tdata.* .gnu.linkonce.td.*)
                0x000000000004c000                . = ALIGN (0x8)
                0x000000000004c000                __tdata_lma_end = .

.tbss           0x000000000004c000     0x4408
 *(.tbss .tbss.* .gnu.linkonce.tb.*)
 .tbss.__fixedpath
                0x000000000004c000      0x401 D:/githubRepos/code-mod-example/code-mod-framework/lib/libnx_min/nx/lib\libnx_min.a(fs_dev.o)
 *fill*         0x000000000004c401        0x3 
 .tbss.fsdev_last_result
                0x000000000004c404        0x4 D:/githubRepos/code-mod-example/code-mod-framework/lib/libnx_min/nx/lib\libnx_min.a(fs_dev.o)
 .tbss.tmp_buffer.7389
                0x000000000004c408     0x2000 D:/githubRepos/code-mod-example/code-mod-framework/lib/libnx_min/nx/lib\libnx_min.a(fs_dev.o)
 .tbss.tmp_buffer.7413
                0x000000000004e408     0x2000 D:/githubRepos/code-mod-example/code-mod-framework/lib/libnx_min/nx/lib\libnx_min.a(fs_dev.o)
 *(.tcommon)
                0x0000000000050408                . = ALIGN (0x8)

.preinit_array  0x000000000004c000        0x0
                0x000000000004c000                PROVIDE (__preinit_array_start = .)
 *(.preinit_array)
                0x000000000004c000                PROVIDE (__preinit_array_end = .)

.init_array     0x000000000004c000       0x10
                0x000000000004c000                PROVIDE (__init_array_start = .)
 *(SORT_BY_NAME(.init_array.*))
 *(.init_array)
 .init_array    0x000000000004c000        0x8 d:/devkitpro/devkita64/bin/../lib/gcc/aarch64-none-elf/10.1.0/pic/crtbegin.o
 .init_array    0x000000000004c008        0x8 main.o
                0x000000000004c010                PROVIDE (__init_array_end = .)

.fini_array     0x000000000004c010        0x8
                0x000000000004c010                PROVIDE (__fini_array_start = .)
 *(.fini_array)
 .fini_array    0x000000000004c010        0x8 d:/devkitpro/devkita64/bin/../lib/gcc/aarch64-none-elf/10.1.0/pic/crtbegin.o
 *(SORT_BY_NAME(.fini_array.*))
                0x000000000004c018                PROVIDE (__fini_array_end = .)

.ctors
 *crtbegin.o(.ctors)
 *(EXCLUDE_FILE(*crtend.o) .ctors)
 *(SORT_BY_NAME(.ctors.*))
 *(.ctors)

.dtors
 *crtbegin.o(.dtors)
 *(EXCLUDE_FILE(*crtend.o) .dtors)
 *(SORT_BY_NAME(.dtors.*))
 *(.dtors)
                0x000000000004c018                __got_start__ = .

.got            0x000000000004c018      0x4c8
 *(.got)
 .got           0x000000000004c018      0x4c8 d:/devkitpro/devkita64/bin/../lib/gcc/aarch64-none-elf/10.1.0/pic/crti.o
                0x000000000004c018                _GLOBAL_OFFSET_TABLE_
 *(.igot)

.got.plt        0x000000000004c4e0       0x58
 *(.got.plt)
 .got.plt       0x000000000004c4e0       0x58 d:/devkitpro/devkita64/bin/../lib/gcc/aarch64-none-elf/10.1.0/pic/crti.o
 *(.igot.plt)
                0x000000000004c538                __got_end__ = .

.data           0x000000000004c538     0x3f28
 *(.data .data.* .gnu.linkonce.d.*)
 .data.rel.ro   0x000000000004c538        0x0 d:/devkitpro/devkita64/bin/../lib/gcc/aarch64-none-elf/10.1.0/pic/crti.o
 .data          0x000000000004c538        0x8 main.o
                0x000000000004c538                ground_fix
                0x000000000004c53c                __nx_applet_type
 .data.rel.local
                0x000000000004c540      0x140 raygun_printer.o
                0x000000000004c540                alphabet
 .data.__nx_exception_stack_size
                0x000000000004c680        0x8 D:/githubRepos/code-mod-example/code-mod-framework/lib/libnx_min/nx/lib\libnx_min.a(init.o)
                0x000000000004c680                __nx_exception_stack_size
 .data.__cwd    0x000000000004c688      0x401 D:/githubRepos/code-mod-example/code-mod-framework/lib/libnx_min/nx/lib\libnx_min.a(fs_dev.o)
 *fill*         0x000000000004ca89        0x3 
 .data.fsdev_fsdevice_cwd
                0x000000000004ca8c        0x4 D:/githubRepos/code-mod-example/code-mod-framework/lib/libnx_min/nx/lib\libnx_min.a(fs_dev.o)
 .data.fsdev_fsdevice_default
                0x000000000004ca90        0x4 D:/githubRepos/code-mod-example/code-mod-framework/lib/libnx_min/nx/lib\libnx_min.a(fs_dev.o)
 *fill*         0x000000000004ca94        0x4 
 .data.rel.ro.local.fsdev_devoptab
                0x000000000004ca98       0xe0 D:/githubRepos/code-mod-example/code-mod-framework/lib/libnx_min/nx/lib\libnx_min.a(fs_dev.o)
 .data.__nx_applet_auto_notifyrunning
                0x000000000004cb78        0x1 D:/githubRepos/code-mod-example/code-mod-framework/lib/libnx_min/nx/lib\libnx_min.a(applet.o)
                0x000000000004cb78                __nx_applet_auto_notifyrunning
 *fill*         0x000000000004cb79        0x7 
 .data.rel.local._impure_ptr
                0x000000000004cb80        0x8 d:/devkitpro/devkita64/bin/../lib/gcc/aarch64-none-elf/10.1.0/../../../../aarch64-none-elf/lib/pic\libg.a(lib_a-impure.o)
                0x000000000004cb80                _impure_ptr
 .data.rel.local.impure_data
                0x000000000004cb88      0x768 d:/devkitpro/devkita64/bin/../lib/gcc/aarch64-none-elf/10.1.0/../../../../aarch64-none-elf/lib/pic\libg.a(lib_a-impure.o)
 .data.rel.ro.local._global_impure_ptr
                0x000000000004d2f0        0x8 d:/devkitpro/devkita64/bin/../lib/gcc/aarch64-none-elf/10.1.0/../../../../aarch64-none-elf/lib/pic\libg.a(lib_a-impure.o)
                0x000000000004d2f0                _global_impure_ptr
 .data.__malloc_sbrk_base
                0x000000000004d2f8        0x8 d:/devkitpro/devkita64/bin/../lib/gcc/aarch64-none-elf/10.1.0/../../../../aarch64-none-elf/lib/pic\libg.a(lib_a-mallocr.o)
                0x000000000004d2f8                __malloc_sbrk_base
 .data.__malloc_trim_threshold
                0x000000000004d300        0x8 d:/devkitpro/devkita64/bin/../lib/gcc/aarch64-none-elf/10.1.0/../../../../aarch64-none-elf/lib/pic\libg.a(lib_a-mallocr.o)
                0x000000000004d300                __malloc_trim_threshold
 .data.rel.__malloc_av_
                0x000000000004d308      0x810 d:/devkitpro/devkita64/bin/../lib/gcc/aarch64-none-elf/10.1.0/../../../../aarch64-none-elf/lib/pic\libg.a(lib_a-mallocr.o)
                0x000000000004d308                __malloc_av_
 .data.rel.local.environ
                0x000000000004db18        0x8 d:/devkitpro/devkita64/bin/../lib/gcc/aarch64-none-elf/10.1.0/../../../../aarch64-none-elf/lib/pic\libg.a(lib_a-environ.o)
                0x000000000004db18                environ
 .data.__default_locale
                0x000000000004db20       0x20 d:/devkitpro/devkita64/bin/../lib/gcc/aarch64-none-elf/10.1.0/../../../../aarch64-none-elf/lib/pic\libg.a(lib_a-locale.o)
                0x000000000004db20                __default_locale
 .data.rel.__global_locale
                0x000000000004db40      0x1a8 d:/devkitpro/devkita64/bin/../lib/gcc/aarch64-none-elf/10.1.0/../../../../aarch64-none-elf/lib/pic\libg.a(lib_a-locale.o)
                0x000000000004db40                __global_locale
 .data.rel.ro.__C_locale
                0x000000000004dce8      0x1a8 d:/devkitpro/devkita64/bin/../lib/gcc/aarch64-none-elf/10.1.0/../../../../aarch64-none-elf/lib/pic\libg.a(lib_a-locale.o)
                0x000000000004dce8                __C_locale
 .data.rel.ro.local.categories
                0x000000000004de90       0x38 d:/devkitpro/devkita64/bin/../lib/gcc/aarch64-none-elf/10.1.0/../../../../aarch64-none-elf/lib/pic\libg.a(lib_a-locale.o)
 .data.defaultDevice
                0x000000000004dec8        0x4 d:/devkitpro/devkita64/bin/../lib/gcc/aarch64-none-elf/10.1.0/../../../../aarch64-none-elf/lib/pic\libsysbase.a(iosupport.o)
 *fill*         0x000000000004decc        0x4 
 .data.rel.devoptab_list
                0x000000000004ded0       0x80 d:/devkitpro/devkita64/bin/../lib/gcc/aarch64-none-elf/10.1.0/../../../../aarch64-none-elf/lib/pic\libsysbase.a(iosupport.o)
                0x000000000004ded0                devoptab_list
 .data.rel.ro.local.dotab_stdnull
                0x000000000004df50       0xe0 d:/devkitpro/devkita64/bin/../lib/gcc/aarch64-none-elf/10.1.0/../../../../aarch64-none-elf/lib/pic\libsysbase.a(iosupport.o)
                0x000000000004df50                dotab_stdnull
 .data._current_working_directory
                0x000000000004e030      0x400 d:/devkitpro/devkita64/bin/../lib/gcc/aarch64-none-elf/10.1.0/../../../../aarch64-none-elf/lib/pic\libsysbase.a(chdir.o)
 .data.__stderr_handle
                0x000000000004e430       0x10 d:/devkitpro/devkita64/bin/../lib/gcc/aarch64-none-elf/10.1.0/../../../../aarch64-none-elf/lib/pic\libsysbase.a(handle_manager.o)
 .data.__stdin_handle
                0x000000000004e440       0x10 d:/devkitpro/devkita64/bin/../lib/gcc/aarch64-none-elf/10.1.0/../../../../aarch64-none-elf/lib/pic\libsysbase.a(handle_manager.o)
 .data.__stdout_handle
                0x000000000004e450       0x10 d:/devkitpro/devkita64/bin/../lib/gcc/aarch64-none-elf/10.1.0/../../../../aarch64-none-elf/lib/pic\libsysbase.a(handle_manager.o)
 .data.rel.local.handles
                0x000000000004e460     0x2000 d:/devkitpro/devkita64/bin/../lib/gcc/aarch64-none-elf/10.1.0/../../../../aarch64-none-elf/lib/pic\libsysbase.a(handle_manager.o)
                0x0000000000050460                __bss_start__ = .

.tm_clone_table
                0x0000000000050460        0x0
 .tm_clone_table
                0x0000000000050460        0x0 d:/devkitpro/devkita64/bin/../lib/gcc/aarch64-none-elf/10.1.0/pic/crtbegin.o
 .tm_clone_table
                0x0000000000050460        0x0 d:/devkitpro/devkita64/bin/../lib/gcc/aarch64-none-elf/10.1.0/pic/crtend.o

.bss            0x0000000000050460    0x159e0
 *(.dynbss)
 .dynbss        0x0000000000050460        0x0 d:/devkitpro/devkita64/bin/../lib/gcc/aarch64-none-elf/10.1.0/pic/crti.o
 *(.bss .bss.* .gnu.linkonce.b.*)
 .bss.completed.1
                0x0000000000050460        0x1 d:/devkitpro/devkita64/bin/../lib/gcc/aarch64-none-elf/10.1.0/pic/crtbegin.o
 *fill*         0x0000000000050461        0x7 
 .bss.object.0  0x0000000000050468       0x30 d:/devkitpro/devkita64/bin/../lib/gcc/aarch64-none-elf/10.1.0/pic/crtbegin.o
 .bss           0x0000000000050498     0x81f0 main.o
                0x0000000000050498                ledge_pos
                0x00000000000504f8                prev_is_enable_transition_term
                0x0000000000050500                init_settings_prev
                0x0000000000050508                GLOBAL_FRAME_COUNT
                0x000000000005050c                currframe
                0x0000000000050510                lagcanceled
                0x0000000000050518                get_param_float_prev
                0x0000000000050520                fighter_module_accessors
                0x0000000000050560                fighter_agents
                0x00000000000505a0                acmd_objs
                0x0000000000050660                prev_clear_lua_stack
                0x0000000000050668                prev_get_command_flag_cat
                0x0000000000050670                orig_ctx
                0x0000000000050678                orig_main_thread
                0x0000000000050680                orig_saved_lr
 .bss           0x0000000000058688        0x8 saltysd_helper.o
                0x0000000000058688                ANCHOR_ABS
 .bss.g_argv_empty
                0x0000000000058690        0x8 D:/githubRepos/code-mod-example/code-mod-framework/lib/libnx_min/nx/lib\libnx_min.a(argv.o)
 .bss.g_hasRandomSeed
                0x0000000000058698        0x1 D:/githubRepos/code-mod-example/code-mod-framework/lib/libnx_min/nx/lib\libnx_min.a(env.o)
 .bss.g_isNso   0x0000000000058699        0x1 D:/githubRepos/code-mod-example/code-mod-framework/lib/libnx_min/nx/lib\libnx_min.a(env.o)
 *fill*         0x000000000005869a        0x2 
 .bss.g_lastLoadResult
                0x000000000005869c        0x4 D:/githubRepos/code-mod-example/code-mod-framework/lib/libnx_min/nx/lib\libnx_min.a(env.o)
 .bss.g_loaderRetAddr
                0x00000000000586a0        0x8 D:/githubRepos/code-mod-example/code-mod-framework/lib/libnx_min/nx/lib\libnx_min.a(env.o)
 .bss.g_mainThreadHandle
                0x00000000000586a8        0x4 D:/githubRepos/code-mod-example/code-mod-framework/lib/libnx_min/nx/lib\libnx_min.a(env.o)
 *fill*         0x00000000000586ac        0x4 
 .bss.g_nextLoadArgv
                0x00000000000586b0        0x8 D:/githubRepos/code-mod-example/code-mod-framework/lib/libnx_min/nx/lib\libnx_min.a(env.o)
 .bss.g_nextLoadPath
                0x00000000000586b8        0x8 D:/githubRepos/code-mod-example/code-mod-framework/lib/libnx_min/nx/lib\libnx_min.a(env.o)
 .bss.g_overrideArgv
                0x00000000000586c0        0x8 D:/githubRepos/code-mod-example/code-mod-framework/lib/libnx_min/nx/lib\libnx_min.a(env.o)
 .bss.g_overrideHeapAddr
                0x00000000000586c8        0x8 D:/githubRepos/code-mod-example/code-mod-framework/lib/libnx_min/nx/lib\libnx_min.a(env.o)
 .bss.g_overrideHeapSize
                0x00000000000586d0        0x8 D:/githubRepos/code-mod-example/code-mod-framework/lib/libnx_min/nx/lib\libnx_min.a(env.o)
 .bss.g_processHandle
                0x00000000000586d8        0x4 D:/githubRepos/code-mod-example/code-mod-framework/lib/libnx_min/nx/lib\libnx_min.a(env.o)
 *fill*         0x00000000000586dc        0x4 
 .bss.g_randomSeed
                0x00000000000586e0       0x10 D:/githubRepos/code-mod-example/code-mod-framework/lib/libnx_min/nx/lib\libnx_min.a(env.o)
 .bss.g_syscallHints
                0x00000000000586f0       0x10 D:/githubRepos/code-mod-example/code-mod-framework/lib/libnx_min/nx/lib\libnx_min.a(env.o)
 .bss.__nx_exception_ignoredebug
                0x0000000000058700        0x4 D:/githubRepos/code-mod-example/code-mod-framework/lib/libnx_min/nx/lib\libnx_min.a(init.o)
                0x0000000000058700                __nx_exception_ignoredebug
 *fill*         0x0000000000058704        0xc 
 .bss.__nx_exception_stack
                0x0000000000058710      0x400 D:/githubRepos/code-mod-example/code-mod-framework/lib/libnx_min/nx/lib\libnx_min.a(init.o)
                0x0000000000058710                __nx_exception_stack
 .bss.__nx_heap_size
                0x0000000000058b10        0x8 D:/githubRepos/code-mod-example/code-mod-framework/lib/libnx_min/nx/lib\libnx_min.a(init.o)
                0x0000000000058b10                __nx_heap_size
 .bss.g_hosVersion
                0x0000000000058b18        0x4 D:/githubRepos/code-mod-example/code-mod-framework/lib/libnx_min/nx/lib\libnx_min.a(hosversion.o)
 *fill*         0x0000000000058b1c        0x4 
 .bss.fsdev_fsdevices
                0x0000000000058b20     0x2300 D:/githubRepos/code-mod-example/code-mod-framework/lib/libnx_min/nx/lib\libnx_min.a(fs_dev.o)
 .bss.fsdev_initialised
                0x000000000005ae20        0x1 D:/githubRepos/code-mod-example/code-mod-framework/lib/libnx_min/nx/lib\libnx_min.a(fs_dev.o)
 *fill*         0x000000000005ae21        0x7 
 .bss.g_AddressSpace
                0x000000000005ae28       0x10 D:/githubRepos/code-mod-example/code-mod-framework/lib/libnx_min/nx/lib\libnx_min.a(virtmem.o)
 .bss.g_CurrentAddr
                0x000000000005ae38        0x8 D:/githubRepos/code-mod-example/code-mod-framework/lib/libnx_min/nx/lib\libnx_min.a(virtmem.o)
 .bss.g_CurrentMapAddr
                0x000000000005ae40        0x8 D:/githubRepos/code-mod-example/code-mod-framework/lib/libnx_min/nx/lib\libnx_min.a(virtmem.o)
 .bss.g_Region  0x000000000005ae48       0x30 D:/githubRepos/code-mod-example/code-mod-framework/lib/libnx_min/nx/lib\libnx_min.a(virtmem.o)
 .bss.g_VirtMemMutex
                0x000000000005ae78        0x4 D:/githubRepos/code-mod-example/code-mod-framework/lib/libnx_min/nx/lib\libnx_min.a(virtmem.o)
 *fill*         0x000000000005ae7c        0x4 
 .bss.g_fsSrv   0x000000000005ae80        0xc D:/githubRepos/code-mod-example/code-mod-framework/lib/libnx_min/nx/lib\libnx_min.a(fs.o)
 *fill*         0x000000000005ae8c        0x4 
 .bss.g_refCnt  0x000000000005ae90        0x8 D:/githubRepos/code-mod-example/code-mod-framework/lib/libnx_min/nx/lib\libnx_min.a(fs.o)
 .bss.g_refCnt  0x000000000005ae98        0x8 D:/githubRepos/code-mod-example/code-mod-framework/lib/libnx_min/nx/lib\libnx_min.a(set.o)
 .bss.g_refCntSys
                0x000000000005aea0        0x8 D:/githubRepos/code-mod-example/code-mod-framework/lib/libnx_min/nx/lib\libnx_min.a(set.o)
 .bss.g_setLanguageCodes
                0x000000000005aea8      0x200 D:/githubRepos/code-mod-example/code-mod-framework/lib/libnx_min/nx/lib\libnx_min.a(set.o)
 .bss.g_setLanguageCodesInitialized
                0x000000000005b0a8        0x1 D:/githubRepos/code-mod-example/code-mod-framework/lib/libnx_min/nx/lib\libnx_min.a(set.o)
 *fill*         0x000000000005b0a9        0x3 
 .bss.g_setLanguageCodesTotal
                0x000000000005b0ac        0x4 D:/githubRepos/code-mod-example/code-mod-framework/lib/libnx_min/nx/lib\libnx_min.a(set.o)
 .bss.g_setSrv  0x000000000005b0b0        0xc D:/githubRepos/code-mod-example/code-mod-framework/lib/libnx_min/nx/lib\libnx_min.a(set.o)
 *fill*         0x000000000005b0bc        0x4 
 .bss.g_setsysSrv
                0x000000000005b0c0        0xc D:/githubRepos/code-mod-example/code-mod-framework/lib/libnx_min/nx/lib\libnx_min.a(set.o)
 *fill*         0x000000000005b0cc        0x4 
 .bss.g_refCnt  0x000000000005b0d0        0x8 D:/githubRepos/code-mod-example/code-mod-framework/lib/libnx_min/nx/lib\libnx_min.a(sm.o)
 .bss.g_smOverrides
                0x000000000005b0d8      0x200 D:/githubRepos/code-mod-example/code-mod-framework/lib/libnx_min/nx/lib\libnx_min.a(sm.o)
 .bss.g_smOverridesNum
                0x000000000005b2d8        0x8 D:/githubRepos/code-mod-example/code-mod-framework/lib/libnx_min/nx/lib\libnx_min.a(sm.o)
 .bss.g_smSrv   0x000000000005b2e0        0xc D:/githubRepos/code-mod-example/code-mod-framework/lib/libnx_min/nx/lib\libnx_min.a(sm.o)
 *fill*         0x000000000005b2ec        0x4 
 .bss.g_controllerDown
                0x000000000005b2f0       0x50 D:/githubRepos/code-mod-example/code-mod-framework/lib/libnx_min/nx/lib\libnx_min.a(hid.o)
 .bss.g_controllerEntries
                0x000000000005b340      0x1e0 D:/githubRepos/code-mod-example/code-mod-framework/lib/libnx_min/nx/lib\libnx_min.a(hid.o)
 .bss.g_controllerHeaders
                0x000000000005b520      0x190 D:/githubRepos/code-mod-example/code-mod-framework/lib/libnx_min/nx/lib\libnx_min.a(hid.o)
 .bss.g_controllerHeld
                0x000000000005b6b0       0x50 D:/githubRepos/code-mod-example/code-mod-framework/lib/libnx_min/nx/lib\libnx_min.a(hid.o)
 .bss.g_controllerLayout
                0x000000000005b700       0x28 D:/githubRepos/code-mod-example/code-mod-framework/lib/libnx_min/nx/lib\libnx_min.a(hid.o)
 .bss.g_controllerMisc
                0x000000000005b728      0x500 D:/githubRepos/code-mod-example/code-mod-framework/lib/libnx_min/nx/lib\libnx_min.a(hid.o)
 .bss.g_controllerOld
                0x000000000005bc28       0x50 D:/githubRepos/code-mod-example/code-mod-framework/lib/libnx_min/nx/lib\libnx_min.a(hid.o)
 .bss.g_controllerP1AutoID
                0x000000000005bc78        0x4 D:/githubRepos/code-mod-example/code-mod-framework/lib/libnx_min/nx/lib\libnx_min.a(hid.o)
 *fill*         0x000000000005bc7c        0x4 
 .bss.g_controllerTimestamps
                0x000000000005bc80       0x50 D:/githubRepos/code-mod-example/code-mod-framework/lib/libnx_min/nx/lib\libnx_min.a(hid.o)
 .bss.g_controllerUp
                0x000000000005bcd0       0x50 D:/githubRepos/code-mod-example/code-mod-framework/lib/libnx_min/nx/lib\libnx_min.a(hid.o)
 .bss.g_hidIAppletResource
                0x000000000005bd20        0xc D:/githubRepos/code-mod-example/code-mod-framework/lib/libnx_min/nx/lib\libnx_min.a(hid.o)
 *fill*         0x000000000005bd2c        0x4 
 .bss.g_hidLock
                0x000000000005bd30       0x10 D:/githubRepos/code-mod-example/code-mod-framework/lib/libnx_min/nx/lib\libnx_min.a(hid.o)
 .bss.g_hidSharedmem
                0x000000000005bd40       0x20 D:/githubRepos/code-mod-example/code-mod-framework/lib/libnx_min/nx/lib\libnx_min.a(hid.o)
 .bss.g_hidSrv  0x000000000005bd60        0xc D:/githubRepos/code-mod-example/code-mod-framework/lib/libnx_min/nx/lib\libnx_min.a(hid.o)
 *fill*         0x000000000005bd6c        0x4 
 .bss.g_keyboardDown
                0x000000000005bd70       0x20 D:/githubRepos/code-mod-example/code-mod-framework/lib/libnx_min/nx/lib\libnx_min.a(hid.o)
 .bss.g_keyboardEntry
                0x000000000005bd90       0x38 D:/githubRepos/code-mod-example/code-mod-framework/lib/libnx_min/nx/lib\libnx_min.a(hid.o)
 .bss.g_keyboardHeld
                0x000000000005bdc8       0x20 D:/githubRepos/code-mod-example/code-mod-framework/lib/libnx_min/nx/lib\libnx_min.a(hid.o)
 .bss.g_keyboardModDown
                0x000000000005bde8        0x8 D:/githubRepos/code-mod-example/code-mod-framework/lib/libnx_min/nx/lib\libnx_min.a(hid.o)
 .bss.g_keyboardModHeld
                0x000000000005bdf0        0x8 D:/githubRepos/code-mod-example/code-mod-framework/lib/libnx_min/nx/lib\libnx_min.a(hid.o)
 .bss.g_keyboardModOld
                0x000000000005bdf8        0x8 D:/githubRepos/code-mod-example/code-mod-framework/lib/libnx_min/nx/lib\libnx_min.a(hid.o)
 .bss.g_keyboardModUp
                0x000000000005be00        0x8 D:/githubRepos/code-mod-example/code-mod-framework/lib/libnx_min/nx/lib\libnx_min.a(hid.o)
 .bss.g_keyboardOld
                0x000000000005be08       0x20 D:/githubRepos/code-mod-example/code-mod-framework/lib/libnx_min/nx/lib\libnx_min.a(hid.o)
 .bss.g_keyboardTimestamp
                0x000000000005be28        0x8 D:/githubRepos/code-mod-example/code-mod-framework/lib/libnx_min/nx/lib\libnx_min.a(hid.o)
 .bss.g_keyboardUp
                0x000000000005be30       0x20 D:/githubRepos/code-mod-example/code-mod-framework/lib/libnx_min/nx/lib\libnx_min.a(hid.o)
 .bss.g_mouse   0x000000000005be50      0x400 D:/githubRepos/code-mod-example/code-mod-framework/lib/libnx_min/nx/lib\libnx_min.a(hid.o)
 .bss.g_mouseDown
                0x000000000005c250        0x8 D:/githubRepos/code-mod-example/code-mod-framework/lib/libnx_min/nx/lib\libnx_min.a(hid.o)
 .bss.g_mouseEntry
                0x000000000005c258        0x8 D:/githubRepos/code-mod-example/code-mod-framework/lib/libnx_min/nx/lib\libnx_min.a(hid.o)
 .bss.g_mouseHeld
                0x000000000005c260        0x8 D:/githubRepos/code-mod-example/code-mod-framework/lib/libnx_min/nx/lib\libnx_min.a(hid.o)
 .bss.g_mouseOld
                0x000000000005c268        0x8 D:/githubRepos/code-mod-example/code-mod-framework/lib/libnx_min/nx/lib\libnx_min.a(hid.o)
 .bss.g_mouseTimestamp
                0x000000000005c270        0x8 D:/githubRepos/code-mod-example/code-mod-framework/lib/libnx_min/nx/lib\libnx_min.a(hid.o)
 .bss.g_mouseUp
                0x000000000005c278        0x8 D:/githubRepos/code-mod-example/code-mod-framework/lib/libnx_min/nx/lib\libnx_min.a(hid.o)
 .bss.g_refCnt  0x000000000005c280        0x8 D:/githubRepos/code-mod-example/code-mod-framework/lib/libnx_min/nx/lib\libnx_min.a(hid.o)
 .bss.g_sevenSixAxisSensorBuffer
                0x000000000005c288        0x8 D:/githubRepos/code-mod-example/code-mod-framework/lib/libnx_min/nx/lib\libnx_min.a(hid.o)
 .bss.g_sevenSixAxisSensorTmem0
                0x000000000005c290       0x28 D:/githubRepos/code-mod-example/code-mod-framework/lib/libnx_min/nx/lib\libnx_min.a(hid.o)
 .bss.g_sevenSixAxisSensorTmem1
                0x000000000005c2b8       0x28 D:/githubRepos/code-mod-example/code-mod-framework/lib/libnx_min/nx/lib\libnx_min.a(hid.o)
 .bss.g_sixaxisEnabled
                0x000000000005c2e0        0xa D:/githubRepos/code-mod-example/code-mod-framework/lib/libnx_min/nx/lib\libnx_min.a(hid.o)
 *fill*         0x000000000005c2ea        0x6 
 .bss.g_sixaxisLayouts
                0x000000000005c2f0     0x4650 D:/githubRepos/code-mod-example/code-mod-framework/lib/libnx_min/nx/lib\libnx_min.a(hid.o)
 .bss.g_touchEntry
                0x0000000000060940      0x298 D:/githubRepos/code-mod-example/code-mod-framework/lib/libnx_min/nx/lib\libnx_min.a(hid.o)
 .bss.g_touchTimestamp
                0x0000000000060bd8        0x8 D:/githubRepos/code-mod-example/code-mod-framework/lib/libnx_min/nx/lib\libnx_min.a(hid.o)
 .bss.g_refCnt  0x0000000000060be0        0x8 D:/githubRepos/code-mod-example/code-mod-framework/lib/libnx_min/nx/lib\libnx_min.a(time.o)
 .bss.g_timeLocalSystemClock
                0x0000000000060be8        0xc D:/githubRepos/code-mod-example/code-mod-framework/lib/libnx_min/nx/lib\libnx_min.a(time.o)
 *fill*         0x0000000000060bf4        0x4 
 .bss.g_timeNetworkSystemClock
                0x0000000000060bf8        0xc D:/githubRepos/code-mod-example/code-mod-framework/lib/libnx_min/nx/lib\libnx_min.a(time.o)
 *fill*         0x0000000000060c04        0x4 
 .bss.g_timeSrv
                0x0000000000060c08        0xc D:/githubRepos/code-mod-example/code-mod-framework/lib/libnx_min/nx/lib\libnx_min.a(time.o)
 *fill*         0x0000000000060c14        0x4 
 .bss.g_timeTimeZoneService
                0x0000000000060c18        0xc D:/githubRepos/code-mod-example/code-mod-framework/lib/libnx_min/nx/lib\libnx_min.a(time.o)
 *fill*         0x0000000000060c24        0x4 
 .bss.g_timeUserSystemClock
                0x0000000000060c28        0xc D:/githubRepos/code-mod-example/code-mod-framework/lib/libnx_min/nx/lib\libnx_min.a(time.o)
 *fill*         0x0000000000060c34        0x4 
 .bss.__nx_applet_AppletAttribute
                0x0000000000060c38       0x80 D:/githubRepos/code-mod-example/code-mod-framework/lib/libnx_min/nx/lib\libnx_min.a(applet.o)
                0x0000000000060c38                __nx_applet_AppletAttribute
 .bss.__nx_applet_PerformanceConfiguration
                0x0000000000060cb8        0x8 D:/githubRepos/code-mod-example/code-mod-framework/lib/libnx_min/nx/lib\libnx_min.a(applet.o)
                0x0000000000060cb8                __nx_applet_PerformanceConfiguration
 .bss.__nx_applet_exit_mode
                0x0000000000060cc0        0x4 D:/githubRepos/code-mod-example/code-mod-framework/lib/libnx_min/nx/lib\libnx_min.a(applet.o)
                0x0000000000060cc0                __nx_applet_exit_mode
 .bss.g_appletCpuBoostMode
                0x0000000000060cc4        0x4 D:/githubRepos/code-mod-example/code-mod-framework/lib/libnx_min/nx/lib\libnx_min.a(applet.o)
 .bss.g_appletExitProcessFlag
                0x0000000000060cc8        0x1 D:/githubRepos/code-mod-example/code-mod-framework/lib/libnx_min/nx/lib\libnx_min.a(applet.o)
 *fill*         0x0000000000060cc9        0x7 
 .bss.g_appletFirstHook
                0x0000000000060cd0       0x18 D:/githubRepos/code-mod-example/code-mod-framework/lib/libnx_min/nx/lib\libnx_min.a(applet.o)
 .bss.g_appletFocusState
                0x0000000000060ce8        0x1 D:/githubRepos/code-mod-example/code-mod-framework/lib/libnx_min/nx/lib\libnx_min.a(applet.o)
 *fill*         0x0000000000060ce9        0x7 
 .bss.g_appletIApplicationCreator
                0x0000000000060cf0        0xc D:/githubRepos/code-mod-example/code-mod-framework/lib/libnx_min/nx/lib\libnx_min.a(applet.o)
 *fill*         0x0000000000060cfc        0x4 
 .bss.g_appletIAudioController
                0x0000000000060d00        0xc D:/githubRepos/code-mod-example/code-mod-framework/lib/libnx_min/nx/lib\libnx_min.a(applet.o)
 *fill*         0x0000000000060d0c        0x4 
 .bss.g_appletICommonStateGetter
                0x0000000000060d10        0xc D:/githubRepos/code-mod-example/code-mod-framework/lib/libnx_min/nx/lib\libnx_min.a(applet.o)
 *fill*         0x0000000000060d1c        0x4 
 .bss.g_appletIDebugFunctions
                0x0000000000060d20        0xc D:/githubRepos/code-mod-example/code-mod-framework/lib/libnx_min/nx/lib\libnx_min.a(applet.o)
 *fill*         0x0000000000060d2c        0x4 
 .bss.g_appletIDisplayController
                0x0000000000060d30        0xc D:/githubRepos/code-mod-example/code-mod-framework/lib/libnx_min/nx/lib\libnx_min.a(applet.o)
 *fill*         0x0000000000060d3c        0x4 
 .bss.g_appletIFunctions
                0x0000000000060d40        0xc D:/githubRepos/code-mod-example/code-mod-framework/lib/libnx_min/nx/lib\libnx_min.a(applet.o)
 *fill*         0x0000000000060d4c        0x4 
 .bss.g_appletIGlobalStateController
                0x0000000000060d50        0xc D:/githubRepos/code-mod-example/code-mod-framework/lib/libnx_min/nx/lib\libnx_min.a(applet.o)
 *fill*         0x0000000000060d5c        0x4 
 .bss.g_appletILibraryAppletCreator
                0x0000000000060d60        0xc D:/githubRepos/code-mod-example/code-mod-framework/lib/libnx_min/nx/lib\libnx_min.a(applet.o)
 *fill*         0x0000000000060d6c        0x4 
 .bss.g_appletILibraryAppletSelfAccessor
                0x0000000000060d70        0xc D:/githubRepos/code-mod-example/code-mod-framework/lib/libnx_min/nx/lib\libnx_min.a(applet.o)
 *fill*         0x0000000000060d7c        0x4 
 .bss.g_appletIProcessWindingController
                0x0000000000060d80        0xc D:/githubRepos/code-mod-example/code-mod-framework/lib/libnx_min/nx/lib\libnx_min.a(applet.o)
 *fill*         0x0000000000060d8c        0x4 
 .bss.g_appletISelfController
                0x0000000000060d90        0xc D:/githubRepos/code-mod-example/code-mod-framework/lib/libnx_min/nx/lib\libnx_min.a(applet.o)
 *fill*         0x0000000000060d9c        0x4 
 .bss.g_appletIWindowController
                0x0000000000060da0        0xc D:/githubRepos/code-mod-example/code-mod-framework/lib/libnx_min/nx/lib\libnx_min.a(applet.o)
 *fill*         0x0000000000060dac        0x4 
 .bss.g_appletLibraryAppletLaunchableEvent
                0x0000000000060db0        0xc D:/githubRepos/code-mod-example/code-mod-framework/lib/libnx_min/nx/lib\libnx_min.a(applet.o)
 *fill*         0x0000000000060dbc        0x4 
 .bss.g_appletMessageEvent
                0x0000000000060dc0        0xc D:/githubRepos/code-mod-example/code-mod-framework/lib/libnx_min/nx/lib\libnx_min.a(applet.o)
 .bss.g_appletNotifiedRunning
                0x0000000000060dcc        0x1 D:/githubRepos/code-mod-example/code-mod-framework/lib/libnx_min/nx/lib\libnx_min.a(applet.o)
 .bss.g_appletOperationMode
                0x0000000000060dcd        0x1 D:/githubRepos/code-mod-example/code-mod-framework/lib/libnx_min/nx/lib\libnx_min.a(applet.o)
 *fill*         0x0000000000060dce        0x2 
 .bss.g_appletPerformanceMode
                0x0000000000060dd0        0x4 D:/githubRepos/code-mod-example/code-mod-framework/lib/libnx_min/nx/lib\libnx_min.a(applet.o)
 *fill*         0x0000000000060dd4        0x4 
 .bss.g_appletProxySession
                0x0000000000060dd8        0xc D:/githubRepos/code-mod-example/code-mod-framework/lib/libnx_min/nx/lib\libnx_min.a(applet.o)
 .bss.g_appletRecordingInitialized
                0x0000000000060de4        0x4 D:/githubRepos/code-mod-example/code-mod-framework/lib/libnx_min/nx/lib\libnx_min.a(applet.o)
 .bss.g_appletRecordingTmem
                0x0000000000060de8       0x28 D:/githubRepos/code-mod-example/code-mod-framework/lib/libnx_min/nx/lib\libnx_min.a(applet.o)
 .bss.g_appletResourceUserId
                0x0000000000060e10        0x8 D:/githubRepos/code-mod-example/code-mod-framework/lib/libnx_min/nx/lib\libnx_min.a(applet.o)
 .bss.g_appletSrv
                0x0000000000060e18        0xc D:/githubRepos/code-mod-example/code-mod-framework/lib/libnx_min/nx/lib\libnx_min.a(applet.o)
 .bss.g_appletThemeColorType
                0x0000000000060e24        0x4 D:/githubRepos/code-mod-example/code-mod-framework/lib/libnx_min/nx/lib\libnx_min.a(applet.o)
 .bss.g_refCnt  0x0000000000060e28        0x8 D:/githubRepos/code-mod-example/code-mod-framework/lib/libnx_min/nx/lib\libnx_min.a(applet.o)
 .bss.__bootticks
                0x0000000000060e30        0x8 D:/githubRepos/code-mod-example/code-mod-framework/lib/libnx_min/nx/lib\libnx_min.a(newlib.o)
 .bss.__boottime
                0x0000000000060e38        0x8 D:/githubRepos/code-mod-example/code-mod-framework/lib/libnx_min/nx/lib\libnx_min.a(newlib.o)
 .bss.__nx_time_type
                0x0000000000060e40        0x4 D:/githubRepos/code-mod-example/code-mod-framework/lib/libnx_min/nx/lib\libnx_min.a(newlib.o)
                0x0000000000060e40                __nx_time_type
 *fill*         0x0000000000060e44        0x4 
 .bss.g_threadList
                0x0000000000060e48        0x8 D:/githubRepos/code-mod-example/code-mod-framework/lib/libnx_min/nx/lib\libnx_min.a(thread.o)
 .bss.g_threadMutex
                0x0000000000060e50        0x4 D:/githubRepos/code-mod-example/code-mod-framework/lib/libnx_min/nx/lib\libnx_min.a(thread.o)
 *fill*         0x0000000000060e54        0x4 
 .bss.g_tlsDestructors
                0x0000000000060e58       0xd0 D:/githubRepos/code-mod-example/code-mod-framework/lib/libnx_min/nx/lib\libnx_min.a(thread.o)
 .bss.g_tlsUsageMask
                0x0000000000060f28        0x8 D:/githubRepos/code-mod-example/code-mod-framework/lib/libnx_min/nx/lib\libnx_min.a(thread.o)
 .bss.g_JitKernelPatchCached
                0x0000000000060f30        0x1 D:/githubRepos/code-mod-example/code-mod-framework/lib/libnx_min/nx/lib\libnx_min.a(detect.o)
 .bss.g_JitKernelPatchDetected
                0x0000000000060f31        0x1 D:/githubRepos/code-mod-example/code-mod-framework/lib/libnx_min/nx/lib\libnx_min.a(detect.o)
 *fill*         0x0000000000060f32        0x2 
 .bss.g_JitKernelPatchMutex
                0x0000000000060f34        0x4 D:/githubRepos/code-mod-example/code-mod-framework/lib/libnx_min/nx/lib\libnx_min.a(detect.o)
 .bss.g_Version
                0x0000000000060f38        0x4 D:/githubRepos/code-mod-example/code-mod-framework/lib/libnx_min/nx/lib\libnx_min.a(detect.o)
 .bss.g_VersionCached
                0x0000000000060f3c        0x1 D:/githubRepos/code-mod-example/code-mod-framework/lib/libnx_min/nx/lib\libnx_min.a(detect.o)
 *fill*         0x0000000000060f3d        0x3 
 .bss.g_VersionMutex
                0x0000000000060f40        0x4 D:/githubRepos/code-mod-example/code-mod-framework/lib/libnx_min/nx/lib\libnx_min.a(detect.o)
 *fill*         0x0000000000060f44        0x4 
 .bss.g_apmISession
                0x0000000000060f48        0xc D:/githubRepos/code-mod-example/code-mod-framework/lib/libnx_min/nx/lib\libnx_min.a(apm.o)
 *fill*         0x0000000000060f54        0x4 
 .bss.g_apmSrv  0x0000000000060f58        0xc D:/githubRepos/code-mod-example/code-mod-framework/lib/libnx_min/nx/lib\libnx_min.a(apm.o)
 *fill*         0x0000000000060f64        0x4 
 .bss.g_refCnt  0x0000000000060f68        0x8 D:/githubRepos/code-mod-example/code-mod-framework/lib/libnx_min/nx/lib\libnx_min.a(apm.o)
 .bss.__malloc_current_mallinfo
                0x0000000000060f70       0x28 d:/devkitpro/devkita64/bin/../lib/gcc/aarch64-none-elf/10.1.0/../../../../aarch64-none-elf/lib/pic\libg.a(lib_a-mallocr.o)
                0x0000000000060f70                __malloc_current_mallinfo
 .bss.__malloc_max_sbrked_mem
                0x0000000000060f98        0x8 d:/devkitpro/devkita64/bin/../lib/gcc/aarch64-none-elf/10.1.0/../../../../aarch64-none-elf/lib/pic\libg.a(lib_a-mallocr.o)
                0x0000000000060f98                __malloc_max_sbrked_mem
 .bss.__malloc_max_total_mem
                0x0000000000060fa0        0x8 d:/devkitpro/devkita64/bin/../lib/gcc/aarch64-none-elf/10.1.0/../../../../aarch64-none-elf/lib/pic\libg.a(lib_a-mallocr.o)
                0x0000000000060fa0                __malloc_max_total_mem
 .bss.__malloc_top_pad
                0x0000000000060fa8        0x8 d:/devkitpro/devkita64/bin/../lib/gcc/aarch64-none-elf/10.1.0/../../../../aarch64-none-elf/lib/pic\libg.a(lib_a-mallocr.o)
                0x0000000000060fa8                __malloc_top_pad
 .bss.__malloc_recursive_mutex
                0x0000000000060fb0        0xc d:/devkitpro/devkita64/bin/../lib/gcc/aarch64-none-elf/10.1.0/../../../../aarch64-none-elf/lib/pic\libg.a(lib_a-mlock.o)
 .bss.alloced.0
                0x0000000000060fbc        0x4 d:/devkitpro/devkita64/bin/../lib/gcc/aarch64-none-elf/10.1.0/../../../../aarch64-none-elf/lib/pic\libg.a(lib_a-setenv_r.o)
 .bss.__atexit_recursive_mutex
                0x0000000000060fc0        0xc d:/devkitpro/devkita64/bin/../lib/gcc/aarch64-none-elf/10.1.0/../../../../aarch64-none-elf/lib/pic\libg.a(lib_a-__call_atexit.o)
                0x0000000000060fc0                __atexit_recursive_mutex
 *fill*         0x0000000000060fcc        0x4 
 .bss.initial_env
                0x0000000000060fd0        0x8 d:/devkitpro/devkita64/bin/../lib/gcc/aarch64-none-elf/10.1.0/../../../../aarch64-none-elf/lib/pic\libg.a(lib_a-environ.o)
 .bss.__env_recursive_mutex
                0x0000000000060fd8        0xc d:/devkitpro/devkita64/bin/../lib/gcc/aarch64-none-elf/10.1.0/../../../../aarch64-none-elf/lib/pic\libg.a(lib_a-envlock.o)
 *fill*         0x0000000000060fe4        0x4 
 .bss._PathLocale
                0x0000000000060fe8        0x8 d:/devkitpro/devkita64/bin/../lib/gcc/aarch64-none-elf/10.1.0/../../../../aarch64-none-elf/lib/pic\libg.a(lib_a-locale.o)
                0x0000000000060fe8                _PathLocale
 .bss.global_locale_string
                0x0000000000060ff0       0xe7 d:/devkitpro/devkita64/bin/../lib/gcc/aarch64-none-elf/10.1.0/../../../../aarch64-none-elf/lib/pic\libg.a(lib_a-locale.o)
 *fill*         0x00000000000610d7        0x1 
 .bss.new_categories.1
                0x00000000000610d8       0xe0 d:/devkitpro/devkita64/bin/../lib/gcc/aarch64-none-elf/10.1.0/../../../../aarch64-none-elf/lib/pic\libg.a(lib_a-locale.o)
 .bss.saved_categories.0
                0x00000000000611b8       0xe0 d:/devkitpro/devkita64/bin/../lib/gcc/aarch64-none-elf/10.1.0/../../../../aarch64-none-elf/lib/pic\libg.a(lib_a-locale.o)
 .bss.__sfp_recursive_mutex
                0x0000000000061298        0xc d:/devkitpro/devkita64/bin/../lib/gcc/aarch64-none-elf/10.1.0/../../../../aarch64-none-elf/lib/pic\libg.a(lib_a-findfp.o)
 *fill*         0x00000000000612a4        0x4 
 .bss.__sinit_recursive_mutex
                0x00000000000612a8        0xc d:/devkitpro/devkita64/bin/../lib/gcc/aarch64-none-elf/10.1.0/../../../../aarch64-none-elf/lib/pic\libg.a(lib_a-findfp.o)
 *fill*         0x00000000000612b4        0x4 
 .bss.heap_start.0
                0x00000000000612b8        0x8 d:/devkitpro/devkita64/bin/../lib/gcc/aarch64-none-elf/10.1.0/../../../../aarch64-none-elf/lib/pic\libsysbase.a(sbrk.o)
 .bss.fake_heap_end
                0x00000000000612c0        0x8 d:/devkitpro/devkita64/bin/../lib/gcc/aarch64-none-elf/10.1.0/../../../../aarch64-none-elf/lib/pic\libsysbase.a(malloc_vars.o)
                0x00000000000612c0                fake_heap_end
 .bss.fake_heap_start
                0x00000000000612c8        0x8 d:/devkitpro/devkita64/bin/../lib/gcc/aarch64-none-elf/10.1.0/../../../../aarch64-none-elf/lib/pic\libsysbase.a(malloc_vars.o)
                0x00000000000612c8                fake_heap_start
 .bss.temp_cwd  0x00000000000612d0      0x400 d:/devkitpro/devkita64/bin/../lib/gcc/aarch64-none-elf/10.1.0/../../../../aarch64-none-elf/lib/pic\libsysbase.a(chdir.o)
 .bss.__hndl_lock
                0x00000000000616d0        0x4 d:/devkitpro/devkita64/bin/../lib/gcc/aarch64-none-elf/10.1.0/../../../../aarch64-none-elf/lib/pic\libsysbase.a(handle_manager.o)
 *(COMMON)
 *fill*         0x00000000000616d4        0x4 
 COMMON         0x00000000000616d8        0xc D:/githubRepos/code-mod-example/code-mod-framework/lib/libnx_min/nx/lib\libnx_min.a(argv.o)
                0x00000000000616d8                __system_argv
                0x00000000000616e0                __system_argc
 *fill*         0x00000000000616e4        0xc 
 COMMON         0x00000000000616f0      0x348 D:/githubRepos/code-mod-example/code-mod-framework/lib/libnx_min/nx/lib\libnx_min.a(init.o)
                0x00000000000616f0                __nx_exceptiondump
                0x0000000000061a30                __stack_top
                0x0000000000061a38                . = ALIGN (0x8)
                0x0000000000061a38                __tls_start = .
                0x0000000000065e40                . = (. + (SIZEOF (.tdata) + SIZEOF (.tbss)))
 *fill*         0x0000000000061a38     0x4408 
                0x0000000000065e40                __tls_end = .
                0x0000000000065e40                __bss_end__ = .
                0x0000000000065e40                __end__ = ABSOLUTE (.)
                0x0000000000066000                . = ALIGN (0x1000)
                0x0000000000066000                __argdata__ = ABSOLUTE (.)

/DISCARD/
 *(.group .comment .note)

.stab
 *(.stab)

.stabstr
 *(.stabstr)

.stab.excl
 *(.stab.excl)

.stab.exclstr
 *(.stab.exclstr)

.stab.index
 *(.stab.index)

.stab.indexstr
 *(.stab.indexstr)

.debug
 *(.debug)

.line
 *(.line)

.debug_srcinfo
 *(.debug_srcinfo)

.debug_sfnames
 *(.debug_sfnames)

.debug_aranges
 *(.debug_aranges)

.debug_pubnames
 *(.debug_pubnames)

.debug_info
 *(.debug_info)

.debug_abbrev
 *(.debug_abbrev)

.debug_line
 *(.debug_line)

.debug_frame
 *(.debug_frame)

.debug_str
 *(.debug_str)

.debug_loc
 *(.debug_loc)

.debug_macinfo
 *(.debug_macinfo)
LOAD d:/devkitpro/devkita64/bin/../lib/gcc/aarch64-none-elf/10.1.0/pic/crti.o
LOAD d:/devkitpro/devkita64/bin/../lib/gcc/aarch64-none-elf/10.1.0/pic/crtbegin.o
LOAD main.o
LOAD acmd_wrapper.o
LOAD saltysd_helper.o
LOAD l2c_imports.o
LOAD lua_bind_hash.o
LOAD raygun_printer.o
LOAD D:/githubRepos/code-mod-example/code-mod-framework/lib/libnx_min/nx/lib\libnx_min.a
LOAD d:/devkitpro/devkita64/bin/../lib/gcc/aarch64-none-elf/10.1.0/../../../../aarch64-none-elf/lib/pic\libstdc++.a
LOAD d:/devkitpro/devkita64/bin/../lib/gcc/aarch64-none-elf/10.1.0/../../../../aarch64-none-elf/lib/pic\libm.a
START GROUP
LOAD d:/devkitpro/devkita64/bin/../lib/gcc/aarch64-none-elf/10.1.0/pic\libgcc.a
LOAD d:/devkitpro/devkita64/bin/../lib/gcc/aarch64-none-elf/10.1.0/../../../../aarch64-none-elf/lib/pic\libg.a
LOAD d:/devkitpro/devkita64/bin/../lib/gcc/aarch64-none-elf/10.1.0/../../../../aarch64-none-elf/lib/pic\libc.a
LOAD d:/devkitpro/devkita64/bin/../lib/gcc/aarch64-none-elf/10.1.0/../../../../aarch64-none-elf/lib/pic\libsysbase.a
END GROUP
LOAD d:/devkitpro/devkita64/bin/../lib/gcc/aarch64-none-elf/10.1.0/pic/crtend.o
LOAD d:/devkitpro/devkita64/bin/../lib/gcc/aarch64-none-elf/10.1.0/pic/crtn.o
OUTPUT(D:/githubRepos/code-mod-example/code-mod-example.elf elf64-littleaarch64)
